Archive member included because of file (symbol)

/usr/local/popcorn/aarch64/lib/libc.a(__libc_start_main.o)
                              /usr/local/popcorn/aarch64/lib/crt1.o (__libc_start_main)
/usr/local/popcorn/aarch64/lib/libc.a(exit.o)
                              /usr/local/popcorn/aarch64/lib/libc.a(__libc_start_main.o) (exit)
/usr/local/popcorn/aarch64/lib/libc.a(libc.o)
                              /usr/local/popcorn/aarch64/lib/libc.a(__libc_start_main.o) (__hwcap)
/usr/local/popcorn/aarch64/lib/libc.a(printf.o)
                              pierre.o (printf)
/usr/local/popcorn/aarch64/lib/libc.a(stdout.o)
                              /usr/local/popcorn/aarch64/lib/libc.a(printf.o) (stdout)
/usr/local/popcorn/aarch64/lib/libc.a(vfprintf.o)
                              /usr/local/popcorn/aarch64/lib/libc.a(printf.o) (vfprintf)
/usr/local/popcorn/aarch64/lib/libc.a(memchr.o)
                              /usr/local/popcorn/aarch64/lib/libc.a(vfprintf.o) (memchr)
/usr/local/popcorn/aarch64/lib/libc.a(memset.o)
                              /usr/local/popcorn/aarch64/lib/libc.a(__libc_start_main.o) (memset)
/usr/local/popcorn/aarch64/lib/libc.a(__environ.o)
                              /usr/local/popcorn/aarch64/lib/libc.a(__libc_start_main.o) (__environ)
/usr/local/popcorn/aarch64/lib/libc.a(__init_tls.o)
                              /usr/local/popcorn/aarch64/lib/libc.a(__libc_start_main.o) (__init_tls)
/usr/local/popcorn/aarch64/lib/libc.a(__errno_location.o)
                              /usr/local/popcorn/aarch64/lib/libc.a(vfprintf.o) (__errno_location)
/usr/local/popcorn/aarch64/lib/libc.a(strerror.o)
                              /usr/local/popcorn/aarch64/lib/libc.a(vfprintf.o) (strerror)
/usr/local/popcorn/aarch64/lib/libc.a(_Exit.o)
                              /usr/local/popcorn/aarch64/lib/libc.a(exit.o) (_Exit)
/usr/local/popcorn/aarch64/lib/libc.a(__lctrans.o)
                              /usr/local/popcorn/aarch64/lib/libc.a(strerror.o) (__lctrans)
/usr/local/popcorn/aarch64/lib/libc.a(__fpclassifyl.o)
                              /usr/local/popcorn/aarch64/lib/libc.a(vfprintf.o) (__fpclassifyl)
/usr/local/popcorn/aarch64/lib/libc.a(__signbitl.o)
                              /usr/local/popcorn/aarch64/lib/libc.a(vfprintf.o) (__signbitl)
/usr/local/popcorn/aarch64/lib/libc.a(frexpl.o)
                              /usr/local/popcorn/aarch64/lib/libc.a(vfprintf.o) (frexpl)
/usr/local/popcorn/aarch64/lib/libc.a(wctomb.o)
                              /usr/local/popcorn/aarch64/lib/libc.a(vfprintf.o) (wctomb)
/usr/local/popcorn/aarch64/lib/libc.a(__lockfile.o)
                              /usr/local/popcorn/aarch64/lib/libc.a(vfprintf.o) (__lockfile)
/usr/local/popcorn/aarch64/lib/libc.a(__stdio_close.o)
                              /usr/local/popcorn/aarch64/lib/libc.a(stdout.o) (__stdio_close)
/usr/local/popcorn/aarch64/lib/libc.a(__stdio_seek.o)
                              /usr/local/popcorn/aarch64/lib/libc.a(stdout.o) (__stdio_seek)
/usr/local/popcorn/aarch64/lib/libc.a(__stdout_write.o)
                              /usr/local/popcorn/aarch64/lib/libc.a(stdout.o) (__stdout_write)
/usr/local/popcorn/aarch64/lib/libc.a(fwrite.o)
                              /usr/local/popcorn/aarch64/lib/libc.a(vfprintf.o) (__fwritex)
/usr/local/popcorn/aarch64/lib/libc.a(memcpy.o)
                              /usr/local/popcorn/aarch64/lib/libc.a(__init_tls.o) (memcpy)
/usr/local/popcorn/aarch64/lib/libc.a(__set_thread_area.o)
                              /usr/local/popcorn/aarch64/lib/libc.a(__init_tls.o) (__set_thread_area)
/usr/local/popcorn/aarch64/lib/libc.a(__wait.o)
                              /usr/local/popcorn/aarch64/lib/libc.a(__lockfile.o) (__wait)
/usr/local/popcorn/aarch64/lib/libc.a(syscall_ret.o)
                              /usr/local/popcorn/aarch64/lib/libc.a(__stdio_close.o) (__syscall_ret)
/usr/local/popcorn/aarch64/lib/libc.a(wcrtomb.o)
                              /usr/local/popcorn/aarch64/lib/libc.a(wctomb.o) (wcrtomb)
/usr/local/popcorn/aarch64/lib/libc.a(__stdio_write.o)
                              /usr/local/popcorn/aarch64/lib/libc.a(__stdout_write.o) (__stdio_write)
/usr/local/popcorn/aarch64/lib/libc.a(__towrite.o)
                              /usr/local/popcorn/aarch64/lib/libc.a(fwrite.o) (__towrite)
/usr/local/popcorn/aarch64/lib/libc.a(__syscall_cp.o)
                              /usr/local/popcorn/aarch64/lib/libc.a(__stdio_write.o) (__syscall_cp)
/usr/local/popcorn/aarch64/lib/libc.a(pthread_cleanup_push.o)
                              /usr/local/popcorn/aarch64/lib/libc.a(__stdio_write.o) (_pthread_cleanup_pop)
/usr/local/popcorn/aarch64/lib/libc.a(syscall.o)
                              /usr/local/popcorn/aarch64/lib/libc.a(__syscall_cp.o) (__syscall)
/usr/local/popcorn/aarch64/lib/libc.a(__stdio_exit.o)
                              /usr/local/popcorn/aarch64/lib/libc.a(__towrite.o) (__stdio_exit_needed)
/usr/local/popcorn/aarch64/lib/libc.a(__lock.o)
                              /usr/local/popcorn/aarch64/lib/libc.a(__stdio_exit.o) (__lock)
/usr/local/popcorn/aarch64/lib/libmigrate.a(migrate.o)
                              pierre.o (__cyg_profile_func_enter)
/usr/local/popcorn/aarch64/lib/libstack-transform.a(userspace.o)
                              /usr/local/popcorn/aarch64/lib/libmigrate.a(migrate.o) (st_userspace_rewrite)
/usr/local/popcorn/aarch64/lib/libstack-transform.a(init.o)
                              /usr/local/popcorn/aarch64/lib/libstack-transform.a(userspace.o) (st_destroy)
/usr/local/popcorn/aarch64/lib/libstack-transform.a(rewrite.o)
                              /usr/local/popcorn/aarch64/lib/libstack-transform.a(userspace.o) (st_rewrite_stack)
/usr/local/popcorn/aarch64/lib/libstack-transform.a(unwind.o)
                              /usr/local/popcorn/aarch64/lib/libstack-transform.a(rewrite.o) (bootstrap_first_frame)
/usr/local/popcorn/aarch64/lib/libstack-transform.a(util.o)
                              /usr/local/popcorn/aarch64/lib/libstack-transform.a(rewrite.o) (get_function_address)
/usr/local/popcorn/aarch64/lib/libstack-transform.a(properties.o)
                              /usr/local/popcorn/aarch64/lib/libstack-transform.a(util.o) (properties_aarch64)
/usr/local/popcorn/aarch64/lib/libstack-transform.a(regs.o)
                              /usr/local/popcorn/aarch64/lib/libstack-transform.a(util.o) (regs_aarch64)
/usr/local/popcorn/aarch64/lib/libstack-transform.a(properties.o)
                              /usr/local/popcorn/aarch64/lib/libstack-transform.a(util.o) (properties_x86_64)
/usr/local/popcorn/aarch64/lib/libstack-transform.a(regs.o)
                              /usr/local/popcorn/aarch64/lib/libstack-transform.a(util.o) (regs_x86_64)
/usr/local/popcorn/aarch64/lib/libstack-transform.a(data.o)
                              /usr/local/popcorn/aarch64/lib/libstack-transform.a(rewrite.o) (get_savedfbp_loc)
/usr/local/popcorn/aarch64/lib/libelf.a(begin.o)
                              /usr/local/popcorn/aarch64/lib/libstack-transform.a(init.o) (elf_begin)
/usr/local/popcorn/aarch64/lib/libelf.a(end.o)
                              /usr/local/popcorn/aarch64/lib/libstack-transform.a(init.o) (elf_end)
/usr/local/popcorn/aarch64/lib/libelf.a(getdata.o)
                              /usr/local/popcorn/aarch64/lib/libstack-transform.a(util.o) (elf_getdata)
/usr/local/popcorn/aarch64/lib/libelf.a(getident.o)
                              /usr/local/popcorn/aarch64/lib/libstack-transform.a(init.o) (elf_getident)
/usr/local/popcorn/aarch64/lib/libelf.a(nextscn.o)
                              /usr/local/popcorn/aarch64/lib/libstack-transform.a(util.o) (elf_nextscn)
/usr/local/popcorn/aarch64/lib/libelf.a(strptr.o)
                              /usr/local/popcorn/aarch64/lib/libstack-transform.a(util.o) (elf_strptr)
/usr/local/popcorn/aarch64/lib/libelf.a(version.o)
                              /usr/local/popcorn/aarch64/lib/libstack-transform.a(userspace.o) (elf_version)
/usr/local/popcorn/aarch64/lib/libelf.a(32.getehdr.o)
                              /usr/local/popcorn/aarch64/lib/libstack-transform.a(init.o) (elf64_getehdr)
/usr/local/popcorn/aarch64/lib/libelf.a(32.xlatetof.o)
                              /usr/local/popcorn/aarch64/lib/libelf.a(getdata.o) (_elf32_xltsize)
/usr/local/popcorn/aarch64/lib/libelf.a(cook.o)
                              /usr/local/popcorn/aarch64/lib/libelf.a(getdata.o) (_elf_xlatetom)
/usr/local/popcorn/aarch64/lib/libelf.a(data.o)
                              /usr/local/popcorn/aarch64/lib/libelf.a(strptr.o) (_elf_sanity_checks)
/usr/local/popcorn/aarch64/lib/libelf.a(input.o)
                              /usr/local/popcorn/aarch64/lib/libelf.a(begin.o) (_elf_read)
/usr/local/popcorn/aarch64/lib/libelf.a(x.elfext.o)
                              /usr/local/popcorn/aarch64/lib/libstack-transform.a(util.o) (elf_getshdrstrndx)
/usr/local/popcorn/aarch64/lib/libelf.a(64.xlatetof.o)
                              /usr/local/popcorn/aarch64/lib/libelf.a(getdata.o) (_elf64_xltsize)
/usr/local/popcorn/aarch64/lib/libelf.a(gelfshdr.o)
                              /usr/local/popcorn/aarch64/lib/libstack-transform.a(util.o) (gelf_getshdr)
/usr/local/popcorn/aarch64/lib/libelf.a(swap64.o)
                              /usr/local/popcorn/aarch64/lib/libelf.a(64.xlatetof.o) (_elf_load_u64L)
/usr/local/popcorn/aarch64/lib/libelf.a(verdef_32_tof.o)
                              /usr/local/popcorn/aarch64/lib/libelf.a(32.xlatetof.o) (_elf_verdef_32L11_tof)
/usr/local/popcorn/aarch64/lib/libelf.a(verdef_32_tom.o)
                              /usr/local/popcorn/aarch64/lib/libelf.a(32.xlatetof.o) (_elf_verdef_32L11_tom)
/usr/local/popcorn/aarch64/lib/libelf.a(verdef_64_tof.o)
                              /usr/local/popcorn/aarch64/lib/libelf.a(64.xlatetof.o) (_elf_verdef_64L11_tof)
/usr/local/popcorn/aarch64/lib/libelf.a(verdef_64_tom.o)
                              /usr/local/popcorn/aarch64/lib/libelf.a(64.xlatetof.o) (_elf_verdef_64L11_tom)
/usr/local/popcorn/aarch64/lib/libelf.a(getscn.o)
                              /usr/local/popcorn/aarch64/lib/libelf.a(strptr.o) (elf_getscn)
/usr/local/popcorn/aarch64/lib/libelf.a(newscn.o)
                              /usr/local/popcorn/aarch64/lib/libelf.a(x.elfext.o) (_elf_first_scn)
/usr/local/popcorn/aarch64/lib/libelf.a(32.fsize.o)
                              /usr/local/popcorn/aarch64/lib/libelf.a(cook.o) (_elf_fmsize)
/usr/local/popcorn/aarch64/lib/libc.a(sysconf.o)
                              /usr/local/popcorn/aarch64/lib/libstack-transform.a(userspace.o) (sysconf)
/usr/local/popcorn/aarch64/lib/libc.a(__stack_chk_fail.o)
                              /usr/local/popcorn/aarch64/lib/libelf.a(getdata.o) (__stack_chk_fail)
/usr/local/popcorn/aarch64/lib/libc.a(getenv.o)
                              /usr/local/popcorn/aarch64/lib/libstack-transform.a(userspace.o) (getenv)
/usr/local/popcorn/aarch64/lib/libc.a(assert.o)
                              /usr/local/popcorn/aarch64/lib/libmigrate.a(migrate.o) (__assert_fail)
/usr/local/popcorn/aarch64/lib/libc.a(open.o)
                              /usr/local/popcorn/aarch64/lib/libstack-transform.a(init.o) (open)
/usr/local/popcorn/aarch64/lib/libc.a(prctl.o)
                              /usr/local/popcorn/aarch64/lib/libmigrate.a(migrate.o) (prctl)
/usr/local/popcorn/aarch64/lib/libc.a(sysinfo.o)
                              /usr/local/popcorn/aarch64/lib/libc.a(sysconf.o) (__lsysinfo)
/usr/local/popcorn/aarch64/lib/libc.a(calloc.o)
                              /usr/local/popcorn/aarch64/lib/libstack-transform.a(regs.o) (calloc)
/usr/local/popcorn/aarch64/lib/libc.a(lite_malloc.o)
                              /usr/local/popcorn/aarch64/lib/libstack-transform.a(userspace.o) (malloc)
/usr/local/popcorn/aarch64/lib/libc.a(malloc.o)
                              /usr/local/popcorn/aarch64/lib/libstack-transform.a(userspace.o) (free)
/usr/local/popcorn/aarch64/lib/libc.a(getrlimit.o)
                              /usr/local/popcorn/aarch64/lib/libstack-transform.a(userspace.o) (getrlimit)
/usr/local/popcorn/aarch64/lib/libc.a(madvise.o)
                              /usr/local/popcorn/aarch64/lib/libc.a(malloc.o) (__madvise)
/usr/local/popcorn/aarch64/lib/libc.a(mmap.o)
                              /usr/local/popcorn/aarch64/lib/libc.a(malloc.o) (__mmap)
/usr/local/popcorn/aarch64/lib/libc.a(mremap.o)
                              /usr/local/popcorn/aarch64/lib/libc.a(malloc.o) (__mremap)
/usr/local/popcorn/aarch64/lib/libc.a(munmap.o)
                              /usr/local/popcorn/aarch64/lib/libc.a(malloc.o) (__munmap)
/usr/local/popcorn/aarch64/lib/libc.a(fclose.o)
                              /usr/local/popcorn/aarch64/lib/libmigrate.a(migrate.o) (fclose)
/usr/local/popcorn/aarch64/lib/libc.a(fflush.o)
                              /usr/local/popcorn/aarch64/lib/libc.a(assert.o) (fflush)
/usr/local/popcorn/aarch64/lib/libc.a(fgets.o)
                              /usr/local/popcorn/aarch64/lib/libmigrate.a(migrate.o) (fgets)
/usr/local/popcorn/aarch64/lib/libc.a(fopen.o)
                              /usr/local/popcorn/aarch64/lib/libmigrate.a(migrate.o) (fopen)
/usr/local/popcorn/aarch64/lib/libc.a(fprintf.o)
                              /usr/local/popcorn/aarch64/lib/libstack-transform.a(rewrite.o) (fprintf)
/usr/local/popcorn/aarch64/lib/libc.a(getline.o)
                              /usr/local/popcorn/aarch64/lib/libstack-transform.a(userspace.o) (getline)
/usr/local/popcorn/aarch64/lib/libc.a(snprintf.o)
                              /usr/local/popcorn/aarch64/lib/libstack-transform.a(userspace.o) (snprintf)
/usr/local/popcorn/aarch64/lib/libc.a(sscanf.o)
                              /usr/local/popcorn/aarch64/lib/libstack-transform.a(userspace.o) (sscanf)
/usr/local/popcorn/aarch64/lib/libc.a(stderr.o)
                              /usr/local/popcorn/aarch64/lib/libmigrate.a(migrate.o) (stderr)
/usr/local/popcorn/aarch64/lib/libc.a(vsnprintf.o)
                              /usr/local/popcorn/aarch64/lib/libc.a(snprintf.o) (vsnprintf)
/usr/local/popcorn/aarch64/lib/libc.a(vsscanf.o)
                              /usr/local/popcorn/aarch64/lib/libc.a(sscanf.o) (vsscanf)
/usr/local/popcorn/aarch64/lib/libc.a(strtol.o)
                              /usr/local/popcorn/aarch64/lib/libelf.a(version.o) (strtol)
/usr/local/popcorn/aarch64/lib/libc.a(memcmp.o)
                              /usr/local/popcorn/aarch64/lib/libelf.a(begin.o) (memcmp)
/usr/local/popcorn/aarch64/lib/libc.a(strchr.o)
                              /usr/local/popcorn/aarch64/lib/libc.a(getenv.o) (strchr)
/usr/local/popcorn/aarch64/lib/libc.a(strchrnul.o)
                              /usr/local/popcorn/aarch64/lib/libc.a(strchr.o) (__strchrnul)
/usr/local/popcorn/aarch64/lib/libc.a(strcmp.o)
                              /usr/local/popcorn/aarch64/lib/libstack-transform.a(util.o) (strcmp)
/usr/local/popcorn/aarch64/lib/libc.a(strlen.o)
                              /usr/local/popcorn/aarch64/lib/libc.a(getenv.o) (strlen)
/usr/local/popcorn/aarch64/lib/libc.a(strncmp.o)
                              /usr/local/popcorn/aarch64/lib/libstack-transform.a(userspace.o) (strncmp)
/usr/local/popcorn/aarch64/lib/libc.a(strstr.o)
                              /usr/local/popcorn/aarch64/lib/libmigrate.a(migrate.o) (strstr)
/usr/local/popcorn/aarch64/lib/libc.a(pthread_attr_get.o)
                              /usr/local/popcorn/aarch64/lib/libstack-transform.a(userspace.o) (pthread_attr_getstack)
/usr/local/popcorn/aarch64/lib/libc.a(pthread_getattr_np.o)
                              /usr/local/popcorn/aarch64/lib/libstack-transform.a(userspace.o) (pthread_getattr_np)
/usr/local/popcorn/aarch64/lib/libc.a(pthread_getspecific.o)
                              /usr/local/popcorn/aarch64/lib/libstack-transform.a(userspace.o) (pthread_getspecific)
/usr/local/popcorn/aarch64/lib/libc.a(pthread_key_create.o)
                              /usr/local/popcorn/aarch64/lib/libstack-transform.a(userspace.o) (pthread_key_create)
/usr/local/popcorn/aarch64/lib/libc.a(pthread_migrate.o)
                              /usr/local/popcorn/aarch64/lib/libmigrate.a(migrate.o) (pthread_migrate_args)
/usr/local/popcorn/aarch64/lib/libc.a(pthread_self.o)
                              /usr/local/popcorn/aarch64/lib/libstack-transform.a(userspace.o) (pthread_self)
/usr/local/popcorn/aarch64/lib/libc.a(pthread_setspecific.o)
                              /usr/local/popcorn/aarch64/lib/libstack-transform.a(userspace.o) (pthread_setspecific)
/usr/local/popcorn/aarch64/lib/libc.a(close.o)
                              /usr/local/popcorn/aarch64/lib/libstack-transform.a(init.o) (close)
/usr/local/popcorn/aarch64/lib/libc.a(getpid.o)
                              /usr/local/popcorn/aarch64/lib/libstack-transform.a(userspace.o) (getpid)
/usr/local/popcorn/aarch64/lib/libc.a(lseek.o)
                              /usr/local/popcorn/aarch64/lib/libelf.a(begin.o) (lseek)
/usr/local/popcorn/aarch64/lib/libc.a(read.o)
                              /usr/local/popcorn/aarch64/lib/libelf.a(input.o) (read)
/usr/local/popcorn/aarch64/lib/libc.a(abort.o)
                              /usr/local/popcorn/aarch64/lib/libc.a(assert.o) (abort)
/usr/local/popcorn/aarch64/lib/libc.a(intscan.o)
                              /usr/local/popcorn/aarch64/lib/libc.a(strtol.o) (__intscan)
/usr/local/popcorn/aarch64/lib/libc.a(shgetc.o)
                              /usr/local/popcorn/aarch64/lib/libc.a(intscan.o) (__shgetc)
/usr/local/popcorn/aarch64/lib/libc.a(__brk.o)
                              /usr/local/popcorn/aarch64/lib/libc.a(lite_malloc.o) (__brk)
/usr/local/popcorn/aarch64/lib/libc.a(raise.o)
                              /usr/local/popcorn/aarch64/lib/libc.a(abort.o) (raise)
/usr/local/popcorn/aarch64/lib/libc.a(__fdopen.o)
                              /usr/local/popcorn/aarch64/lib/libc.a(fopen.o) (__fdopen)
/usr/local/popcorn/aarch64/lib/libc.a(__fmodeflags.o)
                              /usr/local/popcorn/aarch64/lib/libc.a(fopen.o) (__fmodeflags)
/usr/local/popcorn/aarch64/lib/libc.a(__stdio_read.o)
                              /usr/local/popcorn/aarch64/lib/libc.a(__fdopen.o) (__stdio_read)
/usr/local/popcorn/aarch64/lib/libc.a(__string_read.o)
                              /usr/local/popcorn/aarch64/lib/libc.a(vsscanf.o) (__string_read)
/usr/local/popcorn/aarch64/lib/libc.a(__uflow.o)
                              /usr/local/popcorn/aarch64/lib/libc.a(fgets.o) (__uflow)
/usr/local/popcorn/aarch64/lib/libc.a(getdelim.o)
                              /usr/local/popcorn/aarch64/lib/libc.a(getline.o) (getdelim)
/usr/local/popcorn/aarch64/lib/libc.a(vfscanf.o)
                              /usr/local/popcorn/aarch64/lib/libc.a(vsscanf.o) (vfscanf)
/usr/local/popcorn/aarch64/lib/libc.a(floatscan.o)
                              /usr/local/popcorn/aarch64/lib/libc.a(vfscanf.o) (__floatscan)
/usr/local/popcorn/aarch64/lib/libc.a(copysignl.o)
                              /usr/local/popcorn/aarch64/lib/libc.a(floatscan.o) (copysignl)
/usr/local/popcorn/aarch64/lib/libc.a(fabs.o)
                              /usr/local/popcorn/aarch64/lib/libc.a(floatscan.o) (fabs)
/usr/local/popcorn/aarch64/lib/libc.a(fmodl.o)
                              /usr/local/popcorn/aarch64/lib/libc.a(floatscan.o) (fmodl)
/usr/local/popcorn/aarch64/lib/libc.a(scalbn.o)
                              /usr/local/popcorn/aarch64/lib/libc.a(floatscan.o) (scalbn)
/usr/local/popcorn/aarch64/lib/libc.a(scalbnl.o)
                              /usr/local/popcorn/aarch64/lib/libc.a(floatscan.o) (scalbnl)
/usr/local/popcorn/aarch64/lib/libc.a(mbrtowc.o)
                              /usr/local/popcorn/aarch64/lib/libc.a(vfscanf.o) (mbrtowc)
/usr/local/popcorn/aarch64/lib/libc.a(mbsinit.o)
                              /usr/local/popcorn/aarch64/lib/libc.a(vfscanf.o) (mbsinit)
/usr/local/popcorn/aarch64/lib/libc.a(block.o)
                              /usr/local/popcorn/aarch64/lib/libc.a(raise.o) (__block_app_sigs)
/usr/local/popcorn/aarch64/lib/libc.a(__toread.o)
                              /usr/local/popcorn/aarch64/lib/libc.a(__uflow.o) (__toread)
/usr/local/popcorn/aarch64/lib/libc.a(internal.o)
                              /usr/local/popcorn/aarch64/lib/libc.a(mbrtowc.o) (__fsmu8)
/usr/lib/gcc-cross/aarch64-linux-gnu/5/libgcc.a(addtf3.o)
                              /usr/local/popcorn/aarch64/lib/libc.a(vfprintf.o) (__addtf3)
/usr/lib/gcc-cross/aarch64-linux-gnu/5/libgcc.a(divtf3.o)
                              /usr/local/popcorn/aarch64/lib/libc.a(floatscan.o) (__divtf3)
/usr/lib/gcc-cross/aarch64-linux-gnu/5/libgcc.a(eqtf2.o)
                              /usr/local/popcorn/aarch64/lib/libc.a(vfprintf.o) (__eqtf2)
/usr/lib/gcc-cross/aarch64-linux-gnu/5/libgcc.a(getf2.o)
                              /usr/local/popcorn/aarch64/lib/libc.a(fmodl.o) (__gttf2)
/usr/lib/gcc-cross/aarch64-linux-gnu/5/libgcc.a(letf2.o)
                              /usr/local/popcorn/aarch64/lib/libc.a(floatscan.o) (__lttf2)
/usr/lib/gcc-cross/aarch64-linux-gnu/5/libgcc.a(multf3.o)
                              /usr/local/popcorn/aarch64/lib/libc.a(vfprintf.o) (__multf3)
/usr/lib/gcc-cross/aarch64-linux-gnu/5/libgcc.a(subtf3.o)
                              /usr/local/popcorn/aarch64/lib/libc.a(vfprintf.o) (__subtf3)
/usr/lib/gcc-cross/aarch64-linux-gnu/5/libgcc.a(unordtf2.o)
                              /usr/local/popcorn/aarch64/lib/libc.a(vfprintf.o) (__unordtf2)
/usr/lib/gcc-cross/aarch64-linux-gnu/5/libgcc.a(fixtfsi.o)
                              /usr/local/popcorn/aarch64/lib/libc.a(vfprintf.o) (__fixtfsi)
/usr/lib/gcc-cross/aarch64-linux-gnu/5/libgcc.a(fixunstfsi.o)
                              /usr/local/popcorn/aarch64/lib/libc.a(vfprintf.o) (__fixunstfsi)
/usr/lib/gcc-cross/aarch64-linux-gnu/5/libgcc.a(floatsitf.o)
                              /usr/local/popcorn/aarch64/lib/libc.a(vfprintf.o) (__floatsitf)
/usr/lib/gcc-cross/aarch64-linux-gnu/5/libgcc.a(floatunsitf.o)
                              /usr/local/popcorn/aarch64/lib/libc.a(vfprintf.o) (__floatunsitf)
/usr/lib/gcc-cross/aarch64-linux-gnu/5/libgcc.a(extendsftf2.o)
                              /usr/local/popcorn/aarch64/lib/libc.a(floatscan.o) (__extendsftf2)
/usr/lib/gcc-cross/aarch64-linux-gnu/5/libgcc.a(extenddftf2.o)
                              /usr/local/popcorn/aarch64/lib/libc.a(vfprintf.o) (__extenddftf2)
/usr/lib/gcc-cross/aarch64-linux-gnu/5/libgcc.a(trunctfsf2.o)
                              /usr/local/popcorn/aarch64/lib/libc.a(vfscanf.o) (__trunctfsf2)
/usr/lib/gcc-cross/aarch64-linux-gnu/5/libgcc.a(trunctfdf2.o)
                              /usr/local/popcorn/aarch64/lib/libc.a(vfscanf.o) (__trunctfdf2)
/usr/lib/gcc-cross/aarch64-linux-gnu/5/libgcc.a(sfp-exceptions.o)
                              /usr/lib/gcc-cross/aarch64-linux-gnu/5/libgcc.a(addtf3.o) (__sfp_handle_exceptions)

Allocating common symbols
Common symbol       size              file

__libc              0x68              /usr/local/popcorn/aarch64/lib/libc.a(libc.o)
__static_tls        0x20              /usr/local/popcorn/aarch64/lib/libc.a(__init_tls.o)
__hwcap             0x8               /usr/local/popcorn/aarch64/lib/libc.a(libc.o)
__stack_chk_guard   0x8               /usr/local/popcorn/aarch64/lib/libc.a(__stack_chk_fail.o)
__sysinfo           0x8               /usr/local/popcorn/aarch64/lib/libc.a(libc.o)

Discarded input sections

 .note.GNU-stack
                0x0000000000000000        0x0 0x1 pierre.o
 .note.GNU-stack
                0x0000000000000000        0x0 0x1 test.o
 .note.GNU-stack
                0x0000000000000000        0x0 0x1 /usr/local/popcorn/aarch64/lib/crt1.o
 .note.GNU-stack
                0x0000000000000000        0x0 0x1 /usr/local/popcorn/aarch64/lib/libc.a(__libc_start_main.o)
 .note.GNU-stack
                0x0000000000000000        0x0 0x1 /usr/local/popcorn/aarch64/lib/libc.a(exit.o)
 .note.GNU-stack
                0x0000000000000000        0x0 0x1 /usr/local/popcorn/aarch64/lib/libc.a(libc.o)
 .note.GNU-stack
                0x0000000000000000        0x0 0x1 /usr/local/popcorn/aarch64/lib/libc.a(printf.o)
 .note.GNU-stack
                0x0000000000000000        0x0 0x1 /usr/local/popcorn/aarch64/lib/libc.a(stdout.o)
 .note.GNU-stack
                0x0000000000000000        0x0 0x1 /usr/local/popcorn/aarch64/lib/libc.a(vfprintf.o)
 .note.GNU-stack
                0x0000000000000000        0x0 0x1 /usr/local/popcorn/aarch64/lib/libc.a(memchr.o)
 .note.GNU-stack
                0x0000000000000000        0x0 0x1 /usr/local/popcorn/aarch64/lib/libc.a(memset.o)
 .note.GNU-stack
                0x0000000000000000        0x0 0x1 /usr/local/popcorn/aarch64/lib/libc.a(__environ.o)
 .note.GNU-stack
                0x0000000000000000        0x0 0x1 /usr/local/popcorn/aarch64/lib/libc.a(__init_tls.o)
 .note.GNU-stack
                0x0000000000000000        0x0 0x1 /usr/local/popcorn/aarch64/lib/libc.a(__errno_location.o)
 .note.GNU-stack
                0x0000000000000000        0x0 0x1 /usr/local/popcorn/aarch64/lib/libc.a(strerror.o)
 .note.GNU-stack
                0x0000000000000000        0x0 0x1 /usr/local/popcorn/aarch64/lib/libc.a(_Exit.o)
 .note.GNU-stack
                0x0000000000000000        0x0 0x1 /usr/local/popcorn/aarch64/lib/libc.a(__lctrans.o)
 .note.GNU-stack
                0x0000000000000000        0x0 0x1 /usr/local/popcorn/aarch64/lib/libc.a(__fpclassifyl.o)
 .note.GNU-stack
                0x0000000000000000        0x0 0x1 /usr/local/popcorn/aarch64/lib/libc.a(__signbitl.o)
 .note.GNU-stack
                0x0000000000000000        0x0 0x1 /usr/local/popcorn/aarch64/lib/libc.a(frexpl.o)
 .note.GNU-stack
                0x0000000000000000        0x0 0x1 /usr/local/popcorn/aarch64/lib/libc.a(wctomb.o)
 .note.GNU-stack
                0x0000000000000000        0x0 0x1 /usr/local/popcorn/aarch64/lib/libc.a(__lockfile.o)
 .note.GNU-stack
                0x0000000000000000        0x0 0x1 /usr/local/popcorn/aarch64/lib/libc.a(__stdio_close.o)
 .note.GNU-stack
                0x0000000000000000        0x0 0x1 /usr/local/popcorn/aarch64/lib/libc.a(__stdio_seek.o)
 .note.GNU-stack
                0x0000000000000000        0x0 0x1 /usr/local/popcorn/aarch64/lib/libc.a(__stdout_write.o)
 .note.GNU-stack
                0x0000000000000000        0x0 0x1 /usr/local/popcorn/aarch64/lib/libc.a(fwrite.o)
 .note.GNU-stack
                0x0000000000000000        0x0 0x1 /usr/local/popcorn/aarch64/lib/libc.a(memcpy.o)
 .note.GNU-stack
                0x0000000000000000        0x0 0x1 /usr/local/popcorn/aarch64/lib/libc.a(__set_thread_area.o)
 .note.GNU-stack
                0x0000000000000000        0x0 0x1 /usr/local/popcorn/aarch64/lib/libc.a(__wait.o)
 .note.GNU-stack
                0x0000000000000000        0x0 0x1 /usr/local/popcorn/aarch64/lib/libc.a(syscall_ret.o)
 .note.GNU-stack
                0x0000000000000000        0x0 0x1 /usr/local/popcorn/aarch64/lib/libc.a(wcrtomb.o)
 .note.GNU-stack
                0x0000000000000000        0x0 0x1 /usr/local/popcorn/aarch64/lib/libc.a(__stdio_write.o)
 .note.GNU-stack
                0x0000000000000000        0x0 0x1 /usr/local/popcorn/aarch64/lib/libc.a(__towrite.o)
 .note.GNU-stack
                0x0000000000000000        0x0 0x1 /usr/local/popcorn/aarch64/lib/libc.a(__syscall_cp.o)
 .note.GNU-stack
                0x0000000000000000        0x0 0x1 /usr/local/popcorn/aarch64/lib/libc.a(pthread_cleanup_push.o)
 .note.GNU-stack
                0x0000000000000000        0x0 0x1 /usr/local/popcorn/aarch64/lib/libc.a(syscall.o)
 .note.GNU-stack
                0x0000000000000000        0x0 0x1 /usr/local/popcorn/aarch64/lib/libc.a(__stdio_exit.o)
 .note.GNU-stack
                0x0000000000000000        0x0 0x1 /usr/local/popcorn/aarch64/lib/libc.a(__lock.o)
 .note.GNU-stack
                0x0000000000000000        0x0 0x1 /usr/local/popcorn/aarch64/lib/libmigrate.a(migrate.o)
 .note.GNU-stack
                0x0000000000000000        0x0 0x1 /usr/local/popcorn/aarch64/lib/libstack-transform.a(userspace.o)
 .note.GNU-stack
                0x0000000000000000        0x0 0x1 /usr/local/popcorn/aarch64/lib/libstack-transform.a(init.o)
 .note.GNU-stack
                0x0000000000000000        0x0 0x1 /usr/local/popcorn/aarch64/lib/libstack-transform.a(rewrite.o)
 .note.GNU-stack
                0x0000000000000000        0x0 0x1 /usr/local/popcorn/aarch64/lib/libstack-transform.a(unwind.o)
 .note.GNU-stack
                0x0000000000000000        0x0 0x1 /usr/local/popcorn/aarch64/lib/libstack-transform.a(util.o)
 .note.GNU-stack
                0x0000000000000000        0x0 0x1 /usr/local/popcorn/aarch64/lib/libstack-transform.a(properties.o)
 .note.GNU-stack
                0x0000000000000000        0x0 0x1 /usr/local/popcorn/aarch64/lib/libstack-transform.a(regs.o)
 .note.GNU-stack
                0x0000000000000000        0x0 0x1 /usr/local/popcorn/aarch64/lib/libstack-transform.a(properties.o)
 .note.GNU-stack
                0x0000000000000000        0x0 0x1 /usr/local/popcorn/aarch64/lib/libstack-transform.a(regs.o)
 .note.GNU-stack
                0x0000000000000000        0x0 0x1 /usr/local/popcorn/aarch64/lib/libstack-transform.a(data.o)
 .note.GNU-stack
                0x0000000000000000        0x0 0x1 /usr/local/popcorn/aarch64/lib/libelf.a(begin.o)
 .note.GNU-stack
                0x0000000000000000        0x0 0x1 /usr/local/popcorn/aarch64/lib/libelf.a(end.o)
 .note.GNU-stack
                0x0000000000000000        0x0 0x1 /usr/local/popcorn/aarch64/lib/libelf.a(getdata.o)
 .note.GNU-stack
                0x0000000000000000        0x0 0x1 /usr/local/popcorn/aarch64/lib/libelf.a(getident.o)
 .note.GNU-stack
                0x0000000000000000        0x0 0x1 /usr/local/popcorn/aarch64/lib/libelf.a(nextscn.o)
 .note.GNU-stack
                0x0000000000000000        0x0 0x1 /usr/local/popcorn/aarch64/lib/libelf.a(strptr.o)
 .note.GNU-stack
                0x0000000000000000        0x0 0x1 /usr/local/popcorn/aarch64/lib/libelf.a(version.o)
 .note.GNU-stack
                0x0000000000000000        0x0 0x1 /usr/local/popcorn/aarch64/lib/libelf.a(32.getehdr.o)
 .note.GNU-stack
                0x0000000000000000        0x0 0x1 /usr/local/popcorn/aarch64/lib/libelf.a(32.xlatetof.o)
 .note.GNU-stack
                0x0000000000000000        0x0 0x1 /usr/local/popcorn/aarch64/lib/libelf.a(cook.o)
 .note.GNU-stack
                0x0000000000000000        0x0 0x1 /usr/local/popcorn/aarch64/lib/libelf.a(data.o)
 .note.GNU-stack
                0x0000000000000000        0x0 0x1 /usr/local/popcorn/aarch64/lib/libelf.a(input.o)
 .note.GNU-stack
                0x0000000000000000        0x0 0x1 /usr/local/popcorn/aarch64/lib/libelf.a(x.elfext.o)
 .note.GNU-stack
                0x0000000000000000        0x0 0x1 /usr/local/popcorn/aarch64/lib/libelf.a(64.xlatetof.o)
 .note.GNU-stack
                0x0000000000000000        0x0 0x1 /usr/local/popcorn/aarch64/lib/libelf.a(gelfshdr.o)
 .note.GNU-stack
                0x0000000000000000        0x0 0x1 /usr/local/popcorn/aarch64/lib/libelf.a(swap64.o)
 .note.GNU-stack
                0x0000000000000000        0x0 0x1 /usr/local/popcorn/aarch64/lib/libelf.a(verdef_32_tof.o)
 .note.GNU-stack
                0x0000000000000000        0x0 0x1 /usr/local/popcorn/aarch64/lib/libelf.a(verdef_32_tom.o)
 .note.GNU-stack
                0x0000000000000000        0x0 0x1 /usr/local/popcorn/aarch64/lib/libelf.a(verdef_64_tof.o)
 .note.GNU-stack
                0x0000000000000000        0x0 0x1 /usr/local/popcorn/aarch64/lib/libelf.a(verdef_64_tom.o)
 .note.GNU-stack
                0x0000000000000000        0x0 0x1 /usr/local/popcorn/aarch64/lib/libelf.a(getscn.o)
 .note.GNU-stack
                0x0000000000000000        0x0 0x1 /usr/local/popcorn/aarch64/lib/libelf.a(newscn.o)
 .note.GNU-stack
                0x0000000000000000        0x0 0x1 /usr/local/popcorn/aarch64/lib/libelf.a(32.fsize.o)
 .note.GNU-stack
                0x0000000000000000        0x0 0x1 /usr/local/popcorn/aarch64/lib/libc.a(sysconf.o)
 .note.GNU-stack
                0x0000000000000000        0x0 0x1 /usr/local/popcorn/aarch64/lib/libc.a(__stack_chk_fail.o)
 .note.GNU-stack
                0x0000000000000000        0x0 0x1 /usr/local/popcorn/aarch64/lib/libc.a(getenv.o)
 .note.GNU-stack
                0x0000000000000000        0x0 0x1 /usr/local/popcorn/aarch64/lib/libc.a(assert.o)
 .note.GNU-stack
                0x0000000000000000        0x0 0x1 /usr/local/popcorn/aarch64/lib/libc.a(open.o)
 .note.GNU-stack
                0x0000000000000000        0x0 0x1 /usr/local/popcorn/aarch64/lib/libc.a(prctl.o)
 .note.GNU-stack
                0x0000000000000000        0x0 0x1 /usr/local/popcorn/aarch64/lib/libc.a(sysinfo.o)
 .note.GNU-stack
                0x0000000000000000        0x0 0x1 /usr/local/popcorn/aarch64/lib/libc.a(calloc.o)
 .note.GNU-stack
                0x0000000000000000        0x0 0x1 /usr/local/popcorn/aarch64/lib/libc.a(lite_malloc.o)
 .note.GNU-stack
                0x0000000000000000        0x0 0x1 /usr/local/popcorn/aarch64/lib/libc.a(malloc.o)
 .note.GNU-stack
                0x0000000000000000        0x0 0x1 /usr/local/popcorn/aarch64/lib/libc.a(getrlimit.o)
 .note.GNU-stack
                0x0000000000000000        0x0 0x1 /usr/local/popcorn/aarch64/lib/libc.a(madvise.o)
 .note.GNU-stack
                0x0000000000000000        0x0 0x1 /usr/local/popcorn/aarch64/lib/libc.a(mmap.o)
 .note.GNU-stack
                0x0000000000000000        0x0 0x1 /usr/local/popcorn/aarch64/lib/libc.a(mremap.o)
 .note.GNU-stack
                0x0000000000000000        0x0 0x1 /usr/local/popcorn/aarch64/lib/libc.a(munmap.o)
 .note.GNU-stack
                0x0000000000000000        0x0 0x1 /usr/local/popcorn/aarch64/lib/libc.a(fclose.o)
 .note.GNU-stack
                0x0000000000000000        0x0 0x1 /usr/local/popcorn/aarch64/lib/libc.a(fflush.o)
 .note.GNU-stack
                0x0000000000000000        0x0 0x1 /usr/local/popcorn/aarch64/lib/libc.a(fgets.o)
 .note.GNU-stack
                0x0000000000000000        0x0 0x1 /usr/local/popcorn/aarch64/lib/libc.a(fopen.o)
 .note.GNU-stack
                0x0000000000000000        0x0 0x1 /usr/local/popcorn/aarch64/lib/libc.a(fprintf.o)
 .note.GNU-stack
                0x0000000000000000        0x0 0x1 /usr/local/popcorn/aarch64/lib/libc.a(getline.o)
 .note.GNU-stack
                0x0000000000000000        0x0 0x1 /usr/local/popcorn/aarch64/lib/libc.a(snprintf.o)
 .note.GNU-stack
                0x0000000000000000        0x0 0x1 /usr/local/popcorn/aarch64/lib/libc.a(sscanf.o)
 .note.GNU-stack
                0x0000000000000000        0x0 0x1 /usr/local/popcorn/aarch64/lib/libc.a(stderr.o)
 .note.GNU-stack
                0x0000000000000000        0x0 0x1 /usr/local/popcorn/aarch64/lib/libc.a(vsnprintf.o)
 .note.GNU-stack
                0x0000000000000000        0x0 0x1 /usr/local/popcorn/aarch64/lib/libc.a(vsscanf.o)
 .note.GNU-stack
                0x0000000000000000        0x0 0x1 /usr/local/popcorn/aarch64/lib/libc.a(strtol.o)
 .note.GNU-stack
                0x0000000000000000        0x0 0x1 /usr/local/popcorn/aarch64/lib/libc.a(memcmp.o)
 .note.GNU-stack
                0x0000000000000000        0x0 0x1 /usr/local/popcorn/aarch64/lib/libc.a(strchr.o)
 .note.GNU-stack
                0x0000000000000000        0x0 0x1 /usr/local/popcorn/aarch64/lib/libc.a(strchrnul.o)
 .note.GNU-stack
                0x0000000000000000        0x0 0x1 /usr/local/popcorn/aarch64/lib/libc.a(strcmp.o)
 .note.GNU-stack
                0x0000000000000000        0x0 0x1 /usr/local/popcorn/aarch64/lib/libc.a(strlen.o)
 .note.GNU-stack
                0x0000000000000000        0x0 0x1 /usr/local/popcorn/aarch64/lib/libc.a(strncmp.o)
 .note.GNU-stack
                0x0000000000000000        0x0 0x1 /usr/local/popcorn/aarch64/lib/libc.a(strstr.o)
 .note.GNU-stack
                0x0000000000000000        0x0 0x1 /usr/local/popcorn/aarch64/lib/libc.a(pthread_attr_get.o)
 .note.GNU-stack
                0x0000000000000000        0x0 0x1 /usr/local/popcorn/aarch64/lib/libc.a(pthread_getattr_np.o)
 .note.GNU-stack
                0x0000000000000000        0x0 0x1 /usr/local/popcorn/aarch64/lib/libc.a(pthread_getspecific.o)
 .note.GNU-stack
                0x0000000000000000        0x0 0x1 /usr/local/popcorn/aarch64/lib/libc.a(pthread_key_create.o)
 .note.GNU-stack
                0x0000000000000000        0x0 0x1 /usr/local/popcorn/aarch64/lib/libc.a(pthread_migrate.o)
 .note.GNU-stack
                0x0000000000000000        0x0 0x1 /usr/local/popcorn/aarch64/lib/libc.a(pthread_self.o)
 .note.GNU-stack
                0x0000000000000000        0x0 0x1 /usr/local/popcorn/aarch64/lib/libc.a(pthread_setspecific.o)
 .note.GNU-stack
                0x0000000000000000        0x0 0x1 /usr/local/popcorn/aarch64/lib/libc.a(close.o)
 .note.GNU-stack
                0x0000000000000000        0x0 0x1 /usr/local/popcorn/aarch64/lib/libc.a(getpid.o)
 .note.GNU-stack
                0x0000000000000000        0x0 0x1 /usr/local/popcorn/aarch64/lib/libc.a(lseek.o)
 .note.GNU-stack
                0x0000000000000000        0x0 0x1 /usr/local/popcorn/aarch64/lib/libc.a(read.o)
 .note.GNU-stack
                0x0000000000000000        0x0 0x1 /usr/local/popcorn/aarch64/lib/libc.a(abort.o)
 .note.GNU-stack
                0x0000000000000000        0x0 0x1 /usr/local/popcorn/aarch64/lib/libc.a(intscan.o)
 .note.GNU-stack
                0x0000000000000000        0x0 0x1 /usr/local/popcorn/aarch64/lib/libc.a(shgetc.o)
 .note.GNU-stack
                0x0000000000000000        0x0 0x1 /usr/local/popcorn/aarch64/lib/libc.a(__brk.o)
 .note.GNU-stack
                0x0000000000000000        0x0 0x1 /usr/local/popcorn/aarch64/lib/libc.a(raise.o)
 .note.GNU-stack
                0x0000000000000000        0x0 0x1 /usr/local/popcorn/aarch64/lib/libc.a(__fdopen.o)
 .note.GNU-stack
                0x0000000000000000        0x0 0x1 /usr/local/popcorn/aarch64/lib/libc.a(__fmodeflags.o)
 .note.GNU-stack
                0x0000000000000000        0x0 0x1 /usr/local/popcorn/aarch64/lib/libc.a(__stdio_read.o)
 .note.GNU-stack
                0x0000000000000000        0x0 0x1 /usr/local/popcorn/aarch64/lib/libc.a(__string_read.o)
 .note.GNU-stack
                0x0000000000000000        0x0 0x1 /usr/local/popcorn/aarch64/lib/libc.a(__uflow.o)
 .note.GNU-stack
                0x0000000000000000        0x0 0x1 /usr/local/popcorn/aarch64/lib/libc.a(getdelim.o)
 .note.GNU-stack
                0x0000000000000000        0x0 0x1 /usr/local/popcorn/aarch64/lib/libc.a(vfscanf.o)
 .note.GNU-stack
                0x0000000000000000        0x0 0x1 /usr/local/popcorn/aarch64/lib/libc.a(floatscan.o)
 .note.GNU-stack
                0x0000000000000000        0x0 0x1 /usr/local/popcorn/aarch64/lib/libc.a(copysignl.o)
 .note.GNU-stack
                0x0000000000000000        0x0 0x1 /usr/local/popcorn/aarch64/lib/libc.a(fabs.o)
 .note.GNU-stack
                0x0000000000000000        0x0 0x1 /usr/local/popcorn/aarch64/lib/libc.a(fmodl.o)
 .note.GNU-stack
                0x0000000000000000        0x0 0x1 /usr/local/popcorn/aarch64/lib/libc.a(scalbn.o)
 .note.GNU-stack
                0x0000000000000000        0x0 0x1 /usr/local/popcorn/aarch64/lib/libc.a(scalbnl.o)
 .note.GNU-stack
                0x0000000000000000        0x0 0x1 /usr/local/popcorn/aarch64/lib/libc.a(mbrtowc.o)
 .note.GNU-stack
                0x0000000000000000        0x0 0x1 /usr/local/popcorn/aarch64/lib/libc.a(mbsinit.o)
 .note.GNU-stack
                0x0000000000000000        0x0 0x1 /usr/local/popcorn/aarch64/lib/libc.a(block.o)
 .note.GNU-stack
                0x0000000000000000        0x0 0x1 /usr/local/popcorn/aarch64/lib/libc.a(__toread.o)
 .note.GNU-stack
                0x0000000000000000        0x0 0x1 /usr/local/popcorn/aarch64/lib/libc.a(internal.o)
 .note.GNU-stack
                0x0000000000000000        0x0 0x1 /usr/lib/gcc-cross/aarch64-linux-gnu/5/libgcc.a(addtf3.o)
 .note.GNU-stack
                0x0000000000000000        0x0 0x1 /usr/lib/gcc-cross/aarch64-linux-gnu/5/libgcc.a(divtf3.o)
 .note.GNU-stack
                0x0000000000000000        0x0 0x1 /usr/lib/gcc-cross/aarch64-linux-gnu/5/libgcc.a(eqtf2.o)
 .note.GNU-stack
                0x0000000000000000        0x0 0x1 /usr/lib/gcc-cross/aarch64-linux-gnu/5/libgcc.a(getf2.o)
 .note.GNU-stack
                0x0000000000000000        0x0 0x1 /usr/lib/gcc-cross/aarch64-linux-gnu/5/libgcc.a(letf2.o)
 .note.GNU-stack
                0x0000000000000000        0x0 0x1 /usr/lib/gcc-cross/aarch64-linux-gnu/5/libgcc.a(multf3.o)
 .note.GNU-stack
                0x0000000000000000        0x0 0x1 /usr/lib/gcc-cross/aarch64-linux-gnu/5/libgcc.a(subtf3.o)
 .note.GNU-stack
                0x0000000000000000        0x0 0x1 /usr/lib/gcc-cross/aarch64-linux-gnu/5/libgcc.a(unordtf2.o)
 .note.GNU-stack
                0x0000000000000000        0x0 0x1 /usr/lib/gcc-cross/aarch64-linux-gnu/5/libgcc.a(fixtfsi.o)
 .note.GNU-stack
                0x0000000000000000        0x0 0x1 /usr/lib/gcc-cross/aarch64-linux-gnu/5/libgcc.a(fixunstfsi.o)
 .note.GNU-stack
                0x0000000000000000        0x0 0x1 /usr/lib/gcc-cross/aarch64-linux-gnu/5/libgcc.a(floatsitf.o)
 .note.GNU-stack
                0x0000000000000000        0x0 0x1 /usr/lib/gcc-cross/aarch64-linux-gnu/5/libgcc.a(floatunsitf.o)
 .note.GNU-stack
                0x0000000000000000        0x0 0x1 /usr/lib/gcc-cross/aarch64-linux-gnu/5/libgcc.a(extendsftf2.o)
 .note.GNU-stack
                0x0000000000000000        0x0 0x1 /usr/lib/gcc-cross/aarch64-linux-gnu/5/libgcc.a(extenddftf2.o)
 .note.GNU-stack
                0x0000000000000000        0x0 0x1 /usr/lib/gcc-cross/aarch64-linux-gnu/5/libgcc.a(trunctfsf2.o)
 .note.GNU-stack
                0x0000000000000000        0x0 0x1 /usr/lib/gcc-cross/aarch64-linux-gnu/5/libgcc.a(trunctfdf2.o)
 .note.GNU-stack
                0x0000000000000000        0x0 0x1 /usr/lib/gcc-cross/aarch64-linux-gnu/5/libgcc.a(sfp-exceptions.o)

Memory map

 ** file header
                0x0000000000400000       0x40
 ** segment headers
                0x0000000000400040      0x118

.note.gnu.build-id
                0x0000000000400158       0x24
 ** note header
                0x0000000000400158       0x10
 ** zero fill   0x0000000000400168       0x14

.text           0x0000000000400180    0x21ab4
 .text.exit     0x0000000000400180       0x5c 0x4 /usr/local/popcorn/aarch64/lib/libc.a(exit.o)
                0x0000000000400180                exit
 .text          0x00000000004001dc        0x0 0x4 pierre.o
 .text.f        0x00000000004001dc       0x60 0x4 pierre.o
                0x00000000004001dc                f
 .text.main     0x000000000040023c       0x6c 0x4 pierre.o
                0x000000000040023c                main
 .text          0x00000000004002a8        0x0 0x4 test.o
 .text.my_function
                0x00000000004002a8       0x6c 0x4 test.o
                0x00000000004002a8                my_function
 .text          0x0000000000400314       0x1c 0x4 /usr/local/popcorn/aarch64/lib/crt1.o
                0x0000000000400314                _start
 .text._start_c
                0x0000000000400330       0x34 0x4 /usr/local/popcorn/aarch64/lib/crt1.o
                0x0000000000400330                _start_c
 .text          0x0000000000400364        0x0 0x4 /usr/local/popcorn/aarch64/lib/libc.a(__libc_start_main.o)
 .text.dummy1   0x0000000000400364        0x4 0x4 /usr/local/popcorn/aarch64/lib/libc.a(__libc_start_main.o)
 .text.__libc_start_main
                0x0000000000400368      0x1e4 0x4 /usr/local/popcorn/aarch64/lib/libc.a(__libc_start_main.o)
                0x0000000000400368                __libc_start_main
 .text.dummy    0x000000000040054c        0x4 0x4 /usr/local/popcorn/aarch64/lib/libc.a(__libc_start_main.o)
                0x000000000040054c                _init
 .text          0x0000000000400550        0x0 0x4 /usr/local/popcorn/aarch64/lib/libc.a(exit.o)
 .text.dummy    0x0000000000400550        0x4 0x4 /usr/local/popcorn/aarch64/lib/libc.a(exit.o)
                0x0000000000400550                __funcs_on_exit
                0x0000000000400550                _fini
 .text          0x0000000000400554        0x0 0x4 /usr/local/popcorn/aarch64/lib/libc.a(libc.o)
 .text          0x0000000000400554        0x0 0x4 /usr/local/popcorn/aarch64/lib/libc.a(printf.o)
 .text.printf   0x0000000000400554       0x88 0x4 /usr/local/popcorn/aarch64/lib/libc.a(printf.o)
                0x0000000000400554                printf
 .text          0x00000000004005dc        0x0 0x4 /usr/local/popcorn/aarch64/lib/libc.a(stdout.o)
 .text          0x00000000004005dc        0x0 0x4 /usr/local/popcorn/aarch64/lib/libc.a(vfprintf.o)
 .text.vfprintf
                0x00000000004005dc      0x170 0x4 /usr/local/popcorn/aarch64/lib/libc.a(vfprintf.o)
                0x00000000004005dc                vfprintf
 .text.printf_core
                0x000000000040074c     0x1a98 0x4 /usr/local/popcorn/aarch64/lib/libc.a(vfprintf.o)
 .text.pop_arg  0x00000000004021e4      0x260 0x4 /usr/local/popcorn/aarch64/lib/libc.a(vfprintf.o)
 .text.pad      0x0000000000402444       0xcc 0x4 /usr/local/popcorn/aarch64/lib/libc.a(vfprintf.o)
 .text          0x0000000000402510        0x0 0x4 /usr/local/popcorn/aarch64/lib/libc.a(memchr.o)
 .text.memchr   0x0000000000402510       0xb0 0x4 /usr/local/popcorn/aarch64/lib/libc.a(memchr.o)
                0x0000000000402510                memchr
 .text          0x00000000004025c0        0x0 0x4 /usr/local/popcorn/aarch64/lib/libc.a(memset.o)
 .text.memset   0x00000000004025c0      0x160 0x4 /usr/local/popcorn/aarch64/lib/libc.a(memset.o)
                0x00000000004025c0                memset
 .text          0x0000000000402720        0x0 0x4 /usr/local/popcorn/aarch64/lib/libc.a(__environ.o)
 .text          0x0000000000402720        0x0 0x4 /usr/local/popcorn/aarch64/lib/libc.a(__init_tls.o)
 .text.__copy_tls
                0x0000000000402720       0x78 0x4 /usr/local/popcorn/aarch64/lib/libc.a(__init_tls.o)
                0x0000000000402720                __copy_tls
 .text.__init_tls
                0x0000000000402798      0x174 0x4 /usr/local/popcorn/aarch64/lib/libc.a(__init_tls.o)
                0x0000000000402798                __init_tls
 .text          0x000000000040290c        0x0 0x4 /usr/local/popcorn/aarch64/lib/libc.a(__errno_location.o)
 .text.__errno_location
                0x000000000040290c        0xc 0x4 /usr/local/popcorn/aarch64/lib/libc.a(__errno_location.o)
                0x000000000040290c                __errno_location
 .text          0x0000000000402918        0x0 0x4 /usr/local/popcorn/aarch64/lib/libc.a(strerror.o)
 .text.__strerror_l
                0x0000000000402918       0x60 0x4 /usr/local/popcorn/aarch64/lib/libc.a(strerror.o)
                0x0000000000402918                __strerror_l
                0x0000000000402918                strerror_l
 .text.strerror
                0x0000000000402978        0xc 0x4 /usr/local/popcorn/aarch64/lib/libc.a(strerror.o)
                0x0000000000402978                strerror
 .text          0x0000000000402984        0x0 0x4 /usr/local/popcorn/aarch64/lib/libc.a(_Exit.o)
 .text._Exit    0x0000000000402984       0x20 0x4 /usr/local/popcorn/aarch64/lib/libc.a(_Exit.o)
                0x0000000000402984                _Exit
 .text          0x00000000004029a4        0x0 0x4 /usr/local/popcorn/aarch64/lib/libc.a(__lctrans.o)
 .text.dummy    0x00000000004029a4        0x4 0x4 /usr/local/popcorn/aarch64/lib/libc.a(__lctrans.o)
                0x00000000004029a4                __lctrans_impl
 .text.__lctrans
                0x00000000004029a8        0x4 0x4 /usr/local/popcorn/aarch64/lib/libc.a(__lctrans.o)
                0x00000000004029a8                __lctrans
 .text.__lctrans_cur
                0x00000000004029ac       0x10 0x4 /usr/local/popcorn/aarch64/lib/libc.a(__lctrans.o)
                0x00000000004029ac                __lctrans_cur
 .text          0x00000000004029bc        0x0 0x4 /usr/local/popcorn/aarch64/lib/libc.a(__fpclassifyl.o)
 .text.__fpclassifyl
                0x00000000004029bc       0x54 0x4 /usr/local/popcorn/aarch64/lib/libc.a(__fpclassifyl.o)
                0x00000000004029bc                __fpclassifyl
 .text          0x0000000000402a10        0x0 0x4 /usr/local/popcorn/aarch64/lib/libc.a(__signbitl.o)
 .text.__signbitl
                0x0000000000402a10       0x18 0x4 /usr/local/popcorn/aarch64/lib/libc.a(__signbitl.o)
                0x0000000000402a10                __signbitl
 .text          0x0000000000402a28        0x0 0x4 /usr/local/popcorn/aarch64/lib/libc.a(frexpl.o)
 .text.frexpl   0x0000000000402a28       0xb4 0x4 /usr/local/popcorn/aarch64/lib/libc.a(frexpl.o)
                0x0000000000402a28                frexpl
 .text          0x0000000000402adc        0x0 0x4 /usr/local/popcorn/aarch64/lib/libc.a(wctomb.o)
 .text.wctomb   0x0000000000402adc       0x24 0x4 /usr/local/popcorn/aarch64/lib/libc.a(wctomb.o)
                0x0000000000402adc                wctomb
 .text          0x0000000000402b00        0x0 0x4 /usr/local/popcorn/aarch64/lib/libc.a(__lockfile.o)
 .text.__lockfile
                0x0000000000402b00       0xb4 0x4 /usr/local/popcorn/aarch64/lib/libc.a(__lockfile.o)
                0x0000000000402b00                __lockfile
 .text.__unlockfile
                0x0000000000402bb4       0x1c 0x4 /usr/local/popcorn/aarch64/lib/libc.a(__lockfile.o)
                0x0000000000402bb4                __unlockfile
 .text          0x0000000000402bd0        0x0 0x4 /usr/local/popcorn/aarch64/lib/libc.a(__stdio_close.o)
 .text.dummy    0x0000000000402bd0        0x4 0x4 /usr/local/popcorn/aarch64/lib/libc.a(__stdio_close.o)
                0x0000000000402bd0                __aio_close
 .text.__stdio_close
                0x0000000000402bd4       0x28 0x4 /usr/local/popcorn/aarch64/lib/libc.a(__stdio_close.o)
                0x0000000000402bd4                __stdio_close
 .text          0x0000000000402bfc        0x0 0x4 /usr/local/popcorn/aarch64/lib/libc.a(__stdio_seek.o)
 .text.__stdio_seek
                0x0000000000402bfc       0x14 0x4 /usr/local/popcorn/aarch64/lib/libc.a(__stdio_seek.o)
                0x0000000000402bfc                __stdio_seek
 .text          0x0000000000402c10        0x0 0x4 /usr/local/popcorn/aarch64/lib/libc.a(__stdout_write.o)
 .text.__stdout_write
                0x0000000000402c10       0x68 0x4 /usr/local/popcorn/aarch64/lib/libc.a(__stdout_write.o)
                0x0000000000402c10                __stdout_write
 .text          0x0000000000402c78        0x0 0x4 /usr/local/popcorn/aarch64/lib/libc.a(fwrite.o)
 .text.__fwritex
                0x0000000000402c78      0x114 0x4 /usr/local/popcorn/aarch64/lib/libc.a(fwrite.o)
                0x0000000000402c78                __fwritex
 .text.fwrite   0x0000000000402d8c       0x98 0x4 /usr/local/popcorn/aarch64/lib/libc.a(fwrite.o)
                0x0000000000402d8c                fwrite
                0x0000000000402d8c                fwrite_unlocked
 .text          0x0000000000402e24        0x0 0x4 /usr/local/popcorn/aarch64/lib/libc.a(memcpy.o)
 .text.memcpy   0x0000000000402e24      0x3b8 0x4 /usr/local/popcorn/aarch64/lib/libc.a(memcpy.o)
                0x0000000000402e24                memcpy
 .text          0x00000000004031dc        0xc 0x4 /usr/local/popcorn/aarch64/lib/libc.a(__set_thread_area.o)
                0x00000000004031dc                __set_thread_area
 .text          0x00000000004031e8        0x0 0x4 /usr/local/popcorn/aarch64/lib/libc.a(__wait.o)
 .text.__wait   0x00000000004031e8       0x7c 0x4 /usr/local/popcorn/aarch64/lib/libc.a(__wait.o)
                0x00000000004031e8                __wait
 .text          0x0000000000403264        0x0 0x4 /usr/local/popcorn/aarch64/lib/libc.a(syscall_ret.o)
 .text.__syscall_ret
                0x0000000000403264       0x30 0x4 /usr/local/popcorn/aarch64/lib/libc.a(syscall_ret.o)
                0x0000000000403264                __syscall_ret
 .text          0x0000000000403294        0x0 0x4 /usr/local/popcorn/aarch64/lib/libc.a(wcrtomb.o)
 .text.wcrtomb  0x0000000000403294       0xf0 0x4 /usr/local/popcorn/aarch64/lib/libc.a(wcrtomb.o)
                0x0000000000403294                wcrtomb
 .text          0x0000000000403384        0x0 0x4 /usr/local/popcorn/aarch64/lib/libc.a(__stdio_write.o)
 .text.__stdio_write
                0x0000000000403384      0x15c 0x4 /usr/local/popcorn/aarch64/lib/libc.a(__stdio_write.o)
                0x0000000000403384                __stdio_write
 .text.cleanup  0x00000000004034e0       0x10 0x4 /usr/local/popcorn/aarch64/lib/libc.a(__stdio_write.o)
 .text          0x00000000004034f0        0x0 0x4 /usr/local/popcorn/aarch64/lib/libc.a(__towrite.o)
 .text.__towrite
                0x00000000004034f0       0x50 0x4 /usr/local/popcorn/aarch64/lib/libc.a(__towrite.o)
                0x00000000004034f0                __towrite
 .text.__towrite_needs_stdio_exit
                0x0000000000403540        0x4 0x4 /usr/local/popcorn/aarch64/lib/libc.a(__towrite.o)
                0x0000000000403540                __towrite_needs_stdio_exit
 .text          0x0000000000403544        0x0 0x4 /usr/local/popcorn/aarch64/lib/libc.a(__syscall_cp.o)
 .text.sccp     0x0000000000403544        0x4 0x4 /usr/local/popcorn/aarch64/lib/libc.a(__syscall_cp.o)
                0x0000000000403544                __syscall_cp_c
 .text.__syscall_cp
                0x0000000000403548        0x4 0x4 /usr/local/popcorn/aarch64/lib/libc.a(__syscall_cp.o)
                0x0000000000403548                __syscall_cp
 .text          0x000000000040354c        0x0 0x4 /usr/local/popcorn/aarch64/lib/libc.a(pthread_cleanup_push.o)
 .text.dummy    0x000000000040354c        0x4 0x4 /usr/local/popcorn/aarch64/lib/libc.a(pthread_cleanup_push.o)
                0x000000000040354c                __do_cleanup_pop
                0x000000000040354c                __do_cleanup_push
 .text._pthread_cleanup_push
                0x0000000000403550        0x8 0x4 /usr/local/popcorn/aarch64/lib/libc.a(pthread_cleanup_push.o)
                0x0000000000403550                _pthread_cleanup_push
 .text._pthread_cleanup_pop
                0x0000000000403558       0x38 0x4 /usr/local/popcorn/aarch64/lib/libc.a(pthread_cleanup_push.o)
                0x0000000000403558                _pthread_cleanup_pop
 .text          0x0000000000403590       0x28 0x4 /usr/local/popcorn/aarch64/lib/libc.a(syscall.o)
                0x0000000000403590                __syscall
 .text          0x00000000004035b8        0x0 0x4 /usr/local/popcorn/aarch64/lib/libc.a(__stdio_exit.o)
 .text.__stdio_exit
                0x00000000004035b8       0x54 0x4 /usr/local/popcorn/aarch64/lib/libc.a(__stdio_exit.o)
                0x00000000004035b8                __stdio_exit
                0x00000000004035b8                __stdio_exit_needed
 .text.close_file
                0x000000000040360c       0x78 0x4 /usr/local/popcorn/aarch64/lib/libc.a(__stdio_exit.o)
 .text          0x0000000000403684        0x0 0x4 /usr/local/popcorn/aarch64/lib/libc.a(__lock.o)
 .text.__lock   0x0000000000403684       0x84 0x4 /usr/local/popcorn/aarch64/lib/libc.a(__lock.o)
                0x0000000000403684                __lock
 .text.__unlock
                0x0000000000403708       0x20 0x4 /usr/local/popcorn/aarch64/lib/libc.a(__lock.o)
                0x0000000000403708                __unlock
 .text          0x0000000000403728        0x0 0x4 /usr/local/popcorn/aarch64/lib/libmigrate.a(migrate.o)
 .text.__init_cpu_sets
                0x0000000000403728       0xd0 0x4 /usr/local/popcorn/aarch64/lib/libmigrate.a(migrate.o)
 .text.arch_to_cpus
                0x00000000004037f8       0xa8 0x4 /usr/local/popcorn/aarch64/lib/libmigrate.a(migrate.o)
                0x00000000004037f8                arch_to_cpus
 .text.current_arch
                0x00000000004038a0       0x18 0x4 /usr/local/popcorn/aarch64/lib/libmigrate.a(migrate.o)
                0x00000000004038a0                current_arch
 .text.select_arch
                0x00000000004038b8       0x18 0x4 /usr/local/popcorn/aarch64/lib/libmigrate.a(migrate.o)
                0x00000000004038b8                select_arch
 .text.__init_migrate_vdso
                0x00000000004038d0       0x34 0x4 /usr/local/popcorn/aarch64/lib/libmigrate.a(migrate.o)
 .text.check_migrate
                0x0000000000403904       0x38 0x4 /usr/local/popcorn/aarch64/lib/libmigrate.a(migrate.o)
                0x0000000000403904                check_migrate
 .text.do_migrate
                0x000000000040393c       0x24 0x4 /usr/local/popcorn/aarch64/lib/libmigrate.a(migrate.o)
 .text.__migrate_shim_internal
                0x0000000000403960      0x494 0x4 /usr/local/popcorn/aarch64/lib/libmigrate.a(migrate.o)
 .text.migrate  0x0000000000403df4       0x14 0x4 /usr/local/popcorn/aarch64/lib/libmigrate.a(migrate.o)
                0x0000000000403df4                migrate
 .text.register_migrate_callback
                0x0000000000403e08       0x14 0x4 /usr/local/popcorn/aarch64/lib/libmigrate.a(migrate.o)
                0x0000000000403e08                register_migrate_callback
 .text.__cyg_profile_func_enter
                0x0000000000403e1c       0x2c 0x4 /usr/local/popcorn/aarch64/lib/libmigrate.a(migrate.o)
                0x0000000000403e1c                __cyg_profile_func_enter
 .text.__cyg_profile_func_exit
                0x0000000000403e48       0x2c 0x4 /usr/local/popcorn/aarch64/lib/libmigrate.a(migrate.o)
                0x0000000000403e48                __cyg_profile_func_exit
 .text          0x0000000000403e74        0x0 0x4 /usr/local/popcorn/aarch64/lib/libstack-transform.a(userspace.o)
 .text.__st_userspace_ctor
                0x0000000000403e74      0x2cc 0x4 /usr/local/popcorn/aarch64/lib/libstack-transform.a(userspace.o)
                0x0000000000403e74                __st_userspace_ctor
 .text.__st_userspace_dtor
                0x0000000000404140       0x6c 0x4 /usr/local/popcorn/aarch64/lib/libstack-transform.a(userspace.o)
                0x0000000000404140                __st_userspace_dtor
 .text.get_stack_bounds
                0x00000000004041ac       0xd8 0x4 /usr/local/popcorn/aarch64/lib/libstack-transform.a(userspace.o)
                0x00000000004041ac                get_stack_bounds
 .text.st_userspace_rewrite
                0x0000000000404284       0x30 0x4 /usr/local/popcorn/aarch64/lib/libstack-transform.a(userspace.o)
                0x0000000000404284                st_userspace_rewrite
 .text.userspace_rewrite_internal
                0x00000000004042b4      0x144 0x4 /usr/local/popcorn/aarch64/lib/libstack-transform.a(userspace.o)
 .text.st_userspace_rewrite_aarch64
                0x00000000004043f8       0x24 0x4 /usr/local/popcorn/aarch64/lib/libstack-transform.a(userspace.o)
                0x00000000004043f8                st_userspace_rewrite_aarch64
 .text.st_userspace_rewrite_x86_64
                0x000000000040441c       0x24 0x4 /usr/local/popcorn/aarch64/lib/libstack-transform.a(userspace.o)
                0x000000000040441c                st_userspace_rewrite_x86_64
 .text          0x0000000000404440        0x0 0x4 /usr/local/popcorn/aarch64/lib/libstack-transform.a(init.o)
 .text.__st_ctor
                0x0000000000404440        0x4 0x4 /usr/local/popcorn/aarch64/lib/libstack-transform.a(init.o)
 .text.__st_dtor
                0x0000000000404444        0x4 0x4 /usr/local/popcorn/aarch64/lib/libstack-transform.a(init.o)
                0x0000000000404444                __st_dtor
 .text.st_init  0x0000000000404448      0x1e8 0x4 /usr/local/popcorn/aarch64/lib/libstack-transform.a(init.o)
                0x0000000000404448                st_init
 .text.st_destroy
                0x0000000000404630       0x40 0x4 /usr/local/popcorn/aarch64/lib/libstack-transform.a(init.o)
                0x0000000000404630                st_destroy
 .text          0x0000000000404670        0x0 0x4 /usr/local/popcorn/aarch64/lib/libstack-transform.a(rewrite.o)
 .text.st_rewrite_stack
                0x0000000000404670      0xd50 0x4 /usr/local/popcorn/aarch64/lib/libstack-transform.a(rewrite.o)
                0x0000000000404670                st_rewrite_stack
 .text.st_rewrite_ondemand
                0x00000000004053c0       0x2c 0x4 /usr/local/popcorn/aarch64/lib/libstack-transform.a(rewrite.o)
                0x00000000004053c0                st_rewrite_ondemand
 .text.rewrite_val
                0x00000000004053ec      0x244 0x4 /usr/local/popcorn/aarch64/lib/libstack-transform.a(rewrite.o)
 .text          0x0000000000405630        0x0 0x4 /usr/local/popcorn/aarch64/lib/libstack-transform.a(unwind.o)
 .text.first_frame
                0x0000000000405630        0xc 0x4 /usr/local/popcorn/aarch64/lib/libstack-transform.a(unwind.o)
                0x0000000000405630                first_frame
 .text.calculate_cfa
                0x000000000040563c       0x40 0x4 /usr/local/popcorn/aarch64/lib/libstack-transform.a(unwind.o)
                0x000000000040563c                calculate_cfa
 .text.bootstrap_first_frame
                0x000000000040567c       0x94 0x4 /usr/local/popcorn/aarch64/lib/libstack-transform.a(unwind.o)
                0x000000000040567c                bootstrap_first_frame
 .text.bootstrap_first_frame_funcentry
                0x0000000000405710       0x9c 0x4 /usr/local/popcorn/aarch64/lib/libstack-transform.a(unwind.o)
                0x0000000000405710                bootstrap_first_frame_funcentry
 .text.pop_frame
                0x00000000004057ac      0x25c 0x4 /usr/local/popcorn/aarch64/lib/libstack-transform.a(unwind.o)
                0x00000000004057ac                pop_frame
 .text.pop_frame_funcentry
                0x0000000000405a08      0x198 0x4 /usr/local/popcorn/aarch64/lib/libstack-transform.a(unwind.o)
                0x0000000000405a08                pop_frame_funcentry
 .text.get_register_save_loc
                0x0000000000405ba0       0x84 0x4 /usr/local/popcorn/aarch64/lib/libstack-transform.a(unwind.o)
                0x0000000000405ba0                get_register_save_loc
 .text.free_activation
                0x0000000000405c24        0x4 0x4 /usr/local/popcorn/aarch64/lib/libstack-transform.a(unwind.o)
                0x0000000000405c24                free_activation
 .text          0x0000000000405c28        0x0 0x4 /usr/local/popcorn/aarch64/lib/libstack-transform.a(util.o)
 .text.arch_name
                0x0000000000405c28       0x30 0x4 /usr/local/popcorn/aarch64/lib/libstack-transform.a(util.o)
                0x0000000000405c28                arch_name
 .text.get_regops
                0x0000000000405c58       0x28 0x4 /usr/local/popcorn/aarch64/lib/libstack-transform.a(util.o)
                0x0000000000405c58                get_regops
 .text.get_properties
                0x0000000000405c80       0x28 0x4 /usr/local/popcorn/aarch64/lib/libstack-transform.a(util.o)
                0x0000000000405c80                get_properties
 .text.get_section
                0x0000000000405ca8       0xc0 0x4 /usr/local/popcorn/aarch64/lib/libstack-transform.a(util.o)
                0x0000000000405ca8                get_section
 .text.get_num_entries
                0x0000000000405d68       0x58 0x4 /usr/local/popcorn/aarch64/lib/libstack-transform.a(util.o)
                0x0000000000405d68                get_num_entries
 .text.get_section_data
                0x0000000000405dc0       0x3c 0x4 /usr/local/popcorn/aarch64/lib/libstack-transform.a(util.o)
                0x0000000000405dc0                get_section_data
 .text.get_site_by_addr
                0x0000000000405dfc       0xa4 0x4 /usr/local/popcorn/aarch64/lib/libstack-transform.a(util.o)
                0x0000000000405dfc                get_site_by_addr
 .text.get_site_by_id
                0x0000000000405ea0       0x90 0x4 /usr/local/popcorn/aarch64/lib/libstack-transform.a(util.o)
                0x0000000000405ea0                get_site_by_id
 .text.get_unwind_offset_by_addr
                0x0000000000405f30       0xb4 0x4 /usr/local/popcorn/aarch64/lib/libstack-transform.a(util.o)
                0x0000000000405f30                get_unwind_offset_by_addr
 .text.get_function_address
                0x0000000000405fe4       0x88 0x4 /usr/local/popcorn/aarch64/lib/libstack-transform.a(util.o)
                0x0000000000405fe4                get_function_address
 .text          0x000000000040606c        0x0 0x4 /usr/local/popcorn/aarch64/lib/libstack-transform.a(properties.o)
 .text.align_sp_aarch64
                0x000000000040606c       0x2c 0x4 /usr/local/popcorn/aarch64/lib/libstack-transform.a(properties.o)
 .text.is_callee_saved_aarch64
                0x0000000000406098       0x30 0x4 /usr/local/popcorn/aarch64/lib/libstack-transform.a(properties.o)
 .text.callee_reg_size_aarch64
                0x00000000004060c8       0x58 0x4 /usr/local/popcorn/aarch64/lib/libstack-transform.a(properties.o)
 .text          0x0000000000406120        0x0 0x4 /usr/local/popcorn/aarch64/lib/libstack-transform.a(regs.o)
 .text.regset_default_aarch64
                0x0000000000406120       0x2c 0x4 /usr/local/popcorn/aarch64/lib/libstack-transform.a(regs.o)
 .text.regset_init_aarch64
                0x000000000040614c       0x40 0x4 /usr/local/popcorn/aarch64/lib/libstack-transform.a(regs.o)
 .text.regset_free_aarch64
                0x000000000040618c        0x4 0x4 /usr/local/popcorn/aarch64/lib/libstack-transform.a(regs.o)
 .text.regset_clone_aarch64
                0x0000000000406190       0x14 0x4 /usr/local/popcorn/aarch64/lib/libstack-transform.a(regs.o)
 .text.regset_copyin_aarch64
                0x00000000004061a4       0x10 0x4 /usr/local/popcorn/aarch64/lib/libstack-transform.a(regs.o)
 .text.regset_copyout_aarch64
                0x00000000004061b4       0x14 0x4 /usr/local/popcorn/aarch64/lib/libstack-transform.a(regs.o)
 .text.pc_aarch64
                0x00000000004061c8        0x8 0x4 /usr/local/popcorn/aarch64/lib/libstack-transform.a(regs.o)
 .text.sp_aarch64
                0x00000000004061d0        0x8 0x4 /usr/local/popcorn/aarch64/lib/libstack-transform.a(regs.o)
 .text.fbp_aarch64
                0x00000000004061d8        0x8 0x4 /usr/local/popcorn/aarch64/lib/libstack-transform.a(regs.o)
 .text.ra_reg_aarch64
                0x00000000004061e0        0x8 0x4 /usr/local/popcorn/aarch64/lib/libstack-transform.a(regs.o)
 .text.set_pc_aarch64
                0x00000000004061e8        0x8 0x4 /usr/local/popcorn/aarch64/lib/libstack-transform.a(regs.o)
 .text.set_sp_aarch64
                0x00000000004061f0        0x8 0x4 /usr/local/popcorn/aarch64/lib/libstack-transform.a(regs.o)
 .text.set_fbp_aarch64
                0x00000000004061f8        0x8 0x4 /usr/local/popcorn/aarch64/lib/libstack-transform.a(regs.o)
 .text.set_ra_reg_aarch64
                0x0000000000406200        0x8 0x4 /usr/local/popcorn/aarch64/lib/libstack-transform.a(regs.o)
 .text.setup_fbp_aarch64
                0x0000000000406208        0xc 0x4 /usr/local/popcorn/aarch64/lib/libstack-transform.a(regs.o)
 .text.reg_size_aarch64
                0x0000000000406214       0x54 0x4 /usr/local/popcorn/aarch64/lib/libstack-transform.a(regs.o)
 .text.reg_aarch64
                0x0000000000406268      0x344 0x4 /usr/local/popcorn/aarch64/lib/libstack-transform.a(regs.o)
 .text          0x00000000004065ac        0x0 0x4 /usr/local/popcorn/aarch64/lib/libstack-transform.a(properties.o)
 .text.align_sp_x86_64
                0x00000000004065ac       0x14 0x4 /usr/local/popcorn/aarch64/lib/libstack-transform.a(properties.o)
 .text.is_callee_saved_x86_64
                0x00000000004065c0       0x2c 0x4 /usr/local/popcorn/aarch64/lib/libstack-transform.a(properties.o)
 .text.callee_reg_size_x86_64
                0x00000000004065ec       0x54 0x4 /usr/local/popcorn/aarch64/lib/libstack-transform.a(properties.o)
 .text          0x0000000000406640        0x0 0x4 /usr/local/popcorn/aarch64/lib/libstack-transform.a(regs.o)
 .text.regset_default_x86_64
                0x0000000000406640       0x2c 0x4 /usr/local/popcorn/aarch64/lib/libstack-transform.a(regs.o)
 .text.regset_init_x86_64
                0x000000000040666c       0x40 0x4 /usr/local/popcorn/aarch64/lib/libstack-transform.a(regs.o)
 .text.regset_free_x86_64
                0x00000000004066ac        0x4 0x4 /usr/local/popcorn/aarch64/lib/libstack-transform.a(regs.o)
 .text.regset_clone_x86_64
                0x00000000004066b0       0x14 0x4 /usr/local/popcorn/aarch64/lib/libstack-transform.a(regs.o)
 .text.regset_copyin_x86_64
                0x00000000004066c4       0x10 0x4 /usr/local/popcorn/aarch64/lib/libstack-transform.a(regs.o)
 .text.regset_copyout_x86_64
                0x00000000004066d4       0x14 0x4 /usr/local/popcorn/aarch64/lib/libstack-transform.a(regs.o)
 .text.pc_x86_64
                0x00000000004066e8        0x8 0x4 /usr/local/popcorn/aarch64/lib/libstack-transform.a(regs.o)
 .text.sp_x86_64
                0x00000000004066f0        0x8 0x4 /usr/local/popcorn/aarch64/lib/libstack-transform.a(regs.o)
 .text.fbp_x86_64
                0x00000000004066f8        0x8 0x4 /usr/local/popcorn/aarch64/lib/libstack-transform.a(regs.o)
 .text.ra_reg_x86_64
                0x0000000000406700       0x2c 0x4 /usr/local/popcorn/aarch64/lib/libstack-transform.a(regs.o)
 .text.set_pc_x86_64
                0x000000000040672c        0x8 0x4 /usr/local/popcorn/aarch64/lib/libstack-transform.a(regs.o)
 .text.set_sp_x86_64
                0x0000000000406734        0x8 0x4 /usr/local/popcorn/aarch64/lib/libstack-transform.a(regs.o)
 .text.set_fbp_x86_64
                0x000000000040673c        0x8 0x4 /usr/local/popcorn/aarch64/lib/libstack-transform.a(regs.o)
 .text.set_ra_reg_x86_64
                0x0000000000406744       0x2c 0x4 /usr/local/popcorn/aarch64/lib/libstack-transform.a(regs.o)
 .text.setup_fbp_x86_64
                0x0000000000406770        0xc 0x4 /usr/local/popcorn/aarch64/lib/libstack-transform.a(regs.o)
 .text.reg_size_x86_64
                0x000000000040677c       0x50 0x4 /usr/local/popcorn/aarch64/lib/libstack-transform.a(regs.o)
 .text.reg_x86_64
                0x00000000004067cc      0x1d0 0x4 /usr/local/popcorn/aarch64/lib/libstack-transform.a(regs.o)
 .text          0x000000000040699c        0x0 0x4 /usr/local/popcorn/aarch64/lib/libstack-transform.a(data.o)
 .text.put_val  0x000000000040699c      0x258 0x4 /usr/local/popcorn/aarch64/lib/libstack-transform.a(data.o)
                0x000000000040699c                put_val
 .text.get_dest_loc
                0x0000000000406bf4       0xdc 0x4 /usr/local/popcorn/aarch64/lib/libstack-transform.a(data.o)
 .text.put_val_arch
                0x0000000000406cd0      0x2d4 0x4 /usr/local/popcorn/aarch64/lib/libstack-transform.a(data.o)
                0x0000000000406cd0                put_val_arch
 .text.put_val_data
                0x0000000000406fa4      0x118 0x4 /usr/local/popcorn/aarch64/lib/libstack-transform.a(data.o)
                0x0000000000406fa4                put_val_data
 .text.points_to_stack
                0x00000000004070bc      0x138 0x4 /usr/local/popcorn/aarch64/lib/libstack-transform.a(data.o)
                0x00000000004070bc                points_to_stack
 .text.points_to_data
                0x00000000004071f4      0x1a0 0x4 /usr/local/popcorn/aarch64/lib/libstack-transform.a(data.o)
                0x00000000004071f4                points_to_data
 .text.set_return_address
                0x0000000000407394       0x24 0x4 /usr/local/popcorn/aarch64/lib/libstack-transform.a(data.o)
                0x0000000000407394                set_return_address
 .text.set_return_address_funcentry
                0x00000000004073b8       0x44 0x4 /usr/local/popcorn/aarch64/lib/libstack-transform.a(data.o)
                0x00000000004073b8                set_return_address_funcentry
 .text.get_savedfbp_loc
                0x00000000004073fc       0x24 0x4 /usr/local/popcorn/aarch64/lib/libstack-transform.a(data.o)
                0x00000000004073fc                get_savedfbp_loc
 .text          0x0000000000407420        0x0 0x1 /usr/local/popcorn/aarch64/lib/libelf.a(begin.o)
 .text._elf_check_type.part.0
                0x0000000000407420      0x250 0x8 /usr/local/popcorn/aarch64/lib/libelf.a(begin.o)
 .text.elf_begin
                0x0000000000407670     0x14f4 0x8 /usr/local/popcorn/aarch64/lib/libelf.a(begin.o)
                0x0000000000407670                elf_begin
 .text.elf_memory
                0x0000000000408b68      0x164 0x8 /usr/local/popcorn/aarch64/lib/libelf.a(begin.o)
                0x0000000000408b68                elf_memory
 .text.gelf_getclass
                0x0000000000408cd0       0x40 0x8 /usr/local/popcorn/aarch64/lib/libelf.a(begin.o)
                0x0000000000408cd0                gelf_getclass
 .text          0x0000000000408d10        0x0 0x1 /usr/local/popcorn/aarch64/lib/libelf.a(end.o)
 .text.elf_end  0x0000000000408d10      0x1d4 0x8 /usr/local/popcorn/aarch64/lib/libelf.a(end.o)
                0x0000000000408d10                elf_end
 .text          0x0000000000408ee4        0x0 0x1 /usr/local/popcorn/aarch64/lib/libelf.a(getdata.o)
 .text.elf_getdata
                0x0000000000408ee8      0x310 0x8 /usr/local/popcorn/aarch64/lib/libelf.a(getdata.o)
                0x0000000000408ee8                elf_getdata
 .text          0x00000000004091f8        0x0 0x1 /usr/local/popcorn/aarch64/lib/libelf.a(getident.o)
 .text.elf_getident
                0x00000000004091f8       0xc0 0x8 /usr/local/popcorn/aarch64/lib/libelf.a(getident.o)
                0x00000000004091f8                elf_getident
 .text          0x00000000004092b8        0x0 0x1 /usr/local/popcorn/aarch64/lib/libelf.a(nextscn.o)
 .text.elf_nextscn
                0x00000000004092b8       0xd0 0x8 /usr/local/popcorn/aarch64/lib/libelf.a(nextscn.o)
                0x00000000004092b8                elf_nextscn
 .text          0x0000000000409388        0x0 0x1 /usr/local/popcorn/aarch64/lib/libelf.a(strptr.o)
 .text.elf_strptr
                0x0000000000409388      0x1b4 0x8 /usr/local/popcorn/aarch64/lib/libelf.a(strptr.o)
                0x0000000000409388                elf_strptr
 .text          0x000000000040953c        0x0 0x1 /usr/local/popcorn/aarch64/lib/libelf.a(version.o)
 .text.elf_version
                0x0000000000409540       0x80 0x8 /usr/local/popcorn/aarch64/lib/libelf.a(version.o)
                0x0000000000409540                elf_version
 .text          0x00000000004095c0        0x0 0x1 /usr/local/popcorn/aarch64/lib/libelf.a(32.getehdr.o)
 .text._elf_getehdr
                0x00000000004095c0       0xa0 0x8 /usr/local/popcorn/aarch64/lib/libelf.a(32.getehdr.o)
                0x00000000004095c0                _elf_getehdr
 .text.elf32_getehdr
                0x0000000000409660       0xa0 0x8 /usr/local/popcorn/aarch64/lib/libelf.a(32.getehdr.o)
                0x0000000000409660                elf32_getehdr
 .text.elf64_getehdr
                0x0000000000409700       0xa0 0x8 /usr/local/popcorn/aarch64/lib/libelf.a(32.getehdr.o)
                0x0000000000409700                elf64_getehdr
 .text          0x00000000004097a0        0x0 0x1 /usr/local/popcorn/aarch64/lib/libelf.a(32.xlatetof.o)
 .text.half_32L__tom
                0x00000000004097a0      0x120 0x8 /usr/local/popcorn/aarch64/lib/libelf.a(32.xlatetof.o)
 .text.half_32L__tof
                0x00000000004098c0      0x29c 0x8 /usr/local/popcorn/aarch64/lib/libelf.a(32.xlatetof.o)
 .text.half_32M__tom
                0x0000000000409b60      0x14c 0x8 /usr/local/popcorn/aarch64/lib/libelf.a(32.xlatetof.o)
 .text.half_32M__tof
                0x0000000000409cb0      0x2a0 0x8 /usr/local/popcorn/aarch64/lib/libelf.a(32.xlatetof.o)
 .text.sword_32L__tom
                0x0000000000409f50       0xd0 0x8 /usr/local/popcorn/aarch64/lib/libelf.a(32.xlatetof.o)
 .text.sword_32L__tof
                0x000000000040a020      0x464 0x8 /usr/local/popcorn/aarch64/lib/libelf.a(32.xlatetof.o)
 .text.sword_32M__tom
                0x000000000040a488       0xe4 0x8 /usr/local/popcorn/aarch64/lib/libelf.a(32.xlatetof.o)
 .text.sword_32M__tof
                0x000000000040a570      0x468 0x8 /usr/local/popcorn/aarch64/lib/libelf.a(32.xlatetof.o)
 .text.word_32L__tom
                0x000000000040a9d8       0xd0 0x8 /usr/local/popcorn/aarch64/lib/libelf.a(32.xlatetof.o)
 .text.word_32L__tof
                0x000000000040aaa8      0x464 0x8 /usr/local/popcorn/aarch64/lib/libelf.a(32.xlatetof.o)
 .text.word_32M__tom
                0x000000000040af10       0xe4 0x8 /usr/local/popcorn/aarch64/lib/libelf.a(32.xlatetof.o)
 .text.word_32M__tof
                0x000000000040aff8      0x468 0x8 /usr/local/popcorn/aarch64/lib/libelf.a(32.xlatetof.o)
 .text.dyn_32L11_tom
                0x000000000040b460       0x44 0x8 /usr/local/popcorn/aarch64/lib/libelf.a(32.xlatetof.o)
 .text.dyn_32L11_tof
                0x000000000040b4a8      0x374 0x8 /usr/local/popcorn/aarch64/lib/libelf.a(32.xlatetof.o)
 .text.dyn_32M11_tom
                0x000000000040b820       0x4c 0x8 /usr/local/popcorn/aarch64/lib/libelf.a(32.xlatetof.o)
 .text.dyn_32M11_tof
                0x000000000040b870      0x374 0x8 /usr/local/popcorn/aarch64/lib/libelf.a(32.xlatetof.o)
 .text.phdr_32L11_tom
                0x000000000040bbe8       0xc0 0x8 /usr/local/popcorn/aarch64/lib/libelf.a(32.xlatetof.o)
 .text.phdr_32L11_tof
                0x000000000040bca8      0x154 0x8 /usr/local/popcorn/aarch64/lib/libelf.a(32.xlatetof.o)
 .text.phdr_32M11_tom
                0x000000000040be00       0xe0 0x8 /usr/local/popcorn/aarch64/lib/libelf.a(32.xlatetof.o)
 .text.phdr_32M11_tof
                0x000000000040bee0      0x154 0x8 /usr/local/popcorn/aarch64/lib/libelf.a(32.xlatetof.o)
 .text.rela_32L11_tom
                0x000000000040c038       0x5c 0x8 /usr/local/popcorn/aarch64/lib/libelf.a(32.xlatetof.o)
 .text.rela_32L11_tof
                0x000000000040c098       0xb0 0x8 /usr/local/popcorn/aarch64/lib/libelf.a(32.xlatetof.o)
 .text.rela_32M11_tom
                0x000000000040c148       0x68 0x8 /usr/local/popcorn/aarch64/lib/libelf.a(32.xlatetof.o)
 .text.rela_32M11_tof
                0x000000000040c1b0       0xb0 0x8 /usr/local/popcorn/aarch64/lib/libelf.a(32.xlatetof.o)
 .text.rel_32L11_tom
                0x000000000040c260       0xc0 0x8 /usr/local/popcorn/aarch64/lib/libelf.a(32.xlatetof.o)
 .text.rel_32L11_tof
                0x000000000040c320      0x354 0x8 /usr/local/popcorn/aarch64/lib/libelf.a(32.xlatetof.o)
 .text.rel_32M11_tom
                0x000000000040c678       0xd0 0x8 /usr/local/popcorn/aarch64/lib/libelf.a(32.xlatetof.o)
 .text.rel_32M11_tof
                0x000000000040c748      0x354 0x8 /usr/local/popcorn/aarch64/lib/libelf.a(32.xlatetof.o)
 .text.shdr_32L11_tom
                0x000000000040caa0      0x17c 0x8 /usr/local/popcorn/aarch64/lib/libelf.a(32.xlatetof.o)
 .text.shdr_32L11_tof
                0x000000000040cc20      0x1ac 0x8 /usr/local/popcorn/aarch64/lib/libelf.a(32.xlatetof.o)
 .text.shdr_32M11_tom
                0x000000000040cdd0      0x1dc 0x8 /usr/local/popcorn/aarch64/lib/libelf.a(32.xlatetof.o)
 .text.shdr_32M11_tof
                0x000000000040cfb0      0x1ac 0x8 /usr/local/popcorn/aarch64/lib/libelf.a(32.xlatetof.o)
 .text.sym_32L11_tom
                0x000000000040d160       0x64 0x8 /usr/local/popcorn/aarch64/lib/libelf.a(32.xlatetof.o)
 .text.sym_32L11_tof
                0x000000000040d1c8       0xc0 0x8 /usr/local/popcorn/aarch64/lib/libelf.a(32.xlatetof.o)
 .text.sym_32M11_tom
                0x000000000040d288       0x74 0x8 /usr/local/popcorn/aarch64/lib/libelf.a(32.xlatetof.o)
 .text.sym_32M11_tof
                0x000000000040d300       0xc0 0x8 /usr/local/popcorn/aarch64/lib/libelf.a(32.xlatetof.o)
 .text.ehdr_32L11_tom
                0x000000000040d3c0      0x1f4 0x8 /usr/local/popcorn/aarch64/lib/libelf.a(32.xlatetof.o)
 .text.byte_copy
                0x000000000040d5b8      0x614 0x8 /usr/local/popcorn/aarch64/lib/libelf.a(32.xlatetof.o)
 .text.addr_32L__tom
                0x000000000040dbd0       0xd0 0x8 /usr/local/popcorn/aarch64/lib/libelf.a(32.xlatetof.o)
 .text.addr_32L__tof
                0x000000000040dca0      0x464 0x8 /usr/local/popcorn/aarch64/lib/libelf.a(32.xlatetof.o)
 .text.addr_32M__tom
                0x000000000040e108       0xe4 0x8 /usr/local/popcorn/aarch64/lib/libelf.a(32.xlatetof.o)
 .text.addr_32M__tof
                0x000000000040e1f0      0x468 0x8 /usr/local/popcorn/aarch64/lib/libelf.a(32.xlatetof.o)
 .text.off_32L__tom
                0x000000000040e658       0xd0 0x8 /usr/local/popcorn/aarch64/lib/libelf.a(32.xlatetof.o)
 .text.off_32L__tof
                0x000000000040e728      0x464 0x8 /usr/local/popcorn/aarch64/lib/libelf.a(32.xlatetof.o)
 .text.off_32M__tom
                0x000000000040eb90       0xe4 0x8 /usr/local/popcorn/aarch64/lib/libelf.a(32.xlatetof.o)
 .text.off_32M__tof
                0x000000000040ec78      0x468 0x8 /usr/local/popcorn/aarch64/lib/libelf.a(32.xlatetof.o)
 .text.ehdr_32M11_tof
                0x000000000040f0e0      0x2bc 0x8 /usr/local/popcorn/aarch64/lib/libelf.a(32.xlatetof.o)
 .text.ehdr_32L11_tof
                0x000000000040f3a0      0x2bc 0x8 /usr/local/popcorn/aarch64/lib/libelf.a(32.xlatetof.o)
 .text.ehdr_32M11_tom
                0x000000000040f660      0x224 0x8 /usr/local/popcorn/aarch64/lib/libelf.a(32.xlatetof.o)
 .text._elf32_xltsize
                0x000000000040f888       0xa4 0x8 /usr/local/popcorn/aarch64/lib/libelf.a(32.xlatetof.o)
                0x000000000040f888                _elf32_xltsize
 .text.elf32_xlatetom
                0x000000000040f930      0x16c 0x8 /usr/local/popcorn/aarch64/lib/libelf.a(32.xlatetof.o)
                0x000000000040f930                elf32_xlatetom
 .text.elf32_xlatetof
                0x000000000040faa0      0x16c 0x8 /usr/local/popcorn/aarch64/lib/libelf.a(32.xlatetof.o)
                0x000000000040faa0                elf32_xlatetof
 .text          0x000000000040fc0c        0x0 0x1 /usr/local/popcorn/aarch64/lib/libelf.a(cook.o)
 .text._elf_scn_type
                0x000000000040fc10       0xc8 0x8 /usr/local/popcorn/aarch64/lib/libelf.a(cook.o)
                0x000000000040fc10                _elf_scn_type
 .text._elf_xlatetom
                0x000000000040fcd8       0x4c 0x8 /usr/local/popcorn/aarch64/lib/libelf.a(cook.o)
                0x000000000040fcd8                _elf_xlatetom
 .text._elf_cook
                0x000000000040fd28      0x870 0x8 /usr/local/popcorn/aarch64/lib/libelf.a(cook.o)
                0x000000000040fd28                _elf_cook
 .text          0x0000000000410598        0x0 0x1 /usr/local/popcorn/aarch64/lib/libelf.a(data.o)
 .text          0x0000000000410598        0x0 0x1 /usr/local/popcorn/aarch64/lib/libelf.a(input.o)
 .text._elf_read
                0x0000000000410598      0x15c 0x8 /usr/local/popcorn/aarch64/lib/libelf.a(input.o)
                0x0000000000410598                _elf_read
 .text._elf_mmap
                0x00000000004106f8        0x8 0x8 /usr/local/popcorn/aarch64/lib/libelf.a(input.o)
                0x00000000004106f8                _elf_mmap
 .text          0x0000000000410700        0x0 0x1 /usr/local/popcorn/aarch64/lib/libelf.a(x.elfext.o)
 .text.elf_getphdrnum
                0x0000000000410700       0x80 0x8 /usr/local/popcorn/aarch64/lib/libelf.a(x.elfext.o)
                0x0000000000410700                elf_getphdrnum
 .text.elf_getshdrnum
                0x0000000000410780       0x90 0x8 /usr/local/popcorn/aarch64/lib/libelf.a(x.elfext.o)
                0x0000000000410780                elf_getshdrnum
 .text.elf_getshdrstrndx
                0x0000000000410810      0x140 0x8 /usr/local/popcorn/aarch64/lib/libelf.a(x.elfext.o)
                0x0000000000410810                elf_getshdrstrndx
 .text.elf_getphnum
                0x0000000000410950       0x80 0x8 /usr/local/popcorn/aarch64/lib/libelf.a(x.elfext.o)
                0x0000000000410950                elf_getphnum
 .text.elf_getshnum
                0x00000000004109d0       0x90 0x8 /usr/local/popcorn/aarch64/lib/libelf.a(x.elfext.o)
                0x00000000004109d0                elf_getshnum
 .text.elf_getshstrndx
                0x0000000000410a60      0x140 0x8 /usr/local/popcorn/aarch64/lib/libelf.a(x.elfext.o)
                0x0000000000410a60                elf_getshstrndx
 .text.elfx_update_shstrndx
                0x0000000000410ba0      0x11c 0x8 /usr/local/popcorn/aarch64/lib/libelf.a(x.elfext.o)
                0x0000000000410ba0                elfx_update_shstrndx
 .text          0x0000000000410cbc        0x0 0x1 /usr/local/popcorn/aarch64/lib/libelf.a(64.xlatetof.o)
 .text.half_64L__tom
                0x0000000000410cc0      0x120 0x8 /usr/local/popcorn/aarch64/lib/libelf.a(64.xlatetof.o)
 .text.half_64L__tof
                0x0000000000410de0      0x29c 0x8 /usr/local/popcorn/aarch64/lib/libelf.a(64.xlatetof.o)
 .text.half_64M__tom
                0x0000000000411080      0x14c 0x8 /usr/local/popcorn/aarch64/lib/libelf.a(64.xlatetof.o)
 .text.half_64M__tof
                0x00000000004111d0      0x2a0 0x8 /usr/local/popcorn/aarch64/lib/libelf.a(64.xlatetof.o)
 .text.sword_64L__tom
                0x0000000000411470       0xd0 0x8 /usr/local/popcorn/aarch64/lib/libelf.a(64.xlatetof.o)
 .text.sword_64L__tof
                0x0000000000411540      0x464 0x8 /usr/local/popcorn/aarch64/lib/libelf.a(64.xlatetof.o)
 .text.sword_64M__tom
                0x00000000004119a8       0xe4 0x8 /usr/local/popcorn/aarch64/lib/libelf.a(64.xlatetof.o)
 .text.sword_64M__tof
                0x0000000000411a90      0x468 0x8 /usr/local/popcorn/aarch64/lib/libelf.a(64.xlatetof.o)
 .text.word_64L__tom
                0x0000000000411ef8       0xd0 0x8 /usr/local/popcorn/aarch64/lib/libelf.a(64.xlatetof.o)
 .text.word_64L__tof
                0x0000000000411fc8      0x464 0x8 /usr/local/popcorn/aarch64/lib/libelf.a(64.xlatetof.o)
 .text.word_64M__tom
                0x0000000000412430       0xe4 0x8 /usr/local/popcorn/aarch64/lib/libelf.a(64.xlatetof.o)
 .text.word_64M__tof
                0x0000000000412518      0x468 0x8 /usr/local/popcorn/aarch64/lib/libelf.a(64.xlatetof.o)
 .text.elf64_xlate
                0x0000000000412980      0x174 0x8 /usr/local/popcorn/aarch64/lib/libelf.a(64.xlatetof.o)
 .text.xword_64M__tof
                0x0000000000412af8       0x60 0x8 /usr/local/popcorn/aarch64/lib/libelf.a(64.xlatetof.o)
 .text.sym_64M11_tof
                0x0000000000412b58       0xc0 0x8 /usr/local/popcorn/aarch64/lib/libelf.a(64.xlatetof.o)
 .text.shdr_64M11_tof
                0x0000000000412c18      0x12c 0x8 /usr/local/popcorn/aarch64/lib/libelf.a(64.xlatetof.o)
 .text.rel_64M11_tof
                0x0000000000412d48       0x70 0x8 /usr/local/popcorn/aarch64/lib/libelf.a(64.xlatetof.o)
 .text.phdr_64M11_tof
                0x0000000000412db8      0x100 0x8 /usr/local/popcorn/aarch64/lib/libelf.a(64.xlatetof.o)
 .text.dyn_64M11_tof
                0x0000000000412eb8       0x70 0x8 /usr/local/popcorn/aarch64/lib/libelf.a(64.xlatetof.o)
 .text.xword_64M__tom
                0x0000000000412f28       0x60 0x8 /usr/local/popcorn/aarch64/lib/libelf.a(64.xlatetof.o)
 .text.sym_64M11_tom
                0x0000000000412f88       0xa4 0x8 /usr/local/popcorn/aarch64/lib/libelf.a(64.xlatetof.o)
 .text.shdr_64M11_tom
                0x0000000000413030       0xcc 0x8 /usr/local/popcorn/aarch64/lib/libelf.a(64.xlatetof.o)
 .text.rel_64M11_tom
                0x0000000000413100       0x70 0x8 /usr/local/popcorn/aarch64/lib/libelf.a(64.xlatetof.o)
 .text.phdr_64M11_tom
                0x0000000000413170       0xd0 0x8 /usr/local/popcorn/aarch64/lib/libelf.a(64.xlatetof.o)
 .text.dyn_64M11_tom
                0x0000000000413240       0x70 0x8 /usr/local/popcorn/aarch64/lib/libelf.a(64.xlatetof.o)
 .text.sxword_64M__tof
                0x00000000004132b0       0x60 0x8 /usr/local/popcorn/aarch64/lib/libelf.a(64.xlatetof.o)
 .text.rela_64M11_tof
                0x0000000000413310       0x8c 0x8 /usr/local/popcorn/aarch64/lib/libelf.a(64.xlatetof.o)
 .text.sxword_64M__tom
                0x00000000004133a0       0x60 0x8 /usr/local/popcorn/aarch64/lib/libelf.a(64.xlatetof.o)
 .text.rela_64M11_tom
                0x0000000000413400       0x8c 0x8 /usr/local/popcorn/aarch64/lib/libelf.a(64.xlatetof.o)
 .text.xword_64L__tof
                0x0000000000413490       0x60 0x8 /usr/local/popcorn/aarch64/lib/libelf.a(64.xlatetof.o)
 .text.sym_64L11_tof
                0x00000000004134f0       0xc0 0x8 /usr/local/popcorn/aarch64/lib/libelf.a(64.xlatetof.o)
 .text.shdr_64L11_tof
                0x00000000004135b0      0x12c 0x8 /usr/local/popcorn/aarch64/lib/libelf.a(64.xlatetof.o)
 .text.rel_64L11_tof
                0x00000000004136e0       0x70 0x8 /usr/local/popcorn/aarch64/lib/libelf.a(64.xlatetof.o)
 .text.phdr_64L11_tof
                0x0000000000413750      0x100 0x8 /usr/local/popcorn/aarch64/lib/libelf.a(64.xlatetof.o)
 .text.dyn_64L11_tof
                0x0000000000413850       0x70 0x8 /usr/local/popcorn/aarch64/lib/libelf.a(64.xlatetof.o)
 .text.xword_64L__tom
                0x00000000004138c0       0x60 0x8 /usr/local/popcorn/aarch64/lib/libelf.a(64.xlatetof.o)
 .text.sym_64L11_tom
                0x0000000000413920       0x9c 0x8 /usr/local/popcorn/aarch64/lib/libelf.a(64.xlatetof.o)
 .text.shdr_64L11_tom
                0x00000000004139c0       0xbc 0x8 /usr/local/popcorn/aarch64/lib/libelf.a(64.xlatetof.o)
 .text.rel_64L11_tom
                0x0000000000413a80       0x70 0x8 /usr/local/popcorn/aarch64/lib/libelf.a(64.xlatetof.o)
 .text.phdr_64L11_tom
                0x0000000000413af0       0xc8 0x8 /usr/local/popcorn/aarch64/lib/libelf.a(64.xlatetof.o)
 .text.dyn_64L11_tom
                0x0000000000413bb8       0x70 0x8 /usr/local/popcorn/aarch64/lib/libelf.a(64.xlatetof.o)
 .text.sxword_64L__tof
                0x0000000000413c28       0x60 0x8 /usr/local/popcorn/aarch64/lib/libelf.a(64.xlatetof.o)
 .text.rela_64L11_tof
                0x0000000000413c88       0x8c 0x8 /usr/local/popcorn/aarch64/lib/libelf.a(64.xlatetof.o)
 .text.sxword_64L__tom
                0x0000000000413d18       0x60 0x8 /usr/local/popcorn/aarch64/lib/libelf.a(64.xlatetof.o)
 .text.rela_64L11_tom
                0x0000000000413d78       0x8c 0x8 /usr/local/popcorn/aarch64/lib/libelf.a(64.xlatetof.o)
 .text.ehdr_64L11_tom
                0x0000000000413e08      0x204 0x8 /usr/local/popcorn/aarch64/lib/libelf.a(64.xlatetof.o)
 .text.byte_copy
                0x0000000000414010      0x614 0x8 /usr/local/popcorn/aarch64/lib/libelf.a(64.xlatetof.o)
 .text.addr_64L__tom
                0x0000000000414628       0x60 0x8 /usr/local/popcorn/aarch64/lib/libelf.a(64.xlatetof.o)
 .text.addr_64L__tof
                0x0000000000414688       0x60 0x8 /usr/local/popcorn/aarch64/lib/libelf.a(64.xlatetof.o)
 .text.addr_64M__tom
                0x00000000004146e8       0x60 0x8 /usr/local/popcorn/aarch64/lib/libelf.a(64.xlatetof.o)
 .text.addr_64M__tof
                0x0000000000414748       0x60 0x8 /usr/local/popcorn/aarch64/lib/libelf.a(64.xlatetof.o)
 .text.off_64L__tom
                0x00000000004147a8       0x60 0x8 /usr/local/popcorn/aarch64/lib/libelf.a(64.xlatetof.o)
 .text.off_64L__tof
                0x0000000000414808       0x60 0x8 /usr/local/popcorn/aarch64/lib/libelf.a(64.xlatetof.o)
 .text.off_64M__tom
                0x0000000000414868       0x60 0x8 /usr/local/popcorn/aarch64/lib/libelf.a(64.xlatetof.o)
 .text.off_64M__tof
                0x00000000004148c8       0x60 0x8 /usr/local/popcorn/aarch64/lib/libelf.a(64.xlatetof.o)
 .text.ehdr_64M11_tof
                0x0000000000414928      0x284 0x8 /usr/local/popcorn/aarch64/lib/libelf.a(64.xlatetof.o)
 .text.ehdr_64L11_tof
                0x0000000000414bb0      0x284 0x8 /usr/local/popcorn/aarch64/lib/libelf.a(64.xlatetof.o)
 .text.ehdr_64M11_tom
                0x0000000000414e38      0x22c 0x8 /usr/local/popcorn/aarch64/lib/libelf.a(64.xlatetof.o)
 .text._elf64_xltsize
                0x0000000000415068       0xa4 0x8 /usr/local/popcorn/aarch64/lib/libelf.a(64.xlatetof.o)
                0x0000000000415068                _elf64_xltsize
 .text.elf64_xlatetom
                0x0000000000415110      0x16c 0x8 /usr/local/popcorn/aarch64/lib/libelf.a(64.xlatetof.o)
                0x0000000000415110                elf64_xlatetom
 .text.elf64_xlatetof
                0x0000000000415280      0x16c 0x8 /usr/local/popcorn/aarch64/lib/libelf.a(64.xlatetof.o)
                0x0000000000415280                elf64_xlatetof
 .text.gelf_xlatetom
                0x00000000004153f0       0x78 0x8 /usr/local/popcorn/aarch64/lib/libelf.a(64.xlatetof.o)
                0x00000000004153f0                gelf_xlatetom
 .text.gelf_xlatetof
                0x0000000000415468       0x78 0x8 /usr/local/popcorn/aarch64/lib/libelf.a(64.xlatetof.o)
                0x0000000000415468                gelf_xlatetof
 .text          0x00000000004154e0        0x0 0x1 /usr/local/popcorn/aarch64/lib/libelf.a(gelfshdr.o)
 .text.gelf_getshdr
                0x00000000004154e0      0x138 0x8 /usr/local/popcorn/aarch64/lib/libelf.a(gelfshdr.o)
                0x00000000004154e0                gelf_getshdr
 .text.gelf_update_shdr
                0x0000000000415618      0x100 0x8 /usr/local/popcorn/aarch64/lib/libelf.a(gelfshdr.o)
                0x0000000000415618                gelf_update_shdr
 .text          0x0000000000415718        0x0 0x1 /usr/local/popcorn/aarch64/lib/libelf.a(swap64.o)
 .text._elf_load_u64L
                0x0000000000415718        0x8 0x8 /usr/local/popcorn/aarch64/lib/libelf.a(swap64.o)
                0x0000000000415718                _elf_load_u64L
 .text._elf_load_u64M
                0x0000000000415720        0xc 0x8 /usr/local/popcorn/aarch64/lib/libelf.a(swap64.o)
                0x0000000000415720                _elf_load_u64M
 .text._elf_load_i64L
                0x0000000000415730        0x8 0x8 /usr/local/popcorn/aarch64/lib/libelf.a(swap64.o)
                0x0000000000415730                _elf_load_i64L
 .text._elf_load_i64M
                0x0000000000415738        0xc 0x8 /usr/local/popcorn/aarch64/lib/libelf.a(swap64.o)
                0x0000000000415738                _elf_load_i64M
 .text._elf_store_u64L
                0x0000000000415748       0x40 0x8 /usr/local/popcorn/aarch64/lib/libelf.a(swap64.o)
                0x0000000000415748                _elf_store_u64L
 .text._elf_store_u64M
                0x0000000000415788       0x40 0x8 /usr/local/popcorn/aarch64/lib/libelf.a(swap64.o)
                0x0000000000415788                _elf_store_u64M
 .text._elf_store_i64L
                0x00000000004157c8       0x40 0x8 /usr/local/popcorn/aarch64/lib/libelf.a(swap64.o)
                0x00000000004157c8                _elf_store_i64L
 .text._elf_store_i64M
                0x0000000000415808       0x40 0x8 /usr/local/popcorn/aarch64/lib/libelf.a(swap64.o)
                0x0000000000415808                _elf_store_i64M
 .text          0x0000000000415848        0x0 0x1 /usr/local/popcorn/aarch64/lib/libelf.a(verdef_32_tof.o)
 .text._elf_verdef_32L11_tof
                0x0000000000415848      0x1e8 0x8 /usr/local/popcorn/aarch64/lib/libelf.a(verdef_32_tof.o)
                0x0000000000415848                _elf_verdef_32L11_tof
 .text._elf_verdef_32M11_tof
                0x0000000000415a30      0x1e8 0x8 /usr/local/popcorn/aarch64/lib/libelf.a(verdef_32_tof.o)
                0x0000000000415a30                _elf_verdef_32M11_tof
 .text._elf_verneed_32L11_tof
                0x0000000000415c18      0x21c 0x8 /usr/local/popcorn/aarch64/lib/libelf.a(verdef_32_tof.o)
                0x0000000000415c18                _elf_verneed_32L11_tof
 .text._elf_verneed_32M11_tof
                0x0000000000415e38      0x224 0x8 /usr/local/popcorn/aarch64/lib/libelf.a(verdef_32_tof.o)
                0x0000000000415e38                _elf_verneed_32M11_tof
 .text          0x000000000041605c        0x0 0x1 /usr/local/popcorn/aarch64/lib/libelf.a(verdef_32_tom.o)
 .text._elf_verdef_32L11_tom
                0x0000000000416060      0x128 0x8 /usr/local/popcorn/aarch64/lib/libelf.a(verdef_32_tom.o)
                0x0000000000416060                _elf_verdef_32L11_tom
 .text._elf_verdef_32M11_tom
                0x0000000000416188      0x158 0x8 /usr/local/popcorn/aarch64/lib/libelf.a(verdef_32_tom.o)
                0x0000000000416188                _elf_verdef_32M11_tom
 .text._elf_verneed_32L11_tom
                0x00000000004162e0      0x130 0x8 /usr/local/popcorn/aarch64/lib/libelf.a(verdef_32_tom.o)
                0x00000000004162e0                _elf_verneed_32L11_tom
 .text._elf_verneed_32M11_tom
                0x0000000000416410      0x158 0x8 /usr/local/popcorn/aarch64/lib/libelf.a(verdef_32_tom.o)
                0x0000000000416410                _elf_verneed_32M11_tom
 .text          0x0000000000416568        0x0 0x1 /usr/local/popcorn/aarch64/lib/libelf.a(verdef_64_tof.o)
 .text._elf_verdef_64L11_tof
                0x0000000000416568      0x1e8 0x8 /usr/local/popcorn/aarch64/lib/libelf.a(verdef_64_tof.o)
                0x0000000000416568                _elf_verdef_64L11_tof
 .text._elf_verdef_64M11_tof
                0x0000000000416750      0x1e8 0x8 /usr/local/popcorn/aarch64/lib/libelf.a(verdef_64_tof.o)
                0x0000000000416750                _elf_verdef_64M11_tof
 .text._elf_verneed_64L11_tof
                0x0000000000416938      0x21c 0x8 /usr/local/popcorn/aarch64/lib/libelf.a(verdef_64_tof.o)
                0x0000000000416938                _elf_verneed_64L11_tof
 .text._elf_verneed_64M11_tof
                0x0000000000416b58      0x224 0x8 /usr/local/popcorn/aarch64/lib/libelf.a(verdef_64_tof.o)
                0x0000000000416b58                _elf_verneed_64M11_tof
 .text          0x0000000000416d7c        0x0 0x1 /usr/local/popcorn/aarch64/lib/libelf.a(verdef_64_tom.o)
 .text._elf_verdef_64L11_tom
                0x0000000000416d80      0x128 0x8 /usr/local/popcorn/aarch64/lib/libelf.a(verdef_64_tom.o)
                0x0000000000416d80                _elf_verdef_64L11_tom
 .text._elf_verdef_64M11_tom
                0x0000000000416ea8      0x158 0x8 /usr/local/popcorn/aarch64/lib/libelf.a(verdef_64_tom.o)
                0x0000000000416ea8                _elf_verdef_64M11_tom
 .text._elf_verneed_64L11_tom
                0x0000000000417000      0x130 0x8 /usr/local/popcorn/aarch64/lib/libelf.a(verdef_64_tom.o)
                0x0000000000417000                _elf_verneed_64L11_tom
 .text._elf_verneed_64M11_tom
                0x0000000000417130      0x158 0x8 /usr/local/popcorn/aarch64/lib/libelf.a(verdef_64_tom.o)
                0x0000000000417130                _elf_verneed_64M11_tom
 .text          0x0000000000417288        0x0 0x1 /usr/local/popcorn/aarch64/lib/libelf.a(getscn.o)
 .text.elf_getscn
                0x0000000000417288       0xa4 0x8 /usr/local/popcorn/aarch64/lib/libelf.a(getscn.o)
                0x0000000000417288                elf_getscn
 .text          0x000000000041732c        0x0 0x1 /usr/local/popcorn/aarch64/lib/libelf.a(newscn.o)
 .text._elf_update_shnum
                0x0000000000417330       0x88 0x8 /usr/local/popcorn/aarch64/lib/libelf.a(newscn.o)
                0x0000000000417330                _elf_update_shnum
 .text._elf_first_scn
                0x00000000004173b8       0xe4 0x8 /usr/local/popcorn/aarch64/lib/libelf.a(newscn.o)
                0x00000000004173b8                _elf_first_scn
 .text.elf_newscn
                0x00000000004174a0      0x25c 0x8 /usr/local/popcorn/aarch64/lib/libelf.a(newscn.o)
                0x00000000004174a0                elf_newscn
 .text          0x00000000004176fc        0x0 0x1 /usr/local/popcorn/aarch64/lib/libelf.a(32.fsize.o)
 .text.elf32_fsize
                0x0000000000417700       0x60 0x8 /usr/local/popcorn/aarch64/lib/libelf.a(32.fsize.o)
                0x0000000000417700                elf32_fsize
 .text.elf64_fsize
                0x0000000000417760       0x60 0x8 /usr/local/popcorn/aarch64/lib/libelf.a(32.fsize.o)
                0x0000000000417760                elf64_fsize
 .text.gelf_fsize
                0x00000000004177c0       0xb8 0x8 /usr/local/popcorn/aarch64/lib/libelf.a(32.fsize.o)
                0x00000000004177c0                gelf_fsize
 .text.gelf_msize
                0x0000000000417878       0xbc 0x8 /usr/local/popcorn/aarch64/lib/libelf.a(32.fsize.o)
                0x0000000000417878                gelf_msize
 .text          0x0000000000417934        0x0 0x4 /usr/local/popcorn/aarch64/lib/libc.a(sysconf.o)
 .text.sysconf  0x0000000000417934      0x1a8 0x4 /usr/local/popcorn/aarch64/lib/libc.a(sysconf.o)
                0x0000000000417934                sysconf
 .text          0x0000000000417adc        0x0 0x4 /usr/local/popcorn/aarch64/lib/libc.a(__stack_chk_fail.o)
 .text.__init_ssp
                0x0000000000417adc       0x60 0x4 /usr/local/popcorn/aarch64/lib/libc.a(__stack_chk_fail.o)
                0x0000000000417adc                __init_ssp
 .text.__stack_chk_fail
                0x0000000000417b3c        0xc 0x4 /usr/local/popcorn/aarch64/lib/libc.a(__stack_chk_fail.o)
                0x0000000000417b3c                __stack_chk_fail
 .text          0x0000000000417b48        0x0 0x4 /usr/local/popcorn/aarch64/lib/libc.a(getenv.o)
 .text.getenv   0x0000000000417b48       0xb0 0x4 /usr/local/popcorn/aarch64/lib/libc.a(getenv.o)
                0x0000000000417b48                getenv
 .text          0x0000000000417bf8        0x0 0x4 /usr/local/popcorn/aarch64/lib/libc.a(assert.o)
 .text.__assert_fail
                0x0000000000417bf8       0x4c 0x4 /usr/local/popcorn/aarch64/lib/libc.a(assert.o)
                0x0000000000417bf8                __assert_fail
 .text          0x0000000000417c44        0x0 0x4 /usr/local/popcorn/aarch64/lib/libc.a(open.o)
 .text.open     0x0000000000417c44      0x104 0x4 /usr/local/popcorn/aarch64/lib/libc.a(open.o)
                0x0000000000417c44                open
                0x0000000000417c44                open64
 .text          0x0000000000417d48        0x0 0x4 /usr/local/popcorn/aarch64/lib/libc.a(prctl.o)
 .text.prctl    0x0000000000417d48       0xdc 0x4 /usr/local/popcorn/aarch64/lib/libc.a(prctl.o)
                0x0000000000417d48                prctl
 .text          0x0000000000417e24        0x0 0x4 /usr/local/popcorn/aarch64/lib/libc.a(sysinfo.o)
 .text.__lsysinfo
                0x0000000000417e24       0x1c 0x4 /usr/local/popcorn/aarch64/lib/libc.a(sysinfo.o)
                0x0000000000417e24                __lsysinfo
                0x0000000000417e24                sysinfo
 .text          0x0000000000417e40        0x0 0x4 /usr/local/popcorn/aarch64/lib/libc.a(calloc.o)
 .text.calloc   0x0000000000417e40      0x110 0x4 /usr/local/popcorn/aarch64/lib/libc.a(calloc.o)
                0x0000000000417e40                calloc
 .text          0x0000000000417f50        0x0 0x4 /usr/local/popcorn/aarch64/lib/libc.a(lite_malloc.o)
 .text.__simple_malloc
                0x0000000000417f50      0x124 0x4 /usr/local/popcorn/aarch64/lib/libc.a(lite_malloc.o)
                0x0000000000417f50                __simple_malloc
 .text          0x0000000000418074        0x0 0x4 /usr/local/popcorn/aarch64/lib/libc.a(malloc.o)
 .text.malloc   0x0000000000418074      0x59c 0x4 /usr/local/popcorn/aarch64/lib/libc.a(malloc.o)
                0x0000000000418074                malloc
 .text.alloc_rev
                0x0000000000418610      0x110 0x4 /usr/local/popcorn/aarch64/lib/libc.a(malloc.o)
 .text.lock_bin
                0x0000000000418720       0xcc 0x4 /usr/local/popcorn/aarch64/lib/libc.a(malloc.o)
 .text.unbin    0x00000000004187ec       0x70 0x4 /usr/local/popcorn/aarch64/lib/libc.a(malloc.o)
 .text.realloc  0x000000000041885c      0x3d8 0x4 /usr/local/popcorn/aarch64/lib/libc.a(malloc.o)
                0x000000000041885c                realloc
 .text.free     0x0000000000418c34      0x560 0x4 /usr/local/popcorn/aarch64/lib/libc.a(malloc.o)
                0x0000000000418c34                free
 .text          0x0000000000419194        0x0 0x4 /usr/local/popcorn/aarch64/lib/libc.a(getrlimit.o)
 .text.getrlimit
                0x0000000000419194       0xe0 0x4 /usr/local/popcorn/aarch64/lib/libc.a(getrlimit.o)
                0x0000000000419194                getrlimit
                0x0000000000419194                getrlimit64
 .text          0x0000000000419274        0x0 0x4 /usr/local/popcorn/aarch64/lib/libc.a(madvise.o)
 .text.__madvise
                0x0000000000419274       0x20 0x4 /usr/local/popcorn/aarch64/lib/libc.a(madvise.o)
                0x0000000000419274                __madvise
                0x0000000000419274                madvise
 .text          0x0000000000419294        0x0 0x4 /usr/local/popcorn/aarch64/lib/libc.a(mmap.o)
 .text.dummy    0x0000000000419294        0x4 0x4 /usr/local/popcorn/aarch64/lib/libc.a(mmap.o)
                0x0000000000419294                __vm_wait
 .text.__mmap   0x0000000000419298       0xa0 0x4 /usr/local/popcorn/aarch64/lib/libc.a(mmap.o)
                0x0000000000419298                __mmap
                0x0000000000419298                mmap
                0x0000000000419298                mmap64
 .text          0x0000000000419338        0x0 0x4 /usr/local/popcorn/aarch64/lib/libc.a(mremap.o)
 .text.__mremap
                0x0000000000419338       0xa4 0x4 /usr/local/popcorn/aarch64/lib/libc.a(mremap.o)
                0x0000000000419338                __mremap
                0x0000000000419338                mremap
 .text          0x00000000004193dc        0x0 0x4 /usr/local/popcorn/aarch64/lib/libc.a(munmap.o)
 .text.dummy    0x00000000004193dc        0x4 0x4 /usr/local/popcorn/aarch64/lib/libc.a(munmap.o)
 .text.__munmap
                0x00000000004193e0       0x38 0x4 /usr/local/popcorn/aarch64/lib/libc.a(munmap.o)
                0x00000000004193e0                __munmap
                0x00000000004193e0                munmap
 .text          0x0000000000419418        0x0 0x4 /usr/local/popcorn/aarch64/lib/libc.a(fclose.o)
 .text.dummy    0x0000000000419418        0x4 0x4 /usr/local/popcorn/aarch64/lib/libc.a(fclose.o)
                0x0000000000419418                __unlist_locked_file
 .text.fclose   0x000000000041941c       0xc8 0x4 /usr/local/popcorn/aarch64/lib/libc.a(fclose.o)
                0x000000000041941c                fclose
 .text          0x00000000004194e4        0x0 0x4 /usr/local/popcorn/aarch64/lib/libc.a(fflush.o)
 .text.fflush   0x00000000004194e4      0x100 0x4 /usr/local/popcorn/aarch64/lib/libc.a(fflush.o)
                0x00000000004194e4                fflush
 .text.__fflush_unlocked
                0x00000000004195e4       0x80 0x4 /usr/local/popcorn/aarch64/lib/libc.a(fflush.o)
                0x00000000004195e4                fflush_unlocked
 .text          0x0000000000419664        0x0 0x4 /usr/local/popcorn/aarch64/lib/libc.a(fgets.o)
 .text.fgets    0x0000000000419664      0x174 0x4 /usr/local/popcorn/aarch64/lib/libc.a(fgets.o)
                0x0000000000419664                fgets
                0x0000000000419664                fgets_unlocked
 .text          0x00000000004197d8        0x0 0x4 /usr/local/popcorn/aarch64/lib/libc.a(fopen.o)
 .text.fopen    0x00000000004197d8       0xcc 0x4 /usr/local/popcorn/aarch64/lib/libc.a(fopen.o)
                0x00000000004197d8                fopen
                0x00000000004197d8                fopen64
 .text          0x00000000004198a4        0x0 0x4 /usr/local/popcorn/aarch64/lib/libc.a(fprintf.o)
 .text.fprintf  0x00000000004198a4       0x74 0x4 /usr/local/popcorn/aarch64/lib/libc.a(fprintf.o)
                0x00000000004198a4                fprintf
 .text          0x0000000000419918        0x0 0x4 /usr/local/popcorn/aarch64/lib/libc.a(getline.o)
 .text.getline  0x0000000000419918       0x10 0x4 /usr/local/popcorn/aarch64/lib/libc.a(getline.o)
                0x0000000000419918                getline
 .text          0x0000000000419928        0x0 0x4 /usr/local/popcorn/aarch64/lib/libc.a(snprintf.o)
 .text.snprintf
                0x0000000000419928       0x74 0x4 /usr/local/popcorn/aarch64/lib/libc.a(snprintf.o)
                0x0000000000419928                snprintf
 .text          0x000000000041999c        0x0 0x4 /usr/local/popcorn/aarch64/lib/libc.a(sscanf.o)
 .text.sscanf   0x000000000041999c       0x74 0x4 /usr/local/popcorn/aarch64/lib/libc.a(sscanf.o)
                0x000000000041999c                __isoc99_sscanf
                0x000000000041999c                sscanf
 .text          0x0000000000419a10        0x0 0x4 /usr/local/popcorn/aarch64/lib/libc.a(stderr.o)
 .text          0x0000000000419a10        0x0 0x4 /usr/local/popcorn/aarch64/lib/libc.a(vsnprintf.o)
 .text.vsnprintf
                0x0000000000419a10       0xe0 0x4 /usr/local/popcorn/aarch64/lib/libc.a(vsnprintf.o)
                0x0000000000419a10                vsnprintf
 .text.sn_write
                0x0000000000419af0       0x50 0x4 /usr/local/popcorn/aarch64/lib/libc.a(vsnprintf.o)
 .text          0x0000000000419b40        0x0 0x4 /usr/local/popcorn/aarch64/lib/libc.a(vsscanf.o)
 .text.vsscanf  0x0000000000419b40       0x80 0x4 /usr/local/popcorn/aarch64/lib/libc.a(vsscanf.o)
                0x0000000000419b40                __isoc99_vsscanf
                0x0000000000419b40                vsscanf
 .text.do_read  0x0000000000419bc0        0x4 0x4 /usr/local/popcorn/aarch64/lib/libc.a(vsscanf.o)
 .text          0x0000000000419bc4        0x0 0x4 /usr/local/popcorn/aarch64/lib/libc.a(strtol.o)
 .text.strtoull
                0x0000000000419bc4        0x8 0x4 /usr/local/popcorn/aarch64/lib/libc.a(strtol.o)
                0x0000000000419bc4                __strtoull_internal
                0x0000000000419bc4                strtoull
 .text.strtox   0x0000000000419bcc       0xa4 0x4 /usr/local/popcorn/aarch64/lib/libc.a(strtol.o)
 .text.strtoll  0x0000000000419c70        0x8 0x4 /usr/local/popcorn/aarch64/lib/libc.a(strtol.o)
                0x0000000000419c70                __strtoll_internal
                0x0000000000419c70                strtoll
 .text.strtoul  0x0000000000419c78        0x8 0x4 /usr/local/popcorn/aarch64/lib/libc.a(strtol.o)
                0x0000000000419c78                __strtoul_internal
                0x0000000000419c78                strtoul
 .text.strtol   0x0000000000419c80        0x8 0x4 /usr/local/popcorn/aarch64/lib/libc.a(strtol.o)
                0x0000000000419c80                __strtol_internal
                0x0000000000419c80                strtol
 .text.strtoimax
                0x0000000000419c88        0x8 0x4 /usr/local/popcorn/aarch64/lib/libc.a(strtol.o)
                0x0000000000419c88                __strtoimax_internal
                0x0000000000419c88                strtoimax
 .text.strtoumax
                0x0000000000419c90        0x8 0x4 /usr/local/popcorn/aarch64/lib/libc.a(strtol.o)
                0x0000000000419c90                __strtoumax_internal
                0x0000000000419c90                strtoumax
 .text          0x0000000000419c98        0x0 0x4 /usr/local/popcorn/aarch64/lib/libc.a(memcmp.o)
 .text.memcmp   0x0000000000419c98       0x30 0x4 /usr/local/popcorn/aarch64/lib/libc.a(memcmp.o)
                0x0000000000419c98                memcmp
 .text          0x0000000000419cc8        0x0 0x4 /usr/local/popcorn/aarch64/lib/libc.a(strchr.o)
 .text.strchr   0x0000000000419cc8       0x2c 0x4 /usr/local/popcorn/aarch64/lib/libc.a(strchr.o)
                0x0000000000419cc8                strchr
 .text          0x0000000000419cf4        0x0 0x4 /usr/local/popcorn/aarch64/lib/libc.a(strchrnul.o)
 .text.__strchrnul
                0x0000000000419cf4       0xac 0x4 /usr/local/popcorn/aarch64/lib/libc.a(strchrnul.o)
                0x0000000000419cf4                __strchrnul
                0x0000000000419cf4                strchrnul
 .text          0x0000000000419da0        0x0 0x4 /usr/local/popcorn/aarch64/lib/libc.a(strcmp.o)
 .text.strcmp   0x0000000000419da0       0x38 0x4 /usr/local/popcorn/aarch64/lib/libc.a(strcmp.o)
                0x0000000000419da0                strcmp
 .text          0x0000000000419dd8        0x0 0x4 /usr/local/popcorn/aarch64/lib/libc.a(strlen.o)
 .text.strlen   0x0000000000419dd8       0x5c 0x4 /usr/local/popcorn/aarch64/lib/libc.a(strlen.o)
                0x0000000000419dd8                strlen
 .text          0x0000000000419e34        0x0 0x4 /usr/local/popcorn/aarch64/lib/libc.a(strncmp.o)
 .text.strncmp  0x0000000000419e34       0x5c 0x4 /usr/local/popcorn/aarch64/lib/libc.a(strncmp.o)
                0x0000000000419e34                strncmp
 .text          0x0000000000419e90        0x0 0x4 /usr/local/popcorn/aarch64/lib/libc.a(strstr.o)
 .text.strstr   0x0000000000419e90      0x624 0x4 /usr/local/popcorn/aarch64/lib/libc.a(strstr.o)
                0x0000000000419e90                strstr
 .text          0x000000000041a4b4        0x0 0x4 /usr/local/popcorn/aarch64/lib/libc.a(pthread_attr_get.o)
 .text.pthread_attr_getdetachstate
                0x000000000041a4b4       0x10 0x4 /usr/local/popcorn/aarch64/lib/libc.a(pthread_attr_get.o)
                0x000000000041a4b4                pthread_attr_getdetachstate
 .text.pthread_attr_getguardsize
                0x000000000041a4c4       0x20 0x4 /usr/local/popcorn/aarch64/lib/libc.a(pthread_attr_get.o)
                0x000000000041a4c4                pthread_attr_getguardsize
 .text.pthread_attr_getinheritsched
                0x000000000041a4e4       0x10 0x4 /usr/local/popcorn/aarch64/lib/libc.a(pthread_attr_get.o)
                0x000000000041a4e4                pthread_attr_getinheritsched
 .text.pthread_attr_getschedparam
                0x000000000041a4f4       0x10 0x4 /usr/local/popcorn/aarch64/lib/libc.a(pthread_attr_get.o)
                0x000000000041a4f4                pthread_attr_getschedparam
 .text.pthread_attr_getschedpolicy
                0x000000000041a504       0x10 0x4 /usr/local/popcorn/aarch64/lib/libc.a(pthread_attr_get.o)
                0x000000000041a504                pthread_attr_getschedpolicy
 .text.pthread_attr_getscope
                0x000000000041a514        0xc 0x4 /usr/local/popcorn/aarch64/lib/libc.a(pthread_attr_get.o)
                0x000000000041a514                pthread_attr_getscope
 .text.pthread_attr_getstack
                0x000000000041a520       0x30 0x4 /usr/local/popcorn/aarch64/lib/libc.a(pthread_attr_get.o)
                0x000000000041a520                pthread_attr_getstack
 .text.pthread_attr_getstacksize
                0x000000000041a550       0x14 0x4 /usr/local/popcorn/aarch64/lib/libc.a(pthread_attr_get.o)
                0x000000000041a550                pthread_attr_getstacksize
 .text.pthread_barrierattr_getpshared
                0x000000000041a564       0x18 0x4 /usr/local/popcorn/aarch64/lib/libc.a(pthread_attr_get.o)
                0x000000000041a564                pthread_barrierattr_getpshared
 .text.pthread_condattr_getclock
                0x000000000041a57c       0x14 0x4 /usr/local/popcorn/aarch64/lib/libc.a(pthread_attr_get.o)
                0x000000000041a57c                pthread_condattr_getclock
 .text.pthread_condattr_getpshared
                0x000000000041a590       0x14 0x4 /usr/local/popcorn/aarch64/lib/libc.a(pthread_attr_get.o)
                0x000000000041a590                pthread_condattr_getpshared
 .text.pthread_mutexattr_getprotocol
                0x000000000041a5a4        0xc 0x4 /usr/local/popcorn/aarch64/lib/libc.a(pthread_attr_get.o)
                0x000000000041a5a4                pthread_mutexattr_getprotocol
 .text.pthread_mutexattr_getpshared
                0x000000000041a5b0       0x14 0x4 /usr/local/popcorn/aarch64/lib/libc.a(pthread_attr_get.o)
                0x000000000041a5b0                pthread_mutexattr_getpshared
 .text.pthread_mutexattr_getrobust
                0x000000000041a5c4       0x14 0x4 /usr/local/popcorn/aarch64/lib/libc.a(pthread_attr_get.o)
                0x000000000041a5c4                pthread_mutexattr_getrobust
 .text.pthread_mutexattr_gettype
                0x000000000041a5d8       0x14 0x4 /usr/local/popcorn/aarch64/lib/libc.a(pthread_attr_get.o)
                0x000000000041a5d8                pthread_mutexattr_gettype
 .text.pthread_rwlockattr_getpshared
                0x000000000041a5ec       0x10 0x4 /usr/local/popcorn/aarch64/lib/libc.a(pthread_attr_get.o)
                0x000000000041a5ec                pthread_rwlockattr_getpshared
 .text          0x000000000041a5fc        0x0 0x4 /usr/local/popcorn/aarch64/lib/libc.a(pthread_getattr_np.o)
 .text.pthread_getattr_np
                0x000000000041a5fc      0x114 0x4 /usr/local/popcorn/aarch64/lib/libc.a(pthread_getattr_np.o)
                0x000000000041a5fc                pthread_getattr_np
 .text          0x000000000041a710        0x0 0x4 /usr/local/popcorn/aarch64/lib/libc.a(pthread_getspecific.o)
 .text.__pthread_getspecific
                0x000000000041a710       0x10 0x4 /usr/local/popcorn/aarch64/lib/libc.a(pthread_getspecific.o)
                0x000000000041a710                pthread_getspecific
                0x000000000041a710                tss_get
 .text          0x000000000041a720        0x0 0x4 /usr/local/popcorn/aarch64/lib/libc.a(pthread_key_create.o)
 .text.__pthread_key_create
                0x000000000041a720       0x9c 0x4 /usr/local/popcorn/aarch64/lib/libc.a(pthread_key_create.o)
                0x000000000041a720                __pthread_key_create
                0x000000000041a720                pthread_key_create
 .text.nodtor   0x000000000041a7bc        0x4 0x4 /usr/local/popcorn/aarch64/lib/libc.a(pthread_key_create.o)
 .text.__pthread_key_delete
                0x000000000041a7c0       0x14 0x4 /usr/local/popcorn/aarch64/lib/libc.a(pthread_key_create.o)
                0x000000000041a7c0                __pthread_key_delete
                0x000000000041a7c0                pthread_key_delete
 .text.__pthread_tsd_run_dtors
                0x000000000041a7d4       0x80 0x4 /usr/local/popcorn/aarch64/lib/libc.a(pthread_key_create.o)
                0x000000000041a7d4                __pthread_tsd_run_dtors
 .text          0x000000000041a854        0x0 0x4 /usr/local/popcorn/aarch64/lib/libc.a(pthread_migrate.o)
 .text.pthread_migrate_args
                0x000000000041a854        0xc 0x4 /usr/local/popcorn/aarch64/lib/libc.a(pthread_migrate.o)
                0x000000000041a854                pthread_migrate_args
 .text          0x000000000041a860        0x0 0x4 /usr/local/popcorn/aarch64/lib/libc.a(pthread_self.o)
 .text.__pthread_self_internal
                0x000000000041a860        0x8 0x4 /usr/local/popcorn/aarch64/lib/libc.a(pthread_self.o)
                0x000000000041a860                pthread_self
                0x000000000041a860                thrd_current
 .text          0x000000000041a868        0x0 0x4 /usr/local/popcorn/aarch64/lib/libc.a(pthread_setspecific.o)
 .text.pthread_setspecific
                0x000000000041a868       0x2c 0x4 /usr/local/popcorn/aarch64/lib/libc.a(pthread_setspecific.o)
                0x000000000041a868                pthread_setspecific
 .text          0x000000000041a894        0x0 0x4 /usr/local/popcorn/aarch64/lib/libc.a(close.o)
 .text.dummy    0x000000000041a894        0x4 0x4 /usr/local/popcorn/aarch64/lib/libc.a(close.o)
 .text.close    0x000000000041a898       0x44 0x4 /usr/local/popcorn/aarch64/lib/libc.a(close.o)
                0x000000000041a898                close
 .text          0x000000000041a8dc        0x0 0x4 /usr/local/popcorn/aarch64/lib/libc.a(getpid.o)
 .text.getpid   0x000000000041a8dc        0xc 0x4 /usr/local/popcorn/aarch64/lib/libc.a(getpid.o)
                0x000000000041a8dc                getpid
 .text          0x000000000041a8e8        0x0 0x4 /usr/local/popcorn/aarch64/lib/libc.a(lseek.o)
 .text.lseek    0x000000000041a8e8       0x14 0x4 /usr/local/popcorn/aarch64/lib/libc.a(lseek.o)
                0x000000000041a8e8                lseek
                0x000000000041a8e8                lseek64
 .text          0x000000000041a8fc        0x0 0x4 /usr/local/popcorn/aarch64/lib/libc.a(read.o)
 .text.read     0x000000000041a8fc       0x38 0x4 /usr/local/popcorn/aarch64/lib/libc.a(read.o)
                0x000000000041a8fc                read
 .text          0x000000000041a934        0x0 0x4 /usr/local/popcorn/aarch64/lib/libc.a(abort.o)
 .text.abort    0x000000000041a934       0x1c 0x4 /usr/local/popcorn/aarch64/lib/libc.a(abort.o)
                0x000000000041a934                abort
 .text          0x000000000041a950        0x0 0x4 /usr/local/popcorn/aarch64/lib/libc.a(intscan.o)
 .text.__intscan
                0x000000000041a950      0x5a4 0x4 /usr/local/popcorn/aarch64/lib/libc.a(intscan.o)
                0x000000000041a950                __intscan
 .text          0x000000000041aef4        0x0 0x4 /usr/local/popcorn/aarch64/lib/libc.a(shgetc.o)
 .text.__shlim  0x000000000041aef4       0x24 0x4 /usr/local/popcorn/aarch64/lib/libc.a(shgetc.o)
                0x000000000041aef4                __shlim
 .text.__shgetc
                0x000000000041af18       0xb4 0x4 /usr/local/popcorn/aarch64/lib/libc.a(shgetc.o)
                0x000000000041af18                __shgetc
 .text          0x000000000041afcc        0x0 0x4 /usr/local/popcorn/aarch64/lib/libc.a(__brk.o)
 .text.__brk    0x000000000041afcc        0xc 0x4 /usr/local/popcorn/aarch64/lib/libc.a(__brk.o)
                0x000000000041afcc                __brk
 .text          0x000000000041afd8        0x0 0x4 /usr/local/popcorn/aarch64/lib/libc.a(raise.o)
 .text.raise    0x000000000041afd8       0x58 0x4 /usr/local/popcorn/aarch64/lib/libc.a(raise.o)
                0x000000000041afd8                raise
 .text          0x000000000041b030        0x0 0x4 /usr/local/popcorn/aarch64/lib/libc.a(__fdopen.o)
 .text.__fdopen
                0x000000000041b030      0x1d0 0x4 /usr/local/popcorn/aarch64/lib/libc.a(__fdopen.o)
                0x000000000041b030                __fdopen
                0x000000000041b030                fdopen
 .text          0x000000000041b200        0x0 0x4 /usr/local/popcorn/aarch64/lib/libc.a(__fmodeflags.o)
 .text.__fmodeflags
                0x000000000041b200       0x94 0x4 /usr/local/popcorn/aarch64/lib/libc.a(__fmodeflags.o)
                0x000000000041b200                __fmodeflags
 .text          0x000000000041b294        0x0 0x4 /usr/local/popcorn/aarch64/lib/libc.a(__stdio_read.o)
 .text.__stdio_read
                0x000000000041b294       0xf4 0x4 /usr/local/popcorn/aarch64/lib/libc.a(__stdio_read.o)
                0x000000000041b294                __stdio_read
 .text.cleanup  0x000000000041b388       0x10 0x4 /usr/local/popcorn/aarch64/lib/libc.a(__stdio_read.o)
 .text          0x000000000041b398        0x0 0x4 /usr/local/popcorn/aarch64/lib/libc.a(__string_read.o)
 .text.__string_read
                0x000000000041b398       0x84 0x4 /usr/local/popcorn/aarch64/lib/libc.a(__string_read.o)
                0x000000000041b398                __string_read
 .text          0x000000000041b41c        0x0 0x4 /usr/local/popcorn/aarch64/lib/libc.a(__uflow.o)
 .text.__uflow  0x000000000041b41c       0x54 0x4 /usr/local/popcorn/aarch64/lib/libc.a(__uflow.o)
                0x000000000041b41c                __uflow
 .text          0x000000000041b470        0x0 0x4 /usr/local/popcorn/aarch64/lib/libc.a(getdelim.o)
 .text.getdelim
                0x000000000041b470      0x214 0x4 /usr/local/popcorn/aarch64/lib/libc.a(getdelim.o)
                0x000000000041b470                __getdelim
                0x000000000041b470                getdelim
 .text          0x000000000041b684        0x0 0x4 /usr/local/popcorn/aarch64/lib/libc.a(vfscanf.o)
 .text.vfscanf  0x000000000041b684      0xbbc 0x4 /usr/local/popcorn/aarch64/lib/libc.a(vfscanf.o)
                0x000000000041b684                __isoc99_vfscanf
                0x000000000041b684                vfscanf
 .text          0x000000000041c240        0x0 0x4 /usr/local/popcorn/aarch64/lib/libc.a(floatscan.o)
 .text.__floatscan
                0x000000000041c240     0x156c 0x4 /usr/local/popcorn/aarch64/lib/libc.a(floatscan.o)
                0x000000000041c240                __floatscan
 .text.scanexp  0x000000000041d7ac      0x204 0x4 /usr/local/popcorn/aarch64/lib/libc.a(floatscan.o)
 .text          0x000000000041d9b0        0x0 0x4 /usr/local/popcorn/aarch64/lib/libc.a(copysignl.o)
 .text.copysignl
                0x000000000041d9b0       0x2c 0x4 /usr/local/popcorn/aarch64/lib/libc.a(copysignl.o)
                0x000000000041d9b0                copysignl
 .text          0x000000000041d9dc        0x8 0x4 /usr/local/popcorn/aarch64/lib/libc.a(fabs.o)
                0x000000000041d9dc                fabs
 .text          0x000000000041d9e4        0x0 0x4 /usr/local/popcorn/aarch64/lib/libc.a(fmodl.o)
 .text.fmodl    0x000000000041d9e4      0x254 0x4 /usr/local/popcorn/aarch64/lib/libc.a(fmodl.o)
                0x000000000041d9e4                fmodl
 .text          0x000000000041dc38        0x0 0x4 /usr/local/popcorn/aarch64/lib/libc.a(scalbn.o)
 .text.scalbn   0x000000000041dc38       0x88 0x4 /usr/local/popcorn/aarch64/lib/libc.a(scalbn.o)
                0x000000000041dc38                scalbn
 .text          0x000000000041dcc0        0x0 0x4 /usr/local/popcorn/aarch64/lib/libc.a(scalbnl.o)
 .text.scalbnl  0x000000000041dcc0       0xd4 0x4 /usr/local/popcorn/aarch64/lib/libc.a(scalbnl.o)
                0x000000000041dcc0                scalbnl
 .text          0x000000000041dd94        0x0 0x4 /usr/local/popcorn/aarch64/lib/libc.a(mbrtowc.o)
 .text.mbrtowc  0x000000000041dd94      0x11c 0x4 /usr/local/popcorn/aarch64/lib/libc.a(mbrtowc.o)
                0x000000000041dd94                mbrtowc
 .text          0x000000000041deb0        0x0 0x4 /usr/local/popcorn/aarch64/lib/libc.a(mbsinit.o)
 .text.mbsinit  0x000000000041deb0       0x1c 0x4 /usr/local/popcorn/aarch64/lib/libc.a(mbsinit.o)
                0x000000000041deb0                mbsinit
 .text          0x000000000041decc        0x0 0x4 /usr/local/popcorn/aarch64/lib/libc.a(block.o)
 .text.__block_all_sigs
                0x000000000041decc       0x24 0x4 /usr/local/popcorn/aarch64/lib/libc.a(block.o)
                0x000000000041decc                __block_all_sigs
 .text.__block_app_sigs
                0x000000000041def0       0x24 0x4 /usr/local/popcorn/aarch64/lib/libc.a(block.o)
                0x000000000041def0                __block_app_sigs
 .text.__restore_sigs
                0x000000000041df14       0x20 0x4 /usr/local/popcorn/aarch64/lib/libc.a(block.o)
                0x000000000041df14                __restore_sigs
 .text          0x000000000041df34        0x0 0x4 /usr/local/popcorn/aarch64/lib/libc.a(__toread.o)
 .text.__toread
                0x000000000041df34       0x84 0x4 /usr/local/popcorn/aarch64/lib/libc.a(__toread.o)
                0x000000000041df34                __toread
 .text.__toread_needs_stdio_exit
                0x000000000041dfb8        0x4 0x4 /usr/local/popcorn/aarch64/lib/libc.a(__toread.o)
                0x000000000041dfb8                __toread_needs_stdio_exit
 .text          0x000000000041dfbc        0x0 0x4 /usr/local/popcorn/aarch64/lib/libc.a(internal.o)
 .text          0x000000000041dfc0      0xd34 0x8 /usr/lib/gcc-cross/aarch64-linux-gnu/5/libgcc.a(addtf3.o)
                0x000000000041dfc0                __addtf3
 .text          0x000000000041ecf8      0x8f8 0x8 /usr/lib/gcc-cross/aarch64-linux-gnu/5/libgcc.a(divtf3.o)
                0x000000000041ecf8                __divtf3
 .text          0x000000000041f5f0      0x114 0x8 /usr/lib/gcc-cross/aarch64-linux-gnu/5/libgcc.a(eqtf2.o)
                0x000000000041f5f0                __eqtf2
                0x000000000041f5f0                __netf2
 .text          0x000000000041f708      0x14c 0x8 /usr/lib/gcc-cross/aarch64-linux-gnu/5/libgcc.a(getf2.o)
                0x000000000041f708                __getf2
                0x000000000041f708                __gttf2
 .text          0x000000000041f858      0x164 0x8 /usr/lib/gcc-cross/aarch64-linux-gnu/5/libgcc.a(letf2.o)
                0x000000000041f858                __letf2
                0x000000000041f858                __lttf2
 .text          0x000000000041f9c0      0x790 0x8 /usr/lib/gcc-cross/aarch64-linux-gnu/5/libgcc.a(multf3.o)
                0x000000000041f9c0                __multf3
 .text          0x0000000000420150      0xddc 0x8 /usr/lib/gcc-cross/aarch64-linux-gnu/5/libgcc.a(subtf3.o)
                0x0000000000420150                __subtf3
 .text          0x0000000000420f30       0xd4 0x8 /usr/lib/gcc-cross/aarch64-linux-gnu/5/libgcc.a(unordtf2.o)
                0x0000000000420f30                __unordtf2
 .text          0x0000000000421008      0x100 0x8 /usr/lib/gcc-cross/aarch64-linux-gnu/5/libgcc.a(fixtfsi.o)
                0x0000000000421008                __fixtfsi
 .text          0x0000000000421108       0xe4 0x8 /usr/lib/gcc-cross/aarch64-linux-gnu/5/libgcc.a(fixunstfsi.o)
                0x0000000000421108                __fixunstfsi
 .text          0x00000000004211f0       0x7c 0x8 /usr/lib/gcc-cross/aarch64-linux-gnu/5/libgcc.a(floatsitf.o)
                0x00000000004211f0                __floatsitf
 .text          0x0000000000421270       0x70 0x8 /usr/lib/gcc-cross/aarch64-linux-gnu/5/libgcc.a(floatunsitf.o)
                0x0000000000421270                __floatunsitf
 .text          0x00000000004212e0       0xf4 0x8 /usr/lib/gcc-cross/aarch64-linux-gnu/5/libgcc.a(extendsftf2.o)
                0x00000000004212e0                __extendsftf2
 .text          0x00000000004213d8      0x118 0x8 /usr/lib/gcc-cross/aarch64-linux-gnu/5/libgcc.a(extenddftf2.o)
                0x00000000004213d8                __extenddftf2
 .text          0x00000000004214f0      0x340 0x8 /usr/lib/gcc-cross/aarch64-linux-gnu/5/libgcc.a(trunctfsf2.o)
                0x00000000004214f0                __trunctfsf2
 .text          0x0000000000421830      0x398 0x8 /usr/lib/gcc-cross/aarch64-linux-gnu/5/libgcc.a(trunctfdf2.o)
                0x0000000000421830                __trunctfdf2
 .text          0x0000000000421bc8       0x6c 0x8 /usr/lib/gcc-cross/aarch64-linux-gnu/5/libgcc.a(sfp-exceptions.o)
                0x0000000000421bc8                __sfp_handle_exceptions

.rodata         0x0000000000421c40     0x2d3b
 .rodata.pierre__str_hello__wor
                0x0000000000421c40       0x12 0x1 pierre.o
                0x0000000000421c40                pierre__str_hello__wor
 .rodata.src_env___libc_start_main___init_libc_pfd_
                0x0000000000421c54       0x18 0x4 /usr/local/popcorn/aarch64/lib/libc.a(__libc_start_main.o)
                0x0000000000421c54                src_env___libc_start_main___init_libc_pfd_
 .rodata.src_env___libc_start_main__str__dev_null_
                0x0000000000421c6c        0xa 0x1 /usr/local/popcorn/aarch64/lib/libc.a(__libc_start_main.o)
                0x0000000000421c6c                src_env___libc_start_main__str__dev_null_
 .rodata.stdout
                0x0000000000421c78        0x8 0x8 /usr/local/popcorn/aarch64/lib/libc.a(stdout.o)
                0x0000000000421c78                stdout
 ** merge constants
                0x0000000000421c80      0x110
 .rodata        0x0000000000421d90       0x40 0x10 /usr/local/popcorn/aarch64/lib/libc.a(vfprintf.o)
 .rodata.printf_core
                0x0000000000421dd0      0x170 0x8 /usr/local/popcorn/aarch64/lib/libc.a(vfprintf.o)
 .rodata.pop_arg
                0x0000000000421f40       0x60 0x8 /usr/local/popcorn/aarch64/lib/libc.a(vfprintf.o)
 .rodata.src_stdio_vfprintf_c_states
                0x0000000000421fa0      0x1d0 0x1 /usr/local/popcorn/aarch64/lib/libc.a(vfprintf.o)
 .rodata.src_stdio_vfprintf__str______0X0x_
                0x0000000000422170        0xa 0x1 /usr/local/popcorn/aarch64/lib/libc.a(vfprintf.o)
                0x0000000000422170                src_stdio_vfprintf__str______0X0x_
 .rodata.src_stdio_vfprintf__str_1__null__
                0x000000000042217a        0x7 0x1 /usr/local/popcorn/aarch64/lib/libc.a(vfprintf.o)
                0x000000000042217a                src_stdio_vfprintf__str_1__null__
 .rodata.src_stdio_vfprintf_c_xdigits
                0x0000000000422181       0x10 0x1 /usr/local/popcorn/aarch64/lib/libc.a(vfprintf.o)
 .rodata.src_stdio_vfprintf__str_2__0X_0X_0X_
                0x0000000000422191       0x13 0x1 /usr/local/popcorn/aarch64/lib/libc.a(vfprintf.o)
                0x0000000000422191                src_stdio_vfprintf__str_2__0X_0X_0X_
 .rodata.src_stdio_vfprintf__str_3_inf_
                0x00000000004221a4        0x4 0x1 /usr/local/popcorn/aarch64/lib/libc.a(vfprintf.o)
                0x00000000004221a4                src_stdio_vfprintf__str_3_inf_
 .rodata.src_stdio_vfprintf__str_4_INF_
                0x00000000004221a8        0x4 0x1 /usr/local/popcorn/aarch64/lib/libc.a(vfprintf.o)
                0x00000000004221a8                src_stdio_vfprintf__str_4_INF_
 .rodata.src_stdio_vfprintf__str_5_nan_
                0x00000000004221ac        0x4 0x1 /usr/local/popcorn/aarch64/lib/libc.a(vfprintf.o)
                0x00000000004221ac                src_stdio_vfprintf__str_5_nan_
 .rodata.src_stdio_vfprintf__str_6_NAN_
                0x00000000004221b0        0x4 0x1 /usr/local/popcorn/aarch64/lib/libc.a(vfprintf.o)
                0x00000000004221b0                src_stdio_vfprintf__str_6_NAN_
 .rodata.src_stdio_vfprintf__str_7___
                0x00000000004221b4        0x2 0x1 /usr/local/popcorn/aarch64/lib/libc.a(vfprintf.o)
                0x00000000004221b4                src_stdio_vfprintf__str_7___
 .rodata.src_errno_strerror_c_errid
                0x00000000004221b6       0x58 0x1 /usr/local/popcorn/aarch64/lib/libc.a(strerror.o)
 .rodata.src_errno_strerror_c_errmsg
                0x000000000042220e      0x70c 0x1 /usr/local/popcorn/aarch64/lib/libc.a(strerror.o)
 .rodata.src_migrate__str__proc_cpui
                0x000000000042291a        0xe 0x1 /usr/local/popcorn/aarch64/lib/libmigrate.a(migrate.o)
                0x000000000042291a                src_migrate__str__proc_cpui
 .rodata.src_migrate__str_1_r_
                0x0000000000422928        0x2 0x1 /usr/local/popcorn/aarch64/lib/libmigrate.a(migrate.o)
                0x0000000000422928                src_migrate__str_1_r_
 .rodata.src_migrate__str_2_GenuineInt
                0x000000000042292a        0xd 0x1 /usr/local/popcorn/aarch64/lib/libmigrate.a(migrate.o)
                0x000000000042292a                src_migrate__str_2_GenuineInt
 .rodata.src_migrate__str_3_AuthenticA
                0x0000000000422937        0xd 0x1 /usr/local/popcorn/aarch64/lib/libmigrate.a(migrate.o)
                0x0000000000422937                src_migrate__str_3_AuthenticA
 .rodata.src_migrate__str_4_Could_not_
                0x0000000000422944       0x1a 0x1 /usr/local/popcorn/aarch64/lib/libmigrate.a(migrate.o)
                0x0000000000422944                src_migrate__str_4_Could_not_
 .rodata.src_migrate__str_5_0_____Coul
                0x000000000042295e       0x19 0x1 /usr/local/popcorn/aarch64/lib/libmigrate.a(migrate.o)
                0x000000000042295e                src_migrate__str_5_0_____Coul
 .rodata.src_migrate__str_6_src_migrat
                0x0000000000422977        0xe 0x1 /usr/local/popcorn/aarch64/lib/libmigrate.a(migrate.o)
                0x0000000000422977                src_migrate__str_6_src_migrat
 .rodata.src_migrate___func_____migrate_shim_internal___migrate_
                0x0000000000422985       0x18 0x1 /usr/local/popcorn/aarch64/lib/libmigrate.a(migrate.o)
                0x0000000000422985                src_migrate___func_____migrate_shim_internal___migrate_
 .rodata.src_userspace__str_ST_AARCH64
                0x000000000042299d        0xf 0x1 /usr/local/popcorn/aarch64/lib/libstack-transform.a(userspace.o)
                0x000000000042299d                src_userspace__str_ST_AARCH64
 .rodata.src_userspace__str_1__s_aarch64
                0x00000000004229ac        0xb 0x1 /usr/local/popcorn/aarch64/lib/libstack-transform.a(userspace.o)
                0x00000000004229ac                src_userspace__str_1__s_aarch64
 .rodata.src_userspace__str_2_ST_X86_64_
                0x00000000004229b7        0xe 0x1 /usr/local/popcorn/aarch64/lib/libstack-transform.a(userspace.o)
                0x00000000004229b7                src_userspace__str_2_ST_X86_64_
 .rodata.src_userspace__str_3__s_x86_64_
                0x00000000004229c5        0xa 0x1 /usr/local/popcorn/aarch64/lib/libstack-transform.a(userspace.o)
                0x00000000004229c5                src_userspace__str_3__s_x86_64_
 .rodata.src_userspace__str_4__proc__d_m
                0x00000000004229cf        0xe 0x1 /usr/local/popcorn/aarch64/lib/libstack-transform.a(userspace.o)
                0x00000000004229cf                src_userspace__str_4__proc__d_m
 .rodata.src_userspace__str_5_r_
                0x00000000004229dd        0x2 0x1 /usr/local/popcorn/aarch64/lib/libstack-transform.a(userspace.o)
                0x00000000004229dd                src_userspace__str_5_r_
 .rodata.src_userspace__str_6__lx__lx__s
                0x00000000004229df       0x19 0x1 /usr/local/popcorn/aarch64/lib/libstack-transform.a(userspace.o)
                0x00000000004229df                src_userspace__str_6__lx__lx(short)
 .rodata.src_userspace__str_7__stack__
                0x00000000004229f8        0x8 0x1 /usr/local/popcorn/aarch64/lib/libstack-transform.a(userspace.o)
                0x00000000004229f8                src_userspace__str_7__stack__
 .rodata.src_init__str__stack_tra
                0x0000000000422a00       0x1f 0x1 /usr/local/popcorn/aarch64/lib/libstack-transform.a(init.o)
                0x0000000000422a00                src_init__str__stack_tra
 .rodata.src_init__str_1__stack_tra
                0x0000000000422a1f       0x18 0x1 /usr/local/popcorn/aarch64/lib/libstack-transform.a(init.o)
                0x0000000000422a1f                src_init__str_1__stack_tra
 .rodata.src_init__str_2__stack_tra
                0x0000000000422a37       0x14 0x1 /usr/local/popcorn/aarch64/lib/libstack-transform.a(init.o)
                0x0000000000422a37                src_init__str_2__stack_tra
 .rodata.src_init__str_3__stack_tra
                0x0000000000422a4b       0x16 0x1 /usr/local/popcorn/aarch64/lib/libstack-transform.a(init.o)
                0x0000000000422a4b                src_init__str_3__stack_tra
 .rodata.src_init__str_4__stack_tra
                0x0000000000422a61       0x16 0x1 /usr/local/popcorn/aarch64/lib/libstack-transform.a(init.o)
                0x0000000000422a61                src_init__str_4__stack_tra
 .rodata.src_init__str_5__stack_tra
                0x0000000000422a77       0x1c 0x1 /usr/local/popcorn/aarch64/lib/libstack-transform.a(init.o)
                0x0000000000422a77                src_init__str_5__stack_tra
 .rodata.src_rewrite__str__src_rewri
                0x0000000000422a93       0x42 0x1 /usr/local/popcorn/aarch64/lib/libstack-transform.a(rewrite.o)
                0x0000000000422a93                src_rewrite__str__src_rewri
 .rodata.src_rewrite__str_1__src_rewri
                0x0000000000422ad5       0x68 0x1 /usr/local/popcorn/aarch64/lib/libstack-transform.a(rewrite.o)
                0x0000000000422ad5                src_rewrite__str_1__src_rewri
 .rodata.src_rewrite__str_2__src_rewri
                0x0000000000422b3d       0x54 0x1 /usr/local/popcorn/aarch64/lib/libstack-transform.a(rewrite.o)
                0x0000000000422b3d                src_rewrite__str_2__src_rewri
 .rodata.src_rewrite__str_3__src_rewri
                0x0000000000422b91       0x61 0x1 /usr/local/popcorn/aarch64/lib/libstack-transform.a(rewrite.o)
                0x0000000000422b91                src_rewrite__str_3__src_rewri
 .rodata.src_rewrite__str_4__src_rewri
                0x0000000000422bf2       0x54 0x1 /usr/local/popcorn/aarch64/lib/libstack-transform.a(rewrite.o)
                0x0000000000422bf2                src_rewrite__str_4__src_rewri
 .rodata.src_rewrite__str_5__src_rewri
                0x0000000000422c46       0x61 0x1 /usr/local/popcorn/aarch64/lib/libstack-transform.a(rewrite.o)
                0x0000000000422c46                src_rewrite__str_5__src_rewri
 .rodata.src_util__str_x86_64_
                0x0000000000422ca7        0x7 0x1 /usr/local/popcorn/aarch64/lib/libstack-transform.a(util.o)
                0x0000000000422ca7                src_util__str_x86_64_
 .rodata.src_util__str_1_aarch64_
                0x0000000000422cae        0x8 0x1 /usr/local/popcorn/aarch64/lib/libstack-transform.a(util.o)
                0x0000000000422cae                src_util__str_1_aarch64_
 .rodata.src_util__str_2_unknown_un
                0x0000000000422cb6       0x21 0x1 /usr/local/popcorn/aarch64/lib/libstack-transform.a(util.o)
                0x0000000000422cb6                src_util__str_2_unknown_un
 .rodata.src_arch_aarch64_properties_c_callee_saved_aarch64
                0x0000000000422cd8       0x28 0x2 /usr/local/popcorn/aarch64/lib/libstack-transform.a(properties.o)
 .rodata.src_arch_aarch64_properties_c_callee_saved_size_aarch64
                0x0000000000422d00       0x28 0x2 /usr/local/popcorn/aarch64/lib/libstack-transform.a(properties.o)
 .rodata.properties_aarch64
                0x0000000000422d28       0x48 0x8 /usr/local/popcorn/aarch64/lib/libstack-transform.a(properties.o)
                0x0000000000422d28                properties_aarch64
 .rodata.src_arch_aarch64_properties__str__src_arch_
                0x0000000000422d70       0x5a 0x1 /usr/local/popcorn/aarch64/lib/libstack-transform.a(properties.o)
                0x0000000000422d70                src_arch_aarch64_properties__str__src_arch_
 .rodata.src_arch_aarch64_properties__str_1__src_arch_
                0x0000000000422dca       0x51 0x1 /usr/local/popcorn/aarch64/lib/libstack-transform.a(properties.o)
                0x0000000000422dca                src_arch_aarch64_properties__str_1__src_arch_
 .rodata.reg_aarch64
                0x0000000000422e20      0x300 0x8 /usr/local/popcorn/aarch64/lib/libstack-transform.a(regs.o)
 .rodata.regs_aarch64
                0x0000000000423120       0xa0 0x8 /usr/local/popcorn/aarch64/lib/libstack-transform.a(regs.o)
                0x0000000000423120                regs_aarch64
 .rodata.src_arch_aarch64_regs__str__src_arch_
                0x00000000004231c0       0x4c 0x1 /usr/local/popcorn/aarch64/lib/libstack-transform.a(regs.o)
                0x00000000004231c0                src_arch_aarch64_regs__str__src_arch_
 .rodata.src_arch_aarch64_regs__str_1__src_arch_
                0x000000000042320c       0x4c 0x1 /usr/local/popcorn/aarch64/lib/libstack-transform.a(regs.o)
                0x000000000042320c                src_arch_aarch64_regs__str_1__src_arch_
 .rodata.src_arch_x86_64_properties_c_callee_saved_x86_64
                0x0000000000423258        0xe 0x2 /usr/local/popcorn/aarch64/lib/libstack-transform.a(properties.o)
 .rodata.src_arch_x86_64_properties_c_callee_saved_size_x86_64
                0x0000000000423266        0xe 0x2 /usr/local/popcorn/aarch64/lib/libstack-transform.a(properties.o)
 .rodata.properties_x86_64
                0x0000000000423278       0x48 0x8 /usr/local/popcorn/aarch64/lib/libstack-transform.a(properties.o)
                0x0000000000423278                properties_x86_64
 .rodata.src_arch_x86_64_properties__str__src_arch_
                0x00000000004232c0       0x4f 0x1 /usr/local/popcorn/aarch64/lib/libstack-transform.a(properties.o)
                0x00000000004232c0                src_arch_x86_64_properties__str__src_arch_
 .rodata.reg_x86_64
                0x0000000000423310      0x108 0x8 /usr/local/popcorn/aarch64/lib/libstack-transform.a(regs.o)
 .rodata.regs_x86_64
                0x0000000000423418       0xa0 0x8 /usr/local/popcorn/aarch64/lib/libstack-transform.a(regs.o)
                0x0000000000423418                regs_x86_64
 .rodata.src_arch_x86_64_regs__str__src_arch_
                0x00000000004234b8       0x4b 0x1 /usr/local/popcorn/aarch64/lib/libstack-transform.a(regs.o)
                0x00000000004234b8                src_arch_x86_64_regs__str__src_arch_
 .rodata.src_arch_x86_64_regs__str_1__src_arch_
                0x0000000000423503       0x4b 0x1 /usr/local/popcorn/aarch64/lib/libstack-transform.a(regs.o)
                0x0000000000423503                src_arch_x86_64_regs__str_1__src_arch_
 .rodata.src_arch_x86_64_regs__str_2__src_arch_
                0x000000000042354e       0x4a 0x1 /usr/local/popcorn/aarch64/lib/libstack-transform.a(regs.o)
                0x000000000042354e                src_arch_x86_64_regs__str_2__src_arch_
 .rodata.src_arch_x86_64_regs__str_3__src_arch_
                0x0000000000423598       0x4a 0x1 /usr/local/popcorn/aarch64/lib/libstack-transform.a(regs.o)
                0x0000000000423598                src_arch_x86_64_regs__str_3__src_arch_
 .rodata.put_val_arch
                0x00000000004235e8       0x48 0x8 /usr/local/popcorn/aarch64/lib/libstack-transform.a(data.o)
 .rodata.points_to_stack
                0x0000000000423630       0x28 0x8 /usr/local/popcorn/aarch64/lib/libstack-transform.a(data.o)
 .rodata.src_data__str__src_data_
                0x0000000000423658       0x38 0x1 /usr/local/popcorn/aarch64/lib/libstack-transform.a(data.o)
                0x0000000000423658                src_data__str__src_data_
 .rodata.src_data__str_1__src_data_
                0x0000000000423690       0x50 0x1 /usr/local/popcorn/aarch64/lib/libstack-transform.a(data.o)
                0x0000000000423690                src_data__str_1__src_data_
 .rodata.src_data__str_2__src_data_
                0x00000000004236e0       0x3d 0x1 /usr/local/popcorn/aarch64/lib/libstack-transform.a(data.o)
                0x00000000004236e0                src_data__str_2__src_data_
 .rodata.src_data__str_3__src_data_
                0x000000000042371d       0x30 0x1 /usr/local/popcorn/aarch64/lib/libstack-transform.a(data.o)
                0x000000000042371d                src_data__str_3__src_data_
 .rodata.src_data__str_4__src_data_
                0x000000000042374d       0x49 0x1 /usr/local/popcorn/aarch64/lib/libstack-transform.a(data.o)
                0x000000000042374d                src_data__str_4__src_data_
 .rodata.src_data__str_5__src_data_
                0x0000000000423796       0x3f 0x1 /usr/local/popcorn/aarch64/lib/libstack-transform.a(data.o)
                0x0000000000423796                src_data__str_5__src_data_
 .rodata.src_data__str_6__src_data_
                0x00000000004237d5       0x3d 0x1 /usr/local/popcorn/aarch64/lib/libstack-transform.a(data.o)
                0x00000000004237d5                src_data__str_6__src_data_
 .rodata.src_data__str_7__src_data_
                0x0000000000423812       0x3f 0x1 /usr/local/popcorn/aarch64/lib/libstack-transform.a(data.o)
                0x0000000000423812                src_data__str_7__src_data_
 .rodata.src_data__str_8__src_data_
                0x0000000000423851       0x4b 0x1 /usr/local/popcorn/aarch64/lib/libstack-transform.a(data.o)
                0x0000000000423851                src_data__str_8__src_data_
 .rodata.src_data__str_9__src_data_
                0x000000000042389c       0x37 0x1 /usr/local/popcorn/aarch64/lib/libstack-transform.a(data.o)
                0x000000000042389c                src_data__str_9__src_data_
 ** merge strings
                0x00000000004238d8       0x35
 .rodata.fmag   0x0000000000423910        0x3 0x10 /usr/local/popcorn/aarch64/lib/libelf.a(begin.o)
 .rodata.xlate32_11
                0x0000000000423920      0x220 0x10 /usr/local/popcorn/aarch64/lib/libelf.a(32.xlatetof.o)
 .rodata._elf_scn_init
                0x0000000000423b40       0xa0 0x8 /usr/local/popcorn/aarch64/lib/libelf.a(cook.o)
                0x0000000000423b40                _elf_scn_init
 .rodata._elf_data_init
                0x0000000000423be0       0x58 0x8 /usr/local/popcorn/aarch64/lib/libelf.a(cook.o)
                0x0000000000423be0                _elf_data_init
 .rodata.xlate64_11
                0x0000000000423c40      0x220 0x10 /usr/local/popcorn/aarch64/lib/libelf.a(64.xlatetof.o)
 .rodata._elf_fmsize
                0x0000000000423e60      0x220 0x10 /usr/local/popcorn/aarch64/lib/libelf.a(32.fsize.o)
                0x0000000000423e60                _elf_fmsize
 .rodata.sysconf
                0x0000000000424080       0x50 0x8 /usr/local/popcorn/aarch64/lib/libc.a(sysconf.o)
 .rodata.src_conf_sysconf_c_sysconf_values
                0x00000000004240d0      0x1f2 0x2 /usr/local/popcorn/aarch64/lib/libc.a(sysconf.o)
 .rodata.src_exit_assert__str_Assertion_
                0x00000000004242c2       0x23 0x1 /usr/local/popcorn/aarch64/lib/libc.a(assert.o)
                0x00000000004242c2                src_exit_assert__str_Assertion_
 .rodata.src_stdio_fopen__str_rwa_
                0x00000000004242e5        0x4 0x1 /usr/local/popcorn/aarch64/lib/libc.a(fopen.o)
                0x00000000004242e5                src_stdio_fopen__str_rwa_
 .rodata.stderr
                0x00000000004242f0        0x8 0x8 /usr/local/popcorn/aarch64/lib/libc.a(stderr.o)
                0x00000000004242f0                stderr
 .rodata.src_stdio_vsnprintf_vsnprintf_f_
                0x00000000004242f8       0xe0 0x8 /usr/local/popcorn/aarch64/lib/libc.a(vsnprintf.o)
                0x00000000004242f8                src_stdio_vsnprintf_vsnprintf_f_
 .rodata.src_internal_intscan_c_table
                0x00000000004243d8      0x101 0x1 /usr/local/popcorn/aarch64/lib/libc.a(intscan.o)
 .rodata.src_internal_intscan__str__________
                0x00000000004244d9        0x9 0x1 /usr/local/popcorn/aarch64/lib/libc.a(intscan.o)
                0x00000000004244d9                src_internal_intscan__str__________
 .rodata.src_stdio___fdopen__str_rwa_
                0x00000000004244e2        0x4 0x1 /usr/local/popcorn/aarch64/lib/libc.a(__fdopen.o)
                0x00000000004244e2                src_stdio___fdopen__str_rwa_
 .rodata.vfscanf
                0x00000000004244e8      0x338 0x8 /usr/local/popcorn/aarch64/lib/libc.a(vfscanf.o)
 ** merge constants
                0x0000000000424820       0x18
 ** merge constants
                0x0000000000424838        0x4
 .rodata.src_internal_floatscan__str_infinity_
                0x000000000042483c        0x9 0x1 /usr/local/popcorn/aarch64/lib/libc.a(floatscan.o)
                0x000000000042483c                src_internal_floatscan__str_infinity_
 .rodata.src_internal_floatscan_c_decfloat_p10s
                0x0000000000424848       0x20 0x4 /usr/local/popcorn/aarch64/lib/libc.a(floatscan.o)
 .rodata.src_internal_floatscan_switch_table_
                0x0000000000424868        0xc 0x4 /usr/local/popcorn/aarch64/lib/libc.a(floatscan.o)
                0x0000000000424868                src_internal_floatscan_switch_table_
 .rodata.src_internal_floatscan_switch_table_2_
                0x0000000000424874        0xc 0x4 /usr/local/popcorn/aarch64/lib/libc.a(floatscan.o)
                0x0000000000424874                src_internal_floatscan_switch_table_2_
 .rodata.src_signal_block_c_all_mask
                0x0000000000424880        0x8 0x8 /usr/local/popcorn/aarch64/lib/libc.a(block.o)
 .rodata.src_signal_block_c_app_mask
                0x0000000000424888        0x8 0x8 /usr/local/popcorn/aarch64/lib/libc.a(block.o)
 .rodata.__fsmu8
                0x0000000000424890       0xcc 0x4 /usr/local/popcorn/aarch64/lib/libc.a(internal.o)
                0x0000000000424890                __fsmu8
 .rodata        0x000000000042495c        0xf 0x4 /usr/lib/gcc-cross/aarch64-linux-gnu/5/libgcc.a(divtf3.o)
 .rodata        0x000000000042496c        0xf 0x4 /usr/lib/gcc-cross/aarch64-linux-gnu/5/libgcc.a(multf3.o)

.llvm_stackmaps
                0x0000000000424980      0x908
 .llvm_stackmaps
                0x0000000000424980      0x1d8 0x8 pierre.o
 .llvm_stackmaps
                0x0000000000424b58       0xb0 0x8 test.o
 .llvm_stackmaps
                0x0000000000424c08      0x680 0x8 /usr/local/popcorn/aarch64/lib/libmigrate.a(migrate.o)

.eh_frame       0x0000000000425288       0x88
 ** eh_frame    0x0000000000425288       0x88

.data.rel.ro    0x000000000043ffb8       0x30
 .data.rel.ro   0x000000000043ffb8       0x10 0x8 /usr/local/popcorn/aarch64/lib/crt1.o
 .data.rel.ro   0x000000000043ffc8       0x10 0x8 /usr/local/popcorn/aarch64/lib/libc.a(__libc_start_main.o)
 .data.rel.ro   0x000000000043ffd8       0x10 0x8 /usr/local/popcorn/aarch64/lib/libc.a(exit.o)

.init_array     0x000000000043ffe8       0x18
 .init_array    0x000000000043ffe8       0x10 0x8 /usr/local/popcorn/aarch64/lib/libmigrate.a(migrate.o)
 .init_array    0x000000000043fff8        0x8 0x8 /usr/local/popcorn/aarch64/lib/libstack-transform.a(init.o)

.data           0x0000000000440000      0x1e0
 .data          0x0000000000440000        0x0 0x4 pierre.o
 .data          0x0000000000440000        0x0 0x4 test.o
 .data          0x0000000000440000        0x0 0x4 /usr/local/popcorn/aarch64/lib/crt1.o
 .data          0x0000000000440000        0x0 0x4 /usr/local/popcorn/aarch64/lib/libc.a(__libc_start_main.o)
 .data          0x0000000000440000        0x0 0x4 /usr/local/popcorn/aarch64/lib/libc.a(exit.o)
 .data          0x0000000000440000        0x0 0x4 /usr/local/popcorn/aarch64/lib/libc.a(libc.o)
 .data          0x0000000000440000        0x0 0x4 /usr/local/popcorn/aarch64/lib/libc.a(printf.o)
 .data          0x0000000000440000        0x0 0x4 /usr/local/popcorn/aarch64/lib/libc.a(stdout.o)
 .data.src_stdio_stdout_c_f
                0x0000000000440000       0xe0 0x8 /usr/local/popcorn/aarch64/lib/libc.a(stdout.o)
 .data.__stdout_used
                0x00000000004400e0        0x8 0x8 /usr/local/popcorn/aarch64/lib/libc.a(stdout.o)
                0x00000000004400e0                __stdout_used
 .data          0x00000000004400e8        0x0 0x4 /usr/local/popcorn/aarch64/lib/libc.a(vfprintf.o)
 .data          0x00000000004400e8        0x0 0x4 /usr/local/popcorn/aarch64/lib/libc.a(memchr.o)
 .data          0x00000000004400e8        0x0 0x4 /usr/local/popcorn/aarch64/lib/libc.a(memset.o)
 .data          0x00000000004400e8        0x0 0x4 /usr/local/popcorn/aarch64/lib/libc.a(__environ.o)
 .data          0x00000000004400e8        0x0 0x4 /usr/local/popcorn/aarch64/lib/libc.a(__init_tls.o)
 .data          0x00000000004400e8        0x0 0x4 /usr/local/popcorn/aarch64/lib/libc.a(__errno_location.o)
 .data          0x00000000004400e8        0x0 0x4 /usr/local/popcorn/aarch64/lib/libc.a(strerror.o)
 .data          0x00000000004400e8        0x0 0x4 /usr/local/popcorn/aarch64/lib/libc.a(_Exit.o)
 .data          0x00000000004400e8        0x0 0x4 /usr/local/popcorn/aarch64/lib/libc.a(__lctrans.o)
 .data          0x00000000004400e8        0x0 0x4 /usr/local/popcorn/aarch64/lib/libc.a(__fpclassifyl.o)
 .data          0x00000000004400e8        0x0 0x4 /usr/local/popcorn/aarch64/lib/libc.a(__signbitl.o)
 .data          0x00000000004400e8        0x0 0x4 /usr/local/popcorn/aarch64/lib/libc.a(frexpl.o)
 .data          0x00000000004400e8        0x0 0x4 /usr/local/popcorn/aarch64/lib/libc.a(wctomb.o)
 .data          0x00000000004400e8        0x0 0x4 /usr/local/popcorn/aarch64/lib/libc.a(__lockfile.o)
 .data          0x00000000004400e8        0x0 0x4 /usr/local/popcorn/aarch64/lib/libc.a(__stdio_close.o)
 .data          0x00000000004400e8        0x0 0x4 /usr/local/popcorn/aarch64/lib/libc.a(__stdio_seek.o)
 .data          0x00000000004400e8        0x0 0x4 /usr/local/popcorn/aarch64/lib/libc.a(__stdout_write.o)
 .data          0x00000000004400e8        0x0 0x4 /usr/local/popcorn/aarch64/lib/libc.a(fwrite.o)
 .data          0x00000000004400e8        0x0 0x4 /usr/local/popcorn/aarch64/lib/libc.a(memcpy.o)
 .data          0x00000000004400e8        0x0 0x4 /usr/local/popcorn/aarch64/lib/libc.a(__set_thread_area.o)
 .data          0x00000000004400e8        0x0 0x4 /usr/local/popcorn/aarch64/lib/libc.a(__wait.o)
 .data          0x00000000004400e8        0x0 0x4 /usr/local/popcorn/aarch64/lib/libc.a(syscall_ret.o)
 .data          0x00000000004400e8        0x0 0x4 /usr/local/popcorn/aarch64/lib/libc.a(wcrtomb.o)
 .data          0x00000000004400e8        0x0 0x4 /usr/local/popcorn/aarch64/lib/libc.a(__stdio_write.o)
 .data          0x00000000004400e8        0x0 0x4 /usr/local/popcorn/aarch64/lib/libc.a(__towrite.o)
 .data          0x00000000004400e8        0x0 0x4 /usr/local/popcorn/aarch64/lib/libc.a(__syscall_cp.o)
 .data          0x00000000004400e8        0x0 0x4 /usr/local/popcorn/aarch64/lib/libc.a(pthread_cleanup_push.o)
 .data          0x00000000004400e8        0x0 0x4 /usr/local/popcorn/aarch64/lib/libc.a(syscall.o)
 .data          0x00000000004400e8        0x0 0x4 /usr/local/popcorn/aarch64/lib/libc.a(__stdio_exit.o)
 .data          0x00000000004400e8        0x0 0x4 /usr/local/popcorn/aarch64/lib/libc.a(__lock.o)
 .data          0x00000000004400e8        0x0 0x4 /usr/local/popcorn/aarch64/lib/libmigrate.a(migrate.o)
 .data          0x00000000004400e8        0x0 0x4 /usr/local/popcorn/aarch64/lib/libstack-transform.a(userspace.o)
 .data          0x00000000004400e8        0x0 0x4 /usr/local/popcorn/aarch64/lib/libstack-transform.a(init.o)
 .data          0x00000000004400e8        0x0 0x4 /usr/local/popcorn/aarch64/lib/libstack-transform.a(rewrite.o)
 .data          0x00000000004400e8        0x0 0x4 /usr/local/popcorn/aarch64/lib/libstack-transform.a(unwind.o)
 .data          0x00000000004400e8        0x0 0x4 /usr/local/popcorn/aarch64/lib/libstack-transform.a(util.o)
 .data          0x00000000004400e8        0x0 0x4 /usr/local/popcorn/aarch64/lib/libstack-transform.a(properties.o)
 .data          0x00000000004400e8        0x0 0x4 /usr/local/popcorn/aarch64/lib/libstack-transform.a(regs.o)
 .data          0x00000000004400e8        0x0 0x4 /usr/local/popcorn/aarch64/lib/libstack-transform.a(properties.o)
 .data          0x00000000004400e8        0x0 0x4 /usr/local/popcorn/aarch64/lib/libstack-transform.a(regs.o)
 .data          0x00000000004400e8        0x0 0x4 /usr/local/popcorn/aarch64/lib/libstack-transform.a(data.o)
 .data          0x00000000004400e8        0x0 0x1 /usr/local/popcorn/aarch64/lib/libelf.a(begin.o)
 .data          0x00000000004400e8        0x0 0x1 /usr/local/popcorn/aarch64/lib/libelf.a(end.o)
 .data          0x00000000004400e8        0x0 0x1 /usr/local/popcorn/aarch64/lib/libelf.a(getdata.o)
 .data          0x00000000004400e8        0x0 0x1 /usr/local/popcorn/aarch64/lib/libelf.a(getident.o)
 .data          0x00000000004400e8        0x0 0x1 /usr/local/popcorn/aarch64/lib/libelf.a(nextscn.o)
 .data          0x00000000004400e8        0x0 0x1 /usr/local/popcorn/aarch64/lib/libelf.a(strptr.o)
 .data          0x00000000004400e8        0x0 0x1 /usr/local/popcorn/aarch64/lib/libelf.a(version.o)
 .data          0x00000000004400e8        0x0 0x1 /usr/local/popcorn/aarch64/lib/libelf.a(32.getehdr.o)
 .data          0x00000000004400e8        0x0 0x1 /usr/local/popcorn/aarch64/lib/libelf.a(32.xlatetof.o)
 .data          0x00000000004400e8        0x0 0x1 /usr/local/popcorn/aarch64/lib/libelf.a(cook.o)
 .data          0x00000000004400e8        0x0 0x1 /usr/local/popcorn/aarch64/lib/libelf.a(data.o)
 .data._elf_sanity_checks
                0x00000000004400e8        0x4 0x4 /usr/local/popcorn/aarch64/lib/libelf.a(data.o)
                0x00000000004400e8                _elf_sanity_checks
 .data          0x00000000004400ec        0x0 0x1 /usr/local/popcorn/aarch64/lib/libelf.a(input.o)
 .data          0x00000000004400ec        0x0 0x1 /usr/local/popcorn/aarch64/lib/libelf.a(x.elfext.o)
 .data          0x00000000004400ec        0x0 0x1 /usr/local/popcorn/aarch64/lib/libelf.a(64.xlatetof.o)
 .data          0x00000000004400ec        0x0 0x1 /usr/local/popcorn/aarch64/lib/libelf.a(gelfshdr.o)
 .data          0x00000000004400ec        0x0 0x1 /usr/local/popcorn/aarch64/lib/libelf.a(swap64.o)
 .data          0x00000000004400ec        0x0 0x1 /usr/local/popcorn/aarch64/lib/libelf.a(verdef_32_tof.o)
 .data          0x00000000004400ec        0x0 0x1 /usr/local/popcorn/aarch64/lib/libelf.a(verdef_32_tom.o)
 .data          0x00000000004400ec        0x0 0x1 /usr/local/popcorn/aarch64/lib/libelf.a(verdef_64_tof.o)
 .data          0x00000000004400ec        0x0 0x1 /usr/local/popcorn/aarch64/lib/libelf.a(verdef_64_tom.o)
 .data          0x00000000004400ec        0x0 0x1 /usr/local/popcorn/aarch64/lib/libelf.a(getscn.o)
 .data          0x00000000004400ec        0x0 0x1 /usr/local/popcorn/aarch64/lib/libelf.a(newscn.o)
 .data          0x00000000004400ec        0x0 0x1 /usr/local/popcorn/aarch64/lib/libelf.a(32.fsize.o)
 .data          0x00000000004400ec        0x0 0x4 /usr/local/popcorn/aarch64/lib/libc.a(sysconf.o)
 .data          0x00000000004400ec        0x0 0x4 /usr/local/popcorn/aarch64/lib/libc.a(__stack_chk_fail.o)
 .data          0x00000000004400ec        0x0 0x4 /usr/local/popcorn/aarch64/lib/libc.a(getenv.o)
 .data          0x00000000004400ec        0x0 0x4 /usr/local/popcorn/aarch64/lib/libc.a(assert.o)
 .data          0x00000000004400ec        0x0 0x4 /usr/local/popcorn/aarch64/lib/libc.a(open.o)
 .data          0x00000000004400ec        0x0 0x4 /usr/local/popcorn/aarch64/lib/libc.a(prctl.o)
 .data          0x00000000004400ec        0x0 0x4 /usr/local/popcorn/aarch64/lib/libc.a(sysinfo.o)
 .data          0x00000000004400ec        0x0 0x4 /usr/local/popcorn/aarch64/lib/libc.a(calloc.o)
 .data          0x00000000004400ec        0x0 0x4 /usr/local/popcorn/aarch64/lib/libc.a(lite_malloc.o)
 .data          0x00000000004400ec        0x0 0x4 /usr/local/popcorn/aarch64/lib/libc.a(malloc.o)
 .data          0x00000000004400ec        0x0 0x4 /usr/local/popcorn/aarch64/lib/libc.a(getrlimit.o)
 .data          0x00000000004400ec        0x0 0x4 /usr/local/popcorn/aarch64/lib/libc.a(madvise.o)
 .data          0x00000000004400ec        0x0 0x4 /usr/local/popcorn/aarch64/lib/libc.a(mmap.o)
 .data          0x00000000004400ec        0x0 0x4 /usr/local/popcorn/aarch64/lib/libc.a(mremap.o)
 .data          0x00000000004400ec        0x0 0x4 /usr/local/popcorn/aarch64/lib/libc.a(munmap.o)
 .data          0x00000000004400ec        0x0 0x4 /usr/local/popcorn/aarch64/lib/libc.a(fclose.o)
 .data          0x00000000004400ec        0x0 0x4 /usr/local/popcorn/aarch64/lib/libc.a(fflush.o)
 .data          0x00000000004400ec        0x0 0x4 /usr/local/popcorn/aarch64/lib/libc.a(fgets.o)
 .data          0x00000000004400ec        0x0 0x4 /usr/local/popcorn/aarch64/lib/libc.a(fopen.o)
 .data          0x00000000004400ec        0x0 0x4 /usr/local/popcorn/aarch64/lib/libc.a(fprintf.o)
 .data          0x00000000004400ec        0x0 0x4 /usr/local/popcorn/aarch64/lib/libc.a(getline.o)
 .data          0x00000000004400ec        0x0 0x4 /usr/local/popcorn/aarch64/lib/libc.a(snprintf.o)
 .data          0x00000000004400ec        0x0 0x4 /usr/local/popcorn/aarch64/lib/libc.a(sscanf.o)
 .data          0x00000000004400ec        0x0 0x4 /usr/local/popcorn/aarch64/lib/libc.a(stderr.o)
 .data.src_stdio_stderr_c_f
                0x00000000004400f0       0xe0 0x8 /usr/local/popcorn/aarch64/lib/libc.a(stderr.o)
 .data.__stderr_used
                0x00000000004401d0        0x8 0x8 /usr/local/popcorn/aarch64/lib/libc.a(stderr.o)
                0x00000000004401d0                __stderr_used
 .data          0x00000000004401d8        0x0 0x4 /usr/local/popcorn/aarch64/lib/libc.a(vsnprintf.o)
 .data          0x00000000004401d8        0x0 0x4 /usr/local/popcorn/aarch64/lib/libc.a(vsscanf.o)
 .data          0x00000000004401d8        0x0 0x4 /usr/local/popcorn/aarch64/lib/libc.a(strtol.o)
 .data          0x00000000004401d8        0x0 0x4 /usr/local/popcorn/aarch64/lib/libc.a(memcmp.o)
 .data          0x00000000004401d8        0x0 0x4 /usr/local/popcorn/aarch64/lib/libc.a(strchr.o)
 .data          0x00000000004401d8        0x0 0x4 /usr/local/popcorn/aarch64/lib/libc.a(strchrnul.o)
 .data          0x00000000004401d8        0x0 0x4 /usr/local/popcorn/aarch64/lib/libc.a(strcmp.o)
 .data          0x00000000004401d8        0x0 0x4 /usr/local/popcorn/aarch64/lib/libc.a(strlen.o)
 .data          0x00000000004401d8        0x0 0x4 /usr/local/popcorn/aarch64/lib/libc.a(strncmp.o)
 .data          0x00000000004401d8        0x0 0x4 /usr/local/popcorn/aarch64/lib/libc.a(strstr.o)
 .data          0x00000000004401d8        0x0 0x4 /usr/local/popcorn/aarch64/lib/libc.a(pthread_attr_get.o)
 .data          0x00000000004401d8        0x0 0x4 /usr/local/popcorn/aarch64/lib/libc.a(pthread_getattr_np.o)
 .data          0x00000000004401d8        0x0 0x4 /usr/local/popcorn/aarch64/lib/libc.a(pthread_getspecific.o)
 .data          0x00000000004401d8        0x0 0x4 /usr/local/popcorn/aarch64/lib/libc.a(pthread_key_create.o)
 .data.__pthread_tsd_size
                0x00000000004401d8        0x8 0x8 /usr/local/popcorn/aarch64/lib/libc.a(pthread_key_create.o)
                0x00000000004401d8                __pthread_tsd_size
 .data          0x00000000004401e0        0x0 0x4 /usr/local/popcorn/aarch64/lib/libc.a(pthread_migrate.o)
 .data          0x00000000004401e0        0x0 0x4 /usr/local/popcorn/aarch64/lib/libc.a(pthread_self.o)
 .data          0x00000000004401e0        0x0 0x4 /usr/local/popcorn/aarch64/lib/libc.a(pthread_setspecific.o)
 .data          0x00000000004401e0        0x0 0x4 /usr/local/popcorn/aarch64/lib/libc.a(close.o)
 .data          0x00000000004401e0        0x0 0x4 /usr/local/popcorn/aarch64/lib/libc.a(getpid.o)
 .data          0x00000000004401e0        0x0 0x4 /usr/local/popcorn/aarch64/lib/libc.a(lseek.o)
 .data          0x00000000004401e0        0x0 0x4 /usr/local/popcorn/aarch64/lib/libc.a(read.o)
 .data          0x00000000004401e0        0x0 0x4 /usr/local/popcorn/aarch64/lib/libc.a(abort.o)
 .data          0x00000000004401e0        0x0 0x4 /usr/local/popcorn/aarch64/lib/libc.a(intscan.o)
 .data          0x00000000004401e0        0x0 0x4 /usr/local/popcorn/aarch64/lib/libc.a(shgetc.o)
 .data          0x00000000004401e0        0x0 0x4 /usr/local/popcorn/aarch64/lib/libc.a(__brk.o)
 .data          0x00000000004401e0        0x0 0x4 /usr/local/popcorn/aarch64/lib/libc.a(raise.o)
 .data          0x00000000004401e0        0x0 0x4 /usr/local/popcorn/aarch64/lib/libc.a(__fdopen.o)
 .data          0x00000000004401e0        0x0 0x4 /usr/local/popcorn/aarch64/lib/libc.a(__fmodeflags.o)
 .data          0x00000000004401e0        0x0 0x4 /usr/local/popcorn/aarch64/lib/libc.a(__stdio_read.o)
 .data          0x00000000004401e0        0x0 0x4 /usr/local/popcorn/aarch64/lib/libc.a(__string_read.o)
 .data          0x00000000004401e0        0x0 0x4 /usr/local/popcorn/aarch64/lib/libc.a(__uflow.o)
 .data          0x00000000004401e0        0x0 0x4 /usr/local/popcorn/aarch64/lib/libc.a(getdelim.o)
 .data          0x00000000004401e0        0x0 0x4 /usr/local/popcorn/aarch64/lib/libc.a(vfscanf.o)
 .data          0x00000000004401e0        0x0 0x4 /usr/local/popcorn/aarch64/lib/libc.a(floatscan.o)
 .data          0x00000000004401e0        0x0 0x4 /usr/local/popcorn/aarch64/lib/libc.a(copysignl.o)
 .data          0x00000000004401e0        0x0 0x4 /usr/local/popcorn/aarch64/lib/libc.a(fabs.o)
 .data          0x00000000004401e0        0x0 0x4 /usr/local/popcorn/aarch64/lib/libc.a(fmodl.o)
 .data          0x00000000004401e0        0x0 0x4 /usr/local/popcorn/aarch64/lib/libc.a(scalbn.o)
 .data          0x00000000004401e0        0x0 0x4 /usr/local/popcorn/aarch64/lib/libc.a(scalbnl.o)
 .data          0x00000000004401e0        0x0 0x4 /usr/local/popcorn/aarch64/lib/libc.a(mbrtowc.o)
 .data          0x00000000004401e0        0x0 0x4 /usr/local/popcorn/aarch64/lib/libc.a(mbsinit.o)
 .data          0x00000000004401e0        0x0 0x4 /usr/local/popcorn/aarch64/lib/libc.a(block.o)
 .data          0x00000000004401e0        0x0 0x4 /usr/local/popcorn/aarch64/lib/libc.a(__toread.o)
 .data          0x00000000004401e0        0x0 0x4 /usr/local/popcorn/aarch64/lib/libc.a(internal.o)
 .data          0x00000000004401e0        0x0 0x1 /usr/lib/gcc-cross/aarch64-linux-gnu/5/libgcc.a(addtf3.o)
 .data          0x00000000004401e0        0x0 0x1 /usr/lib/gcc-cross/aarch64-linux-gnu/5/libgcc.a(divtf3.o)
 .data          0x00000000004401e0        0x0 0x1 /usr/lib/gcc-cross/aarch64-linux-gnu/5/libgcc.a(eqtf2.o)
 .data          0x00000000004401e0        0x0 0x1 /usr/lib/gcc-cross/aarch64-linux-gnu/5/libgcc.a(getf2.o)
 .data          0x00000000004401e0        0x0 0x1 /usr/lib/gcc-cross/aarch64-linux-gnu/5/libgcc.a(letf2.o)
 .data          0x00000000004401e0        0x0 0x1 /usr/lib/gcc-cross/aarch64-linux-gnu/5/libgcc.a(multf3.o)
 .data          0x00000000004401e0        0x0 0x1 /usr/lib/gcc-cross/aarch64-linux-gnu/5/libgcc.a(subtf3.o)
 .data          0x00000000004401e0        0x0 0x1 /usr/lib/gcc-cross/aarch64-linux-gnu/5/libgcc.a(unordtf2.o)
 .data          0x00000000004401e0        0x0 0x1 /usr/lib/gcc-cross/aarch64-linux-gnu/5/libgcc.a(fixtfsi.o)
 .data          0x00000000004401e0        0x0 0x1 /usr/lib/gcc-cross/aarch64-linux-gnu/5/libgcc.a(fixunstfsi.o)
 .data          0x00000000004401e0        0x0 0x1 /usr/lib/gcc-cross/aarch64-linux-gnu/5/libgcc.a(floatsitf.o)
 .data          0x00000000004401e0        0x0 0x1 /usr/lib/gcc-cross/aarch64-linux-gnu/5/libgcc.a(floatunsitf.o)
 .data          0x00000000004401e0        0x0 0x1 /usr/lib/gcc-cross/aarch64-linux-gnu/5/libgcc.a(extendsftf2.o)
 .data          0x00000000004401e0        0x0 0x1 /usr/lib/gcc-cross/aarch64-linux-gnu/5/libgcc.a(extenddftf2.o)
 .data          0x00000000004401e0        0x0 0x1 /usr/lib/gcc-cross/aarch64-linux-gnu/5/libgcc.a(trunctfsf2.o)
 .data          0x00000000004401e0        0x0 0x1 /usr/lib/gcc-cross/aarch64-linux-gnu/5/libgcc.a(trunctfdf2.o)
 .data          0x00000000004401e0        0x0 0x1 /usr/lib/gcc-cross/aarch64-linux-gnu/5/libgcc.a(sfp-exceptions.o)

.bss            0x00000000004401e0     0x1570
 .bss           0x00000000004401e0        0x0 0x4 pierre.o
 .bss           0x00000000004401e0        0x0 0x4 test.o
 .bss           0x00000000004401e0        0x0 0x4 /usr/local/popcorn/aarch64/lib/crt1.o
 .bss           0x00000000004401e0        0x0 0x4 /usr/local/popcorn/aarch64/lib/libc.a(__libc_start_main.o)
 .bss           0x00000000004401e0        0x0 0x4 /usr/local/popcorn/aarch64/lib/libc.a(exit.o)
 .bss           0x00000000004401e0        0x0 0x4 /usr/local/popcorn/aarch64/lib/libc.a(libc.o)
 .bss.__progname
                0x00000000004401e0        0x8 0x8 /usr/local/popcorn/aarch64/lib/libc.a(libc.o)
                0x00000000004401e0                __progname
                0x00000000004401e0                program_invocation_short_name
 .bss.__progname_full
                0x00000000004401e8        0x8 0x8 /usr/local/popcorn/aarch64/lib/libc.a(libc.o)
                0x00000000004401e8                __progname_full
                0x00000000004401e8                program_invocation_name
 .bss           0x00000000004401f0        0x0 0x4 /usr/local/popcorn/aarch64/lib/libc.a(printf.o)
 .bss           0x00000000004401f0        0x0 0x4 /usr/local/popcorn/aarch64/lib/libc.a(stdout.o)
 .bss.src_stdio_stdout_c_buf
                0x00000000004401f0      0x408 0x1 /usr/local/popcorn/aarch64/lib/libc.a(stdout.o)
 .bss           0x00000000004405f8        0x0 0x4 /usr/local/popcorn/aarch64/lib/libc.a(vfprintf.o)
 .bss           0x00000000004405f8        0x0 0x4 /usr/local/popcorn/aarch64/lib/libc.a(memchr.o)
 .bss           0x00000000004405f8        0x0 0x4 /usr/local/popcorn/aarch64/lib/libc.a(memset.o)
 .bss           0x00000000004405f8        0x0 0x4 /usr/local/popcorn/aarch64/lib/libc.a(__environ.o)
 .bss.__environ
                0x00000000004405f8        0x8 0x8 /usr/local/popcorn/aarch64/lib/libc.a(__environ.o)
                0x00000000004405f8                ___environ
                0x00000000004405f8                __environ
                0x00000000004405f8                _environ
                0x00000000004405f8                environ
 .bss           0x0000000000440600        0x0 0x4 /usr/local/popcorn/aarch64/lib/libc.a(__init_tls.o)
 .bss.src_env___init_tls_c_builtin_tls
                0x0000000000440600      0x1e0 0x8 /usr/local/popcorn/aarch64/lib/libc.a(__init_tls.o)
 .bss           0x00000000004407e0        0x0 0x4 /usr/local/popcorn/aarch64/lib/libc.a(__errno_location.o)
 .bss           0x00000000004407e0        0x0 0x4 /usr/local/popcorn/aarch64/lib/libc.a(strerror.o)
 .bss           0x00000000004407e0        0x0 0x4 /usr/local/popcorn/aarch64/lib/libc.a(_Exit.o)
 .bss           0x00000000004407e0        0x0 0x4 /usr/local/popcorn/aarch64/lib/libc.a(__lctrans.o)
 .bss           0x00000000004407e0        0x0 0x4 /usr/local/popcorn/aarch64/lib/libc.a(__fpclassifyl.o)
 .bss           0x00000000004407e0        0x0 0x4 /usr/local/popcorn/aarch64/lib/libc.a(__signbitl.o)
 .bss           0x00000000004407e0        0x0 0x4 /usr/local/popcorn/aarch64/lib/libc.a(frexpl.o)
 .bss           0x00000000004407e0        0x0 0x4 /usr/local/popcorn/aarch64/lib/libc.a(wctomb.o)
 .bss           0x00000000004407e0        0x0 0x4 /usr/local/popcorn/aarch64/lib/libc.a(__lockfile.o)
 .bss           0x00000000004407e0        0x0 0x4 /usr/local/popcorn/aarch64/lib/libc.a(__stdio_close.o)
 .bss           0x00000000004407e0        0x0 0x4 /usr/local/popcorn/aarch64/lib/libc.a(__stdio_seek.o)
 .bss           0x00000000004407e0        0x0 0x4 /usr/local/popcorn/aarch64/lib/libc.a(__stdout_write.o)
 .bss           0x00000000004407e0        0x0 0x4 /usr/local/popcorn/aarch64/lib/libc.a(fwrite.o)
 .bss           0x00000000004407e0        0x0 0x4 /usr/local/popcorn/aarch64/lib/libc.a(memcpy.o)
 .bss           0x00000000004407e0        0x0 0x4 /usr/local/popcorn/aarch64/lib/libc.a(__set_thread_area.o)
 .bss           0x00000000004407e0        0x0 0x4 /usr/local/popcorn/aarch64/lib/libc.a(__wait.o)
 .bss           0x00000000004407e0        0x0 0x4 /usr/local/popcorn/aarch64/lib/libc.a(syscall_ret.o)
 .bss           0x00000000004407e0        0x0 0x4 /usr/local/popcorn/aarch64/lib/libc.a(wcrtomb.o)
 .bss           0x00000000004407e0        0x0 0x4 /usr/local/popcorn/aarch64/lib/libc.a(__stdio_write.o)
 .bss           0x00000000004407e0        0x0 0x4 /usr/local/popcorn/aarch64/lib/libc.a(__towrite.o)
 .bss           0x00000000004407e0        0x0 0x4 /usr/local/popcorn/aarch64/lib/libc.a(__syscall_cp.o)
 .bss           0x00000000004407e0        0x0 0x4 /usr/local/popcorn/aarch64/lib/libc.a(pthread_cleanup_push.o)
 .bss           0x00000000004407e0        0x0 0x4 /usr/local/popcorn/aarch64/lib/libc.a(syscall.o)
 .bss           0x00000000004407e0        0x0 0x4 /usr/local/popcorn/aarch64/lib/libc.a(__stdio_exit.o)
 .bss.src_stdio___stdio_exit_c_dummy_file
                0x00000000004407e0        0x8 0x8 /usr/local/popcorn/aarch64/lib/libc.a(__stdio_exit.o)
                0x00000000004407e0                __stdin_used
 .bss           0x00000000004407e8        0x0 0x4 /usr/local/popcorn/aarch64/lib/libc.a(__lock.o)
 .bss           0x00000000004407e8        0x0 0x4 /usr/local/popcorn/aarch64/lib/libmigrate.a(migrate.o)
 .bss.build_aarch64_migrate_o_bc_cpus_x86
                0x00000000004407e8        0x4 0x4 /usr/local/popcorn/aarch64/lib/libmigrate.a(migrate.o)
 .bss.build_aarch64_migrate_o_bc_popcorn_vdso
                0x00000000004407f0        0x8 0x8 /usr/local/popcorn/aarch64/lib/libmigrate.a(migrate.o)
 .bss.build_aarch64_migrate_o_bc_migrate_callback
                0x00000000004407f8        0x8 0x8 /usr/local/popcorn/aarch64/lib/libmigrate.a(migrate.o)
 .bss.build_aarch64_migrate_o_bc_migrate_callback_data
                0x0000000000440800        0x8 0x8 /usr/local/popcorn/aarch64/lib/libmigrate.a(migrate.o)
 .bss           0x0000000000440808        0x0 0x4 /usr/local/popcorn/aarch64/lib/libstack-transform.a(userspace.o)
 .bss.aarch64_fn
                0x0000000000440808        0x8 0x8 /usr/local/popcorn/aarch64/lib/libstack-transform.a(userspace.o)
                0x0000000000440808                aarch64_fn
 .bss.x86_64_fn
                0x0000000000440810        0x8 0x8 /usr/local/popcorn/aarch64/lib/libstack-transform.a(userspace.o)
                0x0000000000440810                x86_64_fn
 .bss.src_userspace_c_aarch64_handle
                0x0000000000440818        0x8 0x8 /usr/local/popcorn/aarch64/lib/libstack-transform.a(userspace.o)
 .bss.src_userspace_c_alloc_aarch64_fn
                0x0000000000440820        0x1 0x1 /usr/local/popcorn/aarch64/lib/libstack-transform.a(userspace.o)
 .bss.src_userspace_c_x86_64_handle
                0x0000000000440828        0x8 0x8 /usr/local/popcorn/aarch64/lib/libstack-transform.a(userspace.o)
 .bss.src_userspace_c_alloc_x86_64_fn
                0x0000000000440830        0x1 0x1 /usr/local/popcorn/aarch64/lib/libstack-transform.a(userspace.o)
 .bss.src_userspace_c_stack_bounds_key
                0x0000000000440834        0x4 0x4 /usr/local/popcorn/aarch64/lib/libstack-transform.a(userspace.o)
 .bss           0x0000000000440838        0x0 0x4 /usr/local/popcorn/aarch64/lib/libstack-transform.a(init.o)
 .bss           0x0000000000440838        0x0 0x4 /usr/local/popcorn/aarch64/lib/libstack-transform.a(rewrite.o)
 .bss           0x0000000000440838        0x0 0x4 /usr/local/popcorn/aarch64/lib/libstack-transform.a(unwind.o)
 .bss           0x0000000000440838        0x0 0x4 /usr/local/popcorn/aarch64/lib/libstack-transform.a(util.o)
 .bss           0x0000000000440838        0x0 0x4 /usr/local/popcorn/aarch64/lib/libstack-transform.a(properties.o)
 .bss           0x0000000000440838        0x0 0x4 /usr/local/popcorn/aarch64/lib/libstack-transform.a(regs.o)
 .bss           0x0000000000440838        0x0 0x4 /usr/local/popcorn/aarch64/lib/libstack-transform.a(properties.o)
 .bss           0x0000000000440838        0x0 0x4 /usr/local/popcorn/aarch64/lib/libstack-transform.a(regs.o)
 .bss           0x0000000000440838        0x0 0x4 /usr/local/popcorn/aarch64/lib/libstack-transform.a(data.o)
 .bss           0x0000000000440838        0x0 0x1 /usr/local/popcorn/aarch64/lib/libelf.a(begin.o)
 .bss           0x0000000000440838        0x0 0x1 /usr/local/popcorn/aarch64/lib/libelf.a(end.o)
 .bss           0x0000000000440838        0x0 0x1 /usr/local/popcorn/aarch64/lib/libelf.a(getdata.o)
 .bss           0x0000000000440838        0x0 0x1 /usr/local/popcorn/aarch64/lib/libelf.a(getident.o)
 .bss           0x0000000000440838        0x0 0x1 /usr/local/popcorn/aarch64/lib/libelf.a(nextscn.o)
 .bss           0x0000000000440838        0x0 0x1 /usr/local/popcorn/aarch64/lib/libelf.a(strptr.o)
 .bss           0x0000000000440838        0x0 0x1 /usr/local/popcorn/aarch64/lib/libelf.a(version.o)
 .bss           0x0000000000440838        0x0 0x1 /usr/local/popcorn/aarch64/lib/libelf.a(32.getehdr.o)
 .bss           0x0000000000440838        0x0 0x1 /usr/local/popcorn/aarch64/lib/libelf.a(32.xlatetof.o)
 .bss           0x0000000000440838        0x0 0x1 /usr/local/popcorn/aarch64/lib/libelf.a(cook.o)
 .bss           0x0000000000440838        0x0 0x1 /usr/local/popcorn/aarch64/lib/libelf.a(data.o)
 .bss._elf_version
                0x0000000000440838        0x4 0x4 /usr/local/popcorn/aarch64/lib/libelf.a(data.o)
                0x0000000000440838                _elf_version
 .bss._elf_fill
                0x000000000044083c        0x4 0x4 /usr/local/popcorn/aarch64/lib/libelf.a(data.o)
                0x000000000044083c                _elf_fill
 .bss._elf_errno
                0x0000000000440840        0x4 0x4 /usr/local/popcorn/aarch64/lib/libelf.a(data.o)
                0x0000000000440840                _elf_errno
 .bss           0x0000000000440844        0x0 0x1 /usr/local/popcorn/aarch64/lib/libelf.a(input.o)
 .bss           0x0000000000440844        0x0 0x1 /usr/local/popcorn/aarch64/lib/libelf.a(x.elfext.o)
 .bss           0x0000000000440844        0x0 0x1 /usr/local/popcorn/aarch64/lib/libelf.a(64.xlatetof.o)
 .bss           0x0000000000440844        0x0 0x1 /usr/local/popcorn/aarch64/lib/libelf.a(gelfshdr.o)
 .bss           0x0000000000440844        0x0 0x1 /usr/local/popcorn/aarch64/lib/libelf.a(swap64.o)
 .bss           0x0000000000440844        0x0 0x1 /usr/local/popcorn/aarch64/lib/libelf.a(verdef_32_tof.o)
 .bss           0x0000000000440844        0x0 0x1 /usr/local/popcorn/aarch64/lib/libelf.a(verdef_32_tom.o)
 .bss           0x0000000000440844        0x0 0x1 /usr/local/popcorn/aarch64/lib/libelf.a(verdef_64_tof.o)
 .bss           0x0000000000440844        0x0 0x1 /usr/local/popcorn/aarch64/lib/libelf.a(verdef_64_tom.o)
 .bss           0x0000000000440844        0x0 0x1 /usr/local/popcorn/aarch64/lib/libelf.a(getscn.o)
 .bss           0x0000000000440844        0x0 0x1 /usr/local/popcorn/aarch64/lib/libelf.a(newscn.o)
 .bss           0x0000000000440844        0x0 0x1 /usr/local/popcorn/aarch64/lib/libelf.a(32.fsize.o)
 .bss           0x0000000000440844        0x0 0x4 /usr/local/popcorn/aarch64/lib/libc.a(sysconf.o)
 .bss           0x0000000000440844        0x0 0x4 /usr/local/popcorn/aarch64/lib/libc.a(__stack_chk_fail.o)
 .bss           0x0000000000440844        0x0 0x4 /usr/local/popcorn/aarch64/lib/libc.a(getenv.o)
 .bss           0x0000000000440844        0x0 0x4 /usr/local/popcorn/aarch64/lib/libc.a(assert.o)
 .bss           0x0000000000440844        0x0 0x4 /usr/local/popcorn/aarch64/lib/libc.a(open.o)
 .bss           0x0000000000440844        0x0 0x4 /usr/local/popcorn/aarch64/lib/libc.a(prctl.o)
 .bss           0x0000000000440844        0x0 0x4 /usr/local/popcorn/aarch64/lib/libc.a(sysinfo.o)
 .bss           0x0000000000440844        0x0 0x4 /usr/local/popcorn/aarch64/lib/libc.a(calloc.o)
 .bss           0x0000000000440844        0x0 0x4 /usr/local/popcorn/aarch64/lib/libc.a(lite_malloc.o)
 .bss.src_malloc_lite_malloc_c___simple_malloc_cur
                0x0000000000440848        0x8 0x8 /usr/local/popcorn/aarch64/lib/libc.a(lite_malloc.o)
 .bss.src_malloc_lite_malloc_c___simple_malloc_brk
                0x0000000000440850        0x8 0x8 /usr/local/popcorn/aarch64/lib/libc.a(lite_malloc.o)
 .bss.src_malloc_lite_malloc_c___simple_malloc_lock
                0x0000000000440858        0x8 0x4 /usr/local/popcorn/aarch64/lib/libc.a(lite_malloc.o)
 .bss           0x0000000000440860        0x0 0x4 /usr/local/popcorn/aarch64/lib/libc.a(malloc.o)
 .bss.src_malloc_malloc_c_mal
                0x0000000000440860      0x630 0x8 /usr/local/popcorn/aarch64/lib/libc.a(malloc.o)
 .bss.src_malloc_malloc_c_expand_heap_init
                0x0000000000440e90        0x1 0x1 /usr/local/popcorn/aarch64/lib/libc.a(malloc.o)
 .bss           0x0000000000440e94        0x0 0x4 /usr/local/popcorn/aarch64/lib/libc.a(getrlimit.o)
 .bss           0x0000000000440e94        0x0 0x4 /usr/local/popcorn/aarch64/lib/libc.a(madvise.o)
 .bss           0x0000000000440e94        0x0 0x4 /usr/local/popcorn/aarch64/lib/libc.a(mmap.o)
 .bss           0x0000000000440e94        0x0 0x4 /usr/local/popcorn/aarch64/lib/libc.a(mremap.o)
 .bss           0x0000000000440e94        0x0 0x4 /usr/local/popcorn/aarch64/lib/libc.a(munmap.o)
 .bss           0x0000000000440e94        0x0 0x4 /usr/local/popcorn/aarch64/lib/libc.a(fclose.o)
 .bss           0x0000000000440e94        0x0 0x4 /usr/local/popcorn/aarch64/lib/libc.a(fflush.o)
 .bss.src_stdio_fflush_c_dummy
                0x0000000000440e98        0x8 0x8 /usr/local/popcorn/aarch64/lib/libc.a(fflush.o)
 .bss           0x0000000000440ea0        0x0 0x4 /usr/local/popcorn/aarch64/lib/libc.a(fgets.o)
 .bss           0x0000000000440ea0        0x0 0x4 /usr/local/popcorn/aarch64/lib/libc.a(fopen.o)
 .bss           0x0000000000440ea0        0x0 0x4 /usr/local/popcorn/aarch64/lib/libc.a(fprintf.o)
 .bss           0x0000000000440ea0        0x0 0x4 /usr/local/popcorn/aarch64/lib/libc.a(getline.o)
 .bss           0x0000000000440ea0        0x0 0x4 /usr/local/popcorn/aarch64/lib/libc.a(snprintf.o)
 .bss           0x0000000000440ea0        0x0 0x4 /usr/local/popcorn/aarch64/lib/libc.a(sscanf.o)
 .bss           0x0000000000440ea0        0x0 0x4 /usr/local/popcorn/aarch64/lib/libc.a(stderr.o)
 .bss.src_stdio_stderr_c_buf
                0x0000000000440ea0        0x8 0x1 /usr/local/popcorn/aarch64/lib/libc.a(stderr.o)
 .bss           0x0000000000440ea8        0x0 0x4 /usr/local/popcorn/aarch64/lib/libc.a(vsnprintf.o)
 .bss           0x0000000000440ea8        0x0 0x4 /usr/local/popcorn/aarch64/lib/libc.a(vsscanf.o)
 .bss           0x0000000000440ea8        0x0 0x4 /usr/local/popcorn/aarch64/lib/libc.a(strtol.o)
 .bss           0x0000000000440ea8        0x0 0x4 /usr/local/popcorn/aarch64/lib/libc.a(memcmp.o)
 .bss           0x0000000000440ea8        0x0 0x4 /usr/local/popcorn/aarch64/lib/libc.a(strchr.o)
 .bss           0x0000000000440ea8        0x0 0x4 /usr/local/popcorn/aarch64/lib/libc.a(strchrnul.o)
 .bss           0x0000000000440ea8        0x0 0x4 /usr/local/popcorn/aarch64/lib/libc.a(strcmp.o)
 .bss           0x0000000000440ea8        0x0 0x4 /usr/local/popcorn/aarch64/lib/libc.a(strlen.o)
 .bss           0x0000000000440ea8        0x0 0x4 /usr/local/popcorn/aarch64/lib/libc.a(strncmp.o)
 .bss           0x0000000000440ea8        0x0 0x4 /usr/local/popcorn/aarch64/lib/libc.a(strstr.o)
 .bss           0x0000000000440ea8        0x0 0x4 /usr/local/popcorn/aarch64/lib/libc.a(pthread_attr_get.o)
 .bss           0x0000000000440ea8        0x0 0x4 /usr/local/popcorn/aarch64/lib/libc.a(pthread_getattr_np.o)
 .bss           0x0000000000440ea8        0x0 0x4 /usr/local/popcorn/aarch64/lib/libc.a(pthread_getspecific.o)
 .bss           0x0000000000440ea8        0x0 0x4 /usr/local/popcorn/aarch64/lib/libc.a(pthread_key_create.o)
 .bss.__pthread_tsd_main
                0x0000000000440ea8      0x400 0x8 /usr/local/popcorn/aarch64/lib/libc.a(pthread_key_create.o)
                0x0000000000440ea8                __pthread_tsd_main
 .bss.src_thread_pthread_key_create_c_keys
                0x00000000004412a8      0x400 0x8 /usr/local/popcorn/aarch64/lib/libc.a(pthread_key_create.o)
 .bss           0x00000000004416a8        0x0 0x4 /usr/local/popcorn/aarch64/lib/libc.a(pthread_migrate.o)
 .bss           0x00000000004416a8        0x0 0x4 /usr/local/popcorn/aarch64/lib/libc.a(pthread_self.o)
 .bss           0x00000000004416a8        0x0 0x4 /usr/local/popcorn/aarch64/lib/libc.a(pthread_setspecific.o)
 .bss           0x00000000004416a8        0x0 0x4 /usr/local/popcorn/aarch64/lib/libc.a(close.o)
 .bss           0x00000000004416a8        0x0 0x4 /usr/local/popcorn/aarch64/lib/libc.a(getpid.o)
 .bss           0x00000000004416a8        0x0 0x4 /usr/local/popcorn/aarch64/lib/libc.a(lseek.o)
 .bss           0x00000000004416a8        0x0 0x4 /usr/local/popcorn/aarch64/lib/libc.a(read.o)
 .bss           0x00000000004416a8        0x0 0x4 /usr/local/popcorn/aarch64/lib/libc.a(abort.o)
 .bss           0x00000000004416a8        0x0 0x4 /usr/local/popcorn/aarch64/lib/libc.a(intscan.o)
 .bss           0x00000000004416a8        0x0 0x4 /usr/local/popcorn/aarch64/lib/libc.a(shgetc.o)
 .bss           0x00000000004416a8        0x0 0x4 /usr/local/popcorn/aarch64/lib/libc.a(__brk.o)
 .bss           0x00000000004416a8        0x0 0x4 /usr/local/popcorn/aarch64/lib/libc.a(raise.o)
 .bss           0x00000000004416a8        0x0 0x4 /usr/local/popcorn/aarch64/lib/libc.a(__fdopen.o)
 .bss           0x00000000004416a8        0x0 0x4 /usr/local/popcorn/aarch64/lib/libc.a(__fmodeflags.o)
 .bss           0x00000000004416a8        0x0 0x4 /usr/local/popcorn/aarch64/lib/libc.a(__stdio_read.o)
 .bss           0x00000000004416a8        0x0 0x4 /usr/local/popcorn/aarch64/lib/libc.a(__string_read.o)
 .bss           0x00000000004416a8        0x0 0x4 /usr/local/popcorn/aarch64/lib/libc.a(__uflow.o)
 .bss           0x00000000004416a8        0x0 0x4 /usr/local/popcorn/aarch64/lib/libc.a(getdelim.o)
 .bss           0x00000000004416a8        0x0 0x4 /usr/local/popcorn/aarch64/lib/libc.a(vfscanf.o)
 .bss           0x00000000004416a8        0x0 0x4 /usr/local/popcorn/aarch64/lib/libc.a(floatscan.o)
 .bss           0x00000000004416a8        0x0 0x4 /usr/local/popcorn/aarch64/lib/libc.a(copysignl.o)
 .bss           0x00000000004416a8        0x0 0x4 /usr/local/popcorn/aarch64/lib/libc.a(fabs.o)
 .bss           0x00000000004416a8        0x0 0x4 /usr/local/popcorn/aarch64/lib/libc.a(fmodl.o)
 .bss           0x00000000004416a8        0x0 0x4 /usr/local/popcorn/aarch64/lib/libc.a(scalbn.o)
 .bss           0x00000000004416a8        0x0 0x4 /usr/local/popcorn/aarch64/lib/libc.a(scalbnl.o)
 .bss           0x00000000004416a8        0x0 0x4 /usr/local/popcorn/aarch64/lib/libc.a(mbrtowc.o)
 .bss.src_multibyte_mbrtowc_c_mbrtowc_internal_state
                0x00000000004416a8        0x4 0x4 /usr/local/popcorn/aarch64/lib/libc.a(mbrtowc.o)
 .bss           0x00000000004416ac        0x0 0x4 /usr/local/popcorn/aarch64/lib/libc.a(mbsinit.o)
 .bss           0x00000000004416ac        0x0 0x4 /usr/local/popcorn/aarch64/lib/libc.a(block.o)
 .bss           0x00000000004416ac        0x0 0x4 /usr/local/popcorn/aarch64/lib/libc.a(__toread.o)
 .bss           0x00000000004416ac        0x0 0x4 /usr/local/popcorn/aarch64/lib/libc.a(internal.o)
 .bss           0x00000000004416ac        0x0 0x1 /usr/lib/gcc-cross/aarch64-linux-gnu/5/libgcc.a(addtf3.o)
 .bss           0x00000000004416ac        0x0 0x1 /usr/lib/gcc-cross/aarch64-linux-gnu/5/libgcc.a(divtf3.o)
 .bss           0x00000000004416ac        0x0 0x1 /usr/lib/gcc-cross/aarch64-linux-gnu/5/libgcc.a(eqtf2.o)
 .bss           0x00000000004416ac        0x0 0x1 /usr/lib/gcc-cross/aarch64-linux-gnu/5/libgcc.a(getf2.o)
 .bss           0x00000000004416ac        0x0 0x1 /usr/lib/gcc-cross/aarch64-linux-gnu/5/libgcc.a(letf2.o)
 .bss           0x00000000004416ac        0x0 0x1 /usr/lib/gcc-cross/aarch64-linux-gnu/5/libgcc.a(multf3.o)
 .bss           0x00000000004416ac        0x0 0x1 /usr/lib/gcc-cross/aarch64-linux-gnu/5/libgcc.a(subtf3.o)
 .bss           0x00000000004416ac        0x0 0x1 /usr/lib/gcc-cross/aarch64-linux-gnu/5/libgcc.a(unordtf2.o)
 .bss           0x00000000004416ac        0x0 0x1 /usr/lib/gcc-cross/aarch64-linux-gnu/5/libgcc.a(fixtfsi.o)
 .bss           0x00000000004416ac        0x0 0x1 /usr/lib/gcc-cross/aarch64-linux-gnu/5/libgcc.a(fixunstfsi.o)
 .bss           0x00000000004416ac        0x0 0x1 /usr/lib/gcc-cross/aarch64-linux-gnu/5/libgcc.a(floatsitf.o)
 .bss           0x00000000004416ac        0x0 0x1 /usr/lib/gcc-cross/aarch64-linux-gnu/5/libgcc.a(floatunsitf.o)
 .bss           0x00000000004416ac        0x0 0x1 /usr/lib/gcc-cross/aarch64-linux-gnu/5/libgcc.a(extendsftf2.o)
 .bss           0x00000000004416ac        0x0 0x1 /usr/lib/gcc-cross/aarch64-linux-gnu/5/libgcc.a(extenddftf2.o)
 .bss           0x00000000004416ac        0x0 0x1 /usr/lib/gcc-cross/aarch64-linux-gnu/5/libgcc.a(trunctfsf2.o)
 .bss           0x00000000004416ac        0x0 0x1 /usr/lib/gcc-cross/aarch64-linux-gnu/5/libgcc.a(trunctfdf2.o)
 .bss           0x00000000004416ac        0x0 0x1 /usr/lib/gcc-cross/aarch64-linux-gnu/5/libgcc.a(sfp-exceptions.o)
 ** common      0x00000000004416b0       0xa0

.debug_str      0x0000000000000000     0x3606
 ** merge strings
                0x0000000000000000     0x3606

.debug_loc      0x0000000000000000    0x10bec
 .debug_loc     0x0000000000000000        0x0 0x1 pierre.o
 .debug_loc     0x0000000000000000        0x0 0x1 test.o
 .debug_loc     0x0000000000000000       0x36 0x1 /usr/local/popcorn/aarch64/lib/crt1.o
 .debug_loc     0x0000000000000036      0x1e9 0x1 /usr/local/popcorn/aarch64/lib/libc.a(__libc_start_main.o)
 .debug_loc     0x000000000000021f       0x59 0x1 /usr/local/popcorn/aarch64/lib/libc.a(exit.o)
 .debug_loc     0x0000000000000278        0x0 0x1 /usr/local/popcorn/aarch64/lib/libc.a(libc.o)
 .debug_loc     0x0000000000000278       0x49 0x1 /usr/local/popcorn/aarch64/lib/libc.a(printf.o)
 .debug_loc     0x00000000000002c1        0x0 0x1 /usr/local/popcorn/aarch64/lib/libc.a(stdout.o)
 .debug_loc     0x00000000000002c1     0x4be6 0x1 /usr/local/popcorn/aarch64/lib/libc.a(vfprintf.o)
 .debug_loc     0x0000000000004ea7      0x16a 0x1 /usr/local/popcorn/aarch64/lib/libc.a(memchr.o)
 .debug_loc     0x0000000000005011      0x14a 0x1 /usr/local/popcorn/aarch64/lib/libc.a(memset.o)
 .debug_loc     0x000000000000515b        0x0 0x1 /usr/local/popcorn/aarch64/lib/libc.a(__environ.o)
 .debug_loc     0x000000000000515b      0x21f 0x1 /usr/local/popcorn/aarch64/lib/libc.a(__init_tls.o)
 .debug_loc     0x000000000000537a        0x0 0x1 /usr/local/popcorn/aarch64/lib/libc.a(__errno_location.o)
 .debug_loc     0x000000000000537a       0x83 0x1 /usr/local/popcorn/aarch64/lib/libc.a(strerror.o)
 .debug_loc     0x00000000000053fd       0x23 0x1 /usr/local/popcorn/aarch64/lib/libc.a(_Exit.o)
 .debug_loc     0x0000000000005420       0x23 0x1 /usr/local/popcorn/aarch64/lib/libc.a(__lctrans.o)
 .debug_loc     0x0000000000005443        0x0 0x1 /usr/local/popcorn/aarch64/lib/libc.a(__fpclassifyl.o)
 .debug_loc     0x0000000000005443        0x0 0x1 /usr/local/popcorn/aarch64/lib/libc.a(__signbitl.o)
 .debug_loc     0x0000000000005443      0x132 0x1 /usr/local/popcorn/aarch64/lib/libc.a(frexpl.o)
 .debug_loc     0x0000000000005575       0x23 0x1 /usr/local/popcorn/aarch64/lib/libc.a(wctomb.o)
 .debug_loc     0x0000000000005598       0xfb 0x1 /usr/local/popcorn/aarch64/lib/libc.a(__lockfile.o)
 .debug_loc     0x0000000000005693       0x46 0x1 /usr/local/popcorn/aarch64/lib/libc.a(__stdio_close.o)
 .debug_loc     0x00000000000056d9       0x46 0x1 /usr/local/popcorn/aarch64/lib/libc.a(__stdio_seek.o)
 .debug_loc     0x000000000000571f       0xc5 0x1 /usr/local/popcorn/aarch64/lib/libc.a(__stdout_write.o)
 .debug_loc     0x00000000000057e4      0x26b 0x1 /usr/local/popcorn/aarch64/lib/libc.a(fwrite.o)
 .debug_loc     0x0000000000005a4f      0x4c1 0x1 /usr/local/popcorn/aarch64/lib/libc.a(memcpy.o)
 .debug_loc     0x0000000000005f10       0x3c 0x1 /usr/local/popcorn/aarch64/lib/libc.a(__wait.o)
 .debug_loc     0x0000000000005f4c       0x23 0x1 /usr/local/popcorn/aarch64/lib/libc.a(syscall_ret.o)
 .debug_loc     0x0000000000005f6f       0x23 0x1 /usr/local/popcorn/aarch64/lib/libc.a(wcrtomb.o)
 .debug_loc     0x0000000000005f92      0x1b7 0x1 /usr/local/popcorn/aarch64/lib/libc.a(__stdio_write.o)
 .debug_loc     0x0000000000006149        0x0 0x1 /usr/local/popcorn/aarch64/lib/libc.a(__towrite.o)
 .debug_loc     0x0000000000006149        0x0 0x1 /usr/local/popcorn/aarch64/lib/libc.a(__syscall_cp.o)
 .debug_loc     0x0000000000006149       0x6c 0x1 /usr/local/popcorn/aarch64/lib/libc.a(pthread_cleanup_push.o)
 .debug_loc     0x00000000000061b5       0x36 0x1 /usr/local/popcorn/aarch64/lib/libc.a(__stdio_exit.o)
 .debug_loc     0x00000000000061eb       0x36 0x1 /usr/local/popcorn/aarch64/lib/libc.a(__lock.o)
 .debug_loc     0x0000000000006221      0x324 0x1 /usr/local/popcorn/aarch64/lib/libmigrate.a(migrate.o)
 .debug_loc     0x0000000000006545      0x7a5 0x1 /usr/local/popcorn/aarch64/lib/libstack-transform.a(userspace.o)
 .debug_loc     0x0000000000006cea       0xb2 0x1 /usr/local/popcorn/aarch64/lib/libstack-transform.a(init.o)
 .debug_loc     0x0000000000006d9c      0xc99 0x1 /usr/local/popcorn/aarch64/lib/libstack-transform.a(rewrite.o)
 .debug_loc     0x0000000000007a35      0x779 0x1 /usr/local/popcorn/aarch64/lib/libstack-transform.a(unwind.o)
 .debug_loc     0x00000000000081ae      0x82b 0x1 /usr/local/popcorn/aarch64/lib/libstack-transform.a(util.o)
 .debug_loc     0x00000000000089d9       0x23 0x1 /usr/local/popcorn/aarch64/lib/libstack-transform.a(properties.o)
 .debug_loc     0x00000000000089fc      0x6a0 0x1 /usr/local/popcorn/aarch64/lib/libstack-transform.a(regs.o)
 .debug_loc     0x000000000000909c       0x59 0x1 /usr/local/popcorn/aarch64/lib/libstack-transform.a(properties.o)
 .debug_loc     0x00000000000090f5      0x499 0x1 /usr/local/popcorn/aarch64/lib/libstack-transform.a(regs.o)
 .debug_loc     0x000000000000958e      0xa0d 0x1 /usr/local/popcorn/aarch64/lib/libstack-transform.a(data.o)
 .debug_loc     0x0000000000009f9b      0x175 0x1 /usr/local/popcorn/aarch64/lib/libc.a(sysconf.o)
 .debug_loc     0x000000000000a110       0x36 0x1 /usr/local/popcorn/aarch64/lib/libc.a(__stack_chk_fail.o)
 .debug_loc     0x000000000000a146       0x59 0x1 /usr/local/popcorn/aarch64/lib/libc.a(getenv.o)
 .debug_loc     0x000000000000a19f      0x124 0x1 /usr/local/popcorn/aarch64/lib/libc.a(assert.o)
 .debug_loc     0x000000000000a2c3       0xb5 0x1 /usr/local/popcorn/aarch64/lib/libc.a(open.o)
 .debug_loc     0x000000000000a378       0x46 0x1 /usr/local/popcorn/aarch64/lib/libc.a(prctl.o)
 .debug_loc     0x000000000000a3be       0x46 0x1 /usr/local/popcorn/aarch64/lib/libc.a(sysinfo.o)
 .debug_loc     0x000000000000a404      0x15d 0x1 /usr/local/popcorn/aarch64/lib/libc.a(calloc.o)
 .debug_loc     0x000000000000a561       0xc9 0x1 /usr/local/popcorn/aarch64/lib/libc.a(lite_malloc.o)
 .debug_loc     0x000000000000a62a      0xfbe 0x1 /usr/local/popcorn/aarch64/lib/libc.a(malloc.o)
 .debug_loc     0x000000000000b5e8       0xea 0x1 /usr/local/popcorn/aarch64/lib/libc.a(getrlimit.o)
 .debug_loc     0x000000000000b6d2       0x69 0x1 /usr/local/popcorn/aarch64/lib/libc.a(madvise.o)
 .debug_loc     0x000000000000b73b      0x24b 0x1 /usr/local/popcorn/aarch64/lib/libc.a(mmap.o)
 .debug_loc     0x000000000000b986       0x8f 0x1 /usr/local/popcorn/aarch64/lib/libc.a(mremap.o)
 .debug_loc     0x000000000000ba15       0xb5 0x1 /usr/local/popcorn/aarch64/lib/libc.a(munmap.o)
 .debug_loc     0x000000000000baca       0x8f 0x1 /usr/local/popcorn/aarch64/lib/libc.a(fclose.o)
 .debug_loc     0x000000000000bb59       0xd8 0x1 /usr/local/popcorn/aarch64/lib/libc.a(fflush.o)
 .debug_loc     0x000000000000bc31      0x2a7 0x1 /usr/local/popcorn/aarch64/lib/libc.a(fgets.o)
 .debug_loc     0x000000000000bed8       0xd5 0x1 /usr/local/popcorn/aarch64/lib/libc.a(fopen.o)
 .debug_loc     0x000000000000bfad       0x23 0x1 /usr/local/popcorn/aarch64/lib/libc.a(fprintf.o)
 .debug_loc     0x000000000000bfd0       0x49 0x1 /usr/local/popcorn/aarch64/lib/libc.a(getline.o)
 .debug_loc     0x000000000000c019       0x23 0x1 /usr/local/popcorn/aarch64/lib/libc.a(snprintf.o)
 .debug_loc     0x000000000000c03c       0x23 0x1 /usr/local/popcorn/aarch64/lib/libc.a(sscanf.o)
 .debug_loc     0x000000000000c05f        0x0 0x1 /usr/local/popcorn/aarch64/lib/libc.a(stderr.o)
 .debug_loc     0x000000000000c05f      0x281 0x1 /usr/local/popcorn/aarch64/lib/libc.a(vsnprintf.o)
 .debug_loc     0x000000000000c2e0       0xdb 0x1 /usr/local/popcorn/aarch64/lib/libc.a(vsscanf.o)
 .debug_loc     0x000000000000c3bb      0x144 0x1 /usr/local/popcorn/aarch64/lib/libc.a(strtol.o)
 .debug_loc     0x000000000000c4ff       0xe8 0x1 /usr/local/popcorn/aarch64/lib/libc.a(memcmp.o)
 .debug_loc     0x000000000000c5e7       0x7c 0x1 /usr/local/popcorn/aarch64/lib/libc.a(strchr.o)
 .debug_loc     0x000000000000c663       0xeb 0x1 /usr/local/popcorn/aarch64/lib/libc.a(strchrnul.o)
 .debug_loc     0x000000000000c74e       0x23 0x1 /usr/local/popcorn/aarch64/lib/libc.a(strcmp.o)
 .debug_loc     0x000000000000c771       0x92 0x1 /usr/local/popcorn/aarch64/lib/libc.a(strlen.o)
 .debug_loc     0x000000000000c803       0x9f 0x1 /usr/local/popcorn/aarch64/lib/libc.a(strncmp.o)
 .debug_loc     0x000000000000c8a2      0x606 0x1 /usr/local/popcorn/aarch64/lib/libc.a(strstr.o)
 .debug_loc     0x000000000000cea8       0x36 0x1 /usr/local/popcorn/aarch64/lib/libc.a(pthread_attr_get.o)
 .debug_loc     0x000000000000cede       0xc5 0x1 /usr/local/popcorn/aarch64/lib/libc.a(pthread_getattr_np.o)
 .debug_loc     0x000000000000cfa3       0x46 0x1 /usr/local/popcorn/aarch64/lib/libc.a(pthread_getspecific.o)
 .debug_loc     0x000000000000cfe9      0x1e9 0x1 /usr/local/popcorn/aarch64/lib/libc.a(pthread_key_create.o)
 .debug_loc     0x000000000000d1d2        0x0 0x1 /usr/local/popcorn/aarch64/lib/libc.a(pthread_migrate.o)
 .debug_loc     0x000000000000d1d2        0x0 0x1 /usr/local/popcorn/aarch64/lib/libc.a(pthread_self.o)
 .debug_loc     0x000000000000d1d2       0x23 0x1 /usr/local/popcorn/aarch64/lib/libc.a(pthread_setspecific.o)
 .debug_loc     0x000000000000d1f5       0x46 0x1 /usr/local/popcorn/aarch64/lib/libc.a(close.o)
 .debug_loc     0x000000000000d23b        0x0 0x1 /usr/local/popcorn/aarch64/lib/libc.a(getpid.o)
 .debug_loc     0x000000000000d23b       0x46 0x1 /usr/local/popcorn/aarch64/lib/libc.a(lseek.o)
 .debug_loc     0x000000000000d281       0xb5 0x1 /usr/local/popcorn/aarch64/lib/libc.a(read.o)
 .debug_loc     0x000000000000d336        0x0 0x1 /usr/local/popcorn/aarch64/lib/libc.a(abort.o)
 .debug_loc     0x000000000000d336      0x3bd 0x1 /usr/local/popcorn/aarch64/lib/libc.a(intscan.o)
 .debug_loc     0x000000000000d6f3       0x6c 0x1 /usr/local/popcorn/aarch64/lib/libc.a(shgetc.o)
 .debug_loc     0x000000000000d75f       0x23 0x1 /usr/local/popcorn/aarch64/lib/libc.a(__brk.o)
 .debug_loc     0x000000000000d782       0x9f 0x1 /usr/local/popcorn/aarch64/lib/libc.a(raise.o)
 .debug_loc     0x000000000000d821      0x207 0x1 /usr/local/popcorn/aarch64/lib/libc.a(__fdopen.o)
 .debug_loc     0x000000000000da28       0x6c 0x1 /usr/local/popcorn/aarch64/lib/libc.a(__fmodeflags.o)
 .debug_loc     0x000000000000da94      0x111 0x1 /usr/local/popcorn/aarch64/lib/libc.a(__stdio_read.o)
 .debug_loc     0x000000000000dba5      0x144 0x1 /usr/local/popcorn/aarch64/lib/libc.a(__string_read.o)
 .debug_loc     0x000000000000dce9       0x6e 0x1 /usr/local/popcorn/aarch64/lib/libc.a(__uflow.o)
 .debug_loc     0x000000000000dd57      0x306 0x1 /usr/local/popcorn/aarch64/lib/libc.a(getdelim.o)
 .debug_loc     0x000000000000e05d      0xd1a 0x1 /usr/local/popcorn/aarch64/lib/libc.a(vfscanf.o)
 .debug_loc     0x000000000000ed77     0x1317 0x1 /usr/local/popcorn/aarch64/lib/libc.a(floatscan.o)
 .debug_loc     0x000000000001008e       0x48 0x1 /usr/local/popcorn/aarch64/lib/libc.a(copysignl.o)
 .debug_loc     0x00000000000100d6      0x561 0x1 /usr/local/popcorn/aarch64/lib/libc.a(fmodl.o)
 .debug_loc     0x0000000000010637      0x1b2 0x1 /usr/local/popcorn/aarch64/lib/libc.a(scalbn.o)
 .debug_loc     0x00000000000107e9       0xf2 0x1 /usr/local/popcorn/aarch64/lib/libc.a(scalbnl.o)
 .debug_loc     0x00000000000108db      0x1dd 0x1 /usr/local/popcorn/aarch64/lib/libc.a(mbrtowc.o)
 .debug_loc     0x0000000000010ab8       0x23 0x1 /usr/local/popcorn/aarch64/lib/libc.a(mbsinit.o)
 .debug_loc     0x0000000000010adb       0xdb 0x1 /usr/local/popcorn/aarch64/lib/libc.a(block.o)
 .debug_loc     0x0000000000010bb6       0x36 0x1 /usr/local/popcorn/aarch64/lib/libc.a(__toread.o)
 .debug_loc     0x0000000000010bec        0x0 0x1 /usr/local/popcorn/aarch64/lib/libc.a(internal.o)

.debug_abbrev   0x0000000000000000     0x6bbe
 .debug_abbrev  0x0000000000000000       0x69 0x1 pierre.o
 .debug_abbrev  0x0000000000000069       0x45 0x1 test.o
 .debug_abbrev  0x00000000000000ae       0x62 0x1 /usr/local/popcorn/aarch64/lib/crt1.o
 .debug_abbrev  0x0000000000000110      0x1b5 0x1 /usr/local/popcorn/aarch64/lib/libc.a(__libc_start_main.o)
 .debug_abbrev  0x00000000000002c5       0x8a 0x1 /usr/local/popcorn/aarch64/lib/libc.a(exit.o)
 .debug_abbrev  0x000000000000034f       0x9e 0x1 /usr/local/popcorn/aarch64/lib/libc.a(libc.o)
 .debug_abbrev  0x00000000000003ed       0xaf 0x1 /usr/local/popcorn/aarch64/lib/libc.a(printf.o)
 .debug_abbrev  0x000000000000049c       0xb9 0x1 /usr/local/popcorn/aarch64/lib/libc.a(stdout.o)
 .debug_abbrev  0x0000000000000555      0x2c0 0x1 /usr/local/popcorn/aarch64/lib/libc.a(vfprintf.o)
 .debug_abbrev  0x0000000000000815       0x88 0x1 /usr/local/popcorn/aarch64/lib/libc.a(memchr.o)
 .debug_abbrev  0x000000000000089d       0x8f 0x1 /usr/local/popcorn/aarch64/lib/libc.a(memset.o)
 .debug_abbrev  0x000000000000092c       0x36 0x1 /usr/local/popcorn/aarch64/lib/libc.a(__environ.o)
 .debug_abbrev  0x0000000000000962      0x1ee 0x1 /usr/local/popcorn/aarch64/lib/libc.a(__init_tls.o)
 .debug_abbrev  0x0000000000000b50      0x135 0x1 /usr/local/popcorn/aarch64/lib/libc.a(__errno_location.o)
 .debug_abbrev  0x0000000000000c85      0x176 0x1 /usr/local/popcorn/aarch64/lib/libc.a(strerror.o)
 .debug_abbrev  0x0000000000000dfb       0x8f 0x1 /usr/local/popcorn/aarch64/lib/libc.a(_Exit.o)
 .debug_abbrev  0x0000000000000e8a      0x158 0x1 /usr/local/popcorn/aarch64/lib/libc.a(__lctrans.o)
 .debug_abbrev  0x0000000000000fe2       0x9b 0x1 /usr/local/popcorn/aarch64/lib/libc.a(__fpclassifyl.o)
 .debug_abbrev  0x000000000000107d       0x8e 0x1 /usr/local/popcorn/aarch64/lib/libc.a(__signbitl.o)
 .debug_abbrev  0x000000000000110b       0xa2 0x1 /usr/local/popcorn/aarch64/lib/libc.a(frexpl.o)
 .debug_abbrev  0x00000000000011ad       0x6e 0x1 /usr/local/popcorn/aarch64/lib/libc.a(wctomb.o)
 .debug_abbrev  0x000000000000121b      0x1d3 0x1 /usr/local/popcorn/aarch64/lib/libc.a(__lockfile.o)
 .debug_abbrev  0x00000000000013ee      0x12a 0x1 /usr/local/popcorn/aarch64/lib/libc.a(__stdio_close.o)
 .debug_abbrev  0x0000000000001518      0x112 0x1 /usr/local/popcorn/aarch64/lib/libc.a(__stdio_seek.o)
 .debug_abbrev  0x000000000000162a      0x103 0x1 /usr/local/popcorn/aarch64/lib/libc.a(__stdout_write.o)
 .debug_abbrev  0x000000000000172d       0xe2 0x1 /usr/local/popcorn/aarch64/lib/libc.a(fwrite.o)
 .debug_abbrev  0x000000000000180f       0x95 0x1 /usr/local/popcorn/aarch64/lib/libc.a(memcpy.o)
 .debug_abbrev  0x00000000000018a4       0x28 0x1 /usr/local/popcorn/aarch64/lib/libc.a(__set_thread_area.o)
 .debug_abbrev  0x00000000000018cc       0xc9 0x1 /usr/local/popcorn/aarch64/lib/libc.a(__wait.o)
 .debug_abbrev  0x0000000000001995       0x4b 0x1 /usr/local/popcorn/aarch64/lib/libc.a(syscall_ret.o)
 .debug_abbrev  0x00000000000019e0       0x9e 0x1 /usr/local/popcorn/aarch64/lib/libc.a(wcrtomb.o)
 .debug_abbrev  0x0000000000001a7e      0x140 0x1 /usr/local/popcorn/aarch64/lib/libc.a(__stdio_write.o)
 .debug_abbrev  0x0000000000001bbe       0xc1 0x1 /usr/local/popcorn/aarch64/lib/libc.a(__towrite.o)
 .debug_abbrev  0x0000000000001c7f       0x70 0x1 /usr/local/popcorn/aarch64/lib/libc.a(__syscall_cp.o)
 .debug_abbrev  0x0000000000001cef       0xa4 0x1 /usr/local/popcorn/aarch64/lib/libc.a(pthread_cleanup_push.o)
 .debug_abbrev  0x0000000000001d93       0x28 0x1 /usr/local/popcorn/aarch64/lib/libc.a(syscall.o)
 .debug_abbrev  0x0000000000001dbb       0xdb 0x1 /usr/local/popcorn/aarch64/lib/libc.a(__stdio_exit.o)
 .debug_abbrev  0x0000000000001e96       0xe0 0x1 /usr/local/popcorn/aarch64/lib/libc.a(__lock.o)
 .debug_abbrev  0x0000000000001f76      0x1e1 0x1 /usr/local/popcorn/aarch64/lib/libmigrate.a(migrate.o)
 .debug_abbrev  0x0000000000002157      0x297 0x1 /usr/local/popcorn/aarch64/lib/libstack-transform.a(userspace.o)
 .debug_abbrev  0x00000000000023ee      0x166 0x1 /usr/local/popcorn/aarch64/lib/libstack-transform.a(init.o)
 .debug_abbrev  0x0000000000002554      0x24f 0x1 /usr/local/popcorn/aarch64/lib/libstack-transform.a(rewrite.o)
 .debug_abbrev  0x00000000000027a3      0x1f0 0x1 /usr/local/popcorn/aarch64/lib/libstack-transform.a(unwind.o)
 .debug_abbrev  0x0000000000002993      0x173 0x1 /usr/local/popcorn/aarch64/lib/libstack-transform.a(util.o)
 .debug_abbrev  0x0000000000002b06       0xdd 0x1 /usr/local/popcorn/aarch64/lib/libstack-transform.a(properties.o)
 .debug_abbrev  0x0000000000002be3      0x131 0x1 /usr/local/popcorn/aarch64/lib/libstack-transform.a(regs.o)
 .debug_abbrev  0x0000000000002d14       0xec 0x1 /usr/local/popcorn/aarch64/lib/libstack-transform.a(properties.o)
 .debug_abbrev  0x0000000000002e00      0x131 0x1 /usr/local/popcorn/aarch64/lib/libstack-transform.a(regs.o)
 .debug_abbrev  0x0000000000002f31      0x224 0x1 /usr/local/popcorn/aarch64/lib/libstack-transform.a(data.o)
 .debug_abbrev  0x0000000000003155      0x145 0x1 /usr/local/popcorn/aarch64/lib/libc.a(sysconf.o)
 .debug_abbrev  0x000000000000329a      0x172 0x1 /usr/local/popcorn/aarch64/lib/libc.a(__stack_chk_fail.o)
 .debug_abbrev  0x000000000000340c       0x82 0x1 /usr/local/popcorn/aarch64/lib/libc.a(getenv.o)
 .debug_abbrev  0x000000000000348e       0x57 0x1 /usr/local/popcorn/aarch64/lib/libc.a(assert.o)
 .debug_abbrev  0x00000000000034e5      0x100 0x1 /usr/local/popcorn/aarch64/lib/libc.a(open.o)
 .debug_abbrev  0x00000000000035e5      0x10f 0x1 /usr/local/popcorn/aarch64/lib/libc.a(prctl.o)
 .debug_abbrev  0x00000000000036f4       0xea 0x1 /usr/local/popcorn/aarch64/lib/libc.a(sysinfo.o)
 .debug_abbrev  0x00000000000037de       0x73 0x1 /usr/local/popcorn/aarch64/lib/libc.a(calloc.o)
 .debug_abbrev  0x0000000000003851       0x9d 0x1 /usr/local/popcorn/aarch64/lib/libc.a(lite_malloc.o)
 .debug_abbrev  0x00000000000038ee      0x26a 0x1 /usr/local/popcorn/aarch64/lib/libc.a(malloc.o)
 .debug_abbrev  0x0000000000003b58      0x10c 0x1 /usr/local/popcorn/aarch64/lib/libc.a(getrlimit.o)
 .debug_abbrev  0x0000000000003c64       0xc4 0x1 /usr/local/popcorn/aarch64/lib/libc.a(madvise.o)
 .debug_abbrev  0x0000000000003d28       0xcb 0x1 /usr/local/popcorn/aarch64/lib/libc.a(mmap.o)
 .debug_abbrev  0x0000000000003df3       0xe5 0x1 /usr/local/popcorn/aarch64/lib/libc.a(mremap.o)
 .debug_abbrev  0x0000000000003ed8       0xcb 0x1 /usr/local/popcorn/aarch64/lib/libc.a(munmap.o)
 .debug_abbrev  0x0000000000003fa3       0xdf 0x1 /usr/local/popcorn/aarch64/lib/libc.a(fclose.o)
 .debug_abbrev  0x0000000000004082       0xfe 0x1 /usr/local/popcorn/aarch64/lib/libc.a(fflush.o)
 .debug_abbrev  0x0000000000004180       0xc1 0x1 /usr/local/popcorn/aarch64/lib/libc.a(fgets.o)
 .debug_abbrev  0x0000000000004241      0x110 0x1 /usr/local/popcorn/aarch64/lib/libc.a(fopen.o)
 .debug_abbrev  0x0000000000004351       0xd4 0x1 /usr/local/popcorn/aarch64/lib/libc.a(fprintf.o)
 .debug_abbrev  0x0000000000004425       0x8b 0x1 /usr/local/popcorn/aarch64/lib/libc.a(getline.o)
 .debug_abbrev  0x00000000000044b0       0xbe 0x1 /usr/local/popcorn/aarch64/lib/libc.a(snprintf.o)
 .debug_abbrev  0x000000000000456e       0xbe 0x1 /usr/local/popcorn/aarch64/lib/libc.a(sscanf.o)
 .debug_abbrev  0x000000000000462c       0xb9 0x1 /usr/local/popcorn/aarch64/lib/libc.a(stderr.o)
 .debug_abbrev  0x00000000000046e5      0x105 0x1 /usr/local/popcorn/aarch64/lib/libc.a(vsnprintf.o)
 .debug_abbrev  0x00000000000047ea      0x105 0x1 /usr/local/popcorn/aarch64/lib/libc.a(vsscanf.o)
 .debug_abbrev  0x00000000000048ef      0x146 0x1 /usr/local/popcorn/aarch64/lib/libc.a(strtol.o)
 .debug_abbrev  0x0000000000004a35       0x7a 0x1 /usr/local/popcorn/aarch64/lib/libc.a(memcmp.o)
 .debug_abbrev  0x0000000000004aaf       0x68 0x1 /usr/local/popcorn/aarch64/lib/libc.a(strchr.o)
 .debug_abbrev  0x0000000000004b17       0x7a 0x1 /usr/local/popcorn/aarch64/lib/libc.a(strchrnul.o)
 .debug_abbrev  0x0000000000004b91       0x68 0x1 /usr/local/popcorn/aarch64/lib/libc.a(strcmp.o)
 .debug_abbrev  0x0000000000004bf9       0x87 0x1 /usr/local/popcorn/aarch64/lib/libc.a(strlen.o)
 .debug_abbrev  0x0000000000004c80       0x89 0x1 /usr/local/popcorn/aarch64/lib/libc.a(strncmp.o)
 .debug_abbrev  0x0000000000004d09      0x109 0x1 /usr/local/popcorn/aarch64/lib/libc.a(strstr.o)
 .debug_abbrev  0x0000000000004e12      0x109 0x1 /usr/local/popcorn/aarch64/lib/libc.a(pthread_attr_get.o)
 .debug_abbrev  0x0000000000004f1b      0x125 0x1 /usr/local/popcorn/aarch64/lib/libc.a(pthread_getattr_np.o)
 .debug_abbrev  0x0000000000005040      0x142 0x1 /usr/local/popcorn/aarch64/lib/libc.a(pthread_getspecific.o)
 .debug_abbrev  0x0000000000005182      0x1e3 0x1 /usr/local/popcorn/aarch64/lib/libc.a(pthread_key_create.o)
 .debug_abbrev  0x0000000000005365      0x133 0x1 /usr/local/popcorn/aarch64/lib/libc.a(pthread_migrate.o)
 .debug_abbrev  0x0000000000005498      0x131 0x1 /usr/local/popcorn/aarch64/lib/libc.a(pthread_self.o)
 .debug_abbrev  0x00000000000055c9      0x149 0x1 /usr/local/popcorn/aarch64/lib/libc.a(pthread_setspecific.o)
 .debug_abbrev  0x0000000000005712       0x81 0x1 /usr/local/popcorn/aarch64/lib/libc.a(close.o)
 .debug_abbrev  0x0000000000005793       0xa1 0x1 /usr/local/popcorn/aarch64/lib/libc.a(getpid.o)
 .debug_abbrev  0x0000000000005834       0xbf 0x1 /usr/local/popcorn/aarch64/lib/libc.a(lseek.o)
 .debug_abbrev  0x00000000000058f3       0x5d 0x1 /usr/local/popcorn/aarch64/lib/libc.a(read.o)
 .debug_abbrev  0x0000000000005950       0x2f 0x1 /usr/local/popcorn/aarch64/lib/libc.a(abort.o)
 .debug_abbrev  0x000000000000597f      0x117 0x1 /usr/local/popcorn/aarch64/lib/libc.a(intscan.o)
 .debug_abbrev  0x0000000000005a96       0xe1 0x1 /usr/local/popcorn/aarch64/lib/libc.a(shgetc.o)
 .debug_abbrev  0x0000000000005b77       0xb0 0x1 /usr/local/popcorn/aarch64/lib/libc.a(__brk.o)
 .debug_abbrev  0x0000000000005c27       0xf6 0x1 /usr/local/popcorn/aarch64/lib/libc.a(raise.o)
 .debug_abbrev  0x0000000000005d1d      0x129 0x1 /usr/local/popcorn/aarch64/lib/libc.a(__fdopen.o)
 .debug_abbrev  0x0000000000005e46       0x68 0x1 /usr/local/popcorn/aarch64/lib/libc.a(__fmodeflags.o)
 .debug_abbrev  0x0000000000005eae      0x142 0x1 /usr/local/popcorn/aarch64/lib/libc.a(__stdio_read.o)
 .debug_abbrev  0x0000000000005ff0       0xba 0x1 /usr/local/popcorn/aarch64/lib/libc.a(__string_read.o)
 .debug_abbrev  0x00000000000060aa       0xba 0x1 /usr/local/popcorn/aarch64/lib/libc.a(__uflow.o)
 .debug_abbrev  0x0000000000006164       0xc1 0x1 /usr/local/popcorn/aarch64/lib/libc.a(getdelim.o)
 .debug_abbrev  0x0000000000006225      0x1c6 0x1 /usr/local/popcorn/aarch64/lib/libc.a(vfscanf.o)
 .debug_abbrev  0x00000000000063eb      0x1f1 0x1 /usr/local/popcorn/aarch64/lib/libc.a(floatscan.o)
 .debug_abbrev  0x00000000000065dc       0xac 0x1 /usr/local/popcorn/aarch64/lib/libc.a(copysignl.o)
 .debug_abbrev  0x0000000000006688       0x28 0x1 /usr/local/popcorn/aarch64/lib/libc.a(fabs.o)
 .debug_abbrev  0x00000000000066b0       0xc5 0x1 /usr/local/popcorn/aarch64/lib/libc.a(fmodl.o)
 .debug_abbrev  0x0000000000006775       0x81 0x1 /usr/local/popcorn/aarch64/lib/libc.a(scalbn.o)
 .debug_abbrev  0x00000000000067f6       0x8e 0x1 /usr/local/popcorn/aarch64/lib/libc.a(scalbnl.o)
 .debug_abbrev  0x0000000000006884       0xcb 0x1 /usr/local/popcorn/aarch64/lib/libc.a(mbrtowc.o)
 .debug_abbrev  0x000000000000694f       0x82 0x1 /usr/local/popcorn/aarch64/lib/libc.a(mbsinit.o)
 .debug_abbrev  0x00000000000069d1       0xce 0x1 /usr/local/popcorn/aarch64/lib/libc.a(block.o)
 .debug_abbrev  0x0000000000006a9f       0xc1 0x1 /usr/local/popcorn/aarch64/lib/libc.a(__toread.o)
 .debug_abbrev  0x0000000000006b60       0x5e 0x1 /usr/local/popcorn/aarch64/lib/libc.a(internal.o)

.debug_info     0x0000000000000000    0x173b0
 .debug_info    0x0000000000000000       0x82 0x1 pierre.o
 .debug_info    0x0000000000000082       0x68 0x1 test.o
 .debug_info    0x00000000000000ea       0x8b 0x1 /usr/local/popcorn/aarch64/lib/crt1.o
 .debug_info    0x0000000000000175      0x3ab 0x1 /usr/local/popcorn/aarch64/lib/libc.a(__libc_start_main.o)
 .debug_info    0x0000000000000520       0x9a 0x1 /usr/local/popcorn/aarch64/lib/libc.a(exit.o)
 .debug_info    0x00000000000005ba      0x196 0x1 /usr/local/popcorn/aarch64/lib/libc.a(libc.o)
 .debug_info    0x0000000000000750       0xe6 0x1 /usr/local/popcorn/aarch64/lib/libc.a(printf.o)
 .debug_info    0x0000000000000836      0x2f1 0x1 /usr/local/popcorn/aarch64/lib/libc.a(stdout.o)
 .debug_info    0x0000000000000b27     0x1107 0x1 /usr/local/popcorn/aarch64/lib/libc.a(vfprintf.o)
 .debug_info    0x0000000000001c2e       0xf3 0x1 /usr/local/popcorn/aarch64/lib/libc.a(memchr.o)
 .debug_info    0x0000000000001d21      0x114 0x1 /usr/local/popcorn/aarch64/lib/libc.a(memset.o)
 .debug_info    0x0000000000001e35       0x45 0x1 /usr/local/popcorn/aarch64/lib/libc.a(__environ.o)
 .debug_info    0x0000000000001e7a      0x7fc 0x1 /usr/local/popcorn/aarch64/lib/libc.a(__init_tls.o)
 .debug_info    0x0000000000002676      0x421 0x1 /usr/local/popcorn/aarch64/lib/libc.a(__errno_location.o)
 .debug_info    0x0000000000002a97      0x511 0x1 /usr/local/popcorn/aarch64/lib/libc.a(strerror.o)
 .debug_info    0x0000000000002fa8       0xcb 0x1 /usr/local/popcorn/aarch64/lib/libc.a(_Exit.o)
 .debug_info    0x0000000000003073      0x4e3 0x1 /usr/local/popcorn/aarch64/lib/libc.a(__lctrans.o)
 .debug_info    0x0000000000003556      0x12f 0x1 /usr/local/popcorn/aarch64/lib/libc.a(__fpclassifyl.o)
 .debug_info    0x0000000000003685      0x124 0x1 /usr/local/popcorn/aarch64/lib/libc.a(__signbitl.o)
 .debug_info    0x00000000000037a9      0x145 0x1 /usr/local/popcorn/aarch64/lib/libc.a(frexpl.o)
 .debug_info    0x00000000000038ee       0x86 0x1 /usr/local/popcorn/aarch64/lib/libc.a(wctomb.o)
 .debug_info    0x0000000000003974      0x743 0x1 /usr/local/popcorn/aarch64/lib/libc.a(__lockfile.o)
 .debug_info    0x00000000000040b7      0x33d 0x1 /usr/local/popcorn/aarch64/lib/libc.a(__stdio_close.o)
 .debug_info    0x00000000000043f4      0x367 0x1 /usr/local/popcorn/aarch64/lib/libc.a(__stdio_seek.o)
 .debug_info    0x000000000000475b      0x3bb 0x1 /usr/local/popcorn/aarch64/lib/libc.a(__stdout_write.o)
 .debug_info    0x0000000000004b16      0x372 0x1 /usr/local/popcorn/aarch64/lib/libc.a(fwrite.o)
 .debug_info    0x0000000000004e88      0x112 0x1 /usr/local/popcorn/aarch64/lib/libc.a(memcpy.o)
 .debug_info    0x0000000000004f9a       0xe4 0x1 /usr/local/popcorn/aarch64/lib/libc.a(__set_thread_area.o)
 .debug_info    0x000000000000507e      0x13a 0x1 /usr/local/popcorn/aarch64/lib/libc.a(__wait.o)
 .debug_info    0x00000000000051b8       0x62 0x1 /usr/local/popcorn/aarch64/lib/libc.a(syscall_ret.o)
 .debug_info    0x000000000000521a       0xdd 0x1 /usr/local/popcorn/aarch64/lib/libc.a(wcrtomb.o)
 .debug_info    0x00000000000052f7      0x3e2 0x1 /usr/local/popcorn/aarch64/lib/libc.a(__stdio_write.o)
 .debug_info    0x00000000000056d9      0x2c7 0x1 /usr/local/popcorn/aarch64/lib/libc.a(__towrite.o)
 .debug_info    0x00000000000059a0      0x127 0x1 /usr/local/popcorn/aarch64/lib/libc.a(__syscall_cp.o)
 .debug_info    0x0000000000005ac7      0x105 0x1 /usr/local/popcorn/aarch64/lib/libc.a(pthread_cleanup_push.o)
 .debug_info    0x0000000000005bcc       0xd2 0x1 /usr/local/popcorn/aarch64/lib/libc.a(syscall.o)
 .debug_info    0x0000000000005c9e      0x2eb 0x1 /usr/local/popcorn/aarch64/lib/libc.a(__stdio_exit.o)
 .debug_info    0x0000000000005f89      0x137 0x1 /usr/local/popcorn/aarch64/lib/libc.a(__lock.o)
 .debug_info    0x00000000000060c0      0x5e4 0x1 /usr/local/popcorn/aarch64/lib/libmigrate.a(migrate.o)
 .debug_info    0x00000000000066a4      0xf1d 0x1 /usr/local/popcorn/aarch64/lib/libstack-transform.a(userspace.o)
 .debug_info    0x00000000000075c1      0x8c0 0x1 /usr/local/popcorn/aarch64/lib/libstack-transform.a(init.o)
 .debug_info    0x0000000000007e81      0xfe2 0x1 /usr/local/popcorn/aarch64/lib/libstack-transform.a(rewrite.o)
 .debug_info    0x0000000000008e63      0xd76 0x1 /usr/local/popcorn/aarch64/lib/libstack-transform.a(unwind.o)
 .debug_info    0x0000000000009bd9      0xc6a 0x1 /usr/local/popcorn/aarch64/lib/libstack-transform.a(util.o)
 .debug_info    0x000000000000a843      0x1fd 0x1 /usr/local/popcorn/aarch64/lib/libstack-transform.a(properties.o)
 .debug_info    0x000000000000aa40      0x69d 0x1 /usr/local/popcorn/aarch64/lib/libstack-transform.a(regs.o)
 .debug_info    0x000000000000b0dd      0x217 0x1 /usr/local/popcorn/aarch64/lib/libstack-transform.a(properties.o)
 .debug_info    0x000000000000b2f4      0x7cb 0x1 /usr/local/popcorn/aarch64/lib/libstack-transform.a(regs.o)
 .debug_info    0x000000000000babf      0xec9 0x1 /usr/local/popcorn/aarch64/lib/libstack-transform.a(data.o)
 .debug_info    0x000000000000c988      0x2c7 0x1 /usr/local/popcorn/aarch64/lib/libc.a(sysconf.o)
 .debug_info    0x000000000000cc4f      0x477 0x1 /usr/local/popcorn/aarch64/lib/libc.a(__stack_chk_fail.o)
 .debug_info    0x000000000000d0c6       0x9d 0x1 /usr/local/popcorn/aarch64/lib/libc.a(getenv.o)
 .debug_info    0x000000000000d163       0x95 0x1 /usr/local/popcorn/aarch64/lib/libc.a(assert.o)
 .debug_info    0x000000000000d1f8      0x1c0 0x1 /usr/local/popcorn/aarch64/lib/libc.a(open.o)
 .debug_info    0x000000000000d3b8      0x1ba 0x1 /usr/local/popcorn/aarch64/lib/libc.a(prctl.o)
 .debug_info    0x000000000000d572      0x1b9 0x1 /usr/local/popcorn/aarch64/lib/libc.a(sysinfo.o)
 .debug_info    0x000000000000d72b       0x99 0x1 /usr/local/popcorn/aarch64/lib/libc.a(calloc.o)
 .debug_info    0x000000000000d7c4       0xfd 0x1 /usr/local/popcorn/aarch64/lib/libc.a(lite_malloc.o)
 .debug_info    0x000000000000d8c1      0xf1d 0x1 /usr/local/popcorn/aarch64/lib/libc.a(malloc.o)
 .debug_info    0x000000000000e7de      0x212 0x1 /usr/local/popcorn/aarch64/lib/libc.a(getrlimit.o)
 .debug_info    0x000000000000e9f0      0x121 0x1 /usr/local/popcorn/aarch64/lib/libc.a(madvise.o)
 .debug_info    0x000000000000eb11      0x1b2 0x1 /usr/local/popcorn/aarch64/lib/libc.a(mmap.o)
 .debug_info    0x000000000000ecc3      0x1cc 0x1 /usr/local/popcorn/aarch64/lib/libc.a(mremap.o)
 .debug_info    0x000000000000ee8f      0x113 0x1 /usr/local/popcorn/aarch64/lib/libc.a(munmap.o)
 .debug_info    0x000000000000efa2      0x2f5 0x1 /usr/local/popcorn/aarch64/lib/libc.a(fclose.o)
 .debug_info    0x000000000000f297      0x334 0x1 /usr/local/popcorn/aarch64/lib/libc.a(fflush.o)
 .debug_info    0x000000000000f5cb      0x327 0x1 /usr/local/popcorn/aarch64/lib/libc.a(fgets.o)
 .debug_info    0x000000000000f8f2      0x401 0x1 /usr/local/popcorn/aarch64/lib/libc.a(fopen.o)
 .debug_info    0x000000000000fcf3      0x10e 0x1 /usr/local/popcorn/aarch64/lib/libc.a(fprintf.o)
 .debug_info    0x000000000000fe01       0xcd 0x1 /usr/local/popcorn/aarch64/lib/libc.a(getline.o)
 .debug_info    0x000000000000fece      0x11c 0x1 /usr/local/popcorn/aarch64/lib/libc.a(snprintf.o)
 .debug_info    0x000000000000ffea       0xf3 0x1 /usr/local/popcorn/aarch64/lib/libc.a(sscanf.o)
 .debug_info    0x00000000000100dd      0x2f0 0x1 /usr/local/popcorn/aarch64/lib/libc.a(stderr.o)
 .debug_info    0x00000000000103cd      0x3c3 0x1 /usr/local/popcorn/aarch64/lib/libc.a(vsnprintf.o)
 .debug_info    0x0000000000010790      0x37e 0x1 /usr/local/popcorn/aarch64/lib/libc.a(vsscanf.o)
 .debug_info    0x0000000000010b0e      0x559 0x1 /usr/local/popcorn/aarch64/lib/libc.a(strtol.o)
 .debug_info    0x0000000000011067       0xc0 0x1 /usr/local/popcorn/aarch64/lib/libc.a(memcmp.o)
 .debug_info    0x0000000000011127       0x9b 0x1 /usr/local/popcorn/aarch64/lib/libc.a(strchr.o)
 .debug_info    0x00000000000111c2       0xcd 0x1 /usr/local/popcorn/aarch64/lib/libc.a(strchrnul.o)
 .debug_info    0x000000000001128f       0x85 0x1 /usr/local/popcorn/aarch64/lib/libc.a(strcmp.o)
 .debug_info    0x0000000000011314       0xac 0x1 /usr/local/popcorn/aarch64/lib/libc.a(strlen.o)
 .debug_info    0x00000000000113c0       0xca 0x1 /usr/local/popcorn/aarch64/lib/libc.a(strncmp.o)
 .debug_info    0x000000000001148a      0x323 0x1 /usr/local/popcorn/aarch64/lib/libc.a(strstr.o)
 .debug_info    0x00000000000117ad      0x59c 0x1 /usr/local/popcorn/aarch64/lib/libc.a(pthread_attr_get.o)
 .debug_info    0x0000000000011d49      0x444 0x1 /usr/local/popcorn/aarch64/lib/libc.a(pthread_getattr_np.o)
 .debug_info    0x000000000001218d      0x44b 0x1 /usr/local/popcorn/aarch64/lib/libc.a(pthread_getspecific.o)
 .debug_info    0x00000000000125d8      0x603 0x1 /usr/local/popcorn/aarch64/lib/libc.a(pthread_key_create.o)
 .debug_info    0x0000000000012bdb      0x427 0x1 /usr/local/popcorn/aarch64/lib/libc.a(pthread_migrate.o)
 .debug_info    0x0000000000013002      0x428 0x1 /usr/local/popcorn/aarch64/lib/libc.a(pthread_self.o)
 .debug_info    0x000000000001342a      0x45c 0x1 /usr/local/popcorn/aarch64/lib/libc.a(pthread_setspecific.o)
 .debug_info    0x0000000000013886       0x98 0x1 /usr/local/popcorn/aarch64/lib/libc.a(close.o)
 .debug_info    0x000000000001391e       0xb6 0x1 /usr/local/popcorn/aarch64/lib/libc.a(getpid.o)
 .debug_info    0x00000000000139d4      0x115 0x1 /usr/local/popcorn/aarch64/lib/libc.a(lseek.o)
 .debug_info    0x0000000000013ae9       0x9e 0x1 /usr/local/popcorn/aarch64/lib/libc.a(read.o)
 .debug_info    0x0000000000013b87       0x40 0x1 /usr/local/popcorn/aarch64/lib/libc.a(abort.o)
 .debug_info    0x0000000000013bc7      0x380 0x1 /usr/local/popcorn/aarch64/lib/libc.a(intscan.o)
 .debug_info    0x0000000000013f47      0x2f3 0x1 /usr/local/popcorn/aarch64/lib/libc.a(shgetc.o)
 .debug_info    0x000000000001423a       0xcf 0x1 /usr/local/popcorn/aarch64/lib/libc.a(__brk.o)
 .debug_info    0x0000000000014309      0x197 0x1 /usr/local/popcorn/aarch64/lib/libc.a(raise.o)
 .debug_info    0x00000000000144a0      0x507 0x1 /usr/local/popcorn/aarch64/lib/libc.a(__fdopen.o)
 .debug_info    0x00000000000149a7       0x7b 0x1 /usr/local/popcorn/aarch64/lib/libc.a(__fmodeflags.o)
 .debug_info    0x0000000000014a22      0x3b8 0x1 /usr/local/popcorn/aarch64/lib/libc.a(__stdio_read.o)
 .debug_info    0x0000000000014dda      0x2ff 0x1 /usr/local/popcorn/aarch64/lib/libc.a(__string_read.o)
 .debug_info    0x00000000000150d9      0x2c3 0x1 /usr/local/popcorn/aarch64/lib/libc.a(__uflow.o)
 .debug_info    0x000000000001539c      0x35f 0x1 /usr/local/popcorn/aarch64/lib/libc.a(getdelim.o)
 .debug_info    0x00000000000156fb      0x670 0x1 /usr/local/popcorn/aarch64/lib/libc.a(vfscanf.o)
 .debug_info    0x0000000000015d6b      0x894 0x1 /usr/local/popcorn/aarch64/lib/libc.a(floatscan.o)
 .debug_info    0x00000000000165ff      0x13b 0x1 /usr/local/popcorn/aarch64/lib/libc.a(copysignl.o)
 .debug_info    0x000000000001673a       0xcb 0x1 /usr/local/popcorn/aarch64/lib/libc.a(fabs.o)
 .debug_info    0x0000000000016805      0x25a 0x1 /usr/local/popcorn/aarch64/lib/libc.a(fmodl.o)
 .debug_info    0x0000000000016a5f       0xc9 0x1 /usr/local/popcorn/aarch64/lib/libc.a(scalbn.o)
 .debug_info    0x0000000000016b28      0x142 0x1 /usr/local/popcorn/aarch64/lib/libc.a(scalbnl.o)
 .debug_info    0x0000000000016c6a      0x17c 0x1 /usr/local/popcorn/aarch64/lib/libc.a(mbrtowc.o)
 .debug_info    0x0000000000016de6       0xa1 0x1 /usr/local/popcorn/aarch64/lib/libc.a(mbsinit.o)
 .debug_info    0x0000000000016e87      0x202 0x1 /usr/local/popcorn/aarch64/lib/libc.a(block.o)
 .debug_info    0x0000000000017089      0x2c9 0x1 /usr/local/popcorn/aarch64/lib/libc.a(__toread.o)
 .debug_info    0x0000000000017352       0x5e 0x1 /usr/local/popcorn/aarch64/lib/libc.a(internal.o)

.debug_ranges   0x0000000000000000     0x36e0
 .debug_ranges  0x0000000000000000       0x30 0x1 pierre.o
 .debug_ranges  0x0000000000000030        0x0 0x1 test.o
 .debug_ranges  0x0000000000000030        0x0 0x1 /usr/local/popcorn/aarch64/lib/crt1.o
 .debug_ranges  0x0000000000000030       0xb0 0x1 /usr/local/popcorn/aarch64/lib/libc.a(__libc_start_main.o)
 .debug_ranges  0x00000000000000e0       0x30 0x1 /usr/local/popcorn/aarch64/lib/libc.a(exit.o)
 .debug_ranges  0x0000000000000110        0x0 0x1 /usr/local/popcorn/aarch64/lib/libc.a(libc.o)
 .debug_ranges  0x0000000000000110        0x0 0x1 /usr/local/popcorn/aarch64/lib/libc.a(printf.o)
 .debug_ranges  0x0000000000000110        0x0 0x1 /usr/local/popcorn/aarch64/lib/libc.a(stdout.o)
 .debug_ranges  0x0000000000000110      0xa90 0x1 /usr/local/popcorn/aarch64/lib/libc.a(vfprintf.o)
 .debug_ranges  0x0000000000000ba0        0x0 0x1 /usr/local/popcorn/aarch64/lib/libc.a(memchr.o)
 .debug_ranges  0x0000000000000ba0        0x0 0x1 /usr/local/popcorn/aarch64/lib/libc.a(memset.o)
 .debug_ranges  0x0000000000000ba0        0x0 0x1 /usr/local/popcorn/aarch64/lib/libc.a(__environ.o)
 .debug_ranges  0x0000000000000ba0       0x30 0x1 /usr/local/popcorn/aarch64/lib/libc.a(__init_tls.o)
 .debug_ranges  0x0000000000000bd0        0x0 0x1 /usr/local/popcorn/aarch64/lib/libc.a(__errno_location.o)
 .debug_ranges  0x0000000000000bd0       0x30 0x1 /usr/local/popcorn/aarch64/lib/libc.a(strerror.o)
 .debug_ranges  0x0000000000000c00        0x0 0x1 /usr/local/popcorn/aarch64/lib/libc.a(_Exit.o)
 .debug_ranges  0x0000000000000c00       0x40 0x1 /usr/local/popcorn/aarch64/lib/libc.a(__lctrans.o)
 .debug_ranges  0x0000000000000c40        0x0 0x1 /usr/local/popcorn/aarch64/lib/libc.a(__fpclassifyl.o)
 .debug_ranges  0x0000000000000c40        0x0 0x1 /usr/local/popcorn/aarch64/lib/libc.a(__signbitl.o)
 .debug_ranges  0x0000000000000c40        0x0 0x1 /usr/local/popcorn/aarch64/lib/libc.a(frexpl.o)
 .debug_ranges  0x0000000000000c40        0x0 0x1 /usr/local/popcorn/aarch64/lib/libc.a(wctomb.o)
 .debug_ranges  0x0000000000000c40       0x90 0x1 /usr/local/popcorn/aarch64/lib/libc.a(__lockfile.o)
 .debug_ranges  0x0000000000000cd0       0x30 0x1 /usr/local/popcorn/aarch64/lib/libc.a(__stdio_close.o)
 .debug_ranges  0x0000000000000d00        0x0 0x1 /usr/local/popcorn/aarch64/lib/libc.a(__stdio_seek.o)
 .debug_ranges  0x0000000000000d00        0x0 0x1 /usr/local/popcorn/aarch64/lib/libc.a(__stdout_write.o)
 .debug_ranges  0x0000000000000d00       0x30 0x1 /usr/local/popcorn/aarch64/lib/libc.a(fwrite.o)
 .debug_ranges  0x0000000000000d30        0x0 0x1 /usr/local/popcorn/aarch64/lib/libc.a(memcpy.o)
 .debug_ranges  0x0000000000000d30        0x0 0x1 /usr/local/popcorn/aarch64/lib/libc.a(__wait.o)
 .debug_ranges  0x0000000000000d30        0x0 0x1 /usr/local/popcorn/aarch64/lib/libc.a(syscall_ret.o)
 .debug_ranges  0x0000000000000d30        0x0 0x1 /usr/local/popcorn/aarch64/lib/libc.a(wcrtomb.o)
 .debug_ranges  0x0000000000000d30       0x60 0x1 /usr/local/popcorn/aarch64/lib/libc.a(__stdio_write.o)
 .debug_ranges  0x0000000000000d90       0x30 0x1 /usr/local/popcorn/aarch64/lib/libc.a(__towrite.o)
 .debug_ranges  0x0000000000000dc0       0x30 0x1 /usr/local/popcorn/aarch64/lib/libc.a(__syscall_cp.o)
 .debug_ranges  0x0000000000000df0       0x40 0x1 /usr/local/popcorn/aarch64/lib/libc.a(pthread_cleanup_push.o)
 .debug_ranges  0x0000000000000e30       0x30 0x1 /usr/local/popcorn/aarch64/lib/libc.a(__stdio_exit.o)
 .debug_ranges  0x0000000000000e60       0x60 0x1 /usr/local/popcorn/aarch64/lib/libc.a(__lock.o)
 .debug_ranges  0x0000000000000ec0      0x130 0x1 /usr/local/popcorn/aarch64/lib/libmigrate.a(migrate.o)
 .debug_ranges  0x0000000000000ff0      0x180 0x1 /usr/local/popcorn/aarch64/lib/libstack-transform.a(userspace.o)
 .debug_ranges  0x0000000000001170       0x50 0x1 /usr/local/popcorn/aarch64/lib/libstack-transform.a(init.o)
 .debug_ranges  0x00000000000011c0      0x490 0x1 /usr/local/popcorn/aarch64/lib/libstack-transform.a(rewrite.o)
 .debug_ranges  0x0000000000001650      0x160 0x1 /usr/local/popcorn/aarch64/lib/libstack-transform.a(unwind.o)
 .debug_ranges  0x00000000000017b0       0xf0 0x1 /usr/local/popcorn/aarch64/lib/libstack-transform.a(util.o)
 .debug_ranges  0x00000000000018a0       0x40 0x1 /usr/local/popcorn/aarch64/lib/libstack-transform.a(properties.o)
 .debug_ranges  0x00000000000018e0      0x120 0x1 /usr/local/popcorn/aarch64/lib/libstack-transform.a(regs.o)
 .debug_ranges  0x0000000000001a00       0x40 0x1 /usr/local/popcorn/aarch64/lib/libstack-transform.a(properties.o)
 .debug_ranges  0x0000000000001a40      0x120 0x1 /usr/local/popcorn/aarch64/lib/libstack-transform.a(regs.o)
 .debug_ranges  0x0000000000001b60      0x370 0x1 /usr/local/popcorn/aarch64/lib/libstack-transform.a(data.o)
 .debug_ranges  0x0000000000001ed0       0x70 0x1 /usr/local/popcorn/aarch64/lib/libc.a(sysconf.o)
 .debug_ranges  0x0000000000001f40       0x30 0x1 /usr/local/popcorn/aarch64/lib/libc.a(__stack_chk_fail.o)
 .debug_ranges  0x0000000000001f70        0x0 0x1 /usr/local/popcorn/aarch64/lib/libc.a(getenv.o)
 .debug_ranges  0x0000000000001f70        0x0 0x1 /usr/local/popcorn/aarch64/lib/libc.a(assert.o)
 .debug_ranges  0x0000000000001f70       0x30 0x1 /usr/local/popcorn/aarch64/lib/libc.a(open.o)
 .debug_ranges  0x0000000000001fa0        0x0 0x1 /usr/local/popcorn/aarch64/lib/libc.a(prctl.o)
 .debug_ranges  0x0000000000001fa0        0x0 0x1 /usr/local/popcorn/aarch64/lib/libc.a(sysinfo.o)
 .debug_ranges  0x0000000000001fa0        0x0 0x1 /usr/local/popcorn/aarch64/lib/libc.a(calloc.o)
 .debug_ranges  0x0000000000001fa0        0x0 0x1 /usr/local/popcorn/aarch64/lib/libc.a(lite_malloc.o)
 .debug_ranges  0x0000000000001fa0      0x9c0 0x1 /usr/local/popcorn/aarch64/lib/libc.a(malloc.o)
 .debug_ranges  0x0000000000002960        0x0 0x1 /usr/local/popcorn/aarch64/lib/libc.a(getrlimit.o)
 .debug_ranges  0x0000000000002960        0x0 0x1 /usr/local/popcorn/aarch64/lib/libc.a(madvise.o)
 .debug_ranges  0x0000000000002960       0x30 0x1 /usr/local/popcorn/aarch64/lib/libc.a(mmap.o)
 .debug_ranges  0x0000000000002990        0x0 0x1 /usr/local/popcorn/aarch64/lib/libc.a(mremap.o)
 .debug_ranges  0x0000000000002990       0x30 0x1 /usr/local/popcorn/aarch64/lib/libc.a(munmap.o)
 .debug_ranges  0x00000000000029c0       0x30 0x1 /usr/local/popcorn/aarch64/lib/libc.a(fclose.o)
 .debug_ranges  0x00000000000029f0       0x60 0x1 /usr/local/popcorn/aarch64/lib/libc.a(fflush.o)
 .debug_ranges  0x0000000000002a50        0x0 0x1 /usr/local/popcorn/aarch64/lib/libc.a(fgets.o)
 .debug_ranges  0x0000000000002a50        0x0 0x1 /usr/local/popcorn/aarch64/lib/libc.a(fopen.o)
 .debug_ranges  0x0000000000002a50        0x0 0x1 /usr/local/popcorn/aarch64/lib/libc.a(fprintf.o)
 .debug_ranges  0x0000000000002a50        0x0 0x1 /usr/local/popcorn/aarch64/lib/libc.a(getline.o)
 .debug_ranges  0x0000000000002a50        0x0 0x1 /usr/local/popcorn/aarch64/lib/libc.a(snprintf.o)
 .debug_ranges  0x0000000000002a50        0x0 0x1 /usr/local/popcorn/aarch64/lib/libc.a(sscanf.o)
 .debug_ranges  0x0000000000002a50        0x0 0x1 /usr/local/popcorn/aarch64/lib/libc.a(stderr.o)
 .debug_ranges  0x0000000000002a50       0x30 0x1 /usr/local/popcorn/aarch64/lib/libc.a(vsnprintf.o)
 .debug_ranges  0x0000000000002a80       0x30 0x1 /usr/local/popcorn/aarch64/lib/libc.a(vsscanf.o)
 .debug_ranges  0x0000000000002ab0       0x80 0x1 /usr/local/popcorn/aarch64/lib/libc.a(strtol.o)
 .debug_ranges  0x0000000000002b30        0x0 0x1 /usr/local/popcorn/aarch64/lib/libc.a(memcmp.o)
 .debug_ranges  0x0000000000002b30        0x0 0x1 /usr/local/popcorn/aarch64/lib/libc.a(strchr.o)
 .debug_ranges  0x0000000000002b30        0x0 0x1 /usr/local/popcorn/aarch64/lib/libc.a(strchrnul.o)
 .debug_ranges  0x0000000000002b30        0x0 0x1 /usr/local/popcorn/aarch64/lib/libc.a(strcmp.o)
 .debug_ranges  0x0000000000002b30        0x0 0x1 /usr/local/popcorn/aarch64/lib/libc.a(strlen.o)
 .debug_ranges  0x0000000000002b30        0x0 0x1 /usr/local/popcorn/aarch64/lib/libc.a(strncmp.o)
 .debug_ranges  0x0000000000002b30      0x250 0x1 /usr/local/popcorn/aarch64/lib/libc.a(strstr.o)
 .debug_ranges  0x0000000000002d80      0x110 0x1 /usr/local/popcorn/aarch64/lib/libc.a(pthread_attr_get.o)
 .debug_ranges  0x0000000000002e90        0x0 0x1 /usr/local/popcorn/aarch64/lib/libc.a(pthread_getattr_np.o)
 .debug_ranges  0x0000000000002e90        0x0 0x1 /usr/local/popcorn/aarch64/lib/libc.a(pthread_getspecific.o)
 .debug_ranges  0x0000000000002e90       0xb0 0x1 /usr/local/popcorn/aarch64/lib/libc.a(pthread_key_create.o)
 .debug_ranges  0x0000000000002f40        0x0 0x1 /usr/local/popcorn/aarch64/lib/libc.a(pthread_migrate.o)
 .debug_ranges  0x0000000000002f40        0x0 0x1 /usr/local/popcorn/aarch64/lib/libc.a(pthread_self.o)
 .debug_ranges  0x0000000000002f40        0x0 0x1 /usr/local/popcorn/aarch64/lib/libc.a(pthread_setspecific.o)
 .debug_ranges  0x0000000000002f40       0x30 0x1 /usr/local/popcorn/aarch64/lib/libc.a(close.o)
 .debug_ranges  0x0000000000002f70        0x0 0x1 /usr/local/popcorn/aarch64/lib/libc.a(getpid.o)
 .debug_ranges  0x0000000000002f70        0x0 0x1 /usr/local/popcorn/aarch64/lib/libc.a(lseek.o)
 .debug_ranges  0x0000000000002f70        0x0 0x1 /usr/local/popcorn/aarch64/lib/libc.a(read.o)
 .debug_ranges  0x0000000000002f70        0x0 0x1 /usr/local/popcorn/aarch64/lib/libc.a(abort.o)
 .debug_ranges  0x0000000000002f70       0x30 0x1 /usr/local/popcorn/aarch64/lib/libc.a(intscan.o)
 .debug_ranges  0x0000000000002fa0       0x30 0x1 /usr/local/popcorn/aarch64/lib/libc.a(shgetc.o)
 .debug_ranges  0x0000000000002fd0        0x0 0x1 /usr/local/popcorn/aarch64/lib/libc.a(__brk.o)
 .debug_ranges  0x0000000000002fd0        0x0 0x1 /usr/local/popcorn/aarch64/lib/libc.a(raise.o)
 .debug_ranges  0x0000000000002fd0       0x30 0x1 /usr/local/popcorn/aarch64/lib/libc.a(__fdopen.o)
 .debug_ranges  0x0000000000003000        0x0 0x1 /usr/local/popcorn/aarch64/lib/libc.a(__fmodeflags.o)
 .debug_ranges  0x0000000000003000       0x30 0x1 /usr/local/popcorn/aarch64/lib/libc.a(__stdio_read.o)
 .debug_ranges  0x0000000000003030        0x0 0x1 /usr/local/popcorn/aarch64/lib/libc.a(__string_read.o)
 .debug_ranges  0x0000000000003030        0x0 0x1 /usr/local/popcorn/aarch64/lib/libc.a(__uflow.o)
 .debug_ranges  0x0000000000003030        0x0 0x1 /usr/local/popcorn/aarch64/lib/libc.a(getdelim.o)
 .debug_ranges  0x0000000000003030       0xa0 0x1 /usr/local/popcorn/aarch64/lib/libc.a(vfscanf.o)
 .debug_ranges  0x00000000000030d0      0x5a0 0x1 /usr/local/popcorn/aarch64/lib/libc.a(floatscan.o)
 .debug_ranges  0x0000000000003670        0x0 0x1 /usr/local/popcorn/aarch64/lib/libc.a(copysignl.o)
 .debug_ranges  0x0000000000003670        0x0 0x1 /usr/local/popcorn/aarch64/lib/libc.a(fmodl.o)
 .debug_ranges  0x0000000000003670        0x0 0x1 /usr/local/popcorn/aarch64/lib/libc.a(scalbn.o)
 .debug_ranges  0x0000000000003670        0x0 0x1 /usr/local/popcorn/aarch64/lib/libc.a(scalbnl.o)
 .debug_ranges  0x0000000000003670        0x0 0x1 /usr/local/popcorn/aarch64/lib/libc.a(mbrtowc.o)
 .debug_ranges  0x0000000000003670        0x0 0x1 /usr/local/popcorn/aarch64/lib/libc.a(mbsinit.o)
 .debug_ranges  0x0000000000003670       0x40 0x1 /usr/local/popcorn/aarch64/lib/libc.a(block.o)
 .debug_ranges  0x00000000000036b0       0x30 0x1 /usr/local/popcorn/aarch64/lib/libc.a(__toread.o)
 .debug_ranges  0x00000000000036e0        0x0 0x1 /usr/local/popcorn/aarch64/lib/libc.a(internal.o)

.debug_pubnames
                0x0000000000000000     0x2451
 .debug_pubnames
                0x0000000000000000       0x21 0x1 pierre.o
 .debug_pubnames
                0x0000000000000021       0x22 0x1 test.o
 .debug_pubnames
                0x0000000000000043       0x1f 0x1 /usr/local/popcorn/aarch64/lib/crt1.o
 .debug_pubnames
                0x0000000000000062       0x77 0x1 /usr/local/popcorn/aarch64/lib/libc.a(__libc_start_main.o)
 .debug_pubnames
                0x00000000000000d9       0x25 0x1 /usr/local/popcorn/aarch64/lib/libc.a(exit.o)
 .debug_pubnames
                0x00000000000000fe       0x5a 0x1 /usr/local/popcorn/aarch64/lib/libc.a(libc.o)
 .debug_pubnames
                0x0000000000000158       0x1d 0x1 /usr/local/popcorn/aarch64/lib/libc.a(printf.o)
 .debug_pubnames
                0x0000000000000175       0x3d 0x1 /usr/local/popcorn/aarch64/lib/libc.a(stdout.o)
 .debug_pubnames
                0x00000000000001b2       0xb9 0x1 /usr/local/popcorn/aarch64/lib/libc.a(vfprintf.o)
 .debug_pubnames
                0x000000000000026b       0x1d 0x1 /usr/local/popcorn/aarch64/lib/libc.a(memchr.o)
 .debug_pubnames
                0x0000000000000288       0x1d 0x1 /usr/local/popcorn/aarch64/lib/libc.a(memset.o)
 .debug_pubnames
                0x00000000000002a5       0x20 0x1 /usr/local/popcorn/aarch64/lib/libc.a(__environ.o)
 .debug_pubnames
                0x00000000000002c5       0x89 0x1 /usr/local/popcorn/aarch64/lib/libc.a(__init_tls.o)
 .debug_pubnames
                0x000000000000034e       0x3a 0x1 /usr/local/popcorn/aarch64/lib/libc.a(__errno_location.o)
 .debug_pubnames
                0x0000000000000388       0x58 0x1 /usr/local/popcorn/aarch64/lib/libc.a(strerror.o)
 .debug_pubnames
                0x00000000000003e0       0x2b 0x1 /usr/local/popcorn/aarch64/lib/libc.a(_Exit.o)
 .debug_pubnames
                0x000000000000040b       0x4f 0x1 /usr/local/popcorn/aarch64/lib/libc.a(__lctrans.o)
 .debug_pubnames
                0x000000000000045a       0x24 0x1 /usr/local/popcorn/aarch64/lib/libc.a(__fpclassifyl.o)
 .debug_pubnames
                0x000000000000047e       0x21 0x1 /usr/local/popcorn/aarch64/lib/libc.a(__signbitl.o)
 .debug_pubnames
                0x000000000000049f       0x1d 0x1 /usr/local/popcorn/aarch64/lib/libc.a(frexpl.o)
 .debug_pubnames
                0x00000000000004bc       0x1d 0x1 /usr/local/popcorn/aarch64/lib/libc.a(wctomb.o)
 .debug_pubnames
                0x00000000000004d9       0x66 0x1 /usr/local/popcorn/aarch64/lib/libc.a(__lockfile.o)
 .debug_pubnames
                0x000000000000053f       0x3d 0x1 /usr/local/popcorn/aarch64/lib/libc.a(__stdio_close.o)
 .debug_pubnames
                0x000000000000057c       0x32 0x1 /usr/local/popcorn/aarch64/lib/libc.a(__stdio_seek.o)
 .debug_pubnames
                0x00000000000005ae       0x34 0x1 /usr/local/popcorn/aarch64/lib/libc.a(__stdout_write.o)
 .debug_pubnames
                0x00000000000005e2       0x2b 0x1 /usr/local/popcorn/aarch64/lib/libc.a(fwrite.o)
 .debug_pubnames
                0x000000000000060d       0x1d 0x1 /usr/local/popcorn/aarch64/lib/libc.a(memcpy.o)
 .debug_pubnames
                0x000000000000062a       0x3f 0x1 /usr/local/popcorn/aarch64/lib/libc.a(__wait.o)
 .debug_pubnames
                0x0000000000000669       0x24 0x1 /usr/local/popcorn/aarch64/lib/libc.a(syscall_ret.o)
 .debug_pubnames
                0x000000000000068d       0x1e 0x1 /usr/local/popcorn/aarch64/lib/libc.a(wcrtomb.o)
 .debug_pubnames
                0x00000000000006ab       0x30 0x1 /usr/local/popcorn/aarch64/lib/libc.a(__stdio_write.o)
 .debug_pubnames
                0x00000000000006db       0x3f 0x1 /usr/local/popcorn/aarch64/lib/libc.a(__towrite.o)
 .debug_pubnames
                0x000000000000071a       0x2c 0x1 /usr/local/popcorn/aarch64/lib/libc.a(__syscall_cp.o)
 .debug_pubnames
                0x0000000000000746       0x4f 0x1 /usr/local/popcorn/aarch64/lib/libc.a(pthread_cleanup_push.o)
 .debug_pubnames
                0x0000000000000795       0x41 0x1 /usr/local/popcorn/aarch64/lib/libc.a(__stdio_exit.o)
 .debug_pubnames
                0x00000000000007d6       0x4c 0x1 /usr/local/popcorn/aarch64/lib/libc.a(__lock.o)
 .debug_pubnames
                0x0000000000000822      0x15d 0x1 /usr/local/popcorn/aarch64/lib/libmigrate.a(migrate.o)
 .debug_pubnames
                0x000000000000097f      0x187 0x1 /usr/local/popcorn/aarch64/lib/libstack-transform.a(userspace.o)
 .debug_pubnames
                0x0000000000000b06       0x49 0x1 /usr/local/popcorn/aarch64/lib/libstack-transform.a(init.o)
 .debug_pubnames
                0x0000000000000b4f      0x158 0x1 /usr/local/popcorn/aarch64/lib/libstack-transform.a(rewrite.o)
 .debug_pubnames
                0x0000000000000ca7      0x128 0x1 /usr/local/popcorn/aarch64/lib/libstack-transform.a(unwind.o)
 .debug_pubnames
                0x0000000000000dcf       0xda 0x1 /usr/local/popcorn/aarch64/lib/libstack-transform.a(util.o)
 .debug_pubnames
                0x0000000000000ea9       0xad 0x1 /usr/local/popcorn/aarch64/lib/libstack-transform.a(properties.o)
 .debug_pubnames
                0x0000000000000f56      0x189 0x1 /usr/local/popcorn/aarch64/lib/libstack-transform.a(regs.o)
 .debug_pubnames
                0x00000000000010df       0xa7 0x1 /usr/local/popcorn/aarch64/lib/libstack-transform.a(properties.o)
 .debug_pubnames
                0x0000000000001186      0x177 0x1 /usr/local/popcorn/aarch64/lib/libstack-transform.a(regs.o)
 .debug_pubnames
                0x00000000000012fd      0x12c 0x1 /usr/local/popcorn/aarch64/lib/libstack-transform.a(data.o)
 .debug_pubnames
                0x0000000000001429       0x38 0x1 /usr/local/popcorn/aarch64/lib/libc.a(sysconf.o)
 .debug_pubnames
                0x0000000000001461       0x6b 0x1 /usr/local/popcorn/aarch64/lib/libc.a(__stack_chk_fail.o)
 .debug_pubnames
                0x00000000000014cc       0x1d 0x1 /usr/local/popcorn/aarch64/lib/libc.a(getenv.o)
 .debug_pubnames
                0x00000000000014e9       0x24 0x1 /usr/local/popcorn/aarch64/lib/libc.a(assert.o)
 .debug_pubnames
                0x000000000000150d       0x2a 0x1 /usr/local/popcorn/aarch64/lib/libc.a(open.o)
 .debug_pubnames
                0x0000000000001537       0x2b 0x1 /usr/local/popcorn/aarch64/lib/libc.a(prctl.o)
 .debug_pubnames
                0x0000000000001562       0x30 0x1 /usr/local/popcorn/aarch64/lib/libc.a(sysinfo.o)
 .debug_pubnames
                0x0000000000001592       0x1d 0x1 /usr/local/popcorn/aarch64/lib/libc.a(calloc.o)
 .debug_pubnames
                0x00000000000015af       0x3f 0x1 /usr/local/popcorn/aarch64/lib/libc.a(lite_malloc.o)
 .debug_pubnames
                0x00000000000015ee      0x14f 0x1 /usr/local/popcorn/aarch64/lib/libc.a(malloc.o)
 .debug_pubnames
                0x000000000000173d       0x3e 0x1 /usr/local/popcorn/aarch64/lib/libc.a(getrlimit.o)
 .debug_pubnames
                0x000000000000177b       0x2f 0x1 /usr/local/popcorn/aarch64/lib/libc.a(madvise.o)
 .debug_pubnames
                0x00000000000017aa       0x36 0x1 /usr/local/popcorn/aarch64/lib/libc.a(mmap.o)
 .debug_pubnames
                0x00000000000017e0       0x2e 0x1 /usr/local/popcorn/aarch64/lib/libc.a(mremap.o)
 .debug_pubnames
                0x000000000000180e       0x38 0x1 /usr/local/popcorn/aarch64/lib/libc.a(munmap.o)
 .debug_pubnames
                0x0000000000001846       0x27 0x1 /usr/local/popcorn/aarch64/lib/libc.a(fclose.o)
 .debug_pubnames
                0x000000000000186d       0x3d 0x1 /usr/local/popcorn/aarch64/lib/libc.a(fflush.o)
 .debug_pubnames
                0x00000000000018aa       0x1c 0x1 /usr/local/popcorn/aarch64/lib/libc.a(fgets.o)
 .debug_pubnames
                0x00000000000018c6       0x3a 0x1 /usr/local/popcorn/aarch64/lib/libc.a(fopen.o)
 .debug_pubnames
                0x0000000000001900       0x1e 0x1 /usr/local/popcorn/aarch64/lib/libc.a(fprintf.o)
 .debug_pubnames
                0x000000000000191e       0x1e 0x1 /usr/local/popcorn/aarch64/lib/libc.a(getline.o)
 .debug_pubnames
                0x000000000000193c       0x1f 0x1 /usr/local/popcorn/aarch64/lib/libc.a(snprintf.o)
 .debug_pubnames
                0x000000000000195b       0x1d 0x1 /usr/local/popcorn/aarch64/lib/libc.a(sscanf.o)
 .debug_pubnames
                0x0000000000001978       0x3d 0x1 /usr/local/popcorn/aarch64/lib/libc.a(stderr.o)
 .debug_pubnames
                0x00000000000019b5       0x2d 0x1 /usr/local/popcorn/aarch64/lib/libc.a(vsnprintf.o)
 .debug_pubnames
                0x00000000000019e2       0x2a 0x1 /usr/local/popcorn/aarch64/lib/libc.a(vsscanf.o)
 .debug_pubnames
                0x0000000000001a0c       0x69 0x1 /usr/local/popcorn/aarch64/lib/libc.a(strtol.o)
 .debug_pubnames
                0x0000000000001a75       0x1d 0x1 /usr/local/popcorn/aarch64/lib/libc.a(memcmp.o)
 .debug_pubnames
                0x0000000000001a92       0x1d 0x1 /usr/local/popcorn/aarch64/lib/libc.a(strchr.o)
 .debug_pubnames
                0x0000000000001aaf       0x22 0x1 /usr/local/popcorn/aarch64/lib/libc.a(strchrnul.o)
 .debug_pubnames
                0x0000000000001ad1       0x1d 0x1 /usr/local/popcorn/aarch64/lib/libc.a(strcmp.o)
 .debug_pubnames
                0x0000000000001aee       0x1d 0x1 /usr/local/popcorn/aarch64/lib/libc.a(strlen.o)
 .debug_pubnames
                0x0000000000001b0b       0x1e 0x1 /usr/local/popcorn/aarch64/lib/libc.a(strncmp.o)
 .debug_pubnames
                0x0000000000001b29       0x6b 0x1 /usr/local/popcorn/aarch64/lib/libc.a(strstr.o)
 .debug_pubnames
                0x0000000000001b94      0x206 0x1 /usr/local/popcorn/aarch64/lib/libc.a(pthread_attr_get.o)
 .debug_pubnames
                0x0000000000001d9a       0x29 0x1 /usr/local/popcorn/aarch64/lib/libc.a(pthread_getattr_np.o)
 .debug_pubnames
                0x0000000000001dc3       0x3f 0x1 /usr/local/popcorn/aarch64/lib/libc.a(pthread_getspecific.o)
 .debug_pubnames
                0x0000000000001e02       0xc1 0x1 /usr/local/popcorn/aarch64/lib/libc.a(pthread_key_create.o)
 .debug_pubnames
                0x0000000000001ec3       0x3e 0x1 /usr/local/popcorn/aarch64/lib/libc.a(pthread_migrate.o)
 .debug_pubnames
                0x0000000000001f01       0x41 0x1 /usr/local/popcorn/aarch64/lib/libc.a(pthread_self.o)
 .debug_pubnames
                0x0000000000001f42       0x3d 0x1 /usr/local/popcorn/aarch64/lib/libc.a(pthread_setspecific.o)
 .debug_pubnames
                0x0000000000001f7f       0x26 0x1 /usr/local/popcorn/aarch64/lib/libc.a(close.o)
 .debug_pubnames
                0x0000000000001fa5       0x2c 0x1 /usr/local/popcorn/aarch64/lib/libc.a(getpid.o)
 .debug_pubnames
                0x0000000000001fd1       0x2b 0x1 /usr/local/popcorn/aarch64/lib/libc.a(lseek.o)
 .debug_pubnames
                0x0000000000001ffc       0x1b 0x1 /usr/local/popcorn/aarch64/lib/libc.a(read.o)
 .debug_pubnames
                0x0000000000002017       0x1c 0x1 /usr/local/popcorn/aarch64/lib/libc.a(abort.o)
 .debug_pubnames
                0x0000000000002033       0x38 0x1 /usr/local/popcorn/aarch64/lib/libc.a(intscan.o)
 .debug_pubnames
                0x000000000000206b       0x2b 0x1 /usr/local/popcorn/aarch64/lib/libc.a(shgetc.o)
 .debug_pubnames
                0x0000000000002096       0x2b 0x1 /usr/local/popcorn/aarch64/lib/libc.a(__brk.o)
 .debug_pubnames
                0x00000000000020c1       0x3a 0x1 /usr/local/popcorn/aarch64/lib/libc.a(raise.o)
 .debug_pubnames
                0x00000000000020fb       0x3d 0x1 /usr/local/popcorn/aarch64/lib/libc.a(__fdopen.o)
 .debug_pubnames
                0x0000000000002138       0x23 0x1 /usr/local/popcorn/aarch64/lib/libc.a(__fmodeflags.o)
 .debug_pubnames
                0x000000000000215b       0x2f 0x1 /usr/local/popcorn/aarch64/lib/libc.a(__stdio_read.o)
 .debug_pubnames
                0x000000000000218a       0x24 0x1 /usr/local/popcorn/aarch64/lib/libc.a(__string_read.o)
 .debug_pubnames
                0x00000000000021ae       0x1e 0x1 /usr/local/popcorn/aarch64/lib/libc.a(__uflow.o)
 .debug_pubnames
                0x00000000000021cc       0x1f 0x1 /usr/local/popcorn/aarch64/lib/libc.a(getdelim.o)
 .debug_pubnames
                0x00000000000021eb       0x44 0x1 /usr/local/popcorn/aarch64/lib/libc.a(vfscanf.o)
 .debug_pubnames
                0x000000000000222f       0x66 0x1 /usr/local/popcorn/aarch64/lib/libc.a(floatscan.o)
 .debug_pubnames
                0x0000000000002295       0x20 0x1 /usr/local/popcorn/aarch64/lib/libc.a(copysignl.o)
 .debug_pubnames
                0x00000000000022b5       0x3f 0x1 /usr/local/popcorn/aarch64/lib/libc.a(fmodl.o)
 .debug_pubnames
                0x00000000000022f4       0x1d 0x1 /usr/local/popcorn/aarch64/lib/libc.a(scalbn.o)
 .debug_pubnames
                0x0000000000002311       0x1e 0x1 /usr/local/popcorn/aarch64/lib/libc.a(scalbnl.o)
 .debug_pubnames
                0x000000000000232f       0x31 0x1 /usr/local/popcorn/aarch64/lib/libc.a(mbrtowc.o)
 .debug_pubnames
                0x0000000000002360       0x1e 0x1 /usr/local/popcorn/aarch64/lib/libc.a(mbsinit.o)
 .debug_pubnames
                0x000000000000237e       0x78 0x1 /usr/local/popcorn/aarch64/lib/libc.a(block.o)
 .debug_pubnames
                0x00000000000023f6       0x3d 0x1 /usr/local/popcorn/aarch64/lib/libc.a(__toread.o)
 .debug_pubnames
                0x0000000000002433       0x1e 0x1 /usr/local/popcorn/aarch64/lib/libc.a(internal.o)

.debug_pubtypes
                0x0000000000000000     0x46f9
 .debug_pubtypes
                0x0000000000000000       0x1a 0x1 pierre.o
 .debug_pubtypes
                0x000000000000001a       0x1a 0x1 test.o
 .debug_pubtypes
                0x0000000000000034       0x30 0x1 /usr/local/popcorn/aarch64/lib/crt1.o
 .debug_pubtypes
                0x0000000000000064       0x74 0x1 /usr/local/popcorn/aarch64/lib/libc.a(__libc_start_main.o)
 .debug_pubtypes
                0x00000000000000d8       0x3e 0x1 /usr/local/popcorn/aarch64/lib/libc.a(exit.o)
 .debug_pubtypes
                0x0000000000000116       0x6c 0x1 /usr/local/popcorn/aarch64/lib/libc.a(libc.o)
 .debug_pubtypes
                0x0000000000000182       0x53 0x1 /usr/local/popcorn/aarch64/lib/libc.a(printf.o)
 .debug_pubtypes
                0x00000000000001d5       0xae 0x1 /usr/local/popcorn/aarch64/lib/libc.a(stdout.o)
 .debug_pubtypes
                0x0000000000000283      0x17f 0x1 /usr/local/popcorn/aarch64/lib/libc.a(vfprintf.o)
 .debug_pubtypes
                0x0000000000000402       0x5b 0x1 /usr/local/popcorn/aarch64/lib/libc.a(memchr.o)
 .debug_pubtypes
                0x000000000000045d       0x86 0x1 /usr/local/popcorn/aarch64/lib/libc.a(memset.o)
 .debug_pubtypes
                0x00000000000004e3       0x1b 0x1 /usr/local/popcorn/aarch64/lib/libc.a(__environ.o)
 .debug_pubtypes
                0x00000000000004fe      0x173 0x1 /usr/local/popcorn/aarch64/lib/libc.a(__init_tls.o)
 .debug_pubtypes
                0x0000000000000671       0xc8 0x1 /usr/local/popcorn/aarch64/lib/libc.a(__errno_location.o)
 .debug_pubtypes
                0x0000000000000739       0xd9 0x1 /usr/local/popcorn/aarch64/lib/libc.a(strerror.o)
 .debug_pubtypes
                0x0000000000000812       0x27 0x1 /usr/local/popcorn/aarch64/lib/libc.a(_Exit.o)
 .debug_pubtypes
                0x0000000000000839       0xd9 0x1 /usr/local/popcorn/aarch64/lib/libc.a(__lctrans.o)
 .debug_pubtypes
                0x0000000000000912       0x97 0x1 /usr/local/popcorn/aarch64/lib/libc.a(__fpclassifyl.o)
 .debug_pubtypes
                0x00000000000009a9       0x97 0x1 /usr/local/popcorn/aarch64/lib/libc.a(__signbitl.o)
 .debug_pubtypes
                0x0000000000000a40       0x97 0x1 /usr/local/popcorn/aarch64/lib/libc.a(frexpl.o)
 .debug_pubtypes
                0x0000000000000ad7       0x40 0x1 /usr/local/popcorn/aarch64/lib/libc.a(wctomb.o)
 .debug_pubtypes
                0x0000000000000b17      0x113 0x1 /usr/local/popcorn/aarch64/lib/libc.a(__lockfile.o)
 .debug_pubtypes
                0x0000000000000c2a       0xae 0x1 /usr/local/popcorn/aarch64/lib/libc.a(__stdio_close.o)
 .debug_pubtypes
                0x0000000000000cd8       0xae 0x1 /usr/local/popcorn/aarch64/lib/libc.a(__stdio_seek.o)
 .debug_pubtypes
                0x0000000000000d86       0xcd 0x1 /usr/local/popcorn/aarch64/lib/libc.a(__stdout_write.o)
 .debug_pubtypes
                0x0000000000000e53       0xae 0x1 /usr/local/popcorn/aarch64/lib/libc.a(fwrite.o)
 .debug_pubtypes
                0x0000000000000f01       0x71 0x1 /usr/local/popcorn/aarch64/lib/libc.a(memcpy.o)
 .debug_pubtypes
                0x0000000000000f72       0x1a 0x1 /usr/local/popcorn/aarch64/lib/libc.a(__wait.o)
 .debug_pubtypes
                0x0000000000000f8c       0x35 0x1 /usr/local/popcorn/aarch64/lib/libc.a(syscall_ret.o)
 .debug_pubtypes
                0x0000000000000fc1       0x77 0x1 /usr/local/popcorn/aarch64/lib/libc.a(wcrtomb.o)
 .debug_pubtypes
                0x0000000000001038       0xcf 0x1 /usr/local/popcorn/aarch64/lib/libc.a(__stdio_write.o)
 .debug_pubtypes
                0x0000000000001107       0xae 0x1 /usr/local/popcorn/aarch64/lib/libc.a(__towrite.o)
 .debug_pubtypes
                0x00000000000011b5       0x31 0x1 /usr/local/popcorn/aarch64/lib/libc.a(__syscall_cp.o)
 .debug_pubtypes
                0x00000000000011e6       0x25 0x1 /usr/local/popcorn/aarch64/lib/libc.a(pthread_cleanup_push.o)
 .debug_pubtypes
                0x000000000000120b       0xae 0x1 /usr/local/popcorn/aarch64/lib/libc.a(__stdio_exit.o)
 .debug_pubtypes
                0x00000000000012b9       0x1a 0x1 /usr/local/popcorn/aarch64/lib/libc.a(__lock.o)
 .debug_pubtypes
                0x00000000000012d3       0xea 0x1 /usr/local/popcorn/aarch64/lib/libmigrate.a(migrate.o)
 .debug_pubtypes
                0x00000000000013bd      0x260 0x1 /usr/local/popcorn/aarch64/lib/libstack-transform.a(userspace.o)
 .debug_pubtypes
                0x000000000000161d      0x1ef 0x1 /usr/local/popcorn/aarch64/lib/libstack-transform.a(init.o)
 .debug_pubtypes
                0x000000000000180c      0x20c 0x1 /usr/local/popcorn/aarch64/lib/libstack-transform.a(rewrite.o)
 .debug_pubtypes
                0x0000000000001a18      0x20c 0x1 /usr/local/popcorn/aarch64/lib/libstack-transform.a(unwind.o)
 .debug_pubtypes
                0x0000000000001c24      0x22e 0x1 /usr/local/popcorn/aarch64/lib/libstack-transform.a(util.o)
 .debug_pubtypes
                0x0000000000001e52       0x82 0x1 /usr/local/popcorn/aarch64/lib/libstack-transform.a(properties.o)
 .debug_pubtypes
                0x0000000000001ed4       0xd7 0x1 /usr/local/popcorn/aarch64/lib/libstack-transform.a(regs.o)
 .debug_pubtypes
                0x0000000000001fab       0x8f 0x1 /usr/local/popcorn/aarch64/lib/libstack-transform.a(properties.o)
 .debug_pubtypes
                0x000000000000203a      0x103 0x1 /usr/local/popcorn/aarch64/lib/libstack-transform.a(regs.o)
 .debug_pubtypes
                0x000000000000213d      0x22c 0x1 /usr/local/popcorn/aarch64/lib/libstack-transform.a(data.o)
 .debug_pubtypes
                0x0000000000002369       0xc3 0x1 /usr/local/popcorn/aarch64/lib/libc.a(sysconf.o)
 .debug_pubtypes
                0x000000000000242c       0xc8 0x1 /usr/local/popcorn/aarch64/lib/libc.a(__stack_chk_fail.o)
 .debug_pubtypes
                0x00000000000024f4       0x44 0x1 /usr/local/popcorn/aarch64/lib/libc.a(getenv.o)
 .debug_pubtypes
                0x0000000000002538       0x23 0x1 /usr/local/popcorn/aarch64/lib/libc.a(assert.o)
 .debug_pubtypes
                0x000000000000255b       0x7c 0x1 /usr/local/popcorn/aarch64/lib/libc.a(open.o)
 .debug_pubtypes
                0x00000000000025d7       0x6d 0x1 /usr/local/popcorn/aarch64/lib/libc.a(prctl.o)
 .debug_pubtypes
                0x0000000000002644       0x76 0x1 /usr/local/popcorn/aarch64/lib/libc.a(sysinfo.o)
 .debug_pubtypes
                0x00000000000026ba       0x33 0x1 /usr/local/popcorn/aarch64/lib/libc.a(calloc.o)
 .debug_pubtypes
                0x00000000000026ed       0x49 0x1 /usr/local/popcorn/aarch64/lib/libc.a(lite_malloc.o)
 .debug_pubtypes
                0x0000000000002736       0x82 0x1 /usr/local/popcorn/aarch64/lib/libc.a(malloc.o)
 .debug_pubtypes
                0x00000000000027b8       0x6e 0x1 /usr/local/popcorn/aarch64/lib/libc.a(getrlimit.o)
 .debug_pubtypes
                0x0000000000002826       0x48 0x1 /usr/local/popcorn/aarch64/lib/libc.a(madvise.o)
 .debug_pubtypes
                0x000000000000286e       0x52 0x1 /usr/local/popcorn/aarch64/lib/libc.a(mmap.o)
 .debug_pubtypes
                0x00000000000028c0       0x78 0x1 /usr/local/popcorn/aarch64/lib/libc.a(mremap.o)
 .debug_pubtypes
                0x0000000000002938       0x48 0x1 /usr/local/popcorn/aarch64/lib/libc.a(munmap.o)
 .debug_pubtypes
                0x0000000000002980       0xae 0x1 /usr/local/popcorn/aarch64/lib/libc.a(fclose.o)
 .debug_pubtypes
                0x0000000000002a2e       0xae 0x1 /usr/local/popcorn/aarch64/lib/libc.a(fflush.o)
 .debug_pubtypes
                0x0000000000002adc       0xae 0x1 /usr/local/popcorn/aarch64/lib/libc.a(fgets.o)
 .debug_pubtypes
                0x0000000000002b8a       0xae 0x1 /usr/local/popcorn/aarch64/lib/libc.a(fopen.o)
 .debug_pubtypes
                0x0000000000002c38       0x5c 0x1 /usr/local/popcorn/aarch64/lib/libc.a(fprintf.o)
 .debug_pubtypes
                0x0000000000002c94       0x5e 0x1 /usr/local/popcorn/aarch64/lib/libc.a(getline.o)
 .debug_pubtypes
                0x0000000000002cf2       0x74 0x1 /usr/local/popcorn/aarch64/lib/libc.a(snprintf.o)
 .debug_pubtypes
                0x0000000000002d66       0x53 0x1 /usr/local/popcorn/aarch64/lib/libc.a(sscanf.o)
 .debug_pubtypes
                0x0000000000002db9       0xae 0x1 /usr/local/popcorn/aarch64/lib/libc.a(stderr.o)
 .debug_pubtypes
                0x0000000000002e67       0xde 0x1 /usr/local/popcorn/aarch64/lib/libc.a(vsnprintf.o)
 .debug_pubtypes
                0x0000000000002f45       0xde 0x1 /usr/local/popcorn/aarch64/lib/libc.a(vsscanf.o)
 .debug_pubtypes
                0x0000000000003023       0xf6 0x1 /usr/local/popcorn/aarch64/lib/libc.a(strtol.o)
 .debug_pubtypes
                0x0000000000003119       0x4d 0x1 /usr/local/popcorn/aarch64/lib/libc.a(memcmp.o)
 .debug_pubtypes
                0x0000000000003166       0x35 0x1 /usr/local/popcorn/aarch64/lib/libc.a(strchr.o)
 .debug_pubtypes
                0x000000000000319b       0x64 0x1 /usr/local/popcorn/aarch64/lib/libc.a(strchrnul.o)
 .debug_pubtypes
                0x00000000000031ff       0x35 0x1 /usr/local/popcorn/aarch64/lib/libc.a(strcmp.o)
 .debug_pubtypes
                0x0000000000003234       0x4a 0x1 /usr/local/popcorn/aarch64/lib/libc.a(strlen.o)
 .debug_pubtypes
                0x000000000000327e       0x56 0x1 /usr/local/popcorn/aarch64/lib/libc.a(strncmp.o)
 .debug_pubtypes
                0x00000000000032d4       0x8c 0x1 /usr/local/popcorn/aarch64/lib/libc.a(strstr.o)
 .debug_pubtypes
                0x0000000000003360      0x104 0x1 /usr/local/popcorn/aarch64/lib/libc.a(pthread_attr_get.o)
 .debug_pubtypes
                0x0000000000003464       0xd6 0x1 /usr/local/popcorn/aarch64/lib/libc.a(pthread_getattr_np.o)
 .debug_pubtypes
                0x000000000000353a       0xeb 0x1 /usr/local/popcorn/aarch64/lib/libc.a(pthread_getspecific.o)
 .debug_pubtypes
                0x0000000000003625       0xf9 0x1 /usr/local/popcorn/aarch64/lib/libc.a(pthread_key_create.o)
 .debug_pubtypes
                0x000000000000371e       0xc8 0x1 /usr/local/popcorn/aarch64/lib/libc.a(pthread_migrate.o)
 .debug_pubtypes
                0x00000000000037e6       0xd6 0x1 /usr/local/popcorn/aarch64/lib/libc.a(pthread_self.o)
 .debug_pubtypes
                0x00000000000038bc       0xeb 0x1 /usr/local/popcorn/aarch64/lib/libc.a(pthread_setspecific.o)
 .debug_pubtypes
                0x00000000000039a7       0x27 0x1 /usr/local/popcorn/aarch64/lib/libc.a(close.o)
 .debug_pubtypes
                0x00000000000039ce       0x31 0x1 /usr/local/popcorn/aarch64/lib/libc.a(getpid.o)
 .debug_pubtypes
                0x00000000000039ff       0x31 0x1 /usr/local/popcorn/aarch64/lib/libc.a(lseek.o)
 .debug_pubtypes
                0x0000000000003a30       0x54 0x1 /usr/local/popcorn/aarch64/lib/libc.a(read.o)
 .debug_pubtypes
                0x0000000000003a84       0xc9 0x1 /usr/local/popcorn/aarch64/lib/libc.a(intscan.o)
 .debug_pubtypes
                0x0000000000003b4d       0xae 0x1 /usr/local/popcorn/aarch64/lib/libc.a(shgetc.o)
 .debug_pubtypes
                0x0000000000003bfb       0x43 0x1 /usr/local/popcorn/aarch64/lib/libc.a(__brk.o)
 .debug_pubtypes
                0x0000000000003c3e       0x59 0x1 /usr/local/popcorn/aarch64/lib/libc.a(raise.o)
 .debug_pubtypes
                0x0000000000003c97       0xcd 0x1 /usr/local/popcorn/aarch64/lib/libc.a(__fdopen.o)
 .debug_pubtypes
                0x0000000000003d64       0x23 0x1 /usr/local/popcorn/aarch64/lib/libc.a(__fmodeflags.o)
 .debug_pubtypes
                0x0000000000003d87       0xcf 0x1 /usr/local/popcorn/aarch64/lib/libc.a(__stdio_read.o)
 .debug_pubtypes
                0x0000000000003e56       0xae 0x1 /usr/local/popcorn/aarch64/lib/libc.a(__string_read.o)
 .debug_pubtypes
                0x0000000000003f04       0xae 0x1 /usr/local/popcorn/aarch64/lib/libc.a(__uflow.o)
 .debug_pubtypes
                0x0000000000003fb2       0xba 0x1 /usr/local/popcorn/aarch64/lib/libc.a(getdelim.o)
 .debug_pubtypes
                0x000000000000406c      0x168 0x1 /usr/local/popcorn/aarch64/lib/libc.a(vfscanf.o)
 .debug_pubtypes
                0x00000000000041d4       0xea 0x1 /usr/local/popcorn/aarch64/lib/libc.a(floatscan.o)
 .debug_pubtypes
                0x00000000000042be       0x8f 0x1 /usr/local/popcorn/aarch64/lib/libc.a(copysignl.o)
 .debug_pubtypes
                0x000000000000434d       0xc7 0x1 /usr/local/popcorn/aarch64/lib/libc.a(fmodl.o)
 .debug_pubtypes
                0x0000000000004414       0x55 0x1 /usr/local/popcorn/aarch64/lib/libc.a(scalbn.o)
 .debug_pubtypes
                0x0000000000004469       0x97 0x1 /usr/local/popcorn/aarch64/lib/libc.a(scalbnl.o)
 .debug_pubtypes
                0x0000000000004500       0x9d 0x1 /usr/local/popcorn/aarch64/lib/libc.a(mbrtowc.o)
 .debug_pubtypes
                0x000000000000459d       0x49 0x1 /usr/local/popcorn/aarch64/lib/libc.a(mbsinit.o)
 .debug_pubtypes
                0x00000000000045e6       0x35 0x1 /usr/local/popcorn/aarch64/lib/libc.a(block.o)
 .debug_pubtypes
                0x000000000000461b       0xae 0x1 /usr/local/popcorn/aarch64/lib/libc.a(__toread.o)
 .debug_pubtypes
                0x00000000000046c9       0x30 0x1 /usr/local/popcorn/aarch64/lib/libc.a(internal.o)

.comment        0x0000000000000000       0xc9
 ** merge strings
                0x0000000000000000       0xc9

.stack_transform.unwind
                0x0000000000000000       0xb0
 .stack_transform.unwind
                0x0000000000000000       0x20 0x4 pierre.o
 .stack_transform.unwind
                0x0000000000000020       0x18 0x4 test.o
 .stack_transform.unwind
                0x0000000000000038       0x78 0x4 /usr/local/popcorn/aarch64/lib/libmigrate.a(migrate.o)

.stack_transform.unwind_arange
                0x0000000000000000       0xc0
 .stack_transform.unwind_arange
                0x0000000000000000       0x20 0x8 pierre.o
 .stack_transform.unwind_arange
                0x0000000000000020       0x10 0x8 test.o
 .stack_transform.unwind_arange
                0x0000000000000030       0x90 0x8 /usr/local/popcorn/aarch64/lib/libmigrate.a(migrate.o)

.debug_line     0x0000000000000000     0xb89f
 .debug_line    0x0000000000000000       0x81 0x1 pierre.o
 .debug_line    0x0000000000000081       0x4c 0x1 test.o
 .debug_line    0x00000000000000cd       0x4b 0x1 /usr/local/popcorn/aarch64/lib/crt1.o
 .debug_line    0x0000000000000118      0x1fd 0x1 /usr/local/popcorn/aarch64/lib/libc.a(__libc_start_main.o)
 .debug_line    0x0000000000000315       0x96 0x1 /usr/local/popcorn/aarch64/lib/libc.a(exit.o)
 .debug_line    0x00000000000003ab       0x6f 0x1 /usr/local/popcorn/aarch64/lib/libc.a(libc.o)
 .debug_line    0x000000000000041a       0x85 0x1 /usr/local/popcorn/aarch64/lib/libc.a(printf.o)
 .debug_line    0x000000000000049f       0x74 0x1 /usr/local/popcorn/aarch64/lib/libc.a(stdout.o)
 .debug_line    0x0000000000000513     0x114c 0x1 /usr/local/popcorn/aarch64/lib/libc.a(vfprintf.o)
 .debug_line    0x000000000000165f       0xea 0x1 /usr/local/popcorn/aarch64/lib/libc.a(memchr.o)
 .debug_line    0x0000000000001749      0x11b 0x1 /usr/local/popcorn/aarch64/lib/libc.a(memset.o)
 .debug_line    0x0000000000001864       0x34 0x1 /usr/local/popcorn/aarch64/lib/libc.a(__environ.o)
 .debug_line    0x0000000000001898      0x237 0x1 /usr/local/popcorn/aarch64/lib/libc.a(__init_tls.o)
 .debug_line    0x0000000000001acf       0xe2 0x1 /usr/local/popcorn/aarch64/lib/libc.a(__errno_location.o)
 .debug_line    0x0000000000001bb1      0x12b 0x1 /usr/local/popcorn/aarch64/lib/libc.a(strerror.o)
 .debug_line    0x0000000000001cdc       0x7c 0x1 /usr/local/popcorn/aarch64/lib/libc.a(_Exit.o)
 .debug_line    0x0000000000001d58      0x11f 0x1 /usr/local/popcorn/aarch64/lib/libc.a(__lctrans.o)
 .debug_line    0x0000000000001e77       0xad 0x1 /usr/local/popcorn/aarch64/lib/libc.a(__fpclassifyl.o)
 .debug_line    0x0000000000001f24       0x8a 0x1 /usr/local/popcorn/aarch64/lib/libc.a(__signbitl.o)
 .debug_line    0x0000000000001fae       0xbd 0x1 /usr/local/popcorn/aarch64/lib/libc.a(frexpl.o)
 .debug_line    0x000000000000206b       0x76 0x1 /usr/local/popcorn/aarch64/lib/libc.a(wctomb.o)
 .debug_line    0x00000000000020e1      0x15e 0x1 /usr/local/popcorn/aarch64/lib/libc.a(__lockfile.o)
 .debug_line    0x000000000000223f       0xe5 0x1 /usr/local/popcorn/aarch64/lib/libc.a(__stdio_close.o)
 .debug_line    0x0000000000002324       0xc6 0x1 /usr/local/popcorn/aarch64/lib/libc.a(__stdio_seek.o)
 .debug_line    0x00000000000023ea       0xe4 0x1 /usr/local/popcorn/aarch64/lib/libc.a(__stdout_write.o)
 .debug_line    0x00000000000024ce      0x127 0x1 /usr/local/popcorn/aarch64/lib/libc.a(fwrite.o)
 .debug_line    0x00000000000025f5      0x295 0x1 /usr/local/popcorn/aarch64/lib/libc.a(memcpy.o)
 .debug_line    0x000000000000288a       0x47 0x1 /usr/local/popcorn/aarch64/lib/libc.a(__set_thread_area.o)
 .debug_line    0x00000000000028d1       0xa6 0x1 /usr/local/popcorn/aarch64/lib/libc.a(__wait.o)
 .debug_line    0x0000000000002977       0x61 0x1 /usr/local/popcorn/aarch64/lib/libc.a(syscall_ret.o)
 .debug_line    0x00000000000029d8       0xcb 0x1 /usr/local/popcorn/aarch64/lib/libc.a(wcrtomb.o)
 .debug_line    0x0000000000002aa3      0x164 0x1 /usr/local/popcorn/aarch64/lib/libc.a(__stdio_write.o)
 .debug_line    0x0000000000002c07       0xcf 0x1 /usr/local/popcorn/aarch64/lib/libc.a(__towrite.o)
 .debug_line    0x0000000000002cd6       0x84 0x1 /usr/local/popcorn/aarch64/lib/libc.a(__syscall_cp.o)
 .debug_line    0x0000000000002d5a       0xae 0x1 /usr/local/popcorn/aarch64/lib/libc.a(pthread_cleanup_push.o)
 .debug_line    0x0000000000002e08       0x44 0x1 /usr/local/popcorn/aarch64/lib/libc.a(syscall.o)
 .debug_line    0x0000000000002e4c       0xf7 0x1 /usr/local/popcorn/aarch64/lib/libc.a(__stdio_exit.o)
 .debug_line    0x0000000000002f43       0xd7 0x1 /usr/local/popcorn/aarch64/lib/libc.a(__lock.o)
 .debug_line    0x000000000000301a      0x3a2 0x1 /usr/local/popcorn/aarch64/lib/libmigrate.a(migrate.o)
 .debug_line    0x00000000000033bc      0x4b8 0x1 /usr/local/popcorn/aarch64/lib/libstack-transform.a(userspace.o)
 .debug_line    0x0000000000003874      0x2c0 0x1 /usr/local/popcorn/aarch64/lib/libstack-transform.a(init.o)
 .debug_line    0x0000000000003b34      0xa74 0x1 /usr/local/popcorn/aarch64/lib/libstack-transform.a(rewrite.o)
 .debug_line    0x00000000000045a8      0x55d 0x1 /usr/local/popcorn/aarch64/lib/libstack-transform.a(unwind.o)
 .debug_line    0x0000000000004b05      0x3e2 0x1 /usr/local/popcorn/aarch64/lib/libstack-transform.a(util.o)
 .debug_line    0x0000000000004ee7       0xf6 0x1 /usr/local/popcorn/aarch64/lib/libstack-transform.a(properties.o)
 .debug_line    0x0000000000004fdd      0x546 0x1 /usr/local/popcorn/aarch64/lib/libstack-transform.a(regs.o)
 .debug_line    0x0000000000005523       0xf6 0x1 /usr/local/popcorn/aarch64/lib/libstack-transform.a(properties.o)
 .debug_line    0x0000000000005619      0x3fb 0x1 /usr/local/popcorn/aarch64/lib/libstack-transform.a(regs.o)
 .debug_line    0x0000000000005a14      0x6c0 0x1 /usr/local/popcorn/aarch64/lib/libstack-transform.a(data.o)
 .debug_line    0x00000000000060d4      0x17b 0x1 /usr/local/popcorn/aarch64/lib/libc.a(sysconf.o)
 .debug_line    0x000000000000624f      0x128 0x1 /usr/local/popcorn/aarch64/lib/libc.a(__stack_chk_fail.o)
 .debug_line    0x0000000000006377       0xa4 0x1 /usr/local/popcorn/aarch64/lib/libc.a(getenv.o)
 .debug_line    0x000000000000641b       0x52 0x1 /usr/local/popcorn/aarch64/lib/libc.a(assert.o)
 .debug_line    0x000000000000646d       0xd6 0x1 /usr/local/popcorn/aarch64/lib/libc.a(open.o)
 .debug_line    0x0000000000006543       0xee 0x1 /usr/local/popcorn/aarch64/lib/libc.a(prctl.o)
 .debug_line    0x0000000000006631       0x9f 0x1 /usr/local/popcorn/aarch64/lib/libc.a(sysinfo.o)
 .debug_line    0x00000000000066d0       0xb6 0x1 /usr/local/popcorn/aarch64/lib/libc.a(calloc.o)
 .debug_line    0x0000000000006786       0xfe 0x1 /usr/local/popcorn/aarch64/lib/libc.a(lite_malloc.o)
 .debug_line    0x0000000000006884      0xa7b 0x1 /usr/local/popcorn/aarch64/lib/libc.a(malloc.o)
 .debug_line    0x00000000000072ff      0x11a 0x1 /usr/local/popcorn/aarch64/lib/libc.a(getrlimit.o)
 .debug_line    0x0000000000007419       0xa8 0x1 /usr/local/popcorn/aarch64/lib/libc.a(madvise.o)
 .debug_line    0x00000000000074c1       0xdd 0x1 /usr/local/popcorn/aarch64/lib/libc.a(mmap.o)
 .debug_line    0x000000000000759e       0xd1 0x1 /usr/local/popcorn/aarch64/lib/libc.a(mremap.o)
 .debug_line    0x000000000000766f       0xbb 0x1 /usr/local/popcorn/aarch64/lib/libc.a(munmap.o)
 .debug_line    0x000000000000772a       0xf5 0x1 /usr/local/popcorn/aarch64/lib/libc.a(fclose.o)
 .debug_line    0x000000000000781f      0x149 0x1 /usr/local/popcorn/aarch64/lib/libc.a(fflush.o)
 .debug_line    0x0000000000007968      0x125 0x1 /usr/local/popcorn/aarch64/lib/libc.a(fgets.o)
 .debug_line    0x0000000000007a8d       0xf4 0x1 /usr/local/popcorn/aarch64/lib/libc.a(fopen.o)
 .debug_line    0x0000000000007b81       0x79 0x1 /usr/local/popcorn/aarch64/lib/libc.a(fprintf.o)
 .debug_line    0x0000000000007bfa       0x6b 0x1 /usr/local/popcorn/aarch64/lib/libc.a(getline.o)
 .debug_line    0x0000000000007c65       0x7a 0x1 /usr/local/popcorn/aarch64/lib/libc.a(snprintf.o)
 .debug_line    0x0000000000007cdf       0x78 0x1 /usr/local/popcorn/aarch64/lib/libc.a(sscanf.o)
 .debug_line    0x0000000000007d57       0x74 0x1 /usr/local/popcorn/aarch64/lib/libc.a(stderr.o)
 .debug_line    0x0000000000007dcb       0xfd 0x1 /usr/local/popcorn/aarch64/lib/libc.a(vsnprintf.o)
 .debug_line    0x0000000000007ec8       0xb4 0x1 /usr/local/popcorn/aarch64/lib/libc.a(vsscanf.o)
 .debug_line    0x0000000000007f7c      0x15a 0x1 /usr/local/popcorn/aarch64/lib/libc.a(strtol.o)
 .debug_line    0x00000000000080d6       0x8f 0x1 /usr/local/popcorn/aarch64/lib/libc.a(memcmp.o)
 .debug_line    0x0000000000008165       0x53 0x1 /usr/local/popcorn/aarch64/lib/libc.a(strchr.o)
 .debug_line    0x00000000000081b8       0xb8 0x1 /usr/local/popcorn/aarch64/lib/libc.a(strchrnul.o)
 .debug_line    0x0000000000008270       0x66 0x1 /usr/local/popcorn/aarch64/lib/libc.a(strcmp.o)
 .debug_line    0x00000000000082d6       0x9f 0x1 /usr/local/popcorn/aarch64/lib/libc.a(strlen.o)
 .debug_line    0x0000000000008375       0x94 0x1 /usr/local/popcorn/aarch64/lib/libc.a(strncmp.o)
 .debug_line    0x0000000000008409      0x3e9 0x1 /usr/local/popcorn/aarch64/lib/libc.a(strstr.o)
 .debug_line    0x00000000000087f2      0x286 0x1 /usr/local/popcorn/aarch64/lib/libc.a(pthread_attr_get.o)
 .debug_line    0x0000000000008a78      0x140 0x1 /usr/local/popcorn/aarch64/lib/libc.a(pthread_getattr_np.o)
 .debug_line    0x0000000000008bb8       0xe9 0x1 /usr/local/popcorn/aarch64/lib/libc.a(pthread_getspecific.o)
 .debug_line    0x0000000000008ca1      0x1b7 0x1 /usr/local/popcorn/aarch64/lib/libc.a(pthread_key_create.o)
 .debug_line    0x0000000000008e58       0xe2 0x1 /usr/local/popcorn/aarch64/lib/libc.a(pthread_migrate.o)
 .debug_line    0x0000000000008f3a       0xd9 0x1 /usr/local/popcorn/aarch64/lib/libc.a(pthread_self.o)
 .debug_line    0x0000000000009013       0xf5 0x1 /usr/local/popcorn/aarch64/lib/libc.a(pthread_setspecific.o)
 .debug_line    0x0000000000009108       0x70 0x1 /usr/local/popcorn/aarch64/lib/libc.a(close.o)
 .debug_line    0x0000000000009178       0x9d 0x1 /usr/local/popcorn/aarch64/lib/libc.a(getpid.o)
 .debug_line    0x0000000000009215       0xa1 0x1 /usr/local/popcorn/aarch64/lib/libc.a(lseek.o)
 .debug_line    0x00000000000092b6       0x6c 0x1 /usr/local/popcorn/aarch64/lib/libc.a(read.o)
 .debug_line    0x0000000000009322       0x4c 0x1 /usr/local/popcorn/aarch64/lib/libc.a(abort.o)
 .debug_line    0x000000000000936e      0x352 0x1 /usr/local/popcorn/aarch64/lib/libc.a(intscan.o)
 .debug_line    0x00000000000096c0      0x106 0x1 /usr/local/popcorn/aarch64/lib/libc.a(shgetc.o)
 .debug_line    0x00000000000097c6       0x9c 0x1 /usr/local/popcorn/aarch64/lib/libc.a(__brk.o)
 .debug_line    0x0000000000009862       0xb9 0x1 /usr/local/popcorn/aarch64/lib/libc.a(raise.o)
 .debug_line    0x000000000000991b      0x196 0x1 /usr/local/popcorn/aarch64/lib/libc.a(__fdopen.o)
 .debug_line    0x0000000000009ab1       0xb3 0x1 /usr/local/popcorn/aarch64/lib/libc.a(__fmodeflags.o)
 .debug_line    0x0000000000009b64      0x12d 0x1 /usr/local/popcorn/aarch64/lib/libc.a(__stdio_read.o)
 .debug_line    0x0000000000009c91       0xb3 0x1 /usr/local/popcorn/aarch64/lib/libc.a(__string_read.o)
 .debug_line    0x0000000000009d44       0xa7 0x1 /usr/local/popcorn/aarch64/lib/libc.a(__uflow.o)
 .debug_line    0x0000000000009deb      0x18a 0x1 /usr/local/popcorn/aarch64/lib/libc.a(getdelim.o)
 .debug_line    0x0000000000009f75      0x574 0x1 /usr/local/popcorn/aarch64/lib/libc.a(vfscanf.o)
 .debug_line    0x000000000000a4e9      0xc94 0x1 /usr/local/popcorn/aarch64/lib/libc.a(floatscan.o)
 .debug_line    0x000000000000b17d       0x98 0x1 /usr/local/popcorn/aarch64/lib/libc.a(copysignl.o)
 .debug_line    0x000000000000b215       0x39 0x1 /usr/local/popcorn/aarch64/lib/libc.a(fabs.o)
 .debug_line    0x000000000000b24e      0x178 0x1 /usr/local/popcorn/aarch64/lib/libc.a(fmodl.o)
 .debug_line    0x000000000000b3c6       0xaf 0x1 /usr/local/popcorn/aarch64/lib/libc.a(scalbn.o)
 .debug_line    0x000000000000b475       0xc4 0x1 /usr/local/popcorn/aarch64/lib/libc.a(scalbnl.o)
 .debug_line    0x000000000000b539       0xdf 0x1 /usr/local/popcorn/aarch64/lib/libc.a(mbrtowc.o)
 .debug_line    0x000000000000b618       0x78 0x1 /usr/local/popcorn/aarch64/lib/libc.a(mbsinit.o)
 .debug_line    0x000000000000b690       0xd3 0x1 /usr/local/popcorn/aarch64/lib/libc.a(block.o)
 .debug_line    0x000000000000b763       0xe1 0x1 /usr/local/popcorn/aarch64/lib/libc.a(__toread.o)
 .debug_line    0x000000000000b844       0x5b 0x1 /usr/local/popcorn/aarch64/lib/libc.a(internal.o)

.debug_frame    0x0000000000000000     0x2a30
 .debug_frame   0x0000000000000000       0x38 0x8 /usr/local/popcorn/aarch64/lib/crt1.o
 .debug_frame   0x0000000000000038       0x78 0x8 /usr/local/popcorn/aarch64/lib/libc.a(__libc_start_main.o)
 .debug_frame   0x00000000000000b0       0x58 0x8 /usr/local/popcorn/aarch64/lib/libc.a(exit.o)
 .debug_frame   0x0000000000000108       0x40 0x8 /usr/local/popcorn/aarch64/lib/libc.a(printf.o)
 .debug_frame   0x0000000000000148       0xd0 0x8 /usr/local/popcorn/aarch64/lib/libc.a(vfprintf.o)
 .debug_frame   0x0000000000000218       0x30 0x8 /usr/local/popcorn/aarch64/lib/libc.a(memchr.o)
 .debug_frame   0x0000000000000248       0x30 0x8 /usr/local/popcorn/aarch64/lib/libc.a(memset.o)
 .debug_frame   0x0000000000000278       0x68 0x8 /usr/local/popcorn/aarch64/lib/libc.a(__init_tls.o)
 .debug_frame   0x00000000000002e0       0x30 0x8 /usr/local/popcorn/aarch64/lib/libc.a(__errno_location.o)
 .debug_frame   0x0000000000000310       0x48 0x8 /usr/local/popcorn/aarch64/lib/libc.a(strerror.o)
 .debug_frame   0x0000000000000358       0x30 0x8 /usr/local/popcorn/aarch64/lib/libc.a(_Exit.o)
 .debug_frame   0x0000000000000388       0x60 0x8 /usr/local/popcorn/aarch64/lib/libc.a(__lctrans.o)
 .debug_frame   0x00000000000003e8       0x38 0x8 /usr/local/popcorn/aarch64/lib/libc.a(__fpclassifyl.o)
 .debug_frame   0x0000000000000420       0x38 0x8 /usr/local/popcorn/aarch64/lib/libc.a(__signbitl.o)
 .debug_frame   0x0000000000000458       0x40 0x8 /usr/local/popcorn/aarch64/lib/libc.a(frexpl.o)
 .debug_frame   0x0000000000000498       0x38 0x8 /usr/local/popcorn/aarch64/lib/libc.a(wctomb.o)
 .debug_frame   0x00000000000004d0       0x58 0x8 /usr/local/popcorn/aarch64/lib/libc.a(__lockfile.o)
 .debug_frame   0x0000000000000528       0x50 0x8 /usr/local/popcorn/aarch64/lib/libc.a(__stdio_close.o)
 .debug_frame   0x0000000000000578       0x30 0x8 /usr/local/popcorn/aarch64/lib/libc.a(__stdio_seek.o)
 .debug_frame   0x00000000000005a8       0x38 0x8 /usr/local/popcorn/aarch64/lib/libc.a(__stdout_write.o)
 .debug_frame   0x00000000000005e0       0x78 0x8 /usr/local/popcorn/aarch64/lib/libc.a(fwrite.o)
 .debug_frame   0x0000000000000658       0x30 0x8 /usr/local/popcorn/aarch64/lib/libc.a(memcpy.o)
 .debug_frame   0x0000000000000688       0x30 0x8 /usr/local/popcorn/aarch64/lib/libc.a(__wait.o)
 .debug_frame   0x00000000000006b8       0x40 0x8 /usr/local/popcorn/aarch64/lib/libc.a(syscall_ret.o)
 .debug_frame   0x00000000000006f8       0x38 0x8 /usr/local/popcorn/aarch64/lib/libc.a(wcrtomb.o)
 .debug_frame   0x0000000000000730       0x60 0x8 /usr/local/popcorn/aarch64/lib/libc.a(__stdio_write.o)
 .debug_frame   0x0000000000000790       0x48 0x8 /usr/local/popcorn/aarch64/lib/libc.a(__towrite.o)
 .debug_frame   0x00000000000007d8       0x48 0x8 /usr/local/popcorn/aarch64/lib/libc.a(__syscall_cp.o)
 .debug_frame   0x0000000000000820       0x70 0x8 /usr/local/popcorn/aarch64/lib/libc.a(pthread_cleanup_push.o)
 .debug_frame   0x0000000000000890       0x68 0x8 /usr/local/popcorn/aarch64/lib/libc.a(__stdio_exit.o)
 .debug_frame   0x00000000000008f8       0x58 0x8 /usr/local/popcorn/aarch64/lib/libc.a(__lock.o)
 .debug_frame   0x0000000000000950      0x1b0 0x8 /usr/local/popcorn/aarch64/lib/libmigrate.a(migrate.o)
 .debug_frame   0x0000000000000b00      0x110 0x8 /usr/local/popcorn/aarch64/lib/libstack-transform.a(userspace.o)
 .debug_frame   0x0000000000000c10       0x98 0x8 /usr/local/popcorn/aarch64/lib/libstack-transform.a(init.o)
 .debug_frame   0x0000000000000ca8       0xa8 0x8 /usr/local/popcorn/aarch64/lib/libstack-transform.a(rewrite.o)
 .debug_frame   0x0000000000000d50      0x150 0x8 /usr/local/popcorn/aarch64/lib/libstack-transform.a(unwind.o)
 .debug_frame   0x0000000000000ea0      0x130 0x8 /usr/local/popcorn/aarch64/lib/libstack-transform.a(util.o)
 .debug_frame   0x0000000000000fd0       0x70 0x8 /usr/local/popcorn/aarch64/lib/libstack-transform.a(properties.o)
 .debug_frame   0x0000000000001040      0x1e0 0x8 /usr/local/popcorn/aarch64/lib/libstack-transform.a(regs.o)
 .debug_frame   0x0000000000001220       0x68 0x8 /usr/local/popcorn/aarch64/lib/libstack-transform.a(properties.o)
 .debug_frame   0x0000000000001288      0x1f0 0x8 /usr/local/popcorn/aarch64/lib/libstack-transform.a(regs.o)
 .debug_frame   0x0000000000001478      0x168 0x8 /usr/local/popcorn/aarch64/lib/libstack-transform.a(data.o)
 .debug_frame   0x00000000000015e0       0x40 0x8 /usr/local/popcorn/aarch64/lib/libc.a(sysconf.o)
 .debug_frame   0x0000000000001620       0x58 0x8 /usr/local/popcorn/aarch64/lib/libc.a(__stack_chk_fail.o)
 .debug_frame   0x0000000000001678       0x40 0x8 /usr/local/popcorn/aarch64/lib/libc.a(getenv.o)
 .debug_frame   0x00000000000016b8       0x38 0x8 /usr/local/popcorn/aarch64/lib/libc.a(assert.o)
 .debug_frame   0x00000000000016f0       0x40 0x8 /usr/local/popcorn/aarch64/lib/libc.a(open.o)
 .debug_frame   0x0000000000001730       0x40 0x8 /usr/local/popcorn/aarch64/lib/libc.a(prctl.o)
 .debug_frame   0x0000000000001770       0x38 0x8 /usr/local/popcorn/aarch64/lib/libc.a(sysinfo.o)
 .debug_frame   0x00000000000017a8       0x40 0x8 /usr/local/popcorn/aarch64/lib/libc.a(calloc.o)
 .debug_frame   0x00000000000017e8       0x48 0x8 /usr/local/popcorn/aarch64/lib/libc.a(lite_malloc.o)
 .debug_frame   0x0000000000001830      0x138 0x8 /usr/local/popcorn/aarch64/lib/libc.a(malloc.o)
 .debug_frame   0x0000000000001968       0x40 0x8 /usr/local/popcorn/aarch64/lib/libc.a(getrlimit.o)
 .debug_frame   0x00000000000019a8       0x38 0x8 /usr/local/popcorn/aarch64/lib/libc.a(madvise.o)
 .debug_frame   0x00000000000019e0       0x60 0x8 /usr/local/popcorn/aarch64/lib/libc.a(mmap.o)
 .debug_frame   0x0000000000001a40       0x38 0x8 /usr/local/popcorn/aarch64/lib/libc.a(mremap.o)
 .debug_frame   0x0000000000001a78       0x58 0x8 /usr/local/popcorn/aarch64/lib/libc.a(munmap.o)
 .debug_frame   0x0000000000001ad0       0x58 0x8 /usr/local/popcorn/aarch64/lib/libc.a(fclose.o)
 .debug_frame   0x0000000000001b28       0x68 0x8 /usr/local/popcorn/aarch64/lib/libc.a(fflush.o)
 .debug_frame   0x0000000000001b90       0x48 0x8 /usr/local/popcorn/aarch64/lib/libc.a(fgets.o)
 .debug_frame   0x0000000000001bd8       0x40 0x8 /usr/local/popcorn/aarch64/lib/libc.a(fopen.o)
 .debug_frame   0x0000000000001c18       0x40 0x8 /usr/local/popcorn/aarch64/lib/libc.a(fprintf.o)
 .debug_frame   0x0000000000001c58       0x30 0x8 /usr/local/popcorn/aarch64/lib/libc.a(getline.o)
 .debug_frame   0x0000000000001c88       0x40 0x8 /usr/local/popcorn/aarch64/lib/libc.a(snprintf.o)
 .debug_frame   0x0000000000001cc8       0x40 0x8 /usr/local/popcorn/aarch64/lib/libc.a(sscanf.o)
 .debug_frame   0x0000000000001d08       0x70 0x8 /usr/local/popcorn/aarch64/lib/libc.a(vsnprintf.o)
 .debug_frame   0x0000000000001d78       0x58 0x8 /usr/local/popcorn/aarch64/lib/libc.a(vsscanf.o)
 .debug_frame   0x0000000000001dd0       0xd8 0x8 /usr/local/popcorn/aarch64/lib/libc.a(strtol.o)
 .debug_frame   0x0000000000001ea8       0x30 0x8 /usr/local/popcorn/aarch64/lib/libc.a(memcmp.o)
 .debug_frame   0x0000000000001ed8       0x40 0x8 /usr/local/popcorn/aarch64/lib/libc.a(strchr.o)
 .debug_frame   0x0000000000001f18       0x40 0x8 /usr/local/popcorn/aarch64/lib/libc.a(strchrnul.o)
 .debug_frame   0x0000000000001f58       0x30 0x8 /usr/local/popcorn/aarch64/lib/libc.a(strcmp.o)
 .debug_frame   0x0000000000001f88       0x30 0x8 /usr/local/popcorn/aarch64/lib/libc.a(strlen.o)
 .debug_frame   0x0000000000001fb8       0x30 0x8 /usr/local/popcorn/aarch64/lib/libc.a(strncmp.o)
 .debug_frame   0x0000000000001fe8       0x50 0x8 /usr/local/popcorn/aarch64/lib/libc.a(strstr.o)
 .debug_frame   0x0000000000002038      0x198 0x8 /usr/local/popcorn/aarch64/lib/libc.a(pthread_attr_get.o)
 .debug_frame   0x00000000000021d0       0x48 0x8 /usr/local/popcorn/aarch64/lib/libc.a(pthread_getattr_np.o)
 .debug_frame   0x0000000000002218       0x30 0x8 /usr/local/popcorn/aarch64/lib/libc.a(pthread_getspecific.o)
 .debug_frame   0x0000000000002248       0x90 0x8 /usr/local/popcorn/aarch64/lib/libc.a(pthread_key_create.o)
 .debug_frame   0x00000000000022d8       0x30 0x8 /usr/local/popcorn/aarch64/lib/libc.a(pthread_migrate.o)
 .debug_frame   0x0000000000002308       0x30 0x8 /usr/local/popcorn/aarch64/lib/libc.a(pthread_self.o)
 .debug_frame   0x0000000000002338       0x30 0x8 /usr/local/popcorn/aarch64/lib/libc.a(pthread_setspecific.o)
 .debug_frame   0x0000000000002368       0x50 0x8 /usr/local/popcorn/aarch64/lib/libc.a(close.o)
 .debug_frame   0x00000000000023b8       0x30 0x8 /usr/local/popcorn/aarch64/lib/libc.a(getpid.o)
 .debug_frame   0x00000000000023e8       0x30 0x8 /usr/local/popcorn/aarch64/lib/libc.a(lseek.o)
 .debug_frame   0x0000000000002418       0x38 0x8 /usr/local/popcorn/aarch64/lib/libc.a(read.o)
 .debug_frame   0x0000000000002450       0x38 0x8 /usr/local/popcorn/aarch64/lib/libc.a(abort.o)
 .debug_frame   0x0000000000002488       0x48 0x8 /usr/local/popcorn/aarch64/lib/libc.a(intscan.o)
 .debug_frame   0x00000000000024d0       0x58 0x8 /usr/local/popcorn/aarch64/lib/libc.a(shgetc.o)
 .debug_frame   0x0000000000002528       0x30 0x8 /usr/local/popcorn/aarch64/lib/libc.a(__brk.o)
 .debug_frame   0x0000000000002558       0x40 0x8 /usr/local/popcorn/aarch64/lib/libc.a(raise.o)
 .debug_frame   0x0000000000002598       0x40 0x8 /usr/local/popcorn/aarch64/lib/libc.a(__fdopen.o)
 .debug_frame   0x00000000000025d8       0x40 0x8 /usr/local/popcorn/aarch64/lib/libc.a(__fmodeflags.o)
 .debug_frame   0x0000000000002618       0x58 0x8 /usr/local/popcorn/aarch64/lib/libc.a(__stdio_read.o)
 .debug_frame   0x0000000000002670       0x48 0x8 /usr/local/popcorn/aarch64/lib/libc.a(__string_read.o)
 .debug_frame   0x00000000000026b8       0x40 0x8 /usr/local/popcorn/aarch64/lib/libc.a(__uflow.o)
 .debug_frame   0x00000000000026f8       0x50 0x8 /usr/local/popcorn/aarch64/lib/libc.a(getdelim.o)
 .debug_frame   0x0000000000002748       0x50 0x8 /usr/local/popcorn/aarch64/lib/libc.a(vfscanf.o)
 .debug_frame   0x0000000000002798       0x88 0x8 /usr/local/popcorn/aarch64/lib/libc.a(floatscan.o)
 .debug_frame   0x0000000000002820       0x38 0x8 /usr/local/popcorn/aarch64/lib/libc.a(copysignl.o)
 .debug_frame   0x0000000000002858       0x48 0x8 /usr/local/popcorn/aarch64/lib/libc.a(fmodl.o)
 .debug_frame   0x00000000000028a0       0x30 0x8 /usr/local/popcorn/aarch64/lib/libc.a(scalbn.o)
 .debug_frame   0x00000000000028d0       0x40 0x8 /usr/local/popcorn/aarch64/lib/libc.a(scalbnl.o)
 .debug_frame   0x0000000000002910       0x38 0x8 /usr/local/popcorn/aarch64/lib/libc.a(mbrtowc.o)
 .debug_frame   0x0000000000002948       0x30 0x8 /usr/local/popcorn/aarch64/lib/libc.a(mbsinit.o)
 .debug_frame   0x0000000000002978       0x60 0x8 /usr/local/popcorn/aarch64/lib/libc.a(block.o)
 .debug_frame   0x00000000000029d8       0x58 0x8 /usr/local/popcorn/aarch64/lib/libc.a(__toread.o)

.debug_aranges  0x0000000000000000       0x90
 .debug_aranges
                0x0000000000000000       0x30 0x1 /usr/local/popcorn/aarch64/lib/libc.a(__set_thread_area.o)
 .debug_aranges
                0x0000000000000030       0x30 0x1 /usr/local/popcorn/aarch64/lib/libc.a(syscall.o)
 .debug_aranges
                0x0000000000000060       0x30 0x1 /usr/local/popcorn/aarch64/lib/libc.a(fabs.o)

.note.gnu.gold-version
                0x0000000000000000       0x1c
 ** note header
                0x0000000000000000       0x10
 ** fill        0x0000000000000010        0x9
 ** zero fill   0x0000000000000019        0x3

.symtab         0x0000000000000000     0xe760
 ** symtab      0x0000000000000000     0xe760

.strtab         0x0000000000000000     0x3369
 ** string table
                0x0000000000000000     0x3369

.shstrtab       0x0000000000000000      0x157
 ** string table
                0x0000000000000000      0x157
