Archive member included because of file (symbol)

/usr/local/popcorn/x86_64/lib/libc.a(__libc_start_main.o)
                              /usr/local/popcorn/x86_64/lib/crt1.o (__libc_start_main)
/usr/local/popcorn/x86_64/lib/libc.a(exit.o)
                              /usr/local/popcorn/x86_64/lib/libc.a(__libc_start_main.o) (exit)
/usr/local/popcorn/x86_64/lib/libc.a(libc.o)
                              /usr/local/popcorn/x86_64/lib/libc.a(__libc_start_main.o) (__hwcap)
/usr/local/popcorn/x86_64/lib/libc.a(printf.o)
                              pierre_x86_64.o (printf)
/usr/local/popcorn/x86_64/lib/libc.a(stdout.o)
                              /usr/local/popcorn/x86_64/lib/libc.a(printf.o) (stdout)
/usr/local/popcorn/x86_64/lib/libc.a(vfprintf.o)
                              /usr/local/popcorn/x86_64/lib/libc.a(printf.o) (vfprintf)
/usr/local/popcorn/x86_64/lib/libc.a(memchr.o)
                              /usr/local/popcorn/x86_64/lib/libc.a(vfprintf.o) (memchr)
/usr/local/popcorn/x86_64/lib/libc.a(memset.o)
                              /usr/local/popcorn/x86_64/lib/libc.a(__libc_start_main.o) (memset)
/usr/local/popcorn/x86_64/lib/libc.a(__environ.o)
                              /usr/local/popcorn/x86_64/lib/libc.a(__libc_start_main.o) (__environ)
/usr/local/popcorn/x86_64/lib/libc.a(__init_tls.o)
                              /usr/local/popcorn/x86_64/lib/libc.a(__libc_start_main.o) (__init_tls)
/usr/local/popcorn/x86_64/lib/libc.a(__errno_location.o)
                              /usr/local/popcorn/x86_64/lib/libc.a(vfprintf.o) (__errno_location)
/usr/local/popcorn/x86_64/lib/libc.a(strerror.o)
                              /usr/local/popcorn/x86_64/lib/libc.a(vfprintf.o) (strerror)
/usr/local/popcorn/x86_64/lib/libc.a(_Exit.o)
                              /usr/local/popcorn/x86_64/lib/libc.a(exit.o) (_Exit)
/usr/local/popcorn/x86_64/lib/libc.a(__lctrans.o)
                              /usr/local/popcorn/x86_64/lib/libc.a(strerror.o) (__lctrans)
/usr/local/popcorn/x86_64/lib/libc.a(__fpclassifyl.o)
                              /usr/local/popcorn/x86_64/lib/libc.a(vfprintf.o) (__fpclassifyl)
/usr/local/popcorn/x86_64/lib/libc.a(__signbitl.o)
                              /usr/local/popcorn/x86_64/lib/libc.a(vfprintf.o) (__signbitl)
/usr/local/popcorn/x86_64/lib/libc.a(frexpl.o)
                              /usr/local/popcorn/x86_64/lib/libc.a(vfprintf.o) (frexpl)
/usr/local/popcorn/x86_64/lib/libc.a(wctomb.o)
                              /usr/local/popcorn/x86_64/lib/libc.a(vfprintf.o) (wctomb)
/usr/local/popcorn/x86_64/lib/libc.a(__lockfile.o)
                              /usr/local/popcorn/x86_64/lib/libc.a(vfprintf.o) (__lockfile)
/usr/local/popcorn/x86_64/lib/libc.a(__stdio_close.o)
                              /usr/local/popcorn/x86_64/lib/libc.a(stdout.o) (__stdio_close)
/usr/local/popcorn/x86_64/lib/libc.a(__stdio_seek.o)
                              /usr/local/popcorn/x86_64/lib/libc.a(stdout.o) (__stdio_seek)
/usr/local/popcorn/x86_64/lib/libc.a(__stdout_write.o)
                              /usr/local/popcorn/x86_64/lib/libc.a(stdout.o) (__stdout_write)
/usr/local/popcorn/x86_64/lib/libc.a(fwrite.o)
                              /usr/local/popcorn/x86_64/lib/libc.a(vfprintf.o) (__fwritex)
/usr/local/popcorn/x86_64/lib/libc.a(memcpy.o)
                              /usr/local/popcorn/x86_64/lib/libc.a(__init_tls.o) (memcpy)
/usr/local/popcorn/x86_64/lib/libc.a(__set_thread_area.o)
                              /usr/local/popcorn/x86_64/lib/libc.a(__init_tls.o) (__set_thread_area)
/usr/local/popcorn/x86_64/lib/libc.a(__wait.o)
                              /usr/local/popcorn/x86_64/lib/libc.a(__lockfile.o) (__wait)
/usr/local/popcorn/x86_64/lib/libc.a(syscall_ret.o)
                              /usr/local/popcorn/x86_64/lib/libc.a(__stdio_close.o) (__syscall_ret)
/usr/local/popcorn/x86_64/lib/libc.a(wcrtomb.o)
                              /usr/local/popcorn/x86_64/lib/libc.a(wctomb.o) (wcrtomb)
/usr/local/popcorn/x86_64/lib/libc.a(__stdio_write.o)
                              /usr/local/popcorn/x86_64/lib/libc.a(__stdout_write.o) (__stdio_write)
/usr/local/popcorn/x86_64/lib/libc.a(__towrite.o)
                              /usr/local/popcorn/x86_64/lib/libc.a(fwrite.o) (__towrite)
/usr/local/popcorn/x86_64/lib/libc.a(__syscall_cp.o)
                              /usr/local/popcorn/x86_64/lib/libc.a(__stdio_write.o) (__syscall_cp)
/usr/local/popcorn/x86_64/lib/libc.a(pthread_cleanup_push.o)
                              /usr/local/popcorn/x86_64/lib/libc.a(__stdio_write.o) (_pthread_cleanup_pop)
/usr/local/popcorn/x86_64/lib/libc.a(syscall.o)
                              /usr/local/popcorn/x86_64/lib/libc.a(__syscall_cp.o) (__syscall)
/usr/local/popcorn/x86_64/lib/libc.a(__stdio_exit.o)
                              /usr/local/popcorn/x86_64/lib/libc.a(__towrite.o) (__stdio_exit_needed)
/usr/local/popcorn/x86_64/lib/libc.a(__lock.o)
                              /usr/local/popcorn/x86_64/lib/libc.a(__stdio_exit.o) (__lock)
/usr/local/popcorn/x86_64/lib/libmigrate.a(migrate.o)
                              pierre_x86_64.o (__cyg_profile_func_enter)
/usr/local/popcorn/x86_64/lib/libstack-transform.a(userspace.o)
                              /usr/local/popcorn/x86_64/lib/libmigrate.a(migrate.o) (st_userspace_rewrite)
/usr/local/popcorn/x86_64/lib/libstack-transform.a(init.o)
                              /usr/local/popcorn/x86_64/lib/libstack-transform.a(userspace.o) (st_destroy)
/usr/local/popcorn/x86_64/lib/libstack-transform.a(rewrite.o)
                              /usr/local/popcorn/x86_64/lib/libstack-transform.a(userspace.o) (st_rewrite_stack)
/usr/local/popcorn/x86_64/lib/libstack-transform.a(unwind.o)
                              /usr/local/popcorn/x86_64/lib/libstack-transform.a(rewrite.o) (bootstrap_first_frame)
/usr/local/popcorn/x86_64/lib/libstack-transform.a(util.o)
                              /usr/local/popcorn/x86_64/lib/libstack-transform.a(rewrite.o) (get_function_address)
/usr/local/popcorn/x86_64/lib/libstack-transform.a(properties.o)
                              /usr/local/popcorn/x86_64/lib/libstack-transform.a(util.o) (properties_aarch64)
/usr/local/popcorn/x86_64/lib/libstack-transform.a(regs.o)
                              /usr/local/popcorn/x86_64/lib/libstack-transform.a(util.o) (regs_aarch64)
/usr/local/popcorn/x86_64/lib/libstack-transform.a(properties.o)
                              /usr/local/popcorn/x86_64/lib/libstack-transform.a(util.o) (properties_x86_64)
/usr/local/popcorn/x86_64/lib/libstack-transform.a(regs.o)
                              /usr/local/popcorn/x86_64/lib/libstack-transform.a(util.o) (regs_x86_64)
/usr/local/popcorn/x86_64/lib/libstack-transform.a(data.o)
                              /usr/local/popcorn/x86_64/lib/libstack-transform.a(rewrite.o) (get_savedfbp_loc)
/usr/local/popcorn/x86_64/lib/libelf.a(begin.o)
                              /usr/local/popcorn/x86_64/lib/libstack-transform.a(init.o) (elf_begin)
/usr/local/popcorn/x86_64/lib/libelf.a(end.o)
                              /usr/local/popcorn/x86_64/lib/libstack-transform.a(init.o) (elf_end)
/usr/local/popcorn/x86_64/lib/libelf.a(getdata.o)
                              /usr/local/popcorn/x86_64/lib/libstack-transform.a(util.o) (elf_getdata)
/usr/local/popcorn/x86_64/lib/libelf.a(getident.o)
                              /usr/local/popcorn/x86_64/lib/libstack-transform.a(init.o) (elf_getident)
/usr/local/popcorn/x86_64/lib/libelf.a(nextscn.o)
                              /usr/local/popcorn/x86_64/lib/libstack-transform.a(util.o) (elf_nextscn)
/usr/local/popcorn/x86_64/lib/libelf.a(strptr.o)
                              /usr/local/popcorn/x86_64/lib/libstack-transform.a(util.o) (elf_strptr)
/usr/local/popcorn/x86_64/lib/libelf.a(version.o)
                              /usr/local/popcorn/x86_64/lib/libstack-transform.a(userspace.o) (elf_version)
/usr/local/popcorn/x86_64/lib/libelf.a(32.getehdr.o)
                              /usr/local/popcorn/x86_64/lib/libstack-transform.a(init.o) (elf64_getehdr)
/usr/local/popcorn/x86_64/lib/libelf.a(32.xlatetof.o)
                              /usr/local/popcorn/x86_64/lib/libelf.a(getdata.o) (_elf32_xltsize)
/usr/local/popcorn/x86_64/lib/libelf.a(cook.o)
                              /usr/local/popcorn/x86_64/lib/libelf.a(getdata.o) (_elf_xlatetom)
/usr/local/popcorn/x86_64/lib/libelf.a(data.o)
                              /usr/local/popcorn/x86_64/lib/libelf.a(strptr.o) (_elf_sanity_checks)
/usr/local/popcorn/x86_64/lib/libelf.a(input.o)
                              /usr/local/popcorn/x86_64/lib/libelf.a(begin.o) (_elf_read)
/usr/local/popcorn/x86_64/lib/libelf.a(x.elfext.o)
                              /usr/local/popcorn/x86_64/lib/libstack-transform.a(util.o) (elf_getshdrstrndx)
/usr/local/popcorn/x86_64/lib/libelf.a(64.xlatetof.o)
                              /usr/local/popcorn/x86_64/lib/libelf.a(getdata.o) (_elf64_xltsize)
/usr/local/popcorn/x86_64/lib/libelf.a(gelfshdr.o)
                              /usr/local/popcorn/x86_64/lib/libstack-transform.a(util.o) (gelf_getshdr)
/usr/local/popcorn/x86_64/lib/libelf.a(swap64.o)
                              /usr/local/popcorn/x86_64/lib/libelf.a(64.xlatetof.o) (_elf_load_u64L)
/usr/local/popcorn/x86_64/lib/libelf.a(verdef_32_tof.o)
                              /usr/local/popcorn/x86_64/lib/libelf.a(32.xlatetof.o) (_elf_verdef_32L11_tof)
/usr/local/popcorn/x86_64/lib/libelf.a(verdef_32_tom.o)
                              /usr/local/popcorn/x86_64/lib/libelf.a(32.xlatetof.o) (_elf_verdef_32L11_tom)
/usr/local/popcorn/x86_64/lib/libelf.a(verdef_64_tof.o)
                              /usr/local/popcorn/x86_64/lib/libelf.a(64.xlatetof.o) (_elf_verdef_64L11_tof)
/usr/local/popcorn/x86_64/lib/libelf.a(verdef_64_tom.o)
                              /usr/local/popcorn/x86_64/lib/libelf.a(64.xlatetof.o) (_elf_verdef_64L11_tom)
/usr/local/popcorn/x86_64/lib/libelf.a(getscn.o)
                              /usr/local/popcorn/x86_64/lib/libelf.a(strptr.o) (elf_getscn)
/usr/local/popcorn/x86_64/lib/libelf.a(newscn.o)
                              /usr/local/popcorn/x86_64/lib/libelf.a(x.elfext.o) (_elf_first_scn)
/usr/local/popcorn/x86_64/lib/libelf.a(32.fsize.o)
                              /usr/local/popcorn/x86_64/lib/libelf.a(cook.o) (_elf_fmsize)
/usr/local/popcorn/x86_64/lib/libc.a(sysconf.o)
                              /usr/local/popcorn/x86_64/lib/libstack-transform.a(userspace.o) (sysconf)
/usr/local/popcorn/x86_64/lib/libc.a(__stack_chk_fail.o)
                              /usr/local/popcorn/x86_64/lib/libelf.a(getdata.o) (__stack_chk_fail)
/usr/local/popcorn/x86_64/lib/libc.a(getenv.o)
                              /usr/local/popcorn/x86_64/lib/libstack-transform.a(userspace.o) (getenv)
/usr/local/popcorn/x86_64/lib/libc.a(assert.o)
                              /usr/local/popcorn/x86_64/lib/libmigrate.a(migrate.o) (__assert_fail)
/usr/local/popcorn/x86_64/lib/libc.a(open.o)
                              /usr/local/popcorn/x86_64/lib/libstack-transform.a(init.o) (open)
/usr/local/popcorn/x86_64/lib/libc.a(prctl.o)
                              /usr/local/popcorn/x86_64/lib/libmigrate.a(migrate.o) (prctl)
/usr/local/popcorn/x86_64/lib/libc.a(sysinfo.o)
                              /usr/local/popcorn/x86_64/lib/libc.a(sysconf.o) (__lsysinfo)
/usr/local/popcorn/x86_64/lib/libc.a(calloc.o)
                              /usr/local/popcorn/x86_64/lib/libstack-transform.a(regs.o) (calloc)
/usr/local/popcorn/x86_64/lib/libc.a(lite_malloc.o)
                              /usr/local/popcorn/x86_64/lib/libstack-transform.a(userspace.o) (malloc)
/usr/local/popcorn/x86_64/lib/libc.a(malloc.o)
                              /usr/local/popcorn/x86_64/lib/libstack-transform.a(userspace.o) (free)
/usr/local/popcorn/x86_64/lib/libc.a(getrlimit.o)
                              /usr/local/popcorn/x86_64/lib/libstack-transform.a(userspace.o) (getrlimit)
/usr/local/popcorn/x86_64/lib/libc.a(madvise.o)
                              /usr/local/popcorn/x86_64/lib/libc.a(malloc.o) (__madvise)
/usr/local/popcorn/x86_64/lib/libc.a(mmap.o)
                              /usr/local/popcorn/x86_64/lib/libc.a(malloc.o) (__mmap)
/usr/local/popcorn/x86_64/lib/libc.a(mremap.o)
                              /usr/local/popcorn/x86_64/lib/libc.a(malloc.o) (__mremap)
/usr/local/popcorn/x86_64/lib/libc.a(munmap.o)
                              /usr/local/popcorn/x86_64/lib/libc.a(malloc.o) (__munmap)
/usr/local/popcorn/x86_64/lib/libc.a(fclose.o)
                              /usr/local/popcorn/x86_64/lib/libmigrate.a(migrate.o) (fclose)
/usr/local/popcorn/x86_64/lib/libc.a(fflush.o)
                              /usr/local/popcorn/x86_64/lib/libc.a(assert.o) (fflush)
/usr/local/popcorn/x86_64/lib/libc.a(fgets.o)
                              /usr/local/popcorn/x86_64/lib/libmigrate.a(migrate.o) (fgets)
/usr/local/popcorn/x86_64/lib/libc.a(fopen.o)
                              /usr/local/popcorn/x86_64/lib/libmigrate.a(migrate.o) (fopen)
/usr/local/popcorn/x86_64/lib/libc.a(fprintf.o)
                              /usr/local/popcorn/x86_64/lib/libstack-transform.a(rewrite.o) (fprintf)
/usr/local/popcorn/x86_64/lib/libc.a(getline.o)
                              /usr/local/popcorn/x86_64/lib/libstack-transform.a(userspace.o) (getline)
/usr/local/popcorn/x86_64/lib/libc.a(snprintf.o)
                              /usr/local/popcorn/x86_64/lib/libstack-transform.a(userspace.o) (snprintf)
/usr/local/popcorn/x86_64/lib/libc.a(sscanf.o)
                              /usr/local/popcorn/x86_64/lib/libstack-transform.a(userspace.o) (sscanf)
/usr/local/popcorn/x86_64/lib/libc.a(stderr.o)
                              /usr/local/popcorn/x86_64/lib/libmigrate.a(migrate.o) (stderr)
/usr/local/popcorn/x86_64/lib/libc.a(vsnprintf.o)
                              /usr/local/popcorn/x86_64/lib/libc.a(snprintf.o) (vsnprintf)
/usr/local/popcorn/x86_64/lib/libc.a(vsscanf.o)
                              /usr/local/popcorn/x86_64/lib/libc.a(sscanf.o) (vsscanf)
/usr/local/popcorn/x86_64/lib/libc.a(strtol.o)
                              /usr/local/popcorn/x86_64/lib/libelf.a(version.o) (strtol)
/usr/local/popcorn/x86_64/lib/libc.a(memcmp.o)
                              /usr/local/popcorn/x86_64/lib/libelf.a(begin.o) (memcmp)
/usr/local/popcorn/x86_64/lib/libc.a(memmove.o)
                              /usr/local/popcorn/x86_64/lib/libelf.a(32.xlatetof.o) (memmove)
/usr/local/popcorn/x86_64/lib/libc.a(strchr.o)
                              /usr/local/popcorn/x86_64/lib/libc.a(getenv.o) (strchr)
/usr/local/popcorn/x86_64/lib/libc.a(strchrnul.o)
                              /usr/local/popcorn/x86_64/lib/libc.a(strchr.o) (__strchrnul)
/usr/local/popcorn/x86_64/lib/libc.a(strcmp.o)
                              /usr/local/popcorn/x86_64/lib/libstack-transform.a(util.o) (strcmp)
/usr/local/popcorn/x86_64/lib/libc.a(strlen.o)
                              /usr/local/popcorn/x86_64/lib/libc.a(getenv.o) (strlen)
/usr/local/popcorn/x86_64/lib/libc.a(strncmp.o)
                              /usr/local/popcorn/x86_64/lib/libstack-transform.a(userspace.o) (strncmp)
/usr/local/popcorn/x86_64/lib/libc.a(strstr.o)
                              /usr/local/popcorn/x86_64/lib/libmigrate.a(migrate.o) (strstr)
/usr/local/popcorn/x86_64/lib/libc.a(pthread_attr_get.o)
                              /usr/local/popcorn/x86_64/lib/libstack-transform.a(userspace.o) (pthread_attr_getstack)
/usr/local/popcorn/x86_64/lib/libc.a(pthread_getattr_np.o)
                              /usr/local/popcorn/x86_64/lib/libstack-transform.a(userspace.o) (pthread_getattr_np)
/usr/local/popcorn/x86_64/lib/libc.a(pthread_getspecific.o)
                              /usr/local/popcorn/x86_64/lib/libstack-transform.a(userspace.o) (pthread_getspecific)
/usr/local/popcorn/x86_64/lib/libc.a(pthread_key_create.o)
                              /usr/local/popcorn/x86_64/lib/libstack-transform.a(userspace.o) (pthread_key_create)
/usr/local/popcorn/x86_64/lib/libc.a(pthread_migrate.o)
                              /usr/local/popcorn/x86_64/lib/libmigrate.a(migrate.o) (pthread_migrate_args)
/usr/local/popcorn/x86_64/lib/libc.a(pthread_self.o)
                              /usr/local/popcorn/x86_64/lib/libstack-transform.a(userspace.o) (pthread_self)
/usr/local/popcorn/x86_64/lib/libc.a(pthread_setspecific.o)
                              /usr/local/popcorn/x86_64/lib/libstack-transform.a(userspace.o) (pthread_setspecific)
/usr/local/popcorn/x86_64/lib/libc.a(close.o)
                              /usr/local/popcorn/x86_64/lib/libstack-transform.a(init.o) (close)
/usr/local/popcorn/x86_64/lib/libc.a(getpid.o)
                              /usr/local/popcorn/x86_64/lib/libstack-transform.a(userspace.o) (getpid)
/usr/local/popcorn/x86_64/lib/libc.a(lseek.o)
                              /usr/local/popcorn/x86_64/lib/libelf.a(begin.o) (lseek)
/usr/local/popcorn/x86_64/lib/libc.a(read.o)
                              /usr/local/popcorn/x86_64/lib/libelf.a(input.o) (read)
/usr/local/popcorn/x86_64/lib/libc.a(abort.o)
                              /usr/local/popcorn/x86_64/lib/libc.a(assert.o) (abort)
/usr/local/popcorn/x86_64/lib/libc.a(intscan.o)
                              /usr/local/popcorn/x86_64/lib/libc.a(strtol.o) (__intscan)
/usr/local/popcorn/x86_64/lib/libc.a(shgetc.o)
                              /usr/local/popcorn/x86_64/lib/libc.a(intscan.o) (__shgetc)
/usr/local/popcorn/x86_64/lib/libc.a(__brk.o)
                              /usr/local/popcorn/x86_64/lib/libc.a(lite_malloc.o) (__brk)
/usr/local/popcorn/x86_64/lib/libc.a(raise.o)
                              /usr/local/popcorn/x86_64/lib/libc.a(abort.o) (raise)
/usr/local/popcorn/x86_64/lib/libc.a(__fdopen.o)
                              /usr/local/popcorn/x86_64/lib/libc.a(fopen.o) (__fdopen)
/usr/local/popcorn/x86_64/lib/libc.a(__fmodeflags.o)
                              /usr/local/popcorn/x86_64/lib/libc.a(fopen.o) (__fmodeflags)
/usr/local/popcorn/x86_64/lib/libc.a(__stdio_read.o)
                              /usr/local/popcorn/x86_64/lib/libc.a(__fdopen.o) (__stdio_read)
/usr/local/popcorn/x86_64/lib/libc.a(__string_read.o)
                              /usr/local/popcorn/x86_64/lib/libc.a(vsscanf.o) (__string_read)
/usr/local/popcorn/x86_64/lib/libc.a(__uflow.o)
                              /usr/local/popcorn/x86_64/lib/libc.a(fgets.o) (__uflow)
/usr/local/popcorn/x86_64/lib/libc.a(getdelim.o)
                              /usr/local/popcorn/x86_64/lib/libc.a(getline.o) (getdelim)
/usr/local/popcorn/x86_64/lib/libc.a(vfscanf.o)
                              /usr/local/popcorn/x86_64/lib/libc.a(vsscanf.o) (vfscanf)
/usr/local/popcorn/x86_64/lib/libc.a(floatscan.o)
                              /usr/local/popcorn/x86_64/lib/libc.a(vfscanf.o) (__floatscan)
/usr/local/popcorn/x86_64/lib/libc.a(copysignl.o)
                              /usr/local/popcorn/x86_64/lib/libc.a(floatscan.o) (copysignl)
/usr/local/popcorn/x86_64/lib/libc.a(fabs.o)
                              /usr/local/popcorn/x86_64/lib/libc.a(floatscan.o) (fabs)
/usr/local/popcorn/x86_64/lib/libc.a(fmodl.o)
                              /usr/local/popcorn/x86_64/lib/libc.a(floatscan.o) (fmodl)
/usr/local/popcorn/x86_64/lib/libc.a(scalbn.o)
                              /usr/local/popcorn/x86_64/lib/libc.a(floatscan.o) (scalbn)
/usr/local/popcorn/x86_64/lib/libc.a(scalbnl.o)
                              /usr/local/popcorn/x86_64/lib/libc.a(floatscan.o) (scalbnl)
/usr/local/popcorn/x86_64/lib/libc.a(mbrtowc.o)
                              /usr/local/popcorn/x86_64/lib/libc.a(vfscanf.o) (mbrtowc)
/usr/local/popcorn/x86_64/lib/libc.a(mbsinit.o)
                              /usr/local/popcorn/x86_64/lib/libc.a(vfscanf.o) (mbsinit)
/usr/local/popcorn/x86_64/lib/libc.a(block.o)
                              /usr/local/popcorn/x86_64/lib/libc.a(raise.o) (__block_app_sigs)
/usr/local/popcorn/x86_64/lib/libc.a(__toread.o)
                              /usr/local/popcorn/x86_64/lib/libc.a(__uflow.o) (__toread)
/usr/local/popcorn/x86_64/lib/libc.a(internal.o)
                              /usr/local/popcorn/x86_64/lib/libc.a(mbrtowc.o) (__fsmu8)

Allocating common symbols
Common symbol       size              file

__libc              0x68              /usr/local/popcorn/x86_64/lib/libc.a(libc.o)
__static_tls        0x20              /usr/local/popcorn/x86_64/lib/libc.a(__init_tls.o)
__hwcap             0x8               /usr/local/popcorn/x86_64/lib/libc.a(libc.o)
__stack_chk_guard   0x8               /usr/local/popcorn/x86_64/lib/libc.a(__stack_chk_fail.o)
__sysinfo           0x8               /usr/local/popcorn/x86_64/lib/libc.a(libc.o)

Discarded input sections

 .note.GNU-stack
                0x0000000000000000        0x0 0x1 pierre_x86_64.o
 .note.GNU-stack
                0x0000000000000000        0x0 0x1 test_x86_64.o
 .note.GNU-stack
                0x0000000000000000        0x0 0x1 /usr/local/popcorn/x86_64/lib/crt1.o
 .note.GNU-stack
                0x0000000000000000        0x0 0x1 /usr/local/popcorn/x86_64/lib/libc.a(__libc_start_main.o)
 .note.GNU-stack
                0x0000000000000000        0x0 0x1 /usr/local/popcorn/x86_64/lib/libc.a(exit.o)
 .note.GNU-stack
                0x0000000000000000        0x0 0x1 /usr/local/popcorn/x86_64/lib/libc.a(libc.o)
 .note.GNU-stack
                0x0000000000000000        0x0 0x1 /usr/local/popcorn/x86_64/lib/libc.a(printf.o)
 .note.GNU-stack
                0x0000000000000000        0x0 0x1 /usr/local/popcorn/x86_64/lib/libc.a(stdout.o)
 .note.GNU-stack
                0x0000000000000000        0x0 0x1 /usr/local/popcorn/x86_64/lib/libc.a(vfprintf.o)
 .note.GNU-stack
                0x0000000000000000        0x0 0x1 /usr/local/popcorn/x86_64/lib/libc.a(memchr.o)
 .note.GNU-stack
                0x0000000000000000        0x0 0x1 /usr/local/popcorn/x86_64/lib/libc.a(memset.o)
 .note.GNU-stack
                0x0000000000000000        0x0 0x1 /usr/local/popcorn/x86_64/lib/libc.a(__environ.o)
 .note.GNU-stack
                0x0000000000000000        0x0 0x1 /usr/local/popcorn/x86_64/lib/libc.a(__init_tls.o)
 .note.GNU-stack
                0x0000000000000000        0x0 0x1 /usr/local/popcorn/x86_64/lib/libc.a(__errno_location.o)
 .note.GNU-stack
                0x0000000000000000        0x0 0x1 /usr/local/popcorn/x86_64/lib/libc.a(strerror.o)
 .note.GNU-stack
                0x0000000000000000        0x0 0x1 /usr/local/popcorn/x86_64/lib/libc.a(_Exit.o)
 .note.GNU-stack
                0x0000000000000000        0x0 0x1 /usr/local/popcorn/x86_64/lib/libc.a(__lctrans.o)
 .note.GNU-stack
                0x0000000000000000        0x0 0x1 /usr/local/popcorn/x86_64/lib/libc.a(__fpclassifyl.o)
 .note.GNU-stack
                0x0000000000000000        0x0 0x1 /usr/local/popcorn/x86_64/lib/libc.a(__signbitl.o)
 .note.GNU-stack
                0x0000000000000000        0x0 0x1 /usr/local/popcorn/x86_64/lib/libc.a(frexpl.o)
 .note.GNU-stack
                0x0000000000000000        0x0 0x1 /usr/local/popcorn/x86_64/lib/libc.a(wctomb.o)
 .note.GNU-stack
                0x0000000000000000        0x0 0x1 /usr/local/popcorn/x86_64/lib/libc.a(__lockfile.o)
 .note.GNU-stack
                0x0000000000000000        0x0 0x1 /usr/local/popcorn/x86_64/lib/libc.a(__stdio_close.o)
 .note.GNU-stack
                0x0000000000000000        0x0 0x1 /usr/local/popcorn/x86_64/lib/libc.a(__stdio_seek.o)
 .note.GNU-stack
                0x0000000000000000        0x0 0x1 /usr/local/popcorn/x86_64/lib/libc.a(__stdout_write.o)
 .note.GNU-stack
                0x0000000000000000        0x0 0x1 /usr/local/popcorn/x86_64/lib/libc.a(fwrite.o)
 .note.GNU-stack
                0x0000000000000000        0x0 0x1 /usr/local/popcorn/x86_64/lib/libc.a(memcpy.o)
 .note.GNU-stack
                0x0000000000000000        0x0 0x1 /usr/local/popcorn/x86_64/lib/libc.a(__set_thread_area.o)
 .note.GNU-stack
                0x0000000000000000        0x0 0x1 /usr/local/popcorn/x86_64/lib/libc.a(__wait.o)
 .note.GNU-stack
                0x0000000000000000        0x0 0x1 /usr/local/popcorn/x86_64/lib/libc.a(syscall_ret.o)
 .note.GNU-stack
                0x0000000000000000        0x0 0x1 /usr/local/popcorn/x86_64/lib/libc.a(wcrtomb.o)
 .note.GNU-stack
                0x0000000000000000        0x0 0x1 /usr/local/popcorn/x86_64/lib/libc.a(__stdio_write.o)
 .note.GNU-stack
                0x0000000000000000        0x0 0x1 /usr/local/popcorn/x86_64/lib/libc.a(__towrite.o)
 .note.GNU-stack
                0x0000000000000000        0x0 0x1 /usr/local/popcorn/x86_64/lib/libc.a(__syscall_cp.o)
 .note.GNU-stack
                0x0000000000000000        0x0 0x1 /usr/local/popcorn/x86_64/lib/libc.a(pthread_cleanup_push.o)
 .note.GNU-stack
                0x0000000000000000        0x0 0x1 /usr/local/popcorn/x86_64/lib/libc.a(syscall.o)
 .note.GNU-stack
                0x0000000000000000        0x0 0x1 /usr/local/popcorn/x86_64/lib/libc.a(__stdio_exit.o)
 .note.GNU-stack
                0x0000000000000000        0x0 0x1 /usr/local/popcorn/x86_64/lib/libc.a(__lock.o)
 .note.GNU-stack
                0x0000000000000000        0x0 0x1 /usr/local/popcorn/x86_64/lib/libmigrate.a(migrate.o)
 .note.GNU-stack
                0x0000000000000000        0x0 0x1 /usr/local/popcorn/x86_64/lib/libstack-transform.a(userspace.o)
 .note.GNU-stack
                0x0000000000000000        0x0 0x1 /usr/local/popcorn/x86_64/lib/libstack-transform.a(init.o)
 .note.GNU-stack
                0x0000000000000000        0x0 0x1 /usr/local/popcorn/x86_64/lib/libstack-transform.a(rewrite.o)
 .note.GNU-stack
                0x0000000000000000        0x0 0x1 /usr/local/popcorn/x86_64/lib/libstack-transform.a(unwind.o)
 .note.GNU-stack
                0x0000000000000000        0x0 0x1 /usr/local/popcorn/x86_64/lib/libstack-transform.a(util.o)
 .note.GNU-stack
                0x0000000000000000        0x0 0x1 /usr/local/popcorn/x86_64/lib/libstack-transform.a(properties.o)
 .note.GNU-stack
                0x0000000000000000        0x0 0x1 /usr/local/popcorn/x86_64/lib/libstack-transform.a(regs.o)
 .note.GNU-stack
                0x0000000000000000        0x0 0x1 /usr/local/popcorn/x86_64/lib/libstack-transform.a(properties.o)
 .note.GNU-stack
                0x0000000000000000        0x0 0x1 /usr/local/popcorn/x86_64/lib/libstack-transform.a(regs.o)
 .note.GNU-stack
                0x0000000000000000        0x0 0x1 /usr/local/popcorn/x86_64/lib/libstack-transform.a(data.o)
 .note.GNU-stack
                0x0000000000000000        0x0 0x1 /usr/local/popcorn/x86_64/lib/libelf.a(begin.o)
 .note.GNU-stack
                0x0000000000000000        0x0 0x1 /usr/local/popcorn/x86_64/lib/libelf.a(end.o)
 .note.GNU-stack
                0x0000000000000000        0x0 0x1 /usr/local/popcorn/x86_64/lib/libelf.a(getdata.o)
 .note.GNU-stack
                0x0000000000000000        0x0 0x1 /usr/local/popcorn/x86_64/lib/libelf.a(getident.o)
 .note.GNU-stack
                0x0000000000000000        0x0 0x1 /usr/local/popcorn/x86_64/lib/libelf.a(nextscn.o)
 .note.GNU-stack
                0x0000000000000000        0x0 0x1 /usr/local/popcorn/x86_64/lib/libelf.a(strptr.o)
 .note.GNU-stack
                0x0000000000000000        0x0 0x1 /usr/local/popcorn/x86_64/lib/libelf.a(version.o)
 .note.GNU-stack
                0x0000000000000000        0x0 0x1 /usr/local/popcorn/x86_64/lib/libelf.a(32.getehdr.o)
 .note.GNU-stack
                0x0000000000000000        0x0 0x1 /usr/local/popcorn/x86_64/lib/libelf.a(32.xlatetof.o)
 .note.GNU-stack
                0x0000000000000000        0x0 0x1 /usr/local/popcorn/x86_64/lib/libelf.a(cook.o)
 .note.GNU-stack
                0x0000000000000000        0x0 0x1 /usr/local/popcorn/x86_64/lib/libelf.a(data.o)
 .note.GNU-stack
                0x0000000000000000        0x0 0x1 /usr/local/popcorn/x86_64/lib/libelf.a(input.o)
 .note.GNU-stack
                0x0000000000000000        0x0 0x1 /usr/local/popcorn/x86_64/lib/libelf.a(x.elfext.o)
 .note.GNU-stack
                0x0000000000000000        0x0 0x1 /usr/local/popcorn/x86_64/lib/libelf.a(64.xlatetof.o)
 .note.GNU-stack
                0x0000000000000000        0x0 0x1 /usr/local/popcorn/x86_64/lib/libelf.a(gelfshdr.o)
 .note.GNU-stack
                0x0000000000000000        0x0 0x1 /usr/local/popcorn/x86_64/lib/libelf.a(swap64.o)
 .note.GNU-stack
                0x0000000000000000        0x0 0x1 /usr/local/popcorn/x86_64/lib/libelf.a(verdef_32_tof.o)
 .note.GNU-stack
                0x0000000000000000        0x0 0x1 /usr/local/popcorn/x86_64/lib/libelf.a(verdef_32_tom.o)
 .note.GNU-stack
                0x0000000000000000        0x0 0x1 /usr/local/popcorn/x86_64/lib/libelf.a(verdef_64_tof.o)
 .note.GNU-stack
                0x0000000000000000        0x0 0x1 /usr/local/popcorn/x86_64/lib/libelf.a(verdef_64_tom.o)
 .note.GNU-stack
                0x0000000000000000        0x0 0x1 /usr/local/popcorn/x86_64/lib/libelf.a(getscn.o)
 .note.GNU-stack
                0x0000000000000000        0x0 0x1 /usr/local/popcorn/x86_64/lib/libelf.a(newscn.o)
 .note.GNU-stack
                0x0000000000000000        0x0 0x1 /usr/local/popcorn/x86_64/lib/libelf.a(32.fsize.o)
 .note.GNU-stack
                0x0000000000000000        0x0 0x1 /usr/local/popcorn/x86_64/lib/libc.a(sysconf.o)
 .note.GNU-stack
                0x0000000000000000        0x0 0x1 /usr/local/popcorn/x86_64/lib/libc.a(__stack_chk_fail.o)
 .note.GNU-stack
                0x0000000000000000        0x0 0x1 /usr/local/popcorn/x86_64/lib/libc.a(getenv.o)
 .note.GNU-stack
                0x0000000000000000        0x0 0x1 /usr/local/popcorn/x86_64/lib/libc.a(assert.o)
 .note.GNU-stack
                0x0000000000000000        0x0 0x1 /usr/local/popcorn/x86_64/lib/libc.a(open.o)
 .note.GNU-stack
                0x0000000000000000        0x0 0x1 /usr/local/popcorn/x86_64/lib/libc.a(prctl.o)
 .note.GNU-stack
                0x0000000000000000        0x0 0x1 /usr/local/popcorn/x86_64/lib/libc.a(sysinfo.o)
 .note.GNU-stack
                0x0000000000000000        0x0 0x1 /usr/local/popcorn/x86_64/lib/libc.a(calloc.o)
 .note.GNU-stack
                0x0000000000000000        0x0 0x1 /usr/local/popcorn/x86_64/lib/libc.a(lite_malloc.o)
 .note.GNU-stack
                0x0000000000000000        0x0 0x1 /usr/local/popcorn/x86_64/lib/libc.a(malloc.o)
 .note.GNU-stack
                0x0000000000000000        0x0 0x1 /usr/local/popcorn/x86_64/lib/libc.a(getrlimit.o)
 .note.GNU-stack
                0x0000000000000000        0x0 0x1 /usr/local/popcorn/x86_64/lib/libc.a(madvise.o)
 .note.GNU-stack
                0x0000000000000000        0x0 0x1 /usr/local/popcorn/x86_64/lib/libc.a(mmap.o)
 .note.GNU-stack
                0x0000000000000000        0x0 0x1 /usr/local/popcorn/x86_64/lib/libc.a(mremap.o)
 .note.GNU-stack
                0x0000000000000000        0x0 0x1 /usr/local/popcorn/x86_64/lib/libc.a(munmap.o)
 .note.GNU-stack
                0x0000000000000000        0x0 0x1 /usr/local/popcorn/x86_64/lib/libc.a(fclose.o)
 .note.GNU-stack
                0x0000000000000000        0x0 0x1 /usr/local/popcorn/x86_64/lib/libc.a(fflush.o)
 .note.GNU-stack
                0x0000000000000000        0x0 0x1 /usr/local/popcorn/x86_64/lib/libc.a(fgets.o)
 .note.GNU-stack
                0x0000000000000000        0x0 0x1 /usr/local/popcorn/x86_64/lib/libc.a(fopen.o)
 .note.GNU-stack
                0x0000000000000000        0x0 0x1 /usr/local/popcorn/x86_64/lib/libc.a(fprintf.o)
 .note.GNU-stack
                0x0000000000000000        0x0 0x1 /usr/local/popcorn/x86_64/lib/libc.a(getline.o)
 .note.GNU-stack
                0x0000000000000000        0x0 0x1 /usr/local/popcorn/x86_64/lib/libc.a(snprintf.o)
 .note.GNU-stack
                0x0000000000000000        0x0 0x1 /usr/local/popcorn/x86_64/lib/libc.a(sscanf.o)
 .note.GNU-stack
                0x0000000000000000        0x0 0x1 /usr/local/popcorn/x86_64/lib/libc.a(stderr.o)
 .note.GNU-stack
                0x0000000000000000        0x0 0x1 /usr/local/popcorn/x86_64/lib/libc.a(vsnprintf.o)
 .note.GNU-stack
                0x0000000000000000        0x0 0x1 /usr/local/popcorn/x86_64/lib/libc.a(vsscanf.o)
 .note.GNU-stack
                0x0000000000000000        0x0 0x1 /usr/local/popcorn/x86_64/lib/libc.a(strtol.o)
 .note.GNU-stack
                0x0000000000000000        0x0 0x1 /usr/local/popcorn/x86_64/lib/libc.a(memcmp.o)
 .note.GNU-stack
                0x0000000000000000        0x0 0x1 /usr/local/popcorn/x86_64/lib/libc.a(memmove.o)
 .note.GNU-stack
                0x0000000000000000        0x0 0x1 /usr/local/popcorn/x86_64/lib/libc.a(strchr.o)
 .note.GNU-stack
                0x0000000000000000        0x0 0x1 /usr/local/popcorn/x86_64/lib/libc.a(strchrnul.o)
 .note.GNU-stack
                0x0000000000000000        0x0 0x1 /usr/local/popcorn/x86_64/lib/libc.a(strcmp.o)
 .note.GNU-stack
                0x0000000000000000        0x0 0x1 /usr/local/popcorn/x86_64/lib/libc.a(strlen.o)
 .note.GNU-stack
                0x0000000000000000        0x0 0x1 /usr/local/popcorn/x86_64/lib/libc.a(strncmp.o)
 .note.GNU-stack
                0x0000000000000000        0x0 0x1 /usr/local/popcorn/x86_64/lib/libc.a(strstr.o)
 .note.GNU-stack
                0x0000000000000000        0x0 0x1 /usr/local/popcorn/x86_64/lib/libc.a(pthread_attr_get.o)
 .note.GNU-stack
                0x0000000000000000        0x0 0x1 /usr/local/popcorn/x86_64/lib/libc.a(pthread_getattr_np.o)
 .note.GNU-stack
                0x0000000000000000        0x0 0x1 /usr/local/popcorn/x86_64/lib/libc.a(pthread_getspecific.o)
 .note.GNU-stack
                0x0000000000000000        0x0 0x1 /usr/local/popcorn/x86_64/lib/libc.a(pthread_key_create.o)
 .note.GNU-stack
                0x0000000000000000        0x0 0x1 /usr/local/popcorn/x86_64/lib/libc.a(pthread_migrate.o)
 .note.GNU-stack
                0x0000000000000000        0x0 0x1 /usr/local/popcorn/x86_64/lib/libc.a(pthread_self.o)
 .note.GNU-stack
                0x0000000000000000        0x0 0x1 /usr/local/popcorn/x86_64/lib/libc.a(pthread_setspecific.o)
 .note.GNU-stack
                0x0000000000000000        0x0 0x1 /usr/local/popcorn/x86_64/lib/libc.a(close.o)
 .note.GNU-stack
                0x0000000000000000        0x0 0x1 /usr/local/popcorn/x86_64/lib/libc.a(getpid.o)
 .note.GNU-stack
                0x0000000000000000        0x0 0x1 /usr/local/popcorn/x86_64/lib/libc.a(lseek.o)
 .note.GNU-stack
                0x0000000000000000        0x0 0x1 /usr/local/popcorn/x86_64/lib/libc.a(read.o)
 .note.GNU-stack
                0x0000000000000000        0x0 0x1 /usr/local/popcorn/x86_64/lib/libc.a(abort.o)
 .note.GNU-stack
                0x0000000000000000        0x0 0x1 /usr/local/popcorn/x86_64/lib/libc.a(intscan.o)
 .note.GNU-stack
                0x0000000000000000        0x0 0x1 /usr/local/popcorn/x86_64/lib/libc.a(shgetc.o)
 .note.GNU-stack
                0x0000000000000000        0x0 0x1 /usr/local/popcorn/x86_64/lib/libc.a(__brk.o)
 .note.GNU-stack
                0x0000000000000000        0x0 0x1 /usr/local/popcorn/x86_64/lib/libc.a(raise.o)
 .note.GNU-stack
                0x0000000000000000        0x0 0x1 /usr/local/popcorn/x86_64/lib/libc.a(__fdopen.o)
 .note.GNU-stack
                0x0000000000000000        0x0 0x1 /usr/local/popcorn/x86_64/lib/libc.a(__fmodeflags.o)
 .note.GNU-stack
                0x0000000000000000        0x0 0x1 /usr/local/popcorn/x86_64/lib/libc.a(__stdio_read.o)
 .note.GNU-stack
                0x0000000000000000        0x0 0x1 /usr/local/popcorn/x86_64/lib/libc.a(__string_read.o)
 .note.GNU-stack
                0x0000000000000000        0x0 0x1 /usr/local/popcorn/x86_64/lib/libc.a(__uflow.o)
 .note.GNU-stack
                0x0000000000000000        0x0 0x1 /usr/local/popcorn/x86_64/lib/libc.a(getdelim.o)
 .note.GNU-stack
                0x0000000000000000        0x0 0x1 /usr/local/popcorn/x86_64/lib/libc.a(vfscanf.o)
 .note.GNU-stack
                0x0000000000000000        0x0 0x1 /usr/local/popcorn/x86_64/lib/libc.a(floatscan.o)
 .note.GNU-stack
                0x0000000000000000        0x0 0x1 /usr/local/popcorn/x86_64/lib/libc.a(copysignl.o)
 .note.GNU-stack
                0x0000000000000000        0x0 0x1 /usr/local/popcorn/x86_64/lib/libc.a(fabs.o)
 .note.GNU-stack
                0x0000000000000000        0x0 0x1 /usr/local/popcorn/x86_64/lib/libc.a(fmodl.o)
 .note.GNU-stack
                0x0000000000000000        0x0 0x1 /usr/local/popcorn/x86_64/lib/libc.a(scalbn.o)
 .note.GNU-stack
                0x0000000000000000        0x0 0x1 /usr/local/popcorn/x86_64/lib/libc.a(scalbnl.o)
 .note.GNU-stack
                0x0000000000000000        0x0 0x1 /usr/local/popcorn/x86_64/lib/libc.a(mbrtowc.o)
 .note.GNU-stack
                0x0000000000000000        0x0 0x1 /usr/local/popcorn/x86_64/lib/libc.a(mbsinit.o)
 .note.GNU-stack
                0x0000000000000000        0x0 0x1 /usr/local/popcorn/x86_64/lib/libc.a(block.o)
 .note.GNU-stack
                0x0000000000000000        0x0 0x1 /usr/local/popcorn/x86_64/lib/libc.a(__toread.o)
 .note.GNU-stack
                0x0000000000000000        0x0 0x1 /usr/local/popcorn/x86_64/lib/libc.a(internal.o)

Memory map

 ** file header
                0x0000000000400000       0x40
 ** segment headers
                0x0000000000400040      0x118

.note.gnu.build-id
                0x0000000000400158       0x24
 ** note header
                0x0000000000400158       0x10
 ** zero fill   0x0000000000400168       0x14

.text           0x0000000000400180    0x1c58c
 .text.unlikely._elf_check_type.part.0
                0x0000000000400180        0x0 0x1 /usr/local/popcorn/x86_64/lib/libelf.a(begin.o)
 .text.unlikely.elf_begin
                0x0000000000400180        0x0 0x1 /usr/local/popcorn/x86_64/lib/libelf.a(begin.o)
 .text.unlikely.elf_memory
                0x0000000000400180        0x0 0x1 /usr/local/popcorn/x86_64/lib/libelf.a(begin.o)
 .text.unlikely.gelf_getclass
                0x0000000000400180        0x0 0x1 /usr/local/popcorn/x86_64/lib/libelf.a(begin.o)
 .text.unlikely.elf_end
                0x0000000000400180        0x0 0x1 /usr/local/popcorn/x86_64/lib/libelf.a(end.o)
 .text.unlikely.elf_getdata
                0x0000000000400180        0x0 0x1 /usr/local/popcorn/x86_64/lib/libelf.a(getdata.o)
 .text.unlikely.elf_getident
                0x0000000000400180        0x0 0x1 /usr/local/popcorn/x86_64/lib/libelf.a(getident.o)
 .text.unlikely.elf_nextscn
                0x0000000000400180        0x0 0x1 /usr/local/popcorn/x86_64/lib/libelf.a(nextscn.o)
 .text.unlikely.elf_strptr
                0x0000000000400180        0x0 0x1 /usr/local/popcorn/x86_64/lib/libelf.a(strptr.o)
 .text.unlikely.elf_version
                0x0000000000400180        0x0 0x1 /usr/local/popcorn/x86_64/lib/libelf.a(version.o)
 .text.unlikely._elf_getehdr
                0x0000000000400180        0x0 0x1 /usr/local/popcorn/x86_64/lib/libelf.a(32.getehdr.o)
 .text.unlikely.elf32_getehdr
                0x0000000000400180        0x0 0x1 /usr/local/popcorn/x86_64/lib/libelf.a(32.getehdr.o)
 .text.unlikely.elf64_getehdr
                0x0000000000400180        0x0 0x1 /usr/local/popcorn/x86_64/lib/libelf.a(32.getehdr.o)
 .text.unlikely.half_32L__tom
                0x0000000000400180        0x0 0x1 /usr/local/popcorn/x86_64/lib/libelf.a(32.xlatetof.o)
 .text.unlikely.half_32L__tof
                0x0000000000400180        0x0 0x1 /usr/local/popcorn/x86_64/lib/libelf.a(32.xlatetof.o)
 .text.unlikely.half_32M__tom
                0x0000000000400180        0x0 0x1 /usr/local/popcorn/x86_64/lib/libelf.a(32.xlatetof.o)
 .text.unlikely.half_32M__tof
                0x0000000000400180        0x0 0x1 /usr/local/popcorn/x86_64/lib/libelf.a(32.xlatetof.o)
 .text.unlikely.sword_32L__tom
                0x0000000000400180        0x0 0x1 /usr/local/popcorn/x86_64/lib/libelf.a(32.xlatetof.o)
 .text.unlikely.sword_32L__tof
                0x0000000000400180        0x0 0x1 /usr/local/popcorn/x86_64/lib/libelf.a(32.xlatetof.o)
 .text.unlikely.sword_32M__tom
                0x0000000000400180        0x0 0x1 /usr/local/popcorn/x86_64/lib/libelf.a(32.xlatetof.o)
 .text.unlikely.sword_32M__tof
                0x0000000000400180        0x0 0x1 /usr/local/popcorn/x86_64/lib/libelf.a(32.xlatetof.o)
 .text.unlikely.word_32L__tom
                0x0000000000400180        0x0 0x1 /usr/local/popcorn/x86_64/lib/libelf.a(32.xlatetof.o)
 .text.unlikely.word_32L__tof
                0x0000000000400180        0x0 0x1 /usr/local/popcorn/x86_64/lib/libelf.a(32.xlatetof.o)
 .text.unlikely.word_32M__tom
                0x0000000000400180        0x0 0x1 /usr/local/popcorn/x86_64/lib/libelf.a(32.xlatetof.o)
 .text.unlikely.word_32M__tof
                0x0000000000400180        0x0 0x1 /usr/local/popcorn/x86_64/lib/libelf.a(32.xlatetof.o)
 .text.unlikely.dyn_32L11_tom
                0x0000000000400180        0x0 0x1 /usr/local/popcorn/x86_64/lib/libelf.a(32.xlatetof.o)
 .text.unlikely.dyn_32L11_tof
                0x0000000000400180        0x0 0x1 /usr/local/popcorn/x86_64/lib/libelf.a(32.xlatetof.o)
 .text.unlikely.dyn_32M11_tom
                0x0000000000400180        0x0 0x1 /usr/local/popcorn/x86_64/lib/libelf.a(32.xlatetof.o)
 .text.unlikely.dyn_32M11_tof
                0x0000000000400180        0x0 0x1 /usr/local/popcorn/x86_64/lib/libelf.a(32.xlatetof.o)
 .text.unlikely.phdr_32L11_tom
                0x0000000000400180        0x0 0x1 /usr/local/popcorn/x86_64/lib/libelf.a(32.xlatetof.o)
 .text.unlikely.phdr_32L11_tof
                0x0000000000400180        0x0 0x1 /usr/local/popcorn/x86_64/lib/libelf.a(32.xlatetof.o)
 .text.unlikely.phdr_32M11_tom
                0x0000000000400180        0x0 0x1 /usr/local/popcorn/x86_64/lib/libelf.a(32.xlatetof.o)
 .text.unlikely.phdr_32M11_tof
                0x0000000000400180        0x0 0x1 /usr/local/popcorn/x86_64/lib/libelf.a(32.xlatetof.o)
 .text.unlikely.rela_32L11_tom
                0x0000000000400180        0x0 0x1 /usr/local/popcorn/x86_64/lib/libelf.a(32.xlatetof.o)
 .text.unlikely.rela_32L11_tof
                0x0000000000400180        0x0 0x1 /usr/local/popcorn/x86_64/lib/libelf.a(32.xlatetof.o)
 .text.unlikely.rela_32M11_tom
                0x0000000000400180        0x0 0x1 /usr/local/popcorn/x86_64/lib/libelf.a(32.xlatetof.o)
 .text.unlikely.rela_32M11_tof
                0x0000000000400180        0x0 0x1 /usr/local/popcorn/x86_64/lib/libelf.a(32.xlatetof.o)
 .text.unlikely.rel_32L11_tom
                0x0000000000400180        0x0 0x1 /usr/local/popcorn/x86_64/lib/libelf.a(32.xlatetof.o)
 .text.unlikely.rel_32L11_tof
                0x0000000000400180        0x0 0x1 /usr/local/popcorn/x86_64/lib/libelf.a(32.xlatetof.o)
 .text.unlikely.rel_32M11_tom
                0x0000000000400180        0x0 0x1 /usr/local/popcorn/x86_64/lib/libelf.a(32.xlatetof.o)
 .text.unlikely.rel_32M11_tof
                0x0000000000400180        0x0 0x1 /usr/local/popcorn/x86_64/lib/libelf.a(32.xlatetof.o)
 .text.unlikely.shdr_32L11_tom
                0x0000000000400180        0x0 0x1 /usr/local/popcorn/x86_64/lib/libelf.a(32.xlatetof.o)
 .text.unlikely.shdr_32L11_tof
                0x0000000000400180        0x0 0x1 /usr/local/popcorn/x86_64/lib/libelf.a(32.xlatetof.o)
 .text.unlikely.shdr_32M11_tom
                0x0000000000400180        0x0 0x1 /usr/local/popcorn/x86_64/lib/libelf.a(32.xlatetof.o)
 .text.unlikely.shdr_32M11_tof
                0x0000000000400180        0x0 0x1 /usr/local/popcorn/x86_64/lib/libelf.a(32.xlatetof.o)
 .text.unlikely.sym_32L11_tom
                0x0000000000400180        0x0 0x1 /usr/local/popcorn/x86_64/lib/libelf.a(32.xlatetof.o)
 .text.unlikely.sym_32L11_tof
                0x0000000000400180        0x0 0x1 /usr/local/popcorn/x86_64/lib/libelf.a(32.xlatetof.o)
 .text.unlikely.sym_32M11_tom
                0x0000000000400180        0x0 0x1 /usr/local/popcorn/x86_64/lib/libelf.a(32.xlatetof.o)
 .text.unlikely.sym_32M11_tof
                0x0000000000400180        0x0 0x1 /usr/local/popcorn/x86_64/lib/libelf.a(32.xlatetof.o)
 .text.unlikely.ehdr_32M11_tom
                0x0000000000400180        0x0 0x1 /usr/local/popcorn/x86_64/lib/libelf.a(32.xlatetof.o)
 .text.unlikely.byte_copy
                0x0000000000400180        0x0 0x1 /usr/local/popcorn/x86_64/lib/libelf.a(32.xlatetof.o)
 .text.unlikely.ehdr_32M11_tof
                0x0000000000400180        0x0 0x1 /usr/local/popcorn/x86_64/lib/libelf.a(32.xlatetof.o)
 .text.unlikely.ehdr_32L11_tom
                0x0000000000400180        0x0 0x1 /usr/local/popcorn/x86_64/lib/libelf.a(32.xlatetof.o)
 .text.unlikely.ehdr_32L11_tof
                0x0000000000400180        0x0 0x1 /usr/local/popcorn/x86_64/lib/libelf.a(32.xlatetof.o)
 .text.unlikely.addr_32L__tom
                0x0000000000400180        0x0 0x1 /usr/local/popcorn/x86_64/lib/libelf.a(32.xlatetof.o)
 .text.unlikely.addr_32L__tof
                0x0000000000400180        0x0 0x1 /usr/local/popcorn/x86_64/lib/libelf.a(32.xlatetof.o)
 .text.unlikely.addr_32M__tom
                0x0000000000400180        0x0 0x1 /usr/local/popcorn/x86_64/lib/libelf.a(32.xlatetof.o)
 .text.unlikely.addr_32M__tof
                0x0000000000400180        0x0 0x1 /usr/local/popcorn/x86_64/lib/libelf.a(32.xlatetof.o)
 .text.unlikely.off_32L__tom
                0x0000000000400180        0x0 0x1 /usr/local/popcorn/x86_64/lib/libelf.a(32.xlatetof.o)
 .text.unlikely.off_32L__tof
                0x0000000000400180        0x0 0x1 /usr/local/popcorn/x86_64/lib/libelf.a(32.xlatetof.o)
 .text.unlikely.off_32M__tom
                0x0000000000400180        0x0 0x1 /usr/local/popcorn/x86_64/lib/libelf.a(32.xlatetof.o)
 .text.unlikely.off_32M__tof
                0x0000000000400180        0x0 0x1 /usr/local/popcorn/x86_64/lib/libelf.a(32.xlatetof.o)
 .text.unlikely._elf32_xltsize
                0x0000000000400180        0x0 0x1 /usr/local/popcorn/x86_64/lib/libelf.a(32.xlatetof.o)
 .text.unlikely.elf32_xlatetom
                0x0000000000400180        0x0 0x1 /usr/local/popcorn/x86_64/lib/libelf.a(32.xlatetof.o)
 .text.unlikely.elf32_xlatetof
                0x0000000000400180        0x0 0x1 /usr/local/popcorn/x86_64/lib/libelf.a(32.xlatetof.o)
 .text.unlikely._elf_scn_type
                0x0000000000400180        0x0 0x1 /usr/local/popcorn/x86_64/lib/libelf.a(cook.o)
 .text.unlikely._elf_xlatetom
                0x0000000000400180        0x0 0x1 /usr/local/popcorn/x86_64/lib/libelf.a(cook.o)
 .text.unlikely._elf_cook
                0x0000000000400180        0x0 0x1 /usr/local/popcorn/x86_64/lib/libelf.a(cook.o)
 .text.unlikely._elf_read
                0x0000000000400180        0x0 0x1 /usr/local/popcorn/x86_64/lib/libelf.a(input.o)
 .text.unlikely._elf_mmap
                0x0000000000400180        0x0 0x1 /usr/local/popcorn/x86_64/lib/libelf.a(input.o)
 .text.unlikely.elf_getphdrnum
                0x0000000000400180        0x0 0x1 /usr/local/popcorn/x86_64/lib/libelf.a(x.elfext.o)
 .text.unlikely.elf_getshdrnum
                0x0000000000400180        0x0 0x1 /usr/local/popcorn/x86_64/lib/libelf.a(x.elfext.o)
 .text.unlikely.elf_getshdrstrndx
                0x0000000000400180        0x0 0x1 /usr/local/popcorn/x86_64/lib/libelf.a(x.elfext.o)
 .text.unlikely.elf_getphnum
                0x0000000000400180        0x0 0x1 /usr/local/popcorn/x86_64/lib/libelf.a(x.elfext.o)
 .text.unlikely.elf_getshnum
                0x0000000000400180        0x0 0x1 /usr/local/popcorn/x86_64/lib/libelf.a(x.elfext.o)
 .text.unlikely.elf_getshstrndx
                0x0000000000400180        0x0 0x1 /usr/local/popcorn/x86_64/lib/libelf.a(x.elfext.o)
 .text.unlikely.elfx_update_shstrndx
                0x0000000000400180        0x0 0x1 /usr/local/popcorn/x86_64/lib/libelf.a(x.elfext.o)
 .text.unlikely.half_64L__tom
                0x0000000000400180        0x0 0x1 /usr/local/popcorn/x86_64/lib/libelf.a(64.xlatetof.o)
 .text.unlikely.half_64L__tof
                0x0000000000400180        0x0 0x1 /usr/local/popcorn/x86_64/lib/libelf.a(64.xlatetof.o)
 .text.unlikely.half_64M__tom
                0x0000000000400180        0x0 0x1 /usr/local/popcorn/x86_64/lib/libelf.a(64.xlatetof.o)
 .text.unlikely.half_64M__tof
                0x0000000000400180        0x0 0x1 /usr/local/popcorn/x86_64/lib/libelf.a(64.xlatetof.o)
 .text.unlikely.sword_64L__tom
                0x0000000000400180        0x0 0x1 /usr/local/popcorn/x86_64/lib/libelf.a(64.xlatetof.o)
 .text.unlikely.sword_64L__tof
                0x0000000000400180        0x0 0x1 /usr/local/popcorn/x86_64/lib/libelf.a(64.xlatetof.o)
 .text.unlikely.sword_64M__tom
                0x0000000000400180        0x0 0x1 /usr/local/popcorn/x86_64/lib/libelf.a(64.xlatetof.o)
 .text.unlikely.sword_64M__tof
                0x0000000000400180        0x0 0x1 /usr/local/popcorn/x86_64/lib/libelf.a(64.xlatetof.o)
 .text.unlikely.word_64L__tom
                0x0000000000400180        0x0 0x1 /usr/local/popcorn/x86_64/lib/libelf.a(64.xlatetof.o)
 .text.unlikely.word_64L__tof
                0x0000000000400180        0x0 0x1 /usr/local/popcorn/x86_64/lib/libelf.a(64.xlatetof.o)
 .text.unlikely.word_64M__tom
                0x0000000000400180        0x0 0x1 /usr/local/popcorn/x86_64/lib/libelf.a(64.xlatetof.o)
 .text.unlikely.word_64M__tof
                0x0000000000400180        0x0 0x1 /usr/local/popcorn/x86_64/lib/libelf.a(64.xlatetof.o)
 .text.unlikely.elf64_xlate
                0x0000000000400180        0x0 0x1 /usr/local/popcorn/x86_64/lib/libelf.a(64.xlatetof.o)
 .text.unlikely.xword_64M__tof
                0x0000000000400180        0x0 0x1 /usr/local/popcorn/x86_64/lib/libelf.a(64.xlatetof.o)
 .text.unlikely.sym_64M11_tof
                0x0000000000400180        0x0 0x1 /usr/local/popcorn/x86_64/lib/libelf.a(64.xlatetof.o)
 .text.unlikely.shdr_64M11_tof
                0x0000000000400180        0x0 0x1 /usr/local/popcorn/x86_64/lib/libelf.a(64.xlatetof.o)
 .text.unlikely.rel_64M11_tof
                0x0000000000400180        0x0 0x1 /usr/local/popcorn/x86_64/lib/libelf.a(64.xlatetof.o)
 .text.unlikely.phdr_64M11_tof
                0x0000000000400180        0x0 0x1 /usr/local/popcorn/x86_64/lib/libelf.a(64.xlatetof.o)
 .text.unlikely.dyn_64M11_tof
                0x0000000000400180        0x0 0x1 /usr/local/popcorn/x86_64/lib/libelf.a(64.xlatetof.o)
 .text.unlikely.xword_64M__tom
                0x0000000000400180        0x0 0x1 /usr/local/popcorn/x86_64/lib/libelf.a(64.xlatetof.o)
 .text.unlikely.sym_64M11_tom
                0x0000000000400180        0x0 0x1 /usr/local/popcorn/x86_64/lib/libelf.a(64.xlatetof.o)
 .text.unlikely.shdr_64M11_tom
                0x0000000000400180        0x0 0x1 /usr/local/popcorn/x86_64/lib/libelf.a(64.xlatetof.o)
 .text.unlikely.rel_64M11_tom
                0x0000000000400180        0x0 0x1 /usr/local/popcorn/x86_64/lib/libelf.a(64.xlatetof.o)
 .text.unlikely.phdr_64M11_tom
                0x0000000000400180        0x0 0x1 /usr/local/popcorn/x86_64/lib/libelf.a(64.xlatetof.o)
 .text.unlikely.dyn_64M11_tom
                0x0000000000400180        0x0 0x1 /usr/local/popcorn/x86_64/lib/libelf.a(64.xlatetof.o)
 .text.unlikely.sxword_64M__tof
                0x0000000000400180        0x0 0x1 /usr/local/popcorn/x86_64/lib/libelf.a(64.xlatetof.o)
 .text.unlikely.rela_64M11_tof
                0x0000000000400180        0x0 0x1 /usr/local/popcorn/x86_64/lib/libelf.a(64.xlatetof.o)
 .text.unlikely.sxword_64M__tom
                0x0000000000400180        0x0 0x1 /usr/local/popcorn/x86_64/lib/libelf.a(64.xlatetof.o)
 .text.unlikely.rela_64M11_tom
                0x0000000000400180        0x0 0x1 /usr/local/popcorn/x86_64/lib/libelf.a(64.xlatetof.o)
 .text.unlikely.xword_64L__tof
                0x0000000000400180        0x0 0x1 /usr/local/popcorn/x86_64/lib/libelf.a(64.xlatetof.o)
 .text.unlikely.sym_64L11_tof
                0x0000000000400180        0x0 0x1 /usr/local/popcorn/x86_64/lib/libelf.a(64.xlatetof.o)
 .text.unlikely.shdr_64L11_tof
                0x0000000000400180        0x0 0x1 /usr/local/popcorn/x86_64/lib/libelf.a(64.xlatetof.o)
 .text.unlikely.rel_64L11_tof
                0x0000000000400180        0x0 0x1 /usr/local/popcorn/x86_64/lib/libelf.a(64.xlatetof.o)
 .text.unlikely.phdr_64L11_tof
                0x0000000000400180        0x0 0x1 /usr/local/popcorn/x86_64/lib/libelf.a(64.xlatetof.o)
 .text.unlikely.dyn_64L11_tof
                0x0000000000400180        0x0 0x1 /usr/local/popcorn/x86_64/lib/libelf.a(64.xlatetof.o)
 .text.unlikely.xword_64L__tom
                0x0000000000400180        0x0 0x1 /usr/local/popcorn/x86_64/lib/libelf.a(64.xlatetof.o)
 .text.unlikely.sym_64L11_tom
                0x0000000000400180        0x0 0x1 /usr/local/popcorn/x86_64/lib/libelf.a(64.xlatetof.o)
 .text.unlikely.shdr_64L11_tom
                0x0000000000400180        0x0 0x1 /usr/local/popcorn/x86_64/lib/libelf.a(64.xlatetof.o)
 .text.unlikely.rel_64L11_tom
                0x0000000000400180        0x0 0x1 /usr/local/popcorn/x86_64/lib/libelf.a(64.xlatetof.o)
 .text.unlikely.phdr_64L11_tom
                0x0000000000400180        0x0 0x1 /usr/local/popcorn/x86_64/lib/libelf.a(64.xlatetof.o)
 .text.unlikely.dyn_64L11_tom
                0x0000000000400180        0x0 0x1 /usr/local/popcorn/x86_64/lib/libelf.a(64.xlatetof.o)
 .text.unlikely.sxword_64L__tof
                0x0000000000400180        0x0 0x1 /usr/local/popcorn/x86_64/lib/libelf.a(64.xlatetof.o)
 .text.unlikely.rela_64L11_tof
                0x0000000000400180        0x0 0x1 /usr/local/popcorn/x86_64/lib/libelf.a(64.xlatetof.o)
 .text.unlikely.sxword_64L__tom
                0x0000000000400180        0x0 0x1 /usr/local/popcorn/x86_64/lib/libelf.a(64.xlatetof.o)
 .text.unlikely.rela_64L11_tom
                0x0000000000400180        0x0 0x1 /usr/local/popcorn/x86_64/lib/libelf.a(64.xlatetof.o)
 .text.unlikely.ehdr_64M11_tom
                0x0000000000400180        0x0 0x1 /usr/local/popcorn/x86_64/lib/libelf.a(64.xlatetof.o)
 .text.unlikely.byte_copy
                0x0000000000400180        0x0 0x1 /usr/local/popcorn/x86_64/lib/libelf.a(64.xlatetof.o)
 .text.unlikely.ehdr_64M11_tof
                0x0000000000400180        0x0 0x1 /usr/local/popcorn/x86_64/lib/libelf.a(64.xlatetof.o)
 .text.unlikely.ehdr_64L11_tom
                0x0000000000400180        0x0 0x1 /usr/local/popcorn/x86_64/lib/libelf.a(64.xlatetof.o)
 .text.unlikely.ehdr_64L11_tof
                0x0000000000400180        0x0 0x1 /usr/local/popcorn/x86_64/lib/libelf.a(64.xlatetof.o)
 .text.unlikely.addr_64L__tom
                0x0000000000400180        0x0 0x1 /usr/local/popcorn/x86_64/lib/libelf.a(64.xlatetof.o)
 .text.unlikely.addr_64L__tof
                0x0000000000400180        0x0 0x1 /usr/local/popcorn/x86_64/lib/libelf.a(64.xlatetof.o)
 .text.unlikely.addr_64M__tom
                0x0000000000400180        0x0 0x1 /usr/local/popcorn/x86_64/lib/libelf.a(64.xlatetof.o)
 .text.unlikely.addr_64M__tof
                0x0000000000400180        0x0 0x1 /usr/local/popcorn/x86_64/lib/libelf.a(64.xlatetof.o)
 .text.unlikely.off_64L__tom
                0x0000000000400180        0x0 0x1 /usr/local/popcorn/x86_64/lib/libelf.a(64.xlatetof.o)
 .text.unlikely.off_64L__tof
                0x0000000000400180        0x0 0x1 /usr/local/popcorn/x86_64/lib/libelf.a(64.xlatetof.o)
 .text.unlikely.off_64M__tom
                0x0000000000400180        0x0 0x1 /usr/local/popcorn/x86_64/lib/libelf.a(64.xlatetof.o)
 .text.unlikely.off_64M__tof
                0x0000000000400180        0x0 0x1 /usr/local/popcorn/x86_64/lib/libelf.a(64.xlatetof.o)
 .text.unlikely._elf64_xltsize
                0x0000000000400180        0x0 0x1 /usr/local/popcorn/x86_64/lib/libelf.a(64.xlatetof.o)
 .text.unlikely.elf64_xlatetom
                0x0000000000400180        0x0 0x1 /usr/local/popcorn/x86_64/lib/libelf.a(64.xlatetof.o)
 .text.unlikely.elf64_xlatetof
                0x0000000000400180        0x0 0x1 /usr/local/popcorn/x86_64/lib/libelf.a(64.xlatetof.o)
 .text.unlikely.gelf_xlatetom
                0x0000000000400180        0x0 0x1 /usr/local/popcorn/x86_64/lib/libelf.a(64.xlatetof.o)
 .text.unlikely.gelf_xlatetof
                0x0000000000400180        0x0 0x1 /usr/local/popcorn/x86_64/lib/libelf.a(64.xlatetof.o)
 .text.unlikely.gelf_getshdr
                0x0000000000400180        0x0 0x1 /usr/local/popcorn/x86_64/lib/libelf.a(gelfshdr.o)
 .text.unlikely.gelf_update_shdr
                0x0000000000400180        0x0 0x1 /usr/local/popcorn/x86_64/lib/libelf.a(gelfshdr.o)
 .text.unlikely._elf_load_u64L
                0x0000000000400180        0x0 0x1 /usr/local/popcorn/x86_64/lib/libelf.a(swap64.o)
 .text.unlikely._elf_load_u64M
                0x0000000000400180        0x0 0x1 /usr/local/popcorn/x86_64/lib/libelf.a(swap64.o)
 .text.unlikely._elf_load_i64L
                0x0000000000400180        0x0 0x1 /usr/local/popcorn/x86_64/lib/libelf.a(swap64.o)
 .text.unlikely._elf_load_i64M
                0x0000000000400180        0x0 0x1 /usr/local/popcorn/x86_64/lib/libelf.a(swap64.o)
 .text.unlikely._elf_store_u64L
                0x0000000000400180        0x0 0x1 /usr/local/popcorn/x86_64/lib/libelf.a(swap64.o)
 .text.unlikely._elf_store_u64M
                0x0000000000400180        0x0 0x1 /usr/local/popcorn/x86_64/lib/libelf.a(swap64.o)
 .text.unlikely._elf_store_i64L
                0x0000000000400180        0x0 0x1 /usr/local/popcorn/x86_64/lib/libelf.a(swap64.o)
 .text.unlikely._elf_store_i64M
                0x0000000000400180        0x0 0x1 /usr/local/popcorn/x86_64/lib/libelf.a(swap64.o)
 .text.unlikely._elf_verdef_32L11_tof
                0x0000000000400180        0x0 0x1 /usr/local/popcorn/x86_64/lib/libelf.a(verdef_32_tof.o)
 .text.unlikely._elf_verdef_32M11_tof
                0x0000000000400180        0x0 0x1 /usr/local/popcorn/x86_64/lib/libelf.a(verdef_32_tof.o)
 .text.unlikely._elf_verneed_32L11_tof
                0x0000000000400180        0x0 0x1 /usr/local/popcorn/x86_64/lib/libelf.a(verdef_32_tof.o)
 .text.unlikely._elf_verneed_32M11_tof
                0x0000000000400180        0x0 0x1 /usr/local/popcorn/x86_64/lib/libelf.a(verdef_32_tof.o)
 .text.unlikely._elf_verdef_32L11_tom
                0x0000000000400180        0x0 0x1 /usr/local/popcorn/x86_64/lib/libelf.a(verdef_32_tom.o)
 .text.unlikely._elf_verdef_32M11_tom
                0x0000000000400180        0x0 0x1 /usr/local/popcorn/x86_64/lib/libelf.a(verdef_32_tom.o)
 .text.unlikely._elf_verneed_32L11_tom
                0x0000000000400180        0x0 0x1 /usr/local/popcorn/x86_64/lib/libelf.a(verdef_32_tom.o)
 .text.unlikely._elf_verneed_32M11_tom
                0x0000000000400180        0x0 0x1 /usr/local/popcorn/x86_64/lib/libelf.a(verdef_32_tom.o)
 .text.unlikely._elf_verdef_64L11_tof
                0x0000000000400180        0x0 0x1 /usr/local/popcorn/x86_64/lib/libelf.a(verdef_64_tof.o)
 .text.unlikely._elf_verdef_64M11_tof
                0x0000000000400180        0x0 0x1 /usr/local/popcorn/x86_64/lib/libelf.a(verdef_64_tof.o)
 .text.unlikely._elf_verneed_64L11_tof
                0x0000000000400180        0x0 0x1 /usr/local/popcorn/x86_64/lib/libelf.a(verdef_64_tof.o)
 .text.unlikely._elf_verneed_64M11_tof
                0x0000000000400180        0x0 0x1 /usr/local/popcorn/x86_64/lib/libelf.a(verdef_64_tof.o)
 .text.unlikely._elf_verdef_64L11_tom
                0x0000000000400180        0x0 0x1 /usr/local/popcorn/x86_64/lib/libelf.a(verdef_64_tom.o)
 .text.unlikely._elf_verdef_64M11_tom
                0x0000000000400180        0x0 0x1 /usr/local/popcorn/x86_64/lib/libelf.a(verdef_64_tom.o)
 .text.unlikely._elf_verneed_64L11_tom
                0x0000000000400180        0x0 0x1 /usr/local/popcorn/x86_64/lib/libelf.a(verdef_64_tom.o)
 .text.unlikely._elf_verneed_64M11_tom
                0x0000000000400180        0x0 0x1 /usr/local/popcorn/x86_64/lib/libelf.a(verdef_64_tom.o)
 .text.unlikely.elf_getscn
                0x0000000000400180        0x0 0x1 /usr/local/popcorn/x86_64/lib/libelf.a(getscn.o)
 .text.unlikely._elf_update_shnum
                0x0000000000400180        0x0 0x1 /usr/local/popcorn/x86_64/lib/libelf.a(newscn.o)
 .text.unlikely._elf_first_scn
                0x0000000000400180        0x0 0x1 /usr/local/popcorn/x86_64/lib/libelf.a(newscn.o)
 .text.unlikely.elf_newscn
                0x0000000000400180        0x0 0x1 /usr/local/popcorn/x86_64/lib/libelf.a(newscn.o)
 .text.unlikely.elf32_fsize
                0x0000000000400180        0x0 0x1 /usr/local/popcorn/x86_64/lib/libelf.a(32.fsize.o)
 .text.unlikely.elf64_fsize
                0x0000000000400180        0x0 0x1 /usr/local/popcorn/x86_64/lib/libelf.a(32.fsize.o)
 .text.unlikely.gelf_fsize
                0x0000000000400180        0x0 0x1 /usr/local/popcorn/x86_64/lib/libelf.a(32.fsize.o)
 .text.unlikely.gelf_msize
                0x0000000000400180        0x0 0x1 /usr/local/popcorn/x86_64/lib/libelf.a(32.fsize.o)
 .text.exit     0x0000000000400180       0x46 0x1 /usr/local/popcorn/x86_64/lib/libc.a(exit.o)
                0x0000000000400180                exit
 .text          0x00000000004001c8        0x0 0x4 pierre_x86_64.o
 .text.f        0x00000000004001d0       0x47 0x10 pierre_x86_64.o
                0x00000000004001d0                f
 ** fill        0x0000000000400217        0x9
 .text.main     0x0000000000400220       0x66 0x10 pierre_x86_64.o
                0x0000000000400220                main
 ** fill        0x0000000000400286        0x2
 .text          0x0000000000400288        0x0 0x4 test_x86_64.o
 ** fill        0x0000000000400288        0x8
 .text.my_function
                0x0000000000400290       0x4e 0x10 test_x86_64.o
                0x0000000000400290                my_function
 ** fill        0x00000000004002de        0x2
 .text          0x00000000004002e0       0x2a 0x4 /usr/local/popcorn/x86_64/lib/crt1.o
                0x00000000004002e0                _start
 ** fill        0x000000000040030a        0x2
 .text          0x000000000040030c        0x0 0x4 /usr/local/popcorn/x86_64/lib/libc.a(__libc_start_main.o)
 .text.dummy1   0x000000000040030c        0x1 0x1 /usr/local/popcorn/x86_64/lib/libc.a(__libc_start_main.o)
 .text.__libc_start_main
                0x000000000040030d      0x1b1 0x1 /usr/local/popcorn/x86_64/lib/libc.a(__libc_start_main.o)
                0x000000000040030d                __libc_start_main
 .text.dummy    0x00000000004004be        0x1 0x1 /usr/local/popcorn/x86_64/lib/libc.a(__libc_start_main.o)
                0x00000000004004be                _init
 ** fill        0x00000000004004bf        0x1
 .text          0x00000000004004c0        0x0 0x4 /usr/local/popcorn/x86_64/lib/libc.a(exit.o)
 .text.dummy    0x00000000004004c0        0x1 0x1 /usr/local/popcorn/x86_64/lib/libc.a(exit.o)
                0x00000000004004c0                __funcs_on_exit
                0x00000000004004c0                _fini
 ** fill        0x00000000004004c1        0x1
 .text          0x00000000004004c4        0x0 0x4 /usr/local/popcorn/x86_64/lib/libc.a(libc.o)
 .text          0x00000000004004c4        0x0 0x4 /usr/local/popcorn/x86_64/lib/libc.a(printf.o)
 .text.printf   0x00000000004004c4       0xa9 0x1 /usr/local/popcorn/x86_64/lib/libc.a(printf.o)
                0x00000000004004c4                printf
 ** fill        0x000000000040056d        0x3
 .text          0x0000000000400570        0x0 0x4 /usr/local/popcorn/x86_64/lib/libc.a(stdout.o)
 .text          0x0000000000400570        0x0 0x4 /usr/local/popcorn/x86_64/lib/libc.a(vfprintf.o)
 .text.vfprintf
                0x0000000000400570      0x188 0x1 /usr/local/popcorn/x86_64/lib/libc.a(vfprintf.o)
                0x0000000000400570                vfprintf
 .text.printf_core
                0x00000000004006f8     0x1c86 0x1 /usr/local/popcorn/x86_64/lib/libc.a(vfprintf.o)
 .text.pop_arg  0x000000000040237e      0x1bc 0x1 /usr/local/popcorn/x86_64/lib/libc.a(vfprintf.o)
 .text.pad      0x000000000040253a       0xc5 0x1 /usr/local/popcorn/x86_64/lib/libc.a(vfprintf.o)
 ** fill        0x00000000004025ff        0x1
 .text          0x0000000000402600        0x0 0x4 /usr/local/popcorn/x86_64/lib/libc.a(memchr.o)
 ** fill        0x0000000000402600        0xc
 .text.memchr   0x0000000000402610       0xe2 0x10 /usr/local/popcorn/x86_64/lib/libc.a(memchr.o)
                0x0000000000402610                memchr
 ** fill        0x00000000004026f2        0x2
 .text          0x00000000004026f4        0x0 0x4 /usr/local/popcorn/x86_64/lib/libc.a(memset.o)
 .text.memset   0x00000000004026f4       0xc4 0x1 /usr/local/popcorn/x86_64/lib/libc.a(memset.o)
                0x00000000004026f4                memset
 .text          0x00000000004027b8        0x0 0x4 /usr/local/popcorn/x86_64/lib/libc.a(__environ.o)
 .text          0x00000000004027b8        0x0 0x4 /usr/local/popcorn/x86_64/lib/libc.a(__init_tls.o)
 .text.__copy_tls
                0x00000000004027b8       0x68 0x1 /usr/local/popcorn/x86_64/lib/libc.a(__init_tls.o)
                0x00000000004027b8                __copy_tls
 .text.__init_tls
                0x0000000000402820      0x152 0x1 /usr/local/popcorn/x86_64/lib/libc.a(__init_tls.o)
                0x0000000000402820                __init_tls
 ** fill        0x0000000000402972        0x2
 .text          0x0000000000402974        0x0 0x4 /usr/local/popcorn/x86_64/lib/libc.a(__errno_location.o)
 .text.__errno_location
                0x0000000000402974        0xe 0x1 /usr/local/popcorn/x86_64/lib/libc.a(__errno_location.o)
                0x0000000000402974                __errno_location
 ** fill        0x0000000000402982        0x2
 .text          0x0000000000402984        0x0 0x4 /usr/local/popcorn/x86_64/lib/libc.a(strerror.o)
 .text.__strerror_l
                0x0000000000402984       0x49 0x1 /usr/local/popcorn/x86_64/lib/libc.a(strerror.o)
                0x0000000000402984                __strerror_l
                0x0000000000402984                strerror_l
 .text.strerror
                0x00000000004029cd       0x15 0x1 /usr/local/popcorn/x86_64/lib/libc.a(strerror.o)
                0x00000000004029cd                strerror
 ** fill        0x00000000004029e2        0x2
 .text          0x00000000004029e4        0x0 0x4 /usr/local/popcorn/x86_64/lib/libc.a(_Exit.o)
 .text._Exit    0x00000000004029e4       0x13 0x1 /usr/local/popcorn/x86_64/lib/libc.a(_Exit.o)
                0x00000000004029e4                _Exit
 ** fill        0x00000000004029f7        0x1
 .text          0x00000000004029f8        0x0 0x4 /usr/local/popcorn/x86_64/lib/libc.a(__lctrans.o)
 .text.dummy    0x00000000004029f8        0x4 0x1 /usr/local/popcorn/x86_64/lib/libc.a(__lctrans.o)
                0x00000000004029f8                __lctrans_impl
 .text.__lctrans
                0x00000000004029fc        0x5 0x1 /usr/local/popcorn/x86_64/lib/libc.a(__lctrans.o)
                0x00000000004029fc                __lctrans
 .text.__lctrans_cur
                0x0000000000402a01       0x19 0x1 /usr/local/popcorn/x86_64/lib/libc.a(__lctrans.o)
                0x0000000000402a01                __lctrans_cur
 ** fill        0x0000000000402a1a        0x2
 .text          0x0000000000402a1c        0x0 0x4 /usr/local/popcorn/x86_64/lib/libc.a(__fpclassifyl.o)
 .text.__fpclassifyl
                0x0000000000402a1c       0x4e 0x1 /usr/local/popcorn/x86_64/lib/libc.a(__fpclassifyl.o)
                0x0000000000402a1c                __fpclassifyl
 ** fill        0x0000000000402a6a        0x2
 .text          0x0000000000402a6c        0x0 0x4 /usr/local/popcorn/x86_64/lib/libc.a(__signbitl.o)
 .text.__signbitl
                0x0000000000402a6c        0xa 0x1 /usr/local/popcorn/x86_64/lib/libc.a(__signbitl.o)
                0x0000000000402a6c                __signbitl
 ** fill        0x0000000000402a76        0x2
 .text          0x0000000000402a78        0x0 0x4 /usr/local/popcorn/x86_64/lib/libc.a(frexpl.o)
 .text.frexpl   0x0000000000402a78       0x80 0x1 /usr/local/popcorn/x86_64/lib/libc.a(frexpl.o)
                0x0000000000402a78                frexpl
 .text          0x0000000000402af8        0x0 0x4 /usr/local/popcorn/x86_64/lib/libc.a(wctomb.o)
 .text.wctomb   0x0000000000402af8       0x11 0x1 /usr/local/popcorn/x86_64/lib/libc.a(wctomb.o)
                0x0000000000402af8                wctomb
 ** fill        0x0000000000402b09        0x3
 .text          0x0000000000402b0c        0x0 0x4 /usr/local/popcorn/x86_64/lib/libc.a(__lockfile.o)
 .text.__lockfile
                0x0000000000402b0c       0x72 0x1 /usr/local/popcorn/x86_64/lib/libc.a(__lockfile.o)
                0x0000000000402b0c                __lockfile
 .text.__unlockfile
                0x0000000000402b7e        0xf 0x1 /usr/local/popcorn/x86_64/lib/libc.a(__lockfile.o)
                0x0000000000402b7e                __unlockfile
 ** fill        0x0000000000402b8d        0x3
 .text          0x0000000000402b90        0x0 0x4 /usr/local/popcorn/x86_64/lib/libc.a(__stdio_close.o)
 .text.dummy    0x0000000000402b90        0x3 0x1 /usr/local/popcorn/x86_64/lib/libc.a(__stdio_close.o)
                0x0000000000402b90                __aio_close
 .text.__stdio_close
                0x0000000000402b93       0x1c 0x1 /usr/local/popcorn/x86_64/lib/libc.a(__stdio_close.o)
                0x0000000000402b93                __stdio_close
 ** fill        0x0000000000402baf        0x1
 .text          0x0000000000402bb0        0x0 0x4 /usr/local/popcorn/x86_64/lib/libc.a(__stdio_seek.o)
 .text.__stdio_seek
                0x0000000000402bb0       0x16 0x1 /usr/local/popcorn/x86_64/lib/libc.a(__stdio_seek.o)
                0x0000000000402bb0                __stdio_seek
 ** fill        0x0000000000402bc6        0x2
 .text          0x0000000000402bc8        0x0 0x4 /usr/local/popcorn/x86_64/lib/libc.a(__stdout_write.o)
 .text.__stdout_write
                0x0000000000402bc8       0x49 0x1 /usr/local/popcorn/x86_64/lib/libc.a(__stdout_write.o)
                0x0000000000402bc8                __stdout_write
 ** fill        0x0000000000402c11        0x3
 .text          0x0000000000402c14        0x0 0x4 /usr/local/popcorn/x86_64/lib/libc.a(fwrite.o)
 .text.__fwritex
                0x0000000000402c14       0xd2 0x1 /usr/local/popcorn/x86_64/lib/libc.a(fwrite.o)
                0x0000000000402c14                __fwritex
 .text.fwrite   0x0000000000402ce6       0x85 0x1 /usr/local/popcorn/x86_64/lib/libc.a(fwrite.o)
                0x0000000000402ce6                fwrite
                0x0000000000402ce6                fwrite_unlocked
 ** fill        0x0000000000402d6b        0x1
 .text          0x0000000000402d6c        0x0 0x4 /usr/local/popcorn/x86_64/lib/libc.a(memcpy.o)
 .text.memcpy   0x0000000000402d6c       0x32 0x1 /usr/local/popcorn/x86_64/lib/libc.a(memcpy.o)
                0x0000000000402d6c                __memcpy_fwd
                0x0000000000402d6c                memcpy
 ** fill        0x0000000000402d9e        0x2
 .text          0x0000000000402da0       0x10 0x4 /usr/local/popcorn/x86_64/lib/libc.a(__set_thread_area.o)
                0x0000000000402da0                __set_thread_area
 .text          0x0000000000402db0        0x0 0x4 /usr/local/popcorn/x86_64/lib/libc.a(__wait.o)
 .text.__wait   0x0000000000402db0       0x37 0x1 /usr/local/popcorn/x86_64/lib/libc.a(__wait.o)
                0x0000000000402db0                __wait
 ** fill        0x0000000000402de7        0x1
 .text          0x0000000000402de8        0x0 0x4 /usr/local/popcorn/x86_64/lib/libc.a(syscall_ret.o)
 ** fill        0x0000000000402de8        0x8
 .text.__syscall_ret
                0x0000000000402df0       0x22 0x10 /usr/local/popcorn/x86_64/lib/libc.a(syscall_ret.o)
                0x0000000000402df0                __syscall_ret
 ** fill        0x0000000000402e12        0x2
 .text          0x0000000000402e14        0x0 0x4 /usr/local/popcorn/x86_64/lib/libc.a(wcrtomb.o)
 .text.wcrtomb  0x0000000000402e14       0xf6 0x1 /usr/local/popcorn/x86_64/lib/libc.a(wcrtomb.o)
                0x0000000000402e14                wcrtomb
 ** fill        0x0000000000402f0a        0x2
 .text          0x0000000000402f0c        0x0 0x4 /usr/local/popcorn/x86_64/lib/libc.a(__stdio_write.o)
 .text.__stdio_write
                0x0000000000402f0c      0x138 0x1 /usr/local/popcorn/x86_64/lib/libc.a(__stdio_write.o)
                0x0000000000402f0c                __stdio_write
 .text.cleanup  0x0000000000403044       0x10 0x1 /usr/local/popcorn/x86_64/lib/libc.a(__stdio_write.o)
 .text          0x0000000000403054        0x0 0x4 /usr/local/popcorn/x86_64/lib/libc.a(__towrite.o)
 .text.__towrite
                0x0000000000403054       0x41 0x1 /usr/local/popcorn/x86_64/lib/libc.a(__towrite.o)
                0x0000000000403054                __towrite
 .text.__towrite_needs_stdio_exit
                0x0000000000403095        0x5 0x1 /usr/local/popcorn/x86_64/lib/libc.a(__towrite.o)
                0x0000000000403095                __towrite_needs_stdio_exit
 ** fill        0x000000000040309a        0x2
 .text          0x000000000040309c        0x0 0x4 /usr/local/popcorn/x86_64/lib/libc.a(__syscall_cp.o)
 .text.sccp     0x000000000040309c       0x13 0x1 /usr/local/popcorn/x86_64/lib/libc.a(__syscall_cp.o)
                0x000000000040309c                __syscall_cp_c
 .text.__syscall_cp
                0x00000000004030af        0x5 0x1 /usr/local/popcorn/x86_64/lib/libc.a(__syscall_cp.o)
                0x00000000004030af                __syscall_cp
 .text          0x00000000004030b4        0x0 0x4 /usr/local/popcorn/x86_64/lib/libc.a(pthread_cleanup_push.o)
 .text.dummy    0x00000000004030b4        0x1 0x1 /usr/local/popcorn/x86_64/lib/libc.a(pthread_cleanup_push.o)
                0x00000000004030b4                __do_cleanup_pop
                0x00000000004030b4                __do_cleanup_push
 .text._pthread_cleanup_push
                0x00000000004030b5        0xc 0x1 /usr/local/popcorn/x86_64/lib/libc.a(pthread_cleanup_push.o)
                0x00000000004030b5                _pthread_cleanup_push
 .text._pthread_cleanup_pop
                0x00000000004030c1       0x2a 0x1 /usr/local/popcorn/x86_64/lib/libc.a(pthread_cleanup_push.o)
                0x00000000004030c1                _pthread_cleanup_pop
 ** fill        0x00000000004030eb        0x1
 .text          0x00000000004030ec       0x1a 0x4 /usr/local/popcorn/x86_64/lib/libc.a(syscall.o)
                0x00000000004030ec                __syscall
 ** fill        0x0000000000403106        0x2
 .text          0x0000000000403108        0x0 0x4 /usr/local/popcorn/x86_64/lib/libc.a(__stdio_exit.o)
 .text.__stdio_exit
                0x0000000000403108       0x3e 0x1 /usr/local/popcorn/x86_64/lib/libc.a(__stdio_exit.o)
                0x0000000000403108                __stdio_exit
                0x0000000000403108                __stdio_exit_needed
 .text.close_file
                0x0000000000403146       0x49 0x1 /usr/local/popcorn/x86_64/lib/libc.a(__stdio_exit.o)
 ** fill        0x000000000040318f        0x1
 .text          0x0000000000403190        0x0 0x4 /usr/local/popcorn/x86_64/lib/libc.a(__lock.o)
 .text.__lock   0x0000000000403190       0x47 0x1 /usr/local/popcorn/x86_64/lib/libc.a(__lock.o)
                0x0000000000403190                __lock
 .text.__unlock
                0x00000000004031d7        0xd 0x1 /usr/local/popcorn/x86_64/lib/libc.a(__lock.o)
                0x00000000004031d7                __unlock
 .text          0x00000000004031e4        0x0 0x4 /usr/local/popcorn/x86_64/lib/libmigrate.a(migrate.o)
 ** fill        0x00000000004031e4        0xc
 .text.__init_cpu_sets
                0x00000000004031f0       0xaf 0x10 /usr/local/popcorn/x86_64/lib/libmigrate.a(migrate.o)
 ** fill        0x000000000040329f        0x1
 .text.arch_to_cpus
                0x00000000004032a0       0xb9 0x10 /usr/local/popcorn/x86_64/lib/libmigrate.a(migrate.o)
                0x00000000004032a0                arch_to_cpus
 ** fill        0x0000000000403359        0x7
 .text.current_arch
                0x0000000000403360       0x1d 0x10 /usr/local/popcorn/x86_64/lib/libmigrate.a(migrate.o)
                0x0000000000403360                current_arch
 ** fill        0x000000000040337d        0x3
 .text.select_arch
                0x0000000000403380       0x1a 0x10 /usr/local/popcorn/x86_64/lib/libmigrate.a(migrate.o)
                0x0000000000403380                select_arch
 ** fill        0x000000000040339a        0x6
 .text.__init_migrate_vdso
                0x00000000004033a0       0x2d 0x10 /usr/local/popcorn/x86_64/lib/libmigrate.a(migrate.o)
 ** fill        0x00000000004033cd        0x3
 .text.check_migrate
                0x00000000004033d0       0x2a 0x10 /usr/local/popcorn/x86_64/lib/libmigrate.a(migrate.o)
                0x00000000004033d0                check_migrate
 ** fill        0x00000000004033fa        0x6
 .text.do_migrate
                0x0000000000403400       0x1d 0x10 /usr/local/popcorn/x86_64/lib/libmigrate.a(migrate.o)
 ** fill        0x000000000040341d        0x3
 .text.__migrate_shim_internal
                0x0000000000403420      0x333 0x10 /usr/local/popcorn/x86_64/lib/libmigrate.a(migrate.o)
 ** fill        0x0000000000403753        0xd
 .text.migrate  0x0000000000403760        0xb 0x10 /usr/local/popcorn/x86_64/lib/libmigrate.a(migrate.o)
                0x0000000000403760                migrate
 ** fill        0x000000000040376b        0x5
 .text.register_migrate_callback
                0x0000000000403770        0xf 0x10 /usr/local/popcorn/x86_64/lib/libmigrate.a(migrate.o)
                0x0000000000403770                register_migrate_callback
 ** fill        0x000000000040377f        0x1
 .text.__cyg_profile_func_enter
                0x0000000000403780       0x22 0x10 /usr/local/popcorn/x86_64/lib/libmigrate.a(migrate.o)
                0x0000000000403780                __cyg_profile_func_enter
 ** fill        0x00000000004037a2        0xe
 .text.__cyg_profile_func_exit
                0x00000000004037b0       0x22 0x10 /usr/local/popcorn/x86_64/lib/libmigrate.a(migrate.o)
                0x00000000004037b0                __cyg_profile_func_exit
 ** fill        0x00000000004037d2        0x2
 .text          0x00000000004037d4        0x0 0x4 /usr/local/popcorn/x86_64/lib/libstack-transform.a(userspace.o)
 ** fill        0x00000000004037d4        0xc
 .text.__st_userspace_ctor
                0x00000000004037e0      0x33e 0x10 /usr/local/popcorn/x86_64/lib/libstack-transform.a(userspace.o)
                0x00000000004037e0                __st_userspace_ctor
 ** fill        0x0000000000403b1e        0x2
 .text.__st_userspace_dtor
                0x0000000000403b20       0x60 0x10 /usr/local/popcorn/x86_64/lib/libstack-transform.a(userspace.o)
                0x0000000000403b20                __st_userspace_dtor
 .text.get_stack_bounds
                0x0000000000403b80       0xd4 0x10 /usr/local/popcorn/x86_64/lib/libstack-transform.a(userspace.o)
                0x0000000000403b80                get_stack_bounds
 ** fill        0x0000000000403c54        0xc
 .text.st_userspace_rewrite
                0x0000000000403c60       0x36 0x10 /usr/local/popcorn/x86_64/lib/libstack-transform.a(userspace.o)
                0x0000000000403c60                st_userspace_rewrite
 ** fill        0x0000000000403c96        0xa
 .text.userspace_rewrite_internal
                0x0000000000403ca0      0x167 0x10 /usr/local/popcorn/x86_64/lib/libstack-transform.a(userspace.o)
 ** fill        0x0000000000403e07        0x9
 .text.st_userspace_rewrite_aarch64
                0x0000000000403e10       0x27 0x10 /usr/local/popcorn/x86_64/lib/libstack-transform.a(userspace.o)
                0x0000000000403e10                st_userspace_rewrite_aarch64
 ** fill        0x0000000000403e37        0x9
 .text.st_userspace_rewrite_x86_64
                0x0000000000403e40       0x26 0x10 /usr/local/popcorn/x86_64/lib/libstack-transform.a(userspace.o)
                0x0000000000403e40                st_userspace_rewrite_x86_64
 ** fill        0x0000000000403e66        0x2
 .text          0x0000000000403e68        0x0 0x4 /usr/local/popcorn/x86_64/lib/libstack-transform.a(init.o)
 ** fill        0x0000000000403e68        0x8
 .text.__st_ctor
                0x0000000000403e70        0x5 0x10 /usr/local/popcorn/x86_64/lib/libstack-transform.a(init.o)
 ** fill        0x0000000000403e75        0xb
 .text.__st_dtor
                0x0000000000403e80        0x5 0x10 /usr/local/popcorn/x86_64/lib/libstack-transform.a(init.o)
                0x0000000000403e80                __st_dtor
 ** fill        0x0000000000403e85        0xb
 .text.st_init  0x0000000000403e90      0x212 0x10 /usr/local/popcorn/x86_64/lib/libstack-transform.a(init.o)
                0x0000000000403e90                st_init
 ** fill        0x00000000004040a2        0xe
 .text.st_destroy
                0x00000000004040b0       0x24 0x10 /usr/local/popcorn/x86_64/lib/libstack-transform.a(init.o)
                0x00000000004040b0                st_destroy
 .text          0x00000000004040d4        0x0 0x4 /usr/local/popcorn/x86_64/lib/libstack-transform.a(rewrite.o)
 ** fill        0x00000000004040d4        0xc
 .text.st_rewrite_stack
                0x00000000004040e0      0xe1d 0x10 /usr/local/popcorn/x86_64/lib/libstack-transform.a(rewrite.o)
                0x00000000004040e0                st_rewrite_stack
 ** fill        0x0000000000404efd        0x3
 .text.st_rewrite_ondemand
                0x0000000000404f00       0x26 0x10 /usr/local/popcorn/x86_64/lib/libstack-transform.a(rewrite.o)
                0x0000000000404f00                st_rewrite_ondemand
 ** fill        0x0000000000404f26        0xa
 .text.rewrite_val
                0x0000000000404f30      0x222 0x10 /usr/local/popcorn/x86_64/lib/libstack-transform.a(rewrite.o)
 ** fill        0x0000000000405152        0x2
 .text          0x0000000000405154        0x0 0x4 /usr/local/popcorn/x86_64/lib/libstack-transform.a(unwind.o)
 ** fill        0x0000000000405154        0xc
 .text.first_frame
                0x0000000000405160        0x8 0x10 /usr/local/popcorn/x86_64/lib/libstack-transform.a(unwind.o)
                0x0000000000405160                first_frame
 ** fill        0x0000000000405168        0x8
 .text.calculate_cfa
                0x0000000000405170       0x2d 0x10 /usr/local/popcorn/x86_64/lib/libstack-transform.a(unwind.o)
                0x0000000000405170                calculate_cfa
 ** fill        0x000000000040519d        0x3
 .text.bootstrap_first_frame
                0x00000000004051a0       0x77 0x10 /usr/local/popcorn/x86_64/lib/libstack-transform.a(unwind.o)
                0x00000000004051a0                bootstrap_first_frame
 ** fill        0x0000000000405217        0x9
 .text.bootstrap_first_frame_funcentry
                0x0000000000405220       0x74 0x10 /usr/local/popcorn/x86_64/lib/libstack-transform.a(unwind.o)
                0x0000000000405220                bootstrap_first_frame_funcentry
 ** fill        0x0000000000405294        0xc
 .text.pop_frame
                0x00000000004052a0      0x1f0 0x10 /usr/local/popcorn/x86_64/lib/libstack-transform.a(unwind.o)
                0x00000000004052a0                pop_frame
 .text.pop_frame_funcentry
                0x0000000000405490      0x13b 0x10 /usr/local/popcorn/x86_64/lib/libstack-transform.a(unwind.o)
                0x0000000000405490                pop_frame_funcentry
 ** fill        0x00000000004055cb        0x5
 .text.get_register_save_loc
                0x00000000004055d0       0x61 0x10 /usr/local/popcorn/x86_64/lib/libstack-transform.a(unwind.o)
                0x00000000004055d0                get_register_save_loc
 ** fill        0x0000000000405631        0xf
 .text.free_activation
                0x0000000000405640        0x1 0x10 /usr/local/popcorn/x86_64/lib/libstack-transform.a(unwind.o)
                0x0000000000405640                free_activation
 ** fill        0x0000000000405641        0x3
 .text          0x0000000000405644        0x0 0x4 /usr/local/popcorn/x86_64/lib/libstack-transform.a(util.o)
 ** fill        0x0000000000405644        0xc
 .text.arch_name
                0x0000000000405650       0x21 0x10 /usr/local/popcorn/x86_64/lib/libstack-transform.a(util.o)
                0x0000000000405650                arch_name
 ** fill        0x0000000000405671        0xf
 .text.get_regops
                0x0000000000405680       0x1e 0x10 /usr/local/popcorn/x86_64/lib/libstack-transform.a(util.o)
                0x0000000000405680                get_regops
 ** fill        0x000000000040569e        0x2
 .text.get_properties
                0x00000000004056a0       0x1e 0x10 /usr/local/popcorn/x86_64/lib/libstack-transform.a(util.o)
                0x00000000004056a0                get_properties
 ** fill        0x00000000004056be        0x2
 .text.get_section
                0x00000000004056c0       0xae 0x10 /usr/local/popcorn/x86_64/lib/libstack-transform.a(util.o)
                0x00000000004056c0                get_section
 ** fill        0x000000000040576e        0x2
 .text.get_num_entries
                0x0000000000405770       0x47 0x10 /usr/local/popcorn/x86_64/lib/libstack-transform.a(util.o)
                0x0000000000405770                get_num_entries
 ** fill        0x00000000004057b7        0x9
 .text.get_section_data
                0x00000000004057c0       0x26 0x10 /usr/local/popcorn/x86_64/lib/libstack-transform.a(util.o)
                0x00000000004057c0                get_section_data
 ** fill        0x00000000004057e6        0xa
 .text.get_site_by_addr
                0x00000000004057f0       0x7a 0x10 /usr/local/popcorn/x86_64/lib/libstack-transform.a(util.o)
                0x00000000004057f0                get_site_by_addr
 ** fill        0x000000000040586a        0x6
 .text.get_site_by_id
                0x0000000000405870       0x70 0x10 /usr/local/popcorn/x86_64/lib/libstack-transform.a(util.o)
                0x0000000000405870                get_site_by_id
 .text.get_unwind_offset_by_addr
                0x00000000004058e0       0x8c 0x10 /usr/local/popcorn/x86_64/lib/libstack-transform.a(util.o)
                0x00000000004058e0                get_unwind_offset_by_addr
 ** fill        0x000000000040596c        0x4
 .text.get_function_address
                0x0000000000405970       0x80 0x10 /usr/local/popcorn/x86_64/lib/libstack-transform.a(util.o)
                0x0000000000405970                get_function_address
 .text          0x00000000004059f0        0x0 0x4 /usr/local/popcorn/x86_64/lib/libstack-transform.a(properties.o)
 .text.align_sp_aarch64
                0x00000000004059f0       0x23 0x10 /usr/local/popcorn/x86_64/lib/libstack-transform.a(properties.o)
 ** fill        0x0000000000405a13        0xd
 .text.is_callee_saved_aarch64
                0x0000000000405a20       0x1f 0x10 /usr/local/popcorn/x86_64/lib/libstack-transform.a(properties.o)
 ** fill        0x0000000000405a3f        0x1
 .text.callee_reg_size_aarch64
                0x0000000000405a40       0x41 0x10 /usr/local/popcorn/x86_64/lib/libstack-transform.a(properties.o)
 ** fill        0x0000000000405a81        0x3
 .text          0x0000000000405a84        0x0 0x4 /usr/local/popcorn/x86_64/lib/libstack-transform.a(regs.o)
 ** fill        0x0000000000405a84        0xc
 .text.regset_default_aarch64
                0x0000000000405a90       0x15 0x10 /usr/local/popcorn/x86_64/lib/libstack-transform.a(regs.o)
 ** fill        0x0000000000405aa5        0xb
 .text.regset_init_aarch64
                0x0000000000405ab0       0x33 0x10 /usr/local/popcorn/x86_64/lib/libstack-transform.a(regs.o)
 ** fill        0x0000000000405ae3        0xd
 .text.regset_free_aarch64
                0x0000000000405af0        0x5 0x10 /usr/local/popcorn/x86_64/lib/libstack-transform.a(regs.o)
 ** fill        0x0000000000405af5        0xb
 .text.regset_clone_aarch64
                0x0000000000405b00       0x13 0x10 /usr/local/popcorn/x86_64/lib/libstack-transform.a(regs.o)
 ** fill        0x0000000000405b13        0xd
 .text.regset_copyin_aarch64
                0x0000000000405b20       0x11 0x10 /usr/local/popcorn/x86_64/lib/libstack-transform.a(regs.o)
 ** fill        0x0000000000405b31        0xf
 .text.regset_copyout_aarch64
                0x0000000000405b40       0x14 0x10 /usr/local/popcorn/x86_64/lib/libstack-transform.a(regs.o)
 ** fill        0x0000000000405b54        0xc
 .text.pc_aarch64
                0x0000000000405b60        0x5 0x10 /usr/local/popcorn/x86_64/lib/libstack-transform.a(regs.o)
 ** fill        0x0000000000405b65        0xb
 .text.sp_aarch64
                0x0000000000405b70        0x5 0x10 /usr/local/popcorn/x86_64/lib/libstack-transform.a(regs.o)
 ** fill        0x0000000000405b75        0xb
 .text.fbp_aarch64
                0x0000000000405b80        0x8 0x10 /usr/local/popcorn/x86_64/lib/libstack-transform.a(regs.o)
 ** fill        0x0000000000405b88        0x8
 .text.ra_reg_aarch64
                0x0000000000405b90        0x8 0x10 /usr/local/popcorn/x86_64/lib/libstack-transform.a(regs.o)
 ** fill        0x0000000000405b98        0x8
 .text.set_pc_aarch64
                0x0000000000405ba0        0x5 0x10 /usr/local/popcorn/x86_64/lib/libstack-transform.a(regs.o)
 ** fill        0x0000000000405ba5        0xb
 .text.set_sp_aarch64
                0x0000000000405bb0        0x5 0x10 /usr/local/popcorn/x86_64/lib/libstack-transform.a(regs.o)
 ** fill        0x0000000000405bb5        0xb
 .text.set_fbp_aarch64
                0x0000000000405bc0        0x8 0x10 /usr/local/popcorn/x86_64/lib/libstack-transform.a(regs.o)
 ** fill        0x0000000000405bc8        0x8
 .text.set_ra_reg_aarch64
                0x0000000000405bd0        0x8 0x10 /usr/local/popcorn/x86_64/lib/libstack-transform.a(regs.o)
 ** fill        0x0000000000405bd8        0x8
 .text.setup_fbp_aarch64
                0x0000000000405be0        0xc 0x10 /usr/local/popcorn/x86_64/lib/libstack-transform.a(regs.o)
 ** fill        0x0000000000405bec        0x4
 .text.reg_size_aarch64
                0x0000000000405bf0       0x3c 0x10 /usr/local/popcorn/x86_64/lib/libstack-transform.a(regs.o)
 ** fill        0x0000000000405c2c        0x4
 .text.reg_aarch64
                0x0000000000405c30      0x2da 0x10 /usr/local/popcorn/x86_64/lib/libstack-transform.a(regs.o)
 ** fill        0x0000000000405f0a        0x2
 .text          0x0000000000405f0c        0x0 0x4 /usr/local/popcorn/x86_64/lib/libstack-transform.a(properties.o)
 ** fill        0x0000000000405f0c        0x4
 .text.align_sp_x86_64
                0x0000000000405f10        0xf 0x10 /usr/local/popcorn/x86_64/lib/libstack-transform.a(properties.o)
 ** fill        0x0000000000405f1f        0x1
 .text.is_callee_saved_x86_64
                0x0000000000405f20       0x19 0x10 /usr/local/popcorn/x86_64/lib/libstack-transform.a(properties.o)
 ** fill        0x0000000000405f39        0x7
 .text.callee_reg_size_x86_64
                0x0000000000405f40       0x38 0x10 /usr/local/popcorn/x86_64/lib/libstack-transform.a(properties.o)
 .text          0x0000000000405f78        0x0 0x4 /usr/local/popcorn/x86_64/lib/libstack-transform.a(regs.o)
 ** fill        0x0000000000405f78        0x8
 .text.regset_default_x86_64
                0x0000000000405f80       0x15 0x10 /usr/local/popcorn/x86_64/lib/libstack-transform.a(regs.o)
 ** fill        0x0000000000405f95        0xb
 .text.regset_init_x86_64
                0x0000000000405fa0       0x33 0x10 /usr/local/popcorn/x86_64/lib/libstack-transform.a(regs.o)
 ** fill        0x0000000000405fd3        0xd
 .text.regset_free_x86_64
                0x0000000000405fe0        0x5 0x10 /usr/local/popcorn/x86_64/lib/libstack-transform.a(regs.o)
 ** fill        0x0000000000405fe5        0xb
 .text.regset_clone_x86_64
                0x0000000000405ff0       0x13 0x10 /usr/local/popcorn/x86_64/lib/libstack-transform.a(regs.o)
 ** fill        0x0000000000406003        0xd
 .text.regset_copyin_x86_64
                0x0000000000406010       0x11 0x10 /usr/local/popcorn/x86_64/lib/libstack-transform.a(regs.o)
 ** fill        0x0000000000406021        0xf
 .text.regset_copyout_x86_64
                0x0000000000406030       0x14 0x10 /usr/local/popcorn/x86_64/lib/libstack-transform.a(regs.o)
 ** fill        0x0000000000406044        0xc
 .text.pc_x86_64
                0x0000000000406050        0x5 0x10 /usr/local/popcorn/x86_64/lib/libstack-transform.a(regs.o)
 ** fill        0x0000000000406055        0xb
 .text.sp_x86_64
                0x0000000000406060        0x5 0x10 /usr/local/popcorn/x86_64/lib/libstack-transform.a(regs.o)
 ** fill        0x0000000000406065        0xb
 .text.fbp_x86_64
                0x0000000000406070        0x5 0x10 /usr/local/popcorn/x86_64/lib/libstack-transform.a(regs.o)
 ** fill        0x0000000000406075        0xb
 .text.ra_reg_x86_64
                0x0000000000406080       0x26 0x10 /usr/local/popcorn/x86_64/lib/libstack-transform.a(regs.o)
 ** fill        0x00000000004060a6        0xa
 .text.set_pc_x86_64
                0x00000000004060b0        0x5 0x10 /usr/local/popcorn/x86_64/lib/libstack-transform.a(regs.o)
 ** fill        0x00000000004060b5        0xb
 .text.set_sp_x86_64
                0x00000000004060c0        0x5 0x10 /usr/local/popcorn/x86_64/lib/libstack-transform.a(regs.o)
 ** fill        0x00000000004060c5        0xb
 .text.set_fbp_x86_64
                0x00000000004060d0        0x5 0x10 /usr/local/popcorn/x86_64/lib/libstack-transform.a(regs.o)
 ** fill        0x00000000004060d5        0xb
 .text.set_ra_reg_x86_64
                0x00000000004060e0       0x26 0x10 /usr/local/popcorn/x86_64/lib/libstack-transform.a(regs.o)
 ** fill        0x0000000000406106        0xa
 .text.setup_fbp_x86_64
                0x0000000000406110        0x9 0x10 /usr/local/popcorn/x86_64/lib/libstack-transform.a(regs.o)
 ** fill        0x0000000000406119        0x7
 .text.reg_size_x86_64
                0x0000000000406120       0x33 0x10 /usr/local/popcorn/x86_64/lib/libstack-transform.a(regs.o)
 ** fill        0x0000000000406153        0xd
 .text.reg_x86_64
                0x0000000000406160      0x163 0x10 /usr/local/popcorn/x86_64/lib/libstack-transform.a(regs.o)
 ** fill        0x00000000004062c3        0x1
 .text          0x00000000004062c4        0x0 0x4 /usr/local/popcorn/x86_64/lib/libstack-transform.a(data.o)
 ** fill        0x00000000004062c4        0xc
 .text.put_val  0x00000000004062d0      0x20d 0x10 /usr/local/popcorn/x86_64/lib/libstack-transform.a(data.o)
                0x00000000004062d0                put_val
 ** fill        0x00000000004064dd        0x3
 .text.get_dest_loc
                0x00000000004064e0       0xab 0x10 /usr/local/popcorn/x86_64/lib/libstack-transform.a(data.o)
 ** fill        0x000000000040658b        0x5
 .text.put_val_arch
                0x0000000000406590      0x268 0x10 /usr/local/popcorn/x86_64/lib/libstack-transform.a(data.o)
                0x0000000000406590                put_val_arch
 ** fill        0x00000000004067f8        0x8
 .text.put_val_data
                0x0000000000406800       0xeb 0x10 /usr/local/popcorn/x86_64/lib/libstack-transform.a(data.o)
                0x0000000000406800                put_val_data
 ** fill        0x00000000004068eb        0x5
 .text.points_to_stack
                0x00000000004068f0       0xf9 0x10 /usr/local/popcorn/x86_64/lib/libstack-transform.a(data.o)
                0x00000000004068f0                points_to_stack
 ** fill        0x00000000004069e9        0x7
 .text.points_to_data
                0x00000000004069f0      0x157 0x10 /usr/local/popcorn/x86_64/lib/libstack-transform.a(data.o)
                0x00000000004069f0                points_to_data
 ** fill        0x0000000000406b47        0x9
 .text.set_return_address
                0x0000000000406b50       0x1d 0x10 /usr/local/popcorn/x86_64/lib/libstack-transform.a(data.o)
                0x0000000000406b50                set_return_address
 ** fill        0x0000000000406b6d        0x3
 .text.set_return_address_funcentry
                0x0000000000406b70       0x39 0x10 /usr/local/popcorn/x86_64/lib/libstack-transform.a(data.o)
                0x0000000000406b70                set_return_address_funcentry
 ** fill        0x0000000000406ba9        0x7
 .text.get_savedfbp_loc
                0x0000000000406bb0       0x19 0x10 /usr/local/popcorn/x86_64/lib/libstack-transform.a(data.o)
                0x0000000000406bb0                get_savedfbp_loc
 .text          0x0000000000406bc9        0x0 0x1 /usr/local/popcorn/x86_64/lib/libelf.a(begin.o)
 ** fill        0x0000000000406bc9        0x7
 .text._elf_check_type.part.0
                0x0000000000406bd0      0x23b 0x10 /usr/local/popcorn/x86_64/lib/libelf.a(begin.o)
 ** fill        0x0000000000406e0b        0x5
 .text.elf_begin
                0x0000000000406e10      0xf1e 0x10 /usr/local/popcorn/x86_64/lib/libelf.a(begin.o)
                0x0000000000406e10                elf_begin
 ** fill        0x0000000000407d2e        0x2
 .text.elf_memory
                0x0000000000407d30      0x126 0x10 /usr/local/popcorn/x86_64/lib/libelf.a(begin.o)
                0x0000000000407d30                elf_memory
 ** fill        0x0000000000407e56        0xa
 .text.gelf_getclass
                0x0000000000407e60       0x20 0x10 /usr/local/popcorn/x86_64/lib/libelf.a(begin.o)
                0x0000000000407e60                gelf_getclass
 .text          0x0000000000407e80        0x0 0x1 /usr/local/popcorn/x86_64/lib/libelf.a(end.o)
 .text.elf_end  0x0000000000407e80      0x20d 0x10 /usr/local/popcorn/x86_64/lib/libelf.a(end.o)
                0x0000000000407e80                elf_end
 .text          0x000000000040808d        0x0 0x1 /usr/local/popcorn/x86_64/lib/libelf.a(getdata.o)
 ** fill        0x000000000040808d        0x3
 .text.elf_getdata
                0x0000000000408090      0x328 0x10 /usr/local/popcorn/x86_64/lib/libelf.a(getdata.o)
                0x0000000000408090                elf_getdata
 .text          0x00000000004083b8        0x0 0x1 /usr/local/popcorn/x86_64/lib/libelf.a(getident.o)
 ** fill        0x00000000004083b8        0x8
 .text.elf_getident
                0x00000000004083c0       0xa9 0x10 /usr/local/popcorn/x86_64/lib/libelf.a(getident.o)
                0x00000000004083c0                elf_getident
 .text          0x0000000000408469        0x0 0x1 /usr/local/popcorn/x86_64/lib/libelf.a(nextscn.o)
 ** fill        0x0000000000408469        0x7
 .text.elf_nextscn
                0x0000000000408470       0xa0 0x10 /usr/local/popcorn/x86_64/lib/libelf.a(nextscn.o)
                0x0000000000408470                elf_nextscn
 .text          0x0000000000408510        0x0 0x1 /usr/local/popcorn/x86_64/lib/libelf.a(strptr.o)
 .text.elf_strptr
                0x0000000000408510      0x17c 0x10 /usr/local/popcorn/x86_64/lib/libelf.a(strptr.o)
                0x0000000000408510                elf_strptr
 .text          0x000000000040868c        0x0 0x1 /usr/local/popcorn/x86_64/lib/libelf.a(version.o)
 ** fill        0x000000000040868c        0x4
 .text.elf_version
                0x0000000000408690       0x57 0x10 /usr/local/popcorn/x86_64/lib/libelf.a(version.o)
                0x0000000000408690                elf_version
 .text          0x00000000004086e7        0x0 0x1 /usr/local/popcorn/x86_64/lib/libelf.a(32.getehdr.o)
 ** fill        0x00000000004086e7        0x9
 .text._elf_getehdr
                0x00000000004086f0       0x68 0x10 /usr/local/popcorn/x86_64/lib/libelf.a(32.getehdr.o)
                0x00000000004086f0                _elf_getehdr
 ** fill        0x0000000000408758        0x8
 .text.elf32_getehdr
                0x0000000000408760       0x68 0x10 /usr/local/popcorn/x86_64/lib/libelf.a(32.getehdr.o)
                0x0000000000408760                elf32_getehdr
 ** fill        0x00000000004087c8        0x8
 .text.elf64_getehdr
                0x00000000004087d0       0x68 0x10 /usr/local/popcorn/x86_64/lib/libelf.a(32.getehdr.o)
                0x00000000004087d0                elf64_getehdr
 .text          0x0000000000408838        0x0 0x1 /usr/local/popcorn/x86_64/lib/libelf.a(32.xlatetof.o)
 ** fill        0x0000000000408838        0x8
 .text.half_32L__tom
                0x0000000000408840      0x11e 0x10 /usr/local/popcorn/x86_64/lib/libelf.a(32.xlatetof.o)
 ** fill        0x000000000040895e        0x2
 .text.half_32L__tof
                0x0000000000408960      0x27e 0x10 /usr/local/popcorn/x86_64/lib/libelf.a(32.xlatetof.o)
 ** fill        0x0000000000408bde        0x2
 .text.half_32M__tom
                0x0000000000408be0      0x152 0x10 /usr/local/popcorn/x86_64/lib/libelf.a(32.xlatetof.o)
 ** fill        0x0000000000408d32        0xe
 .text.half_32M__tof
                0x0000000000408d40      0x27e 0x10 /usr/local/popcorn/x86_64/lib/libelf.a(32.xlatetof.o)
 ** fill        0x0000000000408fbe        0x2
 .text.sword_32L__tom
                0x0000000000408fc0       0xe0 0x10 /usr/local/popcorn/x86_64/lib/libelf.a(32.xlatetof.o)
 .text.sword_32L__tof
                0x00000000004090a0      0x53a 0x10 /usr/local/popcorn/x86_64/lib/libelf.a(32.xlatetof.o)
 ** fill        0x00000000004095da        0x6
 .text.sword_32M__tom
                0x00000000004095e0       0x2d 0x10 /usr/local/popcorn/x86_64/lib/libelf.a(32.xlatetof.o)
 ** fill        0x000000000040960d        0x3
 .text.sword_32M__tof
                0x0000000000409610      0x53a 0x10 /usr/local/popcorn/x86_64/lib/libelf.a(32.xlatetof.o)
 ** fill        0x0000000000409b4a        0x6
 .text.word_32L__tom
                0x0000000000409b50       0xe0 0x10 /usr/local/popcorn/x86_64/lib/libelf.a(32.xlatetof.o)
 .text.word_32L__tof
                0x0000000000409c30      0x53a 0x10 /usr/local/popcorn/x86_64/lib/libelf.a(32.xlatetof.o)
 ** fill        0x000000000040a16a        0x6
 .text.word_32M__tom
                0x000000000040a170       0x2d 0x10 /usr/local/popcorn/x86_64/lib/libelf.a(32.xlatetof.o)
 ** fill        0x000000000040a19d        0x3
 .text.word_32M__tof
                0x000000000040a1a0      0x53a 0x10 /usr/local/popcorn/x86_64/lib/libelf.a(32.xlatetof.o)
 ** fill        0x000000000040a6da        0x6
 .text.dyn_32L11_tom
                0x000000000040a6e0       0x30 0x10 /usr/local/popcorn/x86_64/lib/libelf.a(32.xlatetof.o)
 .text.dyn_32L11_tof
                0x000000000040a710      0x627 0x10 /usr/local/popcorn/x86_64/lib/libelf.a(32.xlatetof.o)
 ** fill        0x000000000040ad37        0x9
 .text.dyn_32M11_tom
                0x000000000040ad40       0x3a 0x10 /usr/local/popcorn/x86_64/lib/libelf.a(32.xlatetof.o)
 ** fill        0x000000000040ad7a        0x6
 .text.dyn_32M11_tof
                0x000000000040ad80      0x627 0x10 /usr/local/popcorn/x86_64/lib/libelf.a(32.xlatetof.o)
 ** fill        0x000000000040b3a7        0x9
 .text.phdr_32L11_tom
                0x000000000040b3b0       0xcd 0x10 /usr/local/popcorn/x86_64/lib/libelf.a(32.xlatetof.o)
 ** fill        0x000000000040b47d        0x3
 .text.phdr_32L11_tof
                0x000000000040b480      0x125 0x10 /usr/local/popcorn/x86_64/lib/libelf.a(32.xlatetof.o)
 ** fill        0x000000000040b5a5        0xb
 .text.phdr_32M11_tom
                0x000000000040b5b0       0x6d 0x10 /usr/local/popcorn/x86_64/lib/libelf.a(32.xlatetof.o)
 ** fill        0x000000000040b61d        0x3
 .text.phdr_32M11_tof
                0x000000000040b620      0x125 0x10 /usr/local/popcorn/x86_64/lib/libelf.a(32.xlatetof.o)
 ** fill        0x000000000040b745        0xb
 .text.rela_32L11_tom
                0x000000000040b750       0x4b 0x10 /usr/local/popcorn/x86_64/lib/libelf.a(32.xlatetof.o)
 ** fill        0x000000000040b79b        0x5
 .text.rela_32L11_tof
                0x000000000040b7a0       0x9c 0x10 /usr/local/popcorn/x86_64/lib/libelf.a(32.xlatetof.o)
 ** fill        0x000000000040b83c        0x4
 .text.rela_32M11_tom
                0x000000000040b840       0x59 0x10 /usr/local/popcorn/x86_64/lib/libelf.a(32.xlatetof.o)
 ** fill        0x000000000040b899        0x7
 .text.rela_32M11_tof
                0x000000000040b8a0       0x9c 0x10 /usr/local/popcorn/x86_64/lib/libelf.a(32.xlatetof.o)
 ** fill        0x000000000040b93c        0x4
 .text.rel_32L11_tom
                0x000000000040b940       0xb8 0x10 /usr/local/popcorn/x86_64/lib/libelf.a(32.xlatetof.o)
 ** fill        0x000000000040b9f8        0x8
 .text.rel_32L11_tof
                0x000000000040ba00      0x657 0x10 /usr/local/popcorn/x86_64/lib/libelf.a(32.xlatetof.o)
 ** fill        0x000000000040c057        0x9
 .text.rel_32M11_tom
                0x000000000040c060       0x3a 0x10 /usr/local/popcorn/x86_64/lib/libelf.a(32.xlatetof.o)
 ** fill        0x000000000040c09a        0x6
 .text.rel_32M11_tof
                0x000000000040c0a0      0x657 0x10 /usr/local/popcorn/x86_64/lib/libelf.a(32.xlatetof.o)
 ** fill        0x000000000040c6f7        0x9
 .text.shdr_32L11_tom
                0x000000000040c700      0x16d 0x10 /usr/local/popcorn/x86_64/lib/libelf.a(32.xlatetof.o)
 ** fill        0x000000000040c86d        0x3
 .text.shdr_32L11_tof
                0x000000000040c870      0x173 0x10 /usr/local/popcorn/x86_64/lib/libelf.a(32.xlatetof.o)
 ** fill        0x000000000040c9e3        0xd
 .text.shdr_32M11_tom
                0x000000000040c9f0       0x91 0x10 /usr/local/popcorn/x86_64/lib/libelf.a(32.xlatetof.o)
 ** fill        0x000000000040ca81        0xf
 .text.shdr_32M11_tof
                0x000000000040ca90      0x173 0x10 /usr/local/popcorn/x86_64/lib/libelf.a(32.xlatetof.o)
 ** fill        0x000000000040cc03        0xd
 .text.sym_32L11_tom
                0x000000000040cc10       0x55 0x10 /usr/local/popcorn/x86_64/lib/libelf.a(32.xlatetof.o)
 ** fill        0x000000000040cc65        0xb
 .text.sym_32L11_tof
                0x000000000040cc70       0xb0 0x10 /usr/local/popcorn/x86_64/lib/libelf.a(32.xlatetof.o)
 .text.sym_32M11_tom
                0x000000000040cd20       0x5f 0x10 /usr/local/popcorn/x86_64/lib/libelf.a(32.xlatetof.o)
 ** fill        0x000000000040cd7f        0x1
 .text.sym_32M11_tof
                0x000000000040cd80       0xb0 0x10 /usr/local/popcorn/x86_64/lib/libelf.a(32.xlatetof.o)
 .text.ehdr_32M11_tom
                0x000000000040ce30       0xf2 0x10 /usr/local/popcorn/x86_64/lib/libelf.a(32.xlatetof.o)
 ** fill        0x000000000040cf22        0xe
 .text.byte_copy
                0x000000000040cf30       0x26 0x10 /usr/local/popcorn/x86_64/lib/libelf.a(32.xlatetof.o)
 ** fill        0x000000000040cf56        0xa
 .text.ehdr_32M11_tof
                0x000000000040cf60      0x16b 0x10 /usr/local/popcorn/x86_64/lib/libelf.a(32.xlatetof.o)
 ** fill        0x000000000040d0cb        0x5
 .text.ehdr_32L11_tom
                0x000000000040d0d0       0xc8 0x10 /usr/local/popcorn/x86_64/lib/libelf.a(32.xlatetof.o)
 ** fill        0x000000000040d198        0x8
 .text.ehdr_32L11_tof
                0x000000000040d1a0      0x16b 0x10 /usr/local/popcorn/x86_64/lib/libelf.a(32.xlatetof.o)
 ** fill        0x000000000040d30b        0x5
 .text.addr_32L__tom
                0x000000000040d310       0xe0 0x10 /usr/local/popcorn/x86_64/lib/libelf.a(32.xlatetof.o)
 .text.addr_32L__tof
                0x000000000040d3f0      0x53a 0x10 /usr/local/popcorn/x86_64/lib/libelf.a(32.xlatetof.o)
 ** fill        0x000000000040d92a        0x6
 .text.addr_32M__tom
                0x000000000040d930       0x2d 0x10 /usr/local/popcorn/x86_64/lib/libelf.a(32.xlatetof.o)
 ** fill        0x000000000040d95d        0x3
 .text.addr_32M__tof
                0x000000000040d960      0x53a 0x10 /usr/local/popcorn/x86_64/lib/libelf.a(32.xlatetof.o)
 ** fill        0x000000000040de9a        0x6
 .text.off_32L__tom
                0x000000000040dea0       0xe0 0x10 /usr/local/popcorn/x86_64/lib/libelf.a(32.xlatetof.o)
 .text.off_32L__tof
                0x000000000040df80      0x53a 0x10 /usr/local/popcorn/x86_64/lib/libelf.a(32.xlatetof.o)
 ** fill        0x000000000040e4ba        0x6
 .text.off_32M__tom
                0x000000000040e4c0       0x2d 0x10 /usr/local/popcorn/x86_64/lib/libelf.a(32.xlatetof.o)
 ** fill        0x000000000040e4ed        0x3
 .text.off_32M__tof
                0x000000000040e4f0      0x53a 0x10 /usr/local/popcorn/x86_64/lib/libelf.a(32.xlatetof.o)
 ** fill        0x000000000040ea2a        0x6
 .text._elf32_xltsize
                0x000000000040ea30       0x8e 0x10 /usr/local/popcorn/x86_64/lib/libelf.a(32.xlatetof.o)
                0x000000000040ea30                _elf32_xltsize
 ** fill        0x000000000040eabe        0x2
 .text.elf32_xlatetom
                0x000000000040eac0      0x13d 0x10 /usr/local/popcorn/x86_64/lib/libelf.a(32.xlatetof.o)
                0x000000000040eac0                elf32_xlatetom
 ** fill        0x000000000040ebfd        0x3
 .text.elf32_xlatetof
                0x000000000040ec00      0x13d 0x10 /usr/local/popcorn/x86_64/lib/libelf.a(32.xlatetof.o)
                0x000000000040ec00                elf32_xlatetof
 .text          0x000000000040ed3d        0x0 0x1 /usr/local/popcorn/x86_64/lib/libelf.a(cook.o)
 ** fill        0x000000000040ed3d        0x3
 .text._elf_scn_type
                0x000000000040ed40       0x96 0x10 /usr/local/popcorn/x86_64/lib/libelf.a(cook.o)
                0x000000000040ed40                _elf_scn_type
 ** fill        0x000000000040edd6        0xa
 .text._elf_xlatetom
                0x000000000040ede0       0x46 0x10 /usr/local/popcorn/x86_64/lib/libelf.a(cook.o)
                0x000000000040ede0                _elf_xlatetom
 ** fill        0x000000000040ee26        0xa
 .text._elf_cook
                0x000000000040ee30      0x9de 0x10 /usr/local/popcorn/x86_64/lib/libelf.a(cook.o)
                0x000000000040ee30                _elf_cook
 .text          0x000000000040f80e        0x0 0x1 /usr/local/popcorn/x86_64/lib/libelf.a(data.o)
 .text          0x000000000040f80e        0x0 0x1 /usr/local/popcorn/x86_64/lib/libelf.a(input.o)
 ** fill        0x000000000040f80e        0x2
 .text._elf_read
                0x000000000040f810      0x11d 0x10 /usr/local/popcorn/x86_64/lib/libelf.a(input.o)
                0x000000000040f810                _elf_read
 ** fill        0x000000000040f92d        0x3
 .text._elf_mmap
                0x000000000040f930       0x5c 0x10 /usr/local/popcorn/x86_64/lib/libelf.a(input.o)
                0x000000000040f930                _elf_mmap
 .text          0x000000000040f98c        0x0 0x1 /usr/local/popcorn/x86_64/lib/libelf.a(x.elfext.o)
 ** fill        0x000000000040f98c        0x4
 .text.elf_getphdrnum
                0x000000000040f990       0x66 0x10 /usr/local/popcorn/x86_64/lib/libelf.a(x.elfext.o)
                0x000000000040f990                elf_getphdrnum
 ** fill        0x000000000040f9f6        0xa
 .text.elf_getshdrnum
                0x000000000040fa00       0x7e 0x10 /usr/local/popcorn/x86_64/lib/libelf.a(x.elfext.o)
                0x000000000040fa00                elf_getshdrnum
 ** fill        0x000000000040fa7e        0x2
 .text.elf_getshdrstrndx
                0x000000000040fa80      0x131 0x10 /usr/local/popcorn/x86_64/lib/libelf.a(x.elfext.o)
                0x000000000040fa80                elf_getshdrstrndx
 ** fill        0x000000000040fbb1        0xf
 .text.elf_getphnum
                0x000000000040fbc0       0x60 0x10 /usr/local/popcorn/x86_64/lib/libelf.a(x.elfext.o)
                0x000000000040fbc0                elf_getphnum
 .text.elf_getshnum
                0x000000000040fc20       0x80 0x10 /usr/local/popcorn/x86_64/lib/libelf.a(x.elfext.o)
                0x000000000040fc20                elf_getshnum
 .text.elf_getshstrndx
                0x000000000040fca0      0x139 0x10 /usr/local/popcorn/x86_64/lib/libelf.a(x.elfext.o)
                0x000000000040fca0                elf_getshstrndx
 ** fill        0x000000000040fdd9        0x7
 .text.elfx_update_shstrndx
                0x000000000040fde0      0x10f 0x10 /usr/local/popcorn/x86_64/lib/libelf.a(x.elfext.o)
                0x000000000040fde0                elfx_update_shstrndx
 .text          0x000000000040feef        0x0 0x1 /usr/local/popcorn/x86_64/lib/libelf.a(64.xlatetof.o)
 ** fill        0x000000000040feef        0x1
 .text.half_64L__tom
                0x000000000040fef0      0x11e 0x10 /usr/local/popcorn/x86_64/lib/libelf.a(64.xlatetof.o)
 ** fill        0x000000000041000e        0x2
 .text.half_64L__tof
                0x0000000000410010      0x27e 0x10 /usr/local/popcorn/x86_64/lib/libelf.a(64.xlatetof.o)
 ** fill        0x000000000041028e        0x2
 .text.half_64M__tom
                0x0000000000410290      0x152 0x10 /usr/local/popcorn/x86_64/lib/libelf.a(64.xlatetof.o)
 ** fill        0x00000000004103e2        0xe
 .text.half_64M__tof
                0x00000000004103f0      0x27e 0x10 /usr/local/popcorn/x86_64/lib/libelf.a(64.xlatetof.o)
 ** fill        0x000000000041066e        0x2
 .text.sword_64L__tom
                0x0000000000410670       0xe0 0x10 /usr/local/popcorn/x86_64/lib/libelf.a(64.xlatetof.o)
 .text.sword_64L__tof
                0x0000000000410750      0x53a 0x10 /usr/local/popcorn/x86_64/lib/libelf.a(64.xlatetof.o)
 ** fill        0x0000000000410c8a        0x6
 .text.sword_64M__tom
                0x0000000000410c90       0x2d 0x10 /usr/local/popcorn/x86_64/lib/libelf.a(64.xlatetof.o)
 ** fill        0x0000000000410cbd        0x3
 .text.sword_64M__tof
                0x0000000000410cc0      0x53a 0x10 /usr/local/popcorn/x86_64/lib/libelf.a(64.xlatetof.o)
 ** fill        0x00000000004111fa        0x6
 .text.word_64L__tom
                0x0000000000411200       0xe0 0x10 /usr/local/popcorn/x86_64/lib/libelf.a(64.xlatetof.o)
 .text.word_64L__tof
                0x00000000004112e0      0x53a 0x10 /usr/local/popcorn/x86_64/lib/libelf.a(64.xlatetof.o)
 ** fill        0x000000000041181a        0x6
 .text.word_64M__tom
                0x0000000000411820       0x2d 0x10 /usr/local/popcorn/x86_64/lib/libelf.a(64.xlatetof.o)
 ** fill        0x000000000041184d        0x3
 .text.word_64M__tof
                0x0000000000411850      0x53a 0x10 /usr/local/popcorn/x86_64/lib/libelf.a(64.xlatetof.o)
 ** fill        0x0000000000411d8a        0x6
 .text.elf64_xlate
                0x0000000000411d90      0x14d 0x10 /usr/local/popcorn/x86_64/lib/libelf.a(64.xlatetof.o)
 ** fill        0x0000000000411edd        0x3
 .text.xword_64M__tof
                0x0000000000411ee0       0x55 0x10 /usr/local/popcorn/x86_64/lib/libelf.a(64.xlatetof.o)
 ** fill        0x0000000000411f35        0xb
 .text.sym_64M11_tof
                0x0000000000411f40       0xba 0x10 /usr/local/popcorn/x86_64/lib/libelf.a(64.xlatetof.o)
 ** fill        0x0000000000411ffa        0x6
 .text.shdr_64M11_tof
                0x0000000000412000      0x11c 0x10 /usr/local/popcorn/x86_64/lib/libelf.a(64.xlatetof.o)
 ** fill        0x000000000041211c        0x4
 .text.rel_64M11_tof
                0x0000000000412120       0x64 0x10 /usr/local/popcorn/x86_64/lib/libelf.a(64.xlatetof.o)
 ** fill        0x0000000000412184        0xc
 .text.phdr_64M11_tof
                0x0000000000412190       0xfd 0x10 /usr/local/popcorn/x86_64/lib/libelf.a(64.xlatetof.o)
 ** fill        0x000000000041228d        0x3
 .text.dyn_64M11_tof
                0x0000000000412290       0x64 0x10 /usr/local/popcorn/x86_64/lib/libelf.a(64.xlatetof.o)
 ** fill        0x00000000004122f4        0xc
 .text.xword_64M__tom
                0x0000000000412300       0x55 0x10 /usr/local/popcorn/x86_64/lib/libelf.a(64.xlatetof.o)
 ** fill        0x0000000000412355        0xb
 .text.sym_64M11_tom
                0x0000000000412360       0x9f 0x10 /usr/local/popcorn/x86_64/lib/libelf.a(64.xlatetof.o)
 ** fill        0x00000000004123ff        0x1
 .text.shdr_64M11_tom
                0x0000000000412400       0xc8 0x10 /usr/local/popcorn/x86_64/lib/libelf.a(64.xlatetof.o)
 ** fill        0x00000000004124c8        0x8
 .text.rel_64M11_tom
                0x00000000004124d0       0x64 0x10 /usr/local/popcorn/x86_64/lib/libelf.a(64.xlatetof.o)
 ** fill        0x0000000000412534        0xc
 .text.phdr_64M11_tom
                0x0000000000412540       0xcb 0x10 /usr/local/popcorn/x86_64/lib/libelf.a(64.xlatetof.o)
 ** fill        0x000000000041260b        0x5
 .text.dyn_64M11_tom
                0x0000000000412610       0x64 0x10 /usr/local/popcorn/x86_64/lib/libelf.a(64.xlatetof.o)
 ** fill        0x0000000000412674        0xc
 .text.sxword_64M__tof
                0x0000000000412680       0x55 0x10 /usr/local/popcorn/x86_64/lib/libelf.a(64.xlatetof.o)
 ** fill        0x00000000004126d5        0xb
 .text.rela_64M11_tof
                0x00000000004126e0       0x83 0x10 /usr/local/popcorn/x86_64/lib/libelf.a(64.xlatetof.o)
 ** fill        0x0000000000412763        0xd
 .text.sxword_64M__tom
                0x0000000000412770       0x55 0x10 /usr/local/popcorn/x86_64/lib/libelf.a(64.xlatetof.o)
 ** fill        0x00000000004127c5        0xb
 .text.rela_64M11_tom
                0x00000000004127d0       0x83 0x10 /usr/local/popcorn/x86_64/lib/libelf.a(64.xlatetof.o)
 ** fill        0x0000000000412853        0xd
 .text.xword_64L__tof
                0x0000000000412860       0x55 0x10 /usr/local/popcorn/x86_64/lib/libelf.a(64.xlatetof.o)
 ** fill        0x00000000004128b5        0xb
 .text.sym_64L11_tof
                0x00000000004128c0       0xba 0x10 /usr/local/popcorn/x86_64/lib/libelf.a(64.xlatetof.o)
 ** fill        0x000000000041297a        0x6
 .text.shdr_64L11_tof
                0x0000000000412980      0x11c 0x10 /usr/local/popcorn/x86_64/lib/libelf.a(64.xlatetof.o)
 ** fill        0x0000000000412a9c        0x4
 .text.rel_64L11_tof
                0x0000000000412aa0       0x64 0x10 /usr/local/popcorn/x86_64/lib/libelf.a(64.xlatetof.o)
 ** fill        0x0000000000412b04        0xc
 .text.phdr_64L11_tof
                0x0000000000412b10       0xfd 0x10 /usr/local/popcorn/x86_64/lib/libelf.a(64.xlatetof.o)
 ** fill        0x0000000000412c0d        0x3
 .text.dyn_64L11_tof
                0x0000000000412c10       0x64 0x10 /usr/local/popcorn/x86_64/lib/libelf.a(64.xlatetof.o)
 ** fill        0x0000000000412c74        0xc
 .text.xword_64L__tom
                0x0000000000412c80       0x55 0x10 /usr/local/popcorn/x86_64/lib/libelf.a(64.xlatetof.o)
 ** fill        0x0000000000412cd5        0xb
 .text.sym_64L11_tom
                0x0000000000412ce0       0x9a 0x10 /usr/local/popcorn/x86_64/lib/libelf.a(64.xlatetof.o)
 ** fill        0x0000000000412d7a        0x6
 .text.shdr_64L11_tom
                0x0000000000412d80       0xb8 0x10 /usr/local/popcorn/x86_64/lib/libelf.a(64.xlatetof.o)
 ** fill        0x0000000000412e38        0x8
 .text.rel_64L11_tom
                0x0000000000412e40       0x64 0x10 /usr/local/popcorn/x86_64/lib/libelf.a(64.xlatetof.o)
 ** fill        0x0000000000412ea4        0xc
 .text.phdr_64L11_tom
                0x0000000000412eb0       0xc7 0x10 /usr/local/popcorn/x86_64/lib/libelf.a(64.xlatetof.o)
 ** fill        0x0000000000412f77        0x9
 .text.dyn_64L11_tom
                0x0000000000412f80       0x64 0x10 /usr/local/popcorn/x86_64/lib/libelf.a(64.xlatetof.o)
 ** fill        0x0000000000412fe4        0xc
 .text.sxword_64L__tof
                0x0000000000412ff0       0x55 0x10 /usr/local/popcorn/x86_64/lib/libelf.a(64.xlatetof.o)
 ** fill        0x0000000000413045        0xb
 .text.rela_64L11_tof
                0x0000000000413050       0x83 0x10 /usr/local/popcorn/x86_64/lib/libelf.a(64.xlatetof.o)
 ** fill        0x00000000004130d3        0xd
 .text.sxword_64L__tom
                0x00000000004130e0       0x55 0x10 /usr/local/popcorn/x86_64/lib/libelf.a(64.xlatetof.o)
 ** fill        0x0000000000413135        0xb
 .text.rela_64L11_tom
                0x0000000000413140       0x83 0x10 /usr/local/popcorn/x86_64/lib/libelf.a(64.xlatetof.o)
 ** fill        0x00000000004131c3        0xd
 .text.ehdr_64M11_tom
                0x00000000004131d0      0x107 0x10 /usr/local/popcorn/x86_64/lib/libelf.a(64.xlatetof.o)
 ** fill        0x00000000004132d7        0x9
 .text.byte_copy
                0x00000000004132e0       0x26 0x10 /usr/local/popcorn/x86_64/lib/libelf.a(64.xlatetof.o)
 ** fill        0x0000000000413306        0xa
 .text.ehdr_64M11_tof
                0x0000000000413310      0x141 0x10 /usr/local/popcorn/x86_64/lib/libelf.a(64.xlatetof.o)
 ** fill        0x0000000000413451        0xf
 .text.ehdr_64L11_tom
                0x0000000000413460       0xe3 0x10 /usr/local/popcorn/x86_64/lib/libelf.a(64.xlatetof.o)
 ** fill        0x0000000000413543        0xd
 .text.ehdr_64L11_tof
                0x0000000000413550      0x141 0x10 /usr/local/popcorn/x86_64/lib/libelf.a(64.xlatetof.o)
 ** fill        0x0000000000413691        0xf
 .text.addr_64L__tom
                0x00000000004136a0       0x55 0x10 /usr/local/popcorn/x86_64/lib/libelf.a(64.xlatetof.o)
 ** fill        0x00000000004136f5        0xb
 .text.addr_64L__tof
                0x0000000000413700       0x55 0x10 /usr/local/popcorn/x86_64/lib/libelf.a(64.xlatetof.o)
 ** fill        0x0000000000413755        0xb
 .text.addr_64M__tom
                0x0000000000413760       0x55 0x10 /usr/local/popcorn/x86_64/lib/libelf.a(64.xlatetof.o)
 ** fill        0x00000000004137b5        0xb
 .text.addr_64M__tof
                0x00000000004137c0       0x55 0x10 /usr/local/popcorn/x86_64/lib/libelf.a(64.xlatetof.o)
 ** fill        0x0000000000413815        0xb
 .text.off_64L__tom
                0x0000000000413820       0x55 0x10 /usr/local/popcorn/x86_64/lib/libelf.a(64.xlatetof.o)
 ** fill        0x0000000000413875        0xb
 .text.off_64L__tof
                0x0000000000413880       0x55 0x10 /usr/local/popcorn/x86_64/lib/libelf.a(64.xlatetof.o)
 ** fill        0x00000000004138d5        0xb
 .text.off_64M__tom
                0x00000000004138e0       0x55 0x10 /usr/local/popcorn/x86_64/lib/libelf.a(64.xlatetof.o)
 ** fill        0x0000000000413935        0xb
 .text.off_64M__tof
                0x0000000000413940       0x55 0x10 /usr/local/popcorn/x86_64/lib/libelf.a(64.xlatetof.o)
 ** fill        0x0000000000413995        0xb
 .text._elf64_xltsize
                0x00000000004139a0       0x8e 0x10 /usr/local/popcorn/x86_64/lib/libelf.a(64.xlatetof.o)
                0x00000000004139a0                _elf64_xltsize
 ** fill        0x0000000000413a2e        0x2
 .text.elf64_xlatetom
                0x0000000000413a30      0x13d 0x10 /usr/local/popcorn/x86_64/lib/libelf.a(64.xlatetof.o)
                0x0000000000413a30                elf64_xlatetom
 ** fill        0x0000000000413b6d        0x3
 .text.elf64_xlatetof
                0x0000000000413b70      0x13d 0x10 /usr/local/popcorn/x86_64/lib/libelf.a(64.xlatetof.o)
                0x0000000000413b70                elf64_xlatetof
 ** fill        0x0000000000413cad        0x3
 .text.gelf_xlatetom
                0x0000000000413cb0       0x5a 0x10 /usr/local/popcorn/x86_64/lib/libelf.a(64.xlatetof.o)
                0x0000000000413cb0                gelf_xlatetom
 ** fill        0x0000000000413d0a        0x6
 .text.gelf_xlatetof
                0x0000000000413d10       0x5d 0x10 /usr/local/popcorn/x86_64/lib/libelf.a(64.xlatetof.o)
                0x0000000000413d10                gelf_xlatetof
 .text          0x0000000000413d6d        0x0 0x1 /usr/local/popcorn/x86_64/lib/libelf.a(gelfshdr.o)
 ** fill        0x0000000000413d6d        0x3
 .text.gelf_getshdr
                0x0000000000413d70      0x18b 0x10 /usr/local/popcorn/x86_64/lib/libelf.a(gelfshdr.o)
                0x0000000000413d70                gelf_getshdr
 ** fill        0x0000000000413efb        0x5
 .text.gelf_update_shdr
                0x0000000000413f00      0x113 0x10 /usr/local/popcorn/x86_64/lib/libelf.a(gelfshdr.o)
                0x0000000000413f00                gelf_update_shdr
 .text          0x0000000000414013        0x0 0x1 /usr/local/popcorn/x86_64/lib/libelf.a(swap64.o)
 ** fill        0x0000000000414013        0xd
 .text._elf_load_u64L
                0x0000000000414020        0x4 0x10 /usr/local/popcorn/x86_64/lib/libelf.a(swap64.o)
                0x0000000000414020                _elf_load_u64L
 ** fill        0x0000000000414024        0xc
 .text._elf_load_u64M
                0x0000000000414030        0x7 0x10 /usr/local/popcorn/x86_64/lib/libelf.a(swap64.o)
                0x0000000000414030                _elf_load_u64M
 ** fill        0x0000000000414037        0x9
 .text._elf_load_i64L
                0x0000000000414040        0x4 0x10 /usr/local/popcorn/x86_64/lib/libelf.a(swap64.o)
                0x0000000000414040                _elf_load_i64L
 ** fill        0x0000000000414044        0xc
 .text._elf_load_i64M
                0x0000000000414050        0x7 0x10 /usr/local/popcorn/x86_64/lib/libelf.a(swap64.o)
                0x0000000000414050                _elf_load_i64M
 ** fill        0x0000000000414057        0x9
 .text._elf_store_u64L
                0x0000000000414060       0x3c 0x10 /usr/local/popcorn/x86_64/lib/libelf.a(swap64.o)
                0x0000000000414060                _elf_store_u64L
 ** fill        0x000000000041409c        0x4
 .text._elf_store_u64M
                0x00000000004140a0       0x3c 0x10 /usr/local/popcorn/x86_64/lib/libelf.a(swap64.o)
                0x00000000004140a0                _elf_store_u64M
 ** fill        0x00000000004140dc        0x4
 .text._elf_store_i64L
                0x00000000004140e0       0x3c 0x10 /usr/local/popcorn/x86_64/lib/libelf.a(swap64.o)
                0x00000000004140e0                _elf_store_i64L
 ** fill        0x000000000041411c        0x4
 .text._elf_store_i64M
                0x0000000000414120       0x3c 0x10 /usr/local/popcorn/x86_64/lib/libelf.a(swap64.o)
                0x0000000000414120                _elf_store_i64M
 .text          0x000000000041415c        0x0 0x1 /usr/local/popcorn/x86_64/lib/libelf.a(verdef_32_tof.o)
 ** fill        0x000000000041415c        0x4
 .text._elf_verdef_32L11_tof
                0x0000000000414160      0x227 0x10 /usr/local/popcorn/x86_64/lib/libelf.a(verdef_32_tof.o)
                0x0000000000414160                _elf_verdef_32L11_tof
 ** fill        0x0000000000414387        0x9
 .text._elf_verdef_32M11_tof
                0x0000000000414390      0x227 0x10 /usr/local/popcorn/x86_64/lib/libelf.a(verdef_32_tof.o)
                0x0000000000414390                _elf_verdef_32M11_tof
 ** fill        0x00000000004145b7        0x9
 .text._elf_verneed_32L11_tof
                0x00000000004145c0      0x267 0x10 /usr/local/popcorn/x86_64/lib/libelf.a(verdef_32_tof.o)
                0x00000000004145c0                _elf_verneed_32L11_tof
 ** fill        0x0000000000414827        0x9
 .text._elf_verneed_32M11_tof
                0x0000000000414830      0x267 0x10 /usr/local/popcorn/x86_64/lib/libelf.a(verdef_32_tof.o)
                0x0000000000414830                _elf_verneed_32M11_tof
 .text          0x0000000000414a97        0x0 0x1 /usr/local/popcorn/x86_64/lib/libelf.a(verdef_32_tom.o)
 ** fill        0x0000000000414a97        0x9
 .text._elf_verdef_32L11_tom
                0x0000000000414aa0      0x137 0x10 /usr/local/popcorn/x86_64/lib/libelf.a(verdef_32_tom.o)
                0x0000000000414aa0                _elf_verdef_32L11_tom
 ** fill        0x0000000000414bd7        0x9
 .text._elf_verdef_32M11_tom
                0x0000000000414be0      0x167 0x10 /usr/local/popcorn/x86_64/lib/libelf.a(verdef_32_tom.o)
                0x0000000000414be0                _elf_verdef_32M11_tom
 ** fill        0x0000000000414d47        0x9
 .text._elf_verneed_32L11_tom
                0x0000000000414d50      0x147 0x10 /usr/local/popcorn/x86_64/lib/libelf.a(verdef_32_tom.o)
                0x0000000000414d50                _elf_verneed_32L11_tom
 ** fill        0x0000000000414e97        0x9
 .text._elf_verneed_32M11_tom
                0x0000000000414ea0      0x177 0x10 /usr/local/popcorn/x86_64/lib/libelf.a(verdef_32_tom.o)
                0x0000000000414ea0                _elf_verneed_32M11_tom
 .text          0x0000000000415017        0x0 0x1 /usr/local/popcorn/x86_64/lib/libelf.a(verdef_64_tof.o)
 ** fill        0x0000000000415017        0x9
 .text._elf_verdef_64L11_tof
                0x0000000000415020      0x227 0x10 /usr/local/popcorn/x86_64/lib/libelf.a(verdef_64_tof.o)
                0x0000000000415020                _elf_verdef_64L11_tof
 ** fill        0x0000000000415247        0x9
 .text._elf_verdef_64M11_tof
                0x0000000000415250      0x227 0x10 /usr/local/popcorn/x86_64/lib/libelf.a(verdef_64_tof.o)
                0x0000000000415250                _elf_verdef_64M11_tof
 ** fill        0x0000000000415477        0x9
 .text._elf_verneed_64L11_tof
                0x0000000000415480      0x267 0x10 /usr/local/popcorn/x86_64/lib/libelf.a(verdef_64_tof.o)
                0x0000000000415480                _elf_verneed_64L11_tof
 ** fill        0x00000000004156e7        0x9
 .text._elf_verneed_64M11_tof
                0x00000000004156f0      0x267 0x10 /usr/local/popcorn/x86_64/lib/libelf.a(verdef_64_tof.o)
                0x00000000004156f0                _elf_verneed_64M11_tof
 .text          0x0000000000415957        0x0 0x1 /usr/local/popcorn/x86_64/lib/libelf.a(verdef_64_tom.o)
 ** fill        0x0000000000415957        0x9
 .text._elf_verdef_64L11_tom
                0x0000000000415960      0x137 0x10 /usr/local/popcorn/x86_64/lib/libelf.a(verdef_64_tom.o)
                0x0000000000415960                _elf_verdef_64L11_tom
 ** fill        0x0000000000415a97        0x9
 .text._elf_verdef_64M11_tom
                0x0000000000415aa0      0x167 0x10 /usr/local/popcorn/x86_64/lib/libelf.a(verdef_64_tom.o)
                0x0000000000415aa0                _elf_verdef_64M11_tom
 ** fill        0x0000000000415c07        0x9
 .text._elf_verneed_64L11_tom
                0x0000000000415c10      0x147 0x10 /usr/local/popcorn/x86_64/lib/libelf.a(verdef_64_tom.o)
                0x0000000000415c10                _elf_verneed_64L11_tom
 ** fill        0x0000000000415d57        0x9
 .text._elf_verneed_64M11_tom
                0x0000000000415d60      0x177 0x10 /usr/local/popcorn/x86_64/lib/libelf.a(verdef_64_tom.o)
                0x0000000000415d60                _elf_verneed_64M11_tom
 .text          0x0000000000415ed7        0x0 0x1 /usr/local/popcorn/x86_64/lib/libelf.a(getscn.o)
 ** fill        0x0000000000415ed7        0x9
 .text.elf_getscn
                0x0000000000415ee0       0x7d 0x10 /usr/local/popcorn/x86_64/lib/libelf.a(getscn.o)
                0x0000000000415ee0                elf_getscn
 .text          0x0000000000415f5d        0x0 0x1 /usr/local/popcorn/x86_64/lib/libelf.a(newscn.o)
 ** fill        0x0000000000415f5d        0x3
 .text._elf_update_shnum
                0x0000000000415f60       0x7d 0x10 /usr/local/popcorn/x86_64/lib/libelf.a(newscn.o)
                0x0000000000415f60                _elf_update_shnum
 ** fill        0x0000000000415fdd        0x3
 .text._elf_first_scn
                0x0000000000415fe0      0x108 0x10 /usr/local/popcorn/x86_64/lib/libelf.a(newscn.o)
                0x0000000000415fe0                _elf_first_scn
 ** fill        0x00000000004160e8        0x8
 .text.elf_newscn
                0x00000000004160f0      0x28d 0x10 /usr/local/popcorn/x86_64/lib/libelf.a(newscn.o)
                0x00000000004160f0                elf_newscn
 .text          0x000000000041637d        0x0 0x1 /usr/local/popcorn/x86_64/lib/libelf.a(32.fsize.o)
 ** fill        0x000000000041637d        0x3
 .text.elf32_fsize
                0x0000000000416380       0x47 0x10 /usr/local/popcorn/x86_64/lib/libelf.a(32.fsize.o)
                0x0000000000416380                elf32_fsize
 ** fill        0x00000000004163c7        0x9
 .text.elf64_fsize
                0x00000000004163d0       0x47 0x10 /usr/local/popcorn/x86_64/lib/libelf.a(32.fsize.o)
                0x00000000004163d0                elf64_fsize
 ** fill        0x0000000000416417        0x9
 .text.gelf_fsize
                0x0000000000416420       0x96 0x10 /usr/local/popcorn/x86_64/lib/libelf.a(32.fsize.o)
                0x0000000000416420                gelf_fsize
 ** fill        0x00000000004164b6        0xa
 .text.gelf_msize
                0x00000000004164c0       0x9d 0x10 /usr/local/popcorn/x86_64/lib/libelf.a(32.fsize.o)
                0x00000000004164c0                gelf_msize
 ** fill        0x000000000041655d        0x3
 .text          0x0000000000416560        0x0 0x4 /usr/local/popcorn/x86_64/lib/libc.a(sysconf.o)
 .text.sysconf  0x0000000000416560      0x1a2 0x1 /usr/local/popcorn/x86_64/lib/libc.a(sysconf.o)
                0x0000000000416560                sysconf
 ** fill        0x0000000000416702        0x2
 .text          0x0000000000416704        0x0 0x4 /usr/local/popcorn/x86_64/lib/libc.a(__stack_chk_fail.o)
 .text.__init_ssp
                0x0000000000416704       0x46 0x1 /usr/local/popcorn/x86_64/lib/libc.a(__stack_chk_fail.o)
                0x0000000000416704                __init_ssp
 .text.__stack_chk_fail
                0x000000000041674a        0x2 0x1 /usr/local/popcorn/x86_64/lib/libc.a(__stack_chk_fail.o)
                0x000000000041674a                __stack_chk_fail
 .text          0x000000000041674c        0x0 0x4 /usr/local/popcorn/x86_64/lib/libc.a(getenv.o)
 .text.getenv   0x000000000041674c       0xa9 0x1 /usr/local/popcorn/x86_64/lib/libc.a(getenv.o)
                0x000000000041674c                getenv
 ** fill        0x00000000004167f5        0x3
 .text          0x00000000004167f8        0x0 0x4 /usr/local/popcorn/x86_64/lib/libc.a(assert.o)
 .text.__assert_fail
                0x00000000004167f8       0x2c 0x1 /usr/local/popcorn/x86_64/lib/libc.a(assert.o)
                0x00000000004167f8                __assert_fail
 .text          0x0000000000416824        0x0 0x4 /usr/local/popcorn/x86_64/lib/libc.a(open.o)
 .text.open     0x0000000000416824      0x125 0x1 /usr/local/popcorn/x86_64/lib/libc.a(open.o)
                0x0000000000416824                open
                0x0000000000416824                open64
 ** fill        0x0000000000416949        0x3
 .text          0x000000000041694c        0x0 0x4 /usr/local/popcorn/x86_64/lib/libc.a(prctl.o)
 .text.prctl    0x000000000041694c      0x10e 0x1 /usr/local/popcorn/x86_64/lib/libc.a(prctl.o)
                0x000000000041694c                prctl
 ** fill        0x0000000000416a5a        0x2
 .text          0x0000000000416a5c        0x0 0x4 /usr/local/popcorn/x86_64/lib/libc.a(sysinfo.o)
 .text.__lsysinfo
                0x0000000000416a5c        0xf 0x1 /usr/local/popcorn/x86_64/lib/libc.a(sysinfo.o)
                0x0000000000416a5c                __lsysinfo
                0x0000000000416a5c                sysinfo
 ** fill        0x0000000000416a6b        0x1
 .text          0x0000000000416a6c        0x0 0x4 /usr/local/popcorn/x86_64/lib/libc.a(calloc.o)
 ** fill        0x0000000000416a6c        0x4
 .text.calloc   0x0000000000416a70      0x120 0x10 /usr/local/popcorn/x86_64/lib/libc.a(calloc.o)
                0x0000000000416a70                calloc
 .text          0x0000000000416b90        0x0 0x4 /usr/local/popcorn/x86_64/lib/libc.a(lite_malloc.o)
 .text.__simple_malloc
                0x0000000000416b90       0xe8 0x10 /usr/local/popcorn/x86_64/lib/libc.a(lite_malloc.o)
                0x0000000000416b90                __simple_malloc
 .text          0x0000000000416c78        0x0 0x4 /usr/local/popcorn/x86_64/lib/libc.a(malloc.o)
 ** fill        0x0000000000416c78        0x8
 .text.malloc   0x0000000000416c80      0x53d 0x10 /usr/local/popcorn/x86_64/lib/libc.a(malloc.o)
                0x0000000000416c80                malloc
 ** fill        0x00000000004171bd        0x3
 .text.alloc_rev
                0x00000000004171c0       0xe4 0x10 /usr/local/popcorn/x86_64/lib/libc.a(malloc.o)
 ** fill        0x00000000004172a4        0xc
 .text.lock_bin
                0x00000000004172b0       0x78 0x10 /usr/local/popcorn/x86_64/lib/libc.a(malloc.o)
 ** fill        0x0000000000417328        0x8
 .text.unbin    0x0000000000417330       0x4e 0x10 /usr/local/popcorn/x86_64/lib/libc.a(malloc.o)
 ** fill        0x000000000041737e        0x2
 .text.realloc  0x0000000000417380      0x376 0x10 /usr/local/popcorn/x86_64/lib/libc.a(malloc.o)
                0x0000000000417380                realloc
 ** fill        0x00000000004176f6        0xa
 .text.free     0x0000000000417700      0x4ea 0x10 /usr/local/popcorn/x86_64/lib/libc.a(malloc.o)
                0x0000000000417700                free
 ** fill        0x0000000000417bea        0x2
 .text          0x0000000000417bec        0x0 0x4 /usr/local/popcorn/x86_64/lib/libc.a(getrlimit.o)
 .text.getrlimit
                0x0000000000417bec       0xaa 0x1 /usr/local/popcorn/x86_64/lib/libc.a(getrlimit.o)
                0x0000000000417bec                getrlimit
                0x0000000000417bec                getrlimit64
 ** fill        0x0000000000417c96        0x2
 .text          0x0000000000417c98        0x0 0x4 /usr/local/popcorn/x86_64/lib/libc.a(madvise.o)
 .text.__madvise
                0x0000000000417c98       0x12 0x1 /usr/local/popcorn/x86_64/lib/libc.a(madvise.o)
                0x0000000000417c98                __madvise
                0x0000000000417c98                madvise
 ** fill        0x0000000000417caa        0x2
 .text          0x0000000000417cac        0x0 0x4 /usr/local/popcorn/x86_64/lib/libc.a(mmap.o)
 .text.dummy    0x0000000000417cac        0x1 0x1 /usr/local/popcorn/x86_64/lib/libc.a(mmap.o)
                0x0000000000417cac                __vm_wait
 .text.__mmap   0x0000000000417cad       0x95 0x1 /usr/local/popcorn/x86_64/lib/libc.a(mmap.o)
                0x0000000000417cad                __mmap
                0x0000000000417cad                mmap
                0x0000000000417cad                mmap64
 ** fill        0x0000000000417d42        0x2
 .text          0x0000000000417d44        0x0 0x4 /usr/local/popcorn/x86_64/lib/libc.a(mremap.o)
 .text.__mremap
                0x0000000000417d44       0xcf 0x1 /usr/local/popcorn/x86_64/lib/libc.a(mremap.o)
                0x0000000000417d44                __mremap
                0x0000000000417d44                mremap
 ** fill        0x0000000000417e13        0x1
 .text          0x0000000000417e14        0x0 0x4 /usr/local/popcorn/x86_64/lib/libc.a(munmap.o)
 .text.dummy    0x0000000000417e14        0x1 0x1 /usr/local/popcorn/x86_64/lib/libc.a(munmap.o)
 .text.__munmap
                0x0000000000417e15       0x2b 0x1 /usr/local/popcorn/x86_64/lib/libc.a(munmap.o)
                0x0000000000417e15                __munmap
                0x0000000000417e15                munmap
 .text          0x0000000000417e40        0x0 0x4 /usr/local/popcorn/x86_64/lib/libc.a(fclose.o)
 .text.dummy    0x0000000000417e40        0x1 0x1 /usr/local/popcorn/x86_64/lib/libc.a(fclose.o)
                0x0000000000417e40                __unlist_locked_file
 .text.fclose   0x0000000000417e41       0xaf 0x1 /usr/local/popcorn/x86_64/lib/libc.a(fclose.o)
                0x0000000000417e41                fclose
 .text          0x0000000000417ef0        0x0 0x4 /usr/local/popcorn/x86_64/lib/libc.a(fflush.o)
 .text.fflush   0x0000000000417ef0       0xce 0x1 /usr/local/popcorn/x86_64/lib/libc.a(fflush.o)
                0x0000000000417ef0                fflush
 .text.__fflush_unlocked
                0x0000000000417fbe       0x50 0x1 /usr/local/popcorn/x86_64/lib/libc.a(fflush.o)
                0x0000000000417fbe                fflush_unlocked
 ** fill        0x000000000041800e        0x2
 .text          0x0000000000418010        0x0 0x4 /usr/local/popcorn/x86_64/lib/libc.a(fgets.o)
 .text.fgets    0x0000000000418010      0x165 0x1 /usr/local/popcorn/x86_64/lib/libc.a(fgets.o)
                0x0000000000418010                fgets
                0x0000000000418010                fgets_unlocked
 ** fill        0x0000000000418175        0x3
 .text          0x0000000000418178        0x0 0x4 /usr/local/popcorn/x86_64/lib/libc.a(fopen.o)
 .text.fopen    0x0000000000418178       0xb5 0x1 /usr/local/popcorn/x86_64/lib/libc.a(fopen.o)
                0x0000000000418178                fopen
                0x0000000000418178                fopen64
 ** fill        0x000000000041822d        0x3
 .text          0x0000000000418230        0x0 0x4 /usr/local/popcorn/x86_64/lib/libc.a(fprintf.o)
 .text.fprintf  0x0000000000418230       0x97 0x1 /usr/local/popcorn/x86_64/lib/libc.a(fprintf.o)
                0x0000000000418230                fprintf
 ** fill        0x00000000004182c7        0x1
 .text          0x00000000004182c8        0x0 0x4 /usr/local/popcorn/x86_64/lib/libc.a(getline.o)
 .text.getline  0x00000000004182c8       0x10 0x1 /usr/local/popcorn/x86_64/lib/libc.a(getline.o)
                0x00000000004182c8                getline
 .text          0x00000000004182d8        0x0 0x4 /usr/local/popcorn/x86_64/lib/libc.a(snprintf.o)
 .text.snprintf
                0x00000000004182d8       0x92 0x1 /usr/local/popcorn/x86_64/lib/libc.a(snprintf.o)
                0x00000000004182d8                snprintf
 ** fill        0x000000000041836a        0x2
 .text          0x000000000041836c        0x0 0x4 /usr/local/popcorn/x86_64/lib/libc.a(sscanf.o)
 .text.sscanf   0x000000000041836c       0x97 0x1 /usr/local/popcorn/x86_64/lib/libc.a(sscanf.o)
                0x000000000041836c                __isoc99_sscanf
                0x000000000041836c                sscanf
 ** fill        0x0000000000418403        0x1
 .text          0x0000000000418404        0x0 0x4 /usr/local/popcorn/x86_64/lib/libc.a(stderr.o)
 .text          0x0000000000418404        0x0 0x4 /usr/local/popcorn/x86_64/lib/libc.a(vsnprintf.o)
 .text.vsnprintf
                0x0000000000418404       0xd4 0x1 /usr/local/popcorn/x86_64/lib/libc.a(vsnprintf.o)
                0x0000000000418404                vsnprintf
 .text.sn_write
                0x00000000004184d8       0x32 0x1 /usr/local/popcorn/x86_64/lib/libc.a(vsnprintf.o)
 ** fill        0x000000000041850a        0x2
 .text          0x000000000041850c        0x0 0x4 /usr/local/popcorn/x86_64/lib/libc.a(vsscanf.o)
 .text.vsscanf  0x000000000041850c       0x69 0x1 /usr/local/popcorn/x86_64/lib/libc.a(vsscanf.o)
                0x000000000041850c                __isoc99_vsscanf
                0x000000000041850c                vsscanf
 .text.do_read  0x0000000000418575        0x5 0x1 /usr/local/popcorn/x86_64/lib/libc.a(vsscanf.o)
 ** fill        0x000000000041857a        0x2
 .text          0x000000000041857c        0x0 0x4 /usr/local/popcorn/x86_64/lib/libc.a(strtol.o)
 .text.strtoull
                0x000000000041857c        0xc 0x1 /usr/local/popcorn/x86_64/lib/libc.a(strtol.o)
                0x000000000041857c                __strtoull_internal
                0x000000000041857c                strtoull
 .text.strtox   0x0000000000418588       0xa6 0x1 /usr/local/popcorn/x86_64/lib/libc.a(strtol.o)
 .text.strtoll  0x000000000041862e        0xf 0x1 /usr/local/popcorn/x86_64/lib/libc.a(strtol.o)
                0x000000000041862e                __strtoll_internal
                0x000000000041862e                strtoll
 .text.strtoul  0x000000000041863d        0xc 0x1 /usr/local/popcorn/x86_64/lib/libc.a(strtol.o)
                0x000000000041863d                __strtoul_internal
                0x000000000041863d                strtoul
 .text.strtol   0x0000000000418649        0xf 0x1 /usr/local/popcorn/x86_64/lib/libc.a(strtol.o)
                0x0000000000418649                __strtol_internal
                0x0000000000418649                strtol
 .text.strtoimax
                0x0000000000418658        0xf 0x1 /usr/local/popcorn/x86_64/lib/libc.a(strtol.o)
                0x0000000000418658                __strtoimax_internal
                0x0000000000418658                strtoimax
 .text.strtoumax
                0x0000000000418667        0xc 0x1 /usr/local/popcorn/x86_64/lib/libc.a(strtol.o)
                0x0000000000418667                __strtoumax_internal
                0x0000000000418667                strtoumax
 ** fill        0x0000000000418673        0x1
 .text          0x0000000000418674        0x0 0x4 /usr/local/popcorn/x86_64/lib/libc.a(memcmp.o)
 ** fill        0x0000000000418674        0xc
 .text.memcmp   0x0000000000418680       0x28 0x10 /usr/local/popcorn/x86_64/lib/libc.a(memcmp.o)
                0x0000000000418680                memcmp
 .text          0x00000000004186a8        0x0 0x4 /usr/local/popcorn/x86_64/lib/libc.a(memmove.o)
 .text.memmove  0x00000000004186a8       0x25 0x1 /usr/local/popcorn/x86_64/lib/libc.a(memmove.o)
                0x00000000004186a8                memmove
 ** fill        0x00000000004186cd        0x3
 .text          0x00000000004186d0        0x0 0x4 /usr/local/popcorn/x86_64/lib/libc.a(strchr.o)
 .text.strchr   0x00000000004186d0       0x16 0x10 /usr/local/popcorn/x86_64/lib/libc.a(strchr.o)
                0x00000000004186d0                strchr
 ** fill        0x00000000004186e6        0x2
 .text          0x00000000004186e8        0x0 0x4 /usr/local/popcorn/x86_64/lib/libc.a(strchrnul.o)
 ** fill        0x00000000004186e8        0x8
 .text.__strchrnul
                0x00000000004186f0       0xe3 0x10 /usr/local/popcorn/x86_64/lib/libc.a(strchrnul.o)
                0x00000000004186f0                __strchrnul
                0x00000000004186f0                strchrnul
 ** fill        0x00000000004187d3        0x1
 .text          0x00000000004187d4        0x0 0x4 /usr/local/popcorn/x86_64/lib/libc.a(strcmp.o)
 ** fill        0x00000000004187d4        0xc
 .text.strcmp   0x00000000004187e0       0x44 0x10 /usr/local/popcorn/x86_64/lib/libc.a(strcmp.o)
                0x00000000004187e0                strcmp
 .text          0x0000000000418824        0x0 0x4 /usr/local/popcorn/x86_64/lib/libc.a(strlen.o)
 ** fill        0x0000000000418824        0xc
 .text.strlen   0x0000000000418830       0x6e 0x10 /usr/local/popcorn/x86_64/lib/libc.a(strlen.o)
                0x0000000000418830                strlen
 ** fill        0x000000000041889e        0x2
 .text          0x00000000004188a0        0x0 0x4 /usr/local/popcorn/x86_64/lib/libc.a(strncmp.o)
 .text.strncmp  0x00000000004188a0       0x52 0x10 /usr/local/popcorn/x86_64/lib/libc.a(strncmp.o)
                0x00000000004188a0                strncmp
 ** fill        0x00000000004188f2        0x2
 .text          0x00000000004188f4        0x0 0x4 /usr/local/popcorn/x86_64/lib/libc.a(strstr.o)
 ** fill        0x00000000004188f4        0xc
 .text.strstr   0x0000000000418900      0x604 0x10 /usr/local/popcorn/x86_64/lib/libc.a(strstr.o)
                0x0000000000418900                strstr
 .text          0x0000000000418f04        0x0 0x4 /usr/local/popcorn/x86_64/lib/libc.a(pthread_attr_get.o)
 .text.pthread_attr_getdetachstate
                0x0000000000418f04        0x8 0x1 /usr/local/popcorn/x86_64/lib/libc.a(pthread_attr_get.o)
                0x0000000000418f04                pthread_attr_getdetachstate
 .text.pthread_attr_getguardsize
                0x0000000000418f0c        0xf 0x1 /usr/local/popcorn/x86_64/lib/libc.a(pthread_attr_get.o)
                0x0000000000418f0c                pthread_attr_getguardsize
 .text.pthread_attr_getinheritsched
                0x0000000000418f1b        0x8 0x1 /usr/local/popcorn/x86_64/lib/libc.a(pthread_attr_get.o)
                0x0000000000418f1b                pthread_attr_getinheritsched
 .text.pthread_attr_getschedparam
                0x0000000000418f23        0x8 0x1 /usr/local/popcorn/x86_64/lib/libc.a(pthread_attr_get.o)
                0x0000000000418f23                pthread_attr_getschedparam
 .text.pthread_attr_getschedpolicy
                0x0000000000418f2b        0x8 0x1 /usr/local/popcorn/x86_64/lib/libc.a(pthread_attr_get.o)
                0x0000000000418f2b                pthread_attr_getschedpolicy
 .text.pthread_attr_getscope
                0x0000000000418f33        0x9 0x1 /usr/local/popcorn/x86_64/lib/libc.a(pthread_attr_get.o)
                0x0000000000418f33                pthread_attr_getscope
 .text.pthread_attr_getstack
                0x0000000000418f3c       0x22 0x1 /usr/local/popcorn/x86_64/lib/libc.a(pthread_attr_get.o)
                0x0000000000418f3c                pthread_attr_getstack
 .text.pthread_attr_getstacksize
                0x0000000000418f5e        0xe 0x1 /usr/local/popcorn/x86_64/lib/libc.a(pthread_attr_get.o)
                0x0000000000418f5e                pthread_attr_getstacksize
 .text.pthread_barrierattr_getpshared
                0x0000000000418f6c        0xe 0x1 /usr/local/popcorn/x86_64/lib/libc.a(pthread_attr_get.o)
                0x0000000000418f6c                pthread_barrierattr_getpshared
 .text.pthread_condattr_getclock
                0x0000000000418f7a        0xc 0x1 /usr/local/popcorn/x86_64/lib/libc.a(pthread_attr_get.o)
                0x0000000000418f7a                pthread_condattr_getclock
 .text.pthread_condattr_getpshared
                0x0000000000418f86        0xa 0x1 /usr/local/popcorn/x86_64/lib/libc.a(pthread_attr_get.o)
                0x0000000000418f86                pthread_condattr_getpshared
 .text.pthread_mutexattr_getprotocol
                0x0000000000418f90        0x9 0x1 /usr/local/popcorn/x86_64/lib/libc.a(pthread_attr_get.o)
                0x0000000000418f90                pthread_mutexattr_getprotocol
 .text.pthread_mutexattr_getpshared
                0x0000000000418f99        0xd 0x1 /usr/local/popcorn/x86_64/lib/libc.a(pthread_attr_get.o)
                0x0000000000418f99                pthread_mutexattr_getpshared
 .text.pthread_mutexattr_getrobust
                0x0000000000418fa6        0xd 0x1 /usr/local/popcorn/x86_64/lib/libc.a(pthread_attr_get.o)
                0x0000000000418fa6                pthread_mutexattr_getrobust
 .text.pthread_mutexattr_gettype
                0x0000000000418fb3        0xa 0x1 /usr/local/popcorn/x86_64/lib/libc.a(pthread_attr_get.o)
                0x0000000000418fb3                pthread_mutexattr_gettype
 .text.pthread_rwlockattr_getpshared
                0x0000000000418fbd        0x7 0x1 /usr/local/popcorn/x86_64/lib/libc.a(pthread_attr_get.o)
                0x0000000000418fbd                pthread_rwlockattr_getpshared
 .text          0x0000000000418fc4        0x0 0x4 /usr/local/popcorn/x86_64/lib/libc.a(pthread_getattr_np.o)
 .text.pthread_getattr_np
                0x0000000000418fc4      0x121 0x1 /usr/local/popcorn/x86_64/lib/libc.a(pthread_getattr_np.o)
                0x0000000000418fc4                pthread_getattr_np
 ** fill        0x00000000004190e5        0x3
 .text          0x00000000004190e8        0x0 0x4 /usr/local/popcorn/x86_64/lib/libc.a(pthread_getspecific.o)
 .text.__pthread_getspecific
                0x00000000004190e8       0x17 0x1 /usr/local/popcorn/x86_64/lib/libc.a(pthread_getspecific.o)
                0x00000000004190e8                pthread_getspecific
                0x00000000004190e8                tss_get
 ** fill        0x00000000004190ff        0x1
 .text          0x0000000000419100        0x0 0x4 /usr/local/popcorn/x86_64/lib/libc.a(pthread_key_create.o)
 .text.__pthread_key_create
                0x0000000000419100       0x68 0x1 /usr/local/popcorn/x86_64/lib/libc.a(pthread_key_create.o)
                0x0000000000419100                __pthread_key_create
                0x0000000000419100                pthread_key_create
 .text.nodtor   0x0000000000419168        0x1 0x1 /usr/local/popcorn/x86_64/lib/libc.a(pthread_key_create.o)
 .text.__pthread_key_delete
                0x0000000000419169       0x11 0x1 /usr/local/popcorn/x86_64/lib/libc.a(pthread_key_create.o)
                0x0000000000419169                __pthread_key_delete
                0x0000000000419169                pthread_key_delete
 .text.__pthread_tsd_run_dtors
                0x000000000041917a       0x6c 0x1 /usr/local/popcorn/x86_64/lib/libc.a(pthread_key_create.o)
                0x000000000041917a                __pthread_tsd_run_dtors
 ** fill        0x00000000004191e6        0x2
 .text          0x00000000004191e8        0x0 0x4 /usr/local/popcorn/x86_64/lib/libc.a(pthread_migrate.o)
 .text.pthread_migrate_args
                0x00000000004191e8       0x10 0x1 /usr/local/popcorn/x86_64/lib/libc.a(pthread_migrate.o)
                0x00000000004191e8                pthread_migrate_args
 .text          0x00000000004191f8        0x0 0x4 /usr/local/popcorn/x86_64/lib/libc.a(pthread_self.o)
 .text.__pthread_self_internal
                0x00000000004191f8        0xa 0x1 /usr/local/popcorn/x86_64/lib/libc.a(pthread_self.o)
                0x00000000004191f8                pthread_self
                0x00000000004191f8                thrd_current
 ** fill        0x0000000000419202        0x2
 .text          0x0000000000419204        0x0 0x4 /usr/local/popcorn/x86_64/lib/libc.a(pthread_setspecific.o)
 .text.pthread_setspecific
                0x0000000000419204       0x26 0x1 /usr/local/popcorn/x86_64/lib/libc.a(pthread_setspecific.o)
                0x0000000000419204                pthread_setspecific
 ** fill        0x000000000041922a        0x2
 .text          0x000000000041922c        0x0 0x4 /usr/local/popcorn/x86_64/lib/libc.a(close.o)
 .text.dummy    0x000000000041922c        0x3 0x1 /usr/local/popcorn/x86_64/lib/libc.a(close.o)
 .text.close    0x000000000041922f       0x3f 0x1 /usr/local/popcorn/x86_64/lib/libc.a(close.o)
                0x000000000041922f                close
 ** fill        0x000000000041926e        0x2
 .text          0x0000000000419270        0x0 0x4 /usr/local/popcorn/x86_64/lib/libc.a(getpid.o)
 .text.getpid   0x0000000000419270        0x8 0x1 /usr/local/popcorn/x86_64/lib/libc.a(getpid.o)
                0x0000000000419270                getpid
 .text          0x0000000000419278        0x0 0x4 /usr/local/popcorn/x86_64/lib/libc.a(lseek.o)
 .text.lseek    0x0000000000419278       0x15 0x1 /usr/local/popcorn/x86_64/lib/libc.a(lseek.o)
                0x0000000000419278                lseek
                0x0000000000419278                lseek64
 ** fill        0x000000000041928d        0x3
 .text          0x0000000000419290        0x0 0x4 /usr/local/popcorn/x86_64/lib/libc.a(read.o)
 .text.read     0x0000000000419290       0x2e 0x1 /usr/local/popcorn/x86_64/lib/libc.a(read.o)
                0x0000000000419290                read
 ** fill        0x00000000004192be        0x2
 .text          0x00000000004192c0        0x0 0x4 /usr/local/popcorn/x86_64/lib/libc.a(abort.o)
 .text.abort    0x00000000004192c0       0x17 0x1 /usr/local/popcorn/x86_64/lib/libc.a(abort.o)
                0x00000000004192c0                abort
 ** fill        0x00000000004192d7        0x1
 .text          0x00000000004192d8        0x0 0x4 /usr/local/popcorn/x86_64/lib/libc.a(intscan.o)
 ** fill        0x00000000004192d8        0x8
 .text.__intscan
                0x00000000004192e0      0x59d 0x10 /usr/local/popcorn/x86_64/lib/libc.a(intscan.o)
                0x00000000004192e0                __intscan
 ** fill        0x000000000041987d        0x3
 .text          0x0000000000419880        0x0 0x4 /usr/local/popcorn/x86_64/lib/libc.a(shgetc.o)
 .text.__shlim  0x0000000000419880       0x39 0x10 /usr/local/popcorn/x86_64/lib/libc.a(shgetc.o)
                0x0000000000419880                __shlim
 ** fill        0x00000000004198b9        0x7
 .text.__shgetc
                0x00000000004198c0       0x9c 0x10 /usr/local/popcorn/x86_64/lib/libc.a(shgetc.o)
                0x00000000004198c0                __shgetc
 .text          0x000000000041995c        0x0 0x4 /usr/local/popcorn/x86_64/lib/libc.a(__brk.o)
 ** fill        0x000000000041995c        0x4
 .text.__brk    0x0000000000419960        0x8 0x10 /usr/local/popcorn/x86_64/lib/libc.a(__brk.o)
                0x0000000000419960                __brk
 .text          0x0000000000419968        0x0 0x4 /usr/local/popcorn/x86_64/lib/libc.a(raise.o)
 .text.raise    0x0000000000419968       0x4d 0x1 /usr/local/popcorn/x86_64/lib/libc.a(raise.o)
                0x0000000000419968                raise
 ** fill        0x00000000004199b5        0x3
 .text          0x00000000004199b8        0x0 0x4 /usr/local/popcorn/x86_64/lib/libc.a(__fdopen.o)
 .text.__fdopen
                0x00000000004199b8      0x1ac 0x1 /usr/local/popcorn/x86_64/lib/libc.a(__fdopen.o)
                0x00000000004199b8                __fdopen
                0x00000000004199b8                fdopen
 .text          0x0000000000419b64        0x0 0x4 /usr/local/popcorn/x86_64/lib/libc.a(__fmodeflags.o)
 .text.__fmodeflags
                0x0000000000419b64       0x8d 0x1 /usr/local/popcorn/x86_64/lib/libc.a(__fmodeflags.o)
                0x0000000000419b64                __fmodeflags
 ** fill        0x0000000000419bf1        0x3
 .text          0x0000000000419bf4        0x0 0x4 /usr/local/popcorn/x86_64/lib/libc.a(__stdio_read.o)
 .text.__stdio_read
                0x0000000000419bf4       0xeb 0x1 /usr/local/popcorn/x86_64/lib/libc.a(__stdio_read.o)
                0x0000000000419bf4                __stdio_read
 .text.cleanup  0x0000000000419cdf       0x10 0x1 /usr/local/popcorn/x86_64/lib/libc.a(__stdio_read.o)
 ** fill        0x0000000000419cef        0x1
 .text          0x0000000000419cf0        0x0 0x4 /usr/local/popcorn/x86_64/lib/libc.a(__string_read.o)
 .text.__string_read
                0x0000000000419cf0       0x79 0x1 /usr/local/popcorn/x86_64/lib/libc.a(__string_read.o)
                0x0000000000419cf0                __string_read
 ** fill        0x0000000000419d69        0x3
 .text          0x0000000000419d6c        0x0 0x4 /usr/local/popcorn/x86_64/lib/libc.a(__uflow.o)
 .text.__uflow  0x0000000000419d6c       0x38 0x1 /usr/local/popcorn/x86_64/lib/libc.a(__uflow.o)
                0x0000000000419d6c                __uflow
 .text          0x0000000000419da4        0x0 0x4 /usr/local/popcorn/x86_64/lib/libc.a(getdelim.o)
 .text.getdelim
                0x0000000000419da4      0x1f9 0x1 /usr/local/popcorn/x86_64/lib/libc.a(getdelim.o)
                0x0000000000419da4                __getdelim
                0x0000000000419da4                getdelim
 ** fill        0x0000000000419f9d        0x3
 .text          0x0000000000419fa0        0x0 0x4 /usr/local/popcorn/x86_64/lib/libc.a(vfscanf.o)
 .text.vfscanf  0x0000000000419fa0      0xb23 0x1 /usr/local/popcorn/x86_64/lib/libc.a(vfscanf.o)
                0x0000000000419fa0                __isoc99_vfscanf
                0x0000000000419fa0                vfscanf
 ** fill        0x000000000041aac3        0x1
 .text          0x000000000041aac4        0x0 0x4 /usr/local/popcorn/x86_64/lib/libc.a(floatscan.o)
 ** fill        0x000000000041aac4        0xc
 .text.__floatscan
                0x000000000041aad0     0x170b 0x10 /usr/local/popcorn/x86_64/lib/libc.a(floatscan.o)
                0x000000000041aad0                __floatscan
 ** fill        0x000000000041c1db        0x5
 .text.scanexp  0x000000000041c1e0      0x1d6 0x10 /usr/local/popcorn/x86_64/lib/libc.a(floatscan.o)
 ** fill        0x000000000041c3b6        0x2
 .text          0x000000000041c3b8        0x0 0x4 /usr/local/popcorn/x86_64/lib/libc.a(copysignl.o)
 .text.copysignl
                0x000000000041c3b8       0x2c 0x1 /usr/local/popcorn/x86_64/lib/libc.a(copysignl.o)
                0x000000000041c3b8                copysignl
 .text          0x000000000041c3e4       0x12 0x4 /usr/local/popcorn/x86_64/lib/libc.a(fabs.o)
                0x000000000041c3e4                fabs
 ** fill        0x000000000041c3f6        0x2
 .text          0x000000000041c3f8       0x14 0x4 /usr/local/popcorn/x86_64/lib/libc.a(fmodl.o)
                0x000000000041c3f8                fmodl
 .text          0x000000000041c40c        0x0 0x4 /usr/local/popcorn/x86_64/lib/libc.a(scalbn.o)
 .text.scalbn   0x000000000041c40c       0x8e 0x1 /usr/local/popcorn/x86_64/lib/libc.a(scalbn.o)
                0x000000000041c40c                scalbn
 ** fill        0x000000000041c49a        0x2
 .text          0x000000000041c49c        0x0 0x4 /usr/local/popcorn/x86_64/lib/libc.a(scalbnl.o)
 .text.scalbnl  0x000000000041c49c       0x93 0x1 /usr/local/popcorn/x86_64/lib/libc.a(scalbnl.o)
                0x000000000041c49c                scalbnl
 ** fill        0x000000000041c52f        0x1
 .text          0x000000000041c530        0x0 0x4 /usr/local/popcorn/x86_64/lib/libc.a(mbrtowc.o)
 .text.mbrtowc  0x000000000041c530      0x109 0x1 /usr/local/popcorn/x86_64/lib/libc.a(mbrtowc.o)
                0x000000000041c530                mbrtowc
 ** fill        0x000000000041c639        0x3
 .text          0x000000000041c63c        0x0 0x4 /usr/local/popcorn/x86_64/lib/libc.a(mbsinit.o)
 .text.mbsinit  0x000000000041c63c       0x11 0x1 /usr/local/popcorn/x86_64/lib/libc.a(mbsinit.o)
                0x000000000041c63c                mbsinit
 ** fill        0x000000000041c64d        0x3
 .text          0x000000000041c650        0x0 0x4 /usr/local/popcorn/x86_64/lib/libc.a(block.o)
 .text.__block_all_sigs
                0x000000000041c650       0x1b 0x1 /usr/local/popcorn/x86_64/lib/libc.a(block.o)
                0x000000000041c650                __block_all_sigs
 .text.__block_app_sigs
                0x000000000041c66b       0x1b 0x1 /usr/local/popcorn/x86_64/lib/libc.a(block.o)
                0x000000000041c66b                __block_app_sigs
 .text.__restore_sigs
                0x000000000041c686       0x1b 0x1 /usr/local/popcorn/x86_64/lib/libc.a(block.o)
                0x000000000041c686                __restore_sigs
 ** fill        0x000000000041c6a1        0x3
 .text          0x000000000041c6a4        0x0 0x4 /usr/local/popcorn/x86_64/lib/libc.a(__toread.o)
 .text.__toread
                0x000000000041c6a4       0x63 0x1 /usr/local/popcorn/x86_64/lib/libc.a(__toread.o)
                0x000000000041c6a4                __toread
 .text.__toread_needs_stdio_exit
                0x000000000041c707        0x5 0x1 /usr/local/popcorn/x86_64/lib/libc.a(__toread.o)
                0x000000000041c707                __toread_needs_stdio_exit
 .text          0x000000000041c70c        0x0 0x4 /usr/local/popcorn/x86_64/lib/libc.a(internal.o)

.rodata         0x000000000041c720     0x2d4c
 .rodata.pierre__str_hello__wor
                0x000000000041c720       0x12 0x1 pierre_x86_64.o
                0x000000000041c720                pierre__str_hello__wor
 .rodata.src_env___libc_start_main___init_libc_pfd_
                0x000000000041c740       0x18 0x10 /usr/local/popcorn/x86_64/lib/libc.a(__libc_start_main.o)
                0x000000000041c740                src_env___libc_start_main___init_libc_pfd_
 .rodata.src_env___libc_start_main__str__dev_null_
                0x000000000041c758        0xa 0x1 /usr/local/popcorn/x86_64/lib/libc.a(__libc_start_main.o)
                0x000000000041c758                src_env___libc_start_main__str__dev_null_
 .rodata.stdout
                0x000000000041c768        0x8 0x8 /usr/local/popcorn/x86_64/lib/libc.a(stdout.o)
                0x000000000041c768                stdout
 ** merge constants
                0x000000000041c770       0x28
 .rodata        0x000000000041c7a0       0x20 0x10 /usr/local/popcorn/x86_64/lib/libc.a(vfprintf.o)
 .rodata.printf_core
                0x000000000041c7c0      0x170 0x8 /usr/local/popcorn/x86_64/lib/libc.a(vfprintf.o)
 .rodata.pop_arg
                0x000000000041c930       0x60 0x8 /usr/local/popcorn/x86_64/lib/libc.a(vfprintf.o)
 .rodata.src_stdio_vfprintf_c_states
                0x000000000041c990      0x1d0 0x10 /usr/local/popcorn/x86_64/lib/libc.a(vfprintf.o)
 .rodata.src_stdio_vfprintf__str______0X0x_
                0x000000000041cb60        0xa 0x1 /usr/local/popcorn/x86_64/lib/libc.a(vfprintf.o)
                0x000000000041cb60                src_stdio_vfprintf__str______0X0x_
 .rodata.src_stdio_vfprintf__str_1__null__
                0x000000000041cb6a        0x7 0x1 /usr/local/popcorn/x86_64/lib/libc.a(vfprintf.o)
                0x000000000041cb6a                src_stdio_vfprintf__str_1__null__
 .rodata.src_stdio_vfprintf_c_xdigits
                0x000000000041cb80       0x10 0x10 /usr/local/popcorn/x86_64/lib/libc.a(vfprintf.o)
 .rodata.src_stdio_vfprintf__str_2__0X_0X_0X_
                0x000000000041cb90       0x13 0x1 /usr/local/popcorn/x86_64/lib/libc.a(vfprintf.o)
                0x000000000041cb90                src_stdio_vfprintf__str_2__0X_0X_0X_
 .rodata.src_stdio_vfprintf__str_3_inf_
                0x000000000041cba3        0x4 0x1 /usr/local/popcorn/x86_64/lib/libc.a(vfprintf.o)
                0x000000000041cba3                src_stdio_vfprintf__str_3_inf_
 .rodata.src_stdio_vfprintf__str_4_INF_
                0x000000000041cba7        0x4 0x1 /usr/local/popcorn/x86_64/lib/libc.a(vfprintf.o)
                0x000000000041cba7                src_stdio_vfprintf__str_4_INF_
 .rodata.src_stdio_vfprintf__str_5_nan_
                0x000000000041cbab        0x4 0x1 /usr/local/popcorn/x86_64/lib/libc.a(vfprintf.o)
                0x000000000041cbab                src_stdio_vfprintf__str_5_nan_
 .rodata.src_stdio_vfprintf__str_6_NAN_
                0x000000000041cbaf        0x4 0x1 /usr/local/popcorn/x86_64/lib/libc.a(vfprintf.o)
                0x000000000041cbaf                src_stdio_vfprintf__str_6_NAN_
 .rodata.src_stdio_vfprintf__str_7___
                0x000000000041cbb3        0x2 0x1 /usr/local/popcorn/x86_64/lib/libc.a(vfprintf.o)
                0x000000000041cbb3                src_stdio_vfprintf__str_7___
 .rodata.src_errno_strerror_c_errid
                0x000000000041cbc0       0x58 0x10 /usr/local/popcorn/x86_64/lib/libc.a(strerror.o)
 .rodata.src_errno_strerror_c_errmsg
                0x000000000041cc20      0x70c 0x10 /usr/local/popcorn/x86_64/lib/libc.a(strerror.o)
 .rodata.src_migrate__str__proc_cpui
                0x000000000041d32c        0xe 0x1 /usr/local/popcorn/x86_64/lib/libmigrate.a(migrate.o)
                0x000000000041d32c                src_migrate__str__proc_cpui
 .rodata.src_migrate__str_1_r_
                0x000000000041d33a        0x2 0x1 /usr/local/popcorn/x86_64/lib/libmigrate.a(migrate.o)
                0x000000000041d33a                src_migrate__str_1_r_
 .rodata.src_migrate__str_2_GenuineInt
                0x000000000041d33c        0xd 0x1 /usr/local/popcorn/x86_64/lib/libmigrate.a(migrate.o)
                0x000000000041d33c                src_migrate__str_2_GenuineInt
 .rodata.src_migrate__str_3_AuthenticA
                0x000000000041d349        0xd 0x1 /usr/local/popcorn/x86_64/lib/libmigrate.a(migrate.o)
                0x000000000041d349                src_migrate__str_3_AuthenticA
 .rodata.src_migrate__str_4_Could_not_
                0x000000000041d356       0x1a 0x1 /usr/local/popcorn/x86_64/lib/libmigrate.a(migrate.o)
                0x000000000041d356                src_migrate__str_4_Could_not_
 .rodata.src_migrate__str_5_0_____Coul
                0x000000000041d370       0x19 0x1 /usr/local/popcorn/x86_64/lib/libmigrate.a(migrate.o)
                0x000000000041d370                src_migrate__str_5_0_____Coul
 .rodata.src_migrate__str_6_src_migrat
                0x000000000041d389        0xe 0x1 /usr/local/popcorn/x86_64/lib/libmigrate.a(migrate.o)
                0x000000000041d389                src_migrate__str_6_src_migrat
 .rodata.src_migrate___func_____migrate_shim_internal___migrate_
                0x000000000041d397       0x18 0x1 /usr/local/popcorn/x86_64/lib/libmigrate.a(migrate.o)
                0x000000000041d397                src_migrate___func_____migrate_shim_internal___migrate_
 .rodata.src_userspace__str_ST_AARCH64
                0x000000000041d3af        0xf 0x1 /usr/local/popcorn/x86_64/lib/libstack-transform.a(userspace.o)
                0x000000000041d3af                src_userspace__str_ST_AARCH64
 .rodata.src_userspace__str_1__s_aarch64
                0x000000000041d3be        0xb 0x1 /usr/local/popcorn/x86_64/lib/libstack-transform.a(userspace.o)
                0x000000000041d3be                src_userspace__str_1__s_aarch64
 .rodata.src_userspace__str_2_ST_X86_64_
                0x000000000041d3c9        0xe 0x1 /usr/local/popcorn/x86_64/lib/libstack-transform.a(userspace.o)
                0x000000000041d3c9                src_userspace__str_2_ST_X86_64_
 .rodata.src_userspace__str_3__s_x86_64_
                0x000000000041d3d7        0xa 0x1 /usr/local/popcorn/x86_64/lib/libstack-transform.a(userspace.o)
                0x000000000041d3d7                src_userspace__str_3__s_x86_64_
 .rodata.src_userspace__str_4__proc__d_m
                0x000000000041d3e1        0xe 0x1 /usr/local/popcorn/x86_64/lib/libstack-transform.a(userspace.o)
                0x000000000041d3e1                src_userspace__str_4__proc__d_m
 .rodata.src_userspace__str_5_r_
                0x000000000041d3ef        0x2 0x1 /usr/local/popcorn/x86_64/lib/libstack-transform.a(userspace.o)
                0x000000000041d3ef                src_userspace__str_5_r_
 .rodata.src_userspace__str_6__lx__lx__s
                0x000000000041d3f1       0x19 0x1 /usr/local/popcorn/x86_64/lib/libstack-transform.a(userspace.o)
                0x000000000041d3f1                src_userspace__str_6__lx__lx(short)
 .rodata.src_userspace__str_7__stack__
                0x000000000041d40a        0x8 0x1 /usr/local/popcorn/x86_64/lib/libstack-transform.a(userspace.o)
                0x000000000041d40a                src_userspace__str_7__stack__
 .rodata.src_init__str__stack_tra
                0x000000000041d412       0x1f 0x1 /usr/local/popcorn/x86_64/lib/libstack-transform.a(init.o)
                0x000000000041d412                src_init__str__stack_tra
 .rodata.src_init__str_1__stack_tra
                0x000000000041d431       0x18 0x1 /usr/local/popcorn/x86_64/lib/libstack-transform.a(init.o)
                0x000000000041d431                src_init__str_1__stack_tra
 .rodata.src_init__str_2__stack_tra
                0x000000000041d449       0x14 0x1 /usr/local/popcorn/x86_64/lib/libstack-transform.a(init.o)
                0x000000000041d449                src_init__str_2__stack_tra
 .rodata.src_init__str_3__stack_tra
                0x000000000041d45d       0x16 0x1 /usr/local/popcorn/x86_64/lib/libstack-transform.a(init.o)
                0x000000000041d45d                src_init__str_3__stack_tra
 .rodata.src_init__str_4__stack_tra
                0x000000000041d473       0x16 0x1 /usr/local/popcorn/x86_64/lib/libstack-transform.a(init.o)
                0x000000000041d473                src_init__str_4__stack_tra
 .rodata.src_init__str_5__stack_tra
                0x000000000041d489       0x1c 0x1 /usr/local/popcorn/x86_64/lib/libstack-transform.a(init.o)
                0x000000000041d489                src_init__str_5__stack_tra
 ** merge constants
                0x000000000041d4b0       0x80
 .rodata.src_rewrite__str__src_rewri
                0x000000000041d530       0x42 0x1 /usr/local/popcorn/x86_64/lib/libstack-transform.a(rewrite.o)
                0x000000000041d530                src_rewrite__str__src_rewri
 .rodata.src_rewrite__str_1__src_rewri
                0x000000000041d572       0x68 0x1 /usr/local/popcorn/x86_64/lib/libstack-transform.a(rewrite.o)
                0x000000000041d572                src_rewrite__str_1__src_rewri
 .rodata.src_rewrite__str_2__src_rewri
                0x000000000041d5da       0x54 0x1 /usr/local/popcorn/x86_64/lib/libstack-transform.a(rewrite.o)
                0x000000000041d5da                src_rewrite__str_2__src_rewri
 .rodata.src_rewrite__str_3__src_rewri
                0x000000000041d62e       0x61 0x1 /usr/local/popcorn/x86_64/lib/libstack-transform.a(rewrite.o)
                0x000000000041d62e                src_rewrite__str_3__src_rewri
 .rodata.src_rewrite__str_4__src_rewri
                0x000000000041d68f       0x54 0x1 /usr/local/popcorn/x86_64/lib/libstack-transform.a(rewrite.o)
                0x000000000041d68f                src_rewrite__str_4__src_rewri
 .rodata.src_rewrite__str_5__src_rewri
                0x000000000041d6e3       0x61 0x1 /usr/local/popcorn/x86_64/lib/libstack-transform.a(rewrite.o)
                0x000000000041d6e3                src_rewrite__str_5__src_rewri
 .rodata.src_util__str_x86_64_
                0x000000000041d744        0x7 0x1 /usr/local/popcorn/x86_64/lib/libstack-transform.a(util.o)
                0x000000000041d744                src_util__str_x86_64_
 .rodata.src_util__str_1_aarch64_
                0x000000000041d74b        0x8 0x1 /usr/local/popcorn/x86_64/lib/libstack-transform.a(util.o)
                0x000000000041d74b                src_util__str_1_aarch64_
 .rodata.src_util__str_2_unknown_un
                0x000000000041d753       0x21 0x1 /usr/local/popcorn/x86_64/lib/libstack-transform.a(util.o)
                0x000000000041d753                src_util__str_2_unknown_un
 .rodata.src_arch_aarch64_properties_c_callee_saved_aarch64
                0x000000000041d780       0x28 0x10 /usr/local/popcorn/x86_64/lib/libstack-transform.a(properties.o)
 .rodata.src_arch_aarch64_properties_c_callee_saved_size_aarch64
                0x000000000041d7b0       0x28 0x10 /usr/local/popcorn/x86_64/lib/libstack-transform.a(properties.o)
 .rodata.properties_aarch64
                0x000000000041d7d8       0x48 0x8 /usr/local/popcorn/x86_64/lib/libstack-transform.a(properties.o)
                0x000000000041d7d8                properties_aarch64
 .rodata.src_arch_aarch64_properties__str__src_arch_
                0x000000000041d820       0x5a 0x1 /usr/local/popcorn/x86_64/lib/libstack-transform.a(properties.o)
                0x000000000041d820                src_arch_aarch64_properties__str__src_arch_
 .rodata.src_arch_aarch64_properties__str_1__src_arch_
                0x000000000041d87a       0x51 0x1 /usr/local/popcorn/x86_64/lib/libstack-transform.a(properties.o)
                0x000000000041d87a                src_arch_aarch64_properties__str_1__src_arch_
 .rodata.reg_aarch64
                0x000000000041d8d0      0x300 0x8 /usr/local/popcorn/x86_64/lib/libstack-transform.a(regs.o)
 .rodata.regs_aarch64
                0x000000000041dbd0       0xa0 0x8 /usr/local/popcorn/x86_64/lib/libstack-transform.a(regs.o)
                0x000000000041dbd0                regs_aarch64
 .rodata.src_arch_aarch64_regs__str__src_arch_
                0x000000000041dc70       0x4c 0x1 /usr/local/popcorn/x86_64/lib/libstack-transform.a(regs.o)
                0x000000000041dc70                src_arch_aarch64_regs__str__src_arch_
 .rodata.src_arch_aarch64_regs__str_1__src_arch_
                0x000000000041dcbc       0x4c 0x1 /usr/local/popcorn/x86_64/lib/libstack-transform.a(regs.o)
                0x000000000041dcbc                src_arch_aarch64_regs__str_1__src_arch_
 .rodata.src_arch_x86_64_properties_c_callee_saved_x86_64
                0x000000000041dd08        0xe 0x2 /usr/local/popcorn/x86_64/lib/libstack-transform.a(properties.o)
 .rodata.src_arch_x86_64_properties_c_callee_saved_size_x86_64
                0x000000000041dd16        0xe 0x2 /usr/local/popcorn/x86_64/lib/libstack-transform.a(properties.o)
 .rodata.properties_x86_64
                0x000000000041dd28       0x48 0x8 /usr/local/popcorn/x86_64/lib/libstack-transform.a(properties.o)
                0x000000000041dd28                properties_x86_64
 .rodata.src_arch_x86_64_properties__str__src_arch_
                0x000000000041dd70       0x4f 0x1 /usr/local/popcorn/x86_64/lib/libstack-transform.a(properties.o)
                0x000000000041dd70                src_arch_x86_64_properties__str__src_arch_
 .rodata.reg_x86_64
                0x000000000041ddc0      0x108 0x8 /usr/local/popcorn/x86_64/lib/libstack-transform.a(regs.o)
 .rodata.regs_x86_64
                0x000000000041dec8       0xa0 0x8 /usr/local/popcorn/x86_64/lib/libstack-transform.a(regs.o)
                0x000000000041dec8                regs_x86_64
 .rodata.src_arch_x86_64_regs__str__src_arch_
                0x000000000041df68       0x4b 0x1 /usr/local/popcorn/x86_64/lib/libstack-transform.a(regs.o)
                0x000000000041df68                src_arch_x86_64_regs__str__src_arch_
 .rodata.src_arch_x86_64_regs__str_1__src_arch_
                0x000000000041dfb3       0x4b 0x1 /usr/local/popcorn/x86_64/lib/libstack-transform.a(regs.o)
                0x000000000041dfb3                src_arch_x86_64_regs__str_1__src_arch_
 .rodata.src_arch_x86_64_regs__str_2__src_arch_
                0x000000000041dffe       0x4a 0x1 /usr/local/popcorn/x86_64/lib/libstack-transform.a(regs.o)
                0x000000000041dffe                src_arch_x86_64_regs__str_2__src_arch_
 .rodata.src_arch_x86_64_regs__str_3__src_arch_
                0x000000000041e048       0x4a 0x1 /usr/local/popcorn/x86_64/lib/libstack-transform.a(regs.o)
                0x000000000041e048                src_arch_x86_64_regs__str_3__src_arch_
 .rodata.src_arch_x86_64_regs_switch_table_
                0x000000000041e0a0       0x42 0x10 /usr/local/popcorn/x86_64/lib/libstack-transform.a(regs.o)
                0x000000000041e0a0                src_arch_x86_64_regs_switch_table_
 .rodata.put_val_arch
                0x000000000041e0e8       0x48 0x8 /usr/local/popcorn/x86_64/lib/libstack-transform.a(data.o)
 .rodata.points_to_stack
                0x000000000041e130       0x28 0x8 /usr/local/popcorn/x86_64/lib/libstack-transform.a(data.o)
 .rodata.src_data__str__src_data_
                0x000000000041e158       0x38 0x1 /usr/local/popcorn/x86_64/lib/libstack-transform.a(data.o)
                0x000000000041e158                src_data__str__src_data_
 .rodata.src_data__str_1__src_data_
                0x000000000041e190       0x50 0x1 /usr/local/popcorn/x86_64/lib/libstack-transform.a(data.o)
                0x000000000041e190                src_data__str_1__src_data_
 .rodata.src_data__str_2__src_data_
                0x000000000041e1e0       0x3d 0x1 /usr/local/popcorn/x86_64/lib/libstack-transform.a(data.o)
                0x000000000041e1e0                src_data__str_2__src_data_
 .rodata.src_data__str_3__src_data_
                0x000000000041e21d       0x30 0x1 /usr/local/popcorn/x86_64/lib/libstack-transform.a(data.o)
                0x000000000041e21d                src_data__str_3__src_data_
 .rodata.src_data__str_4__src_data_
                0x000000000041e24d       0x49 0x1 /usr/local/popcorn/x86_64/lib/libstack-transform.a(data.o)
                0x000000000041e24d                src_data__str_4__src_data_
 .rodata.src_data__str_5__src_data_
                0x000000000041e296       0x3f 0x1 /usr/local/popcorn/x86_64/lib/libstack-transform.a(data.o)
                0x000000000041e296                src_data__str_5__src_data_
 .rodata.src_data__str_6__src_data_
                0x000000000041e2d5       0x3d 0x1 /usr/local/popcorn/x86_64/lib/libstack-transform.a(data.o)
                0x000000000041e2d5                src_data__str_6__src_data_
 .rodata.src_data__str_7__src_data_
                0x000000000041e312       0x3f 0x1 /usr/local/popcorn/x86_64/lib/libstack-transform.a(data.o)
                0x000000000041e312                src_data__str_7__src_data_
 .rodata.src_data__str_8__src_data_
                0x000000000041e351       0x4b 0x1 /usr/local/popcorn/x86_64/lib/libstack-transform.a(data.o)
                0x000000000041e351                src_data__str_8__src_data_
 .rodata.src_data__str_9__src_data_
                0x000000000041e39c       0x37 0x1 /usr/local/popcorn/x86_64/lib/libstack-transform.a(data.o)
                0x000000000041e39c                src_data__str_9__src_data_
 ** merge strings
                0x000000000041e3d3       0x23
 .rodata.fmag   0x000000000041e3f6        0x3 0x1 /usr/local/popcorn/x86_64/lib/libelf.a(begin.o)
 .rodata.xlate32_11
                0x000000000041e400      0x220 0x20 /usr/local/popcorn/x86_64/lib/libelf.a(32.xlatetof.o)
 .rodata._elf_data_init
                0x000000000041e620       0x58 0x20 /usr/local/popcorn/x86_64/lib/libelf.a(cook.o)
                0x000000000041e620                _elf_data_init
 .rodata._elf_scn_init
                0x000000000041e680       0xa0 0x20 /usr/local/popcorn/x86_64/lib/libelf.a(cook.o)
                0x000000000041e680                _elf_scn_init
 .rodata.xlate64_11
                0x000000000041e720      0x220 0x20 /usr/local/popcorn/x86_64/lib/libelf.a(64.xlatetof.o)
 .rodata._elf_fmsize
                0x000000000041e940      0x220 0x20 /usr/local/popcorn/x86_64/lib/libelf.a(32.fsize.o)
                0x000000000041e940                _elf_fmsize
 .rodata.sysconf
                0x000000000041eb60       0x50 0x8 /usr/local/popcorn/x86_64/lib/libc.a(sysconf.o)
 .rodata.src_conf_sysconf_c_sysconf_values
                0x000000000041ebb0      0x1f2 0x10 /usr/local/popcorn/x86_64/lib/libc.a(sysconf.o)
 .rodata.src_exit_assert__str_Assertion_
                0x000000000041eda2       0x23 0x1 /usr/local/popcorn/x86_64/lib/libc.a(assert.o)
                0x000000000041eda2                src_exit_assert__str_Assertion_
 .rodata.src_stdio_fopen__str_rwa_
                0x000000000041edc5        0x4 0x1 /usr/local/popcorn/x86_64/lib/libc.a(fopen.o)
                0x000000000041edc5                src_stdio_fopen__str_rwa_
 .rodata.stderr
                0x000000000041edd0        0x8 0x8 /usr/local/popcorn/x86_64/lib/libc.a(stderr.o)
                0x000000000041edd0                stderr
 .rodata.src_stdio_vsnprintf_vsnprintf_f_
                0x000000000041edd8       0xe0 0x8 /usr/local/popcorn/x86_64/lib/libc.a(vsnprintf.o)
                0x000000000041edd8                src_stdio_vsnprintf_vsnprintf_f_
 .rodata.src_internal_intscan_c_table
                0x000000000041eec0      0x101 0x10 /usr/local/popcorn/x86_64/lib/libc.a(intscan.o)
 .rodata.src_internal_intscan__str__________
                0x000000000041efc1        0x9 0x1 /usr/local/popcorn/x86_64/lib/libc.a(intscan.o)
                0x000000000041efc1                src_internal_intscan__str__________
 .rodata.src_stdio___fdopen__str_rwa_
                0x000000000041efca        0x4 0x1 /usr/local/popcorn/x86_64/lib/libc.a(__fdopen.o)
                0x000000000041efca                src_stdio___fdopen__str_rwa_
 .rodata.vfscanf
                0x000000000041efd0      0x338 0x8 /usr/local/popcorn/x86_64/lib/libc.a(vfscanf.o)
 ** merge constants
                0x000000000041f308       0x38
 .rodata.src_internal_floatscan__str_infinity_
                0x000000000041f340        0x9 0x1 /usr/local/popcorn/x86_64/lib/libc.a(floatscan.o)
                0x000000000041f340                src_internal_floatscan__str_infinity_
 .rodata.src_internal_floatscan_c_decfloat_p10s
                0x000000000041f350       0x20 0x10 /usr/local/popcorn/x86_64/lib/libc.a(floatscan.o)
 .rodata.src_internal_floatscan_switch_table_
                0x000000000041f370        0xc 0x4 /usr/local/popcorn/x86_64/lib/libc.a(floatscan.o)
                0x000000000041f370                src_internal_floatscan_switch_table_
 .rodata.src_internal_floatscan_switch_table_2_
                0x000000000041f37c        0xc 0x4 /usr/local/popcorn/x86_64/lib/libc.a(floatscan.o)
                0x000000000041f37c                src_internal_floatscan_switch_table_2_
 .rodata.src_signal_block_c_all_mask
                0x000000000041f388        0x8 0x8 /usr/local/popcorn/x86_64/lib/libc.a(block.o)
 .rodata.src_signal_block_c_app_mask
                0x000000000041f390        0x8 0x8 /usr/local/popcorn/x86_64/lib/libc.a(block.o)
 .rodata.__fsmu8
                0x000000000041f3a0       0xcc 0x10 /usr/local/popcorn/x86_64/lib/libc.a(internal.o)
                0x000000000041f3a0                __fsmu8

.llvm_stackmaps
                0x000000000041f470      0x840
 .llvm_stackmaps
                0x000000000041f470      0x180 0x8 pierre_x86_64.o
 .llvm_stackmaps
                0x000000000041f5f0       0xa0 0x8 test_x86_64.o
 .llvm_stackmaps
                0x000000000041f690      0x620 0x8 /usr/local/popcorn/x86_64/lib/libmigrate.a(migrate.o)

.eh_frame       0x000000000041fcb0     0x29f8
 ** eh_frame    0x000000000041fcb0     0x29f8

.init_array     0x0000000000423fe8       0x18
 .init_array    0x0000000000423fe8       0x10 0x8 /usr/local/popcorn/x86_64/lib/libmigrate.a(migrate.o)
 .init_array    0x0000000000423ff8        0x8 0x8 /usr/local/popcorn/x86_64/lib/libstack-transform.a(init.o)

.data           0x0000000000424000      0x1e0
 .data          0x0000000000424000        0x0 0x4 pierre_x86_64.o
 .data          0x0000000000424000        0x0 0x4 test_x86_64.o
 .data          0x0000000000424000        0x0 0x4 /usr/local/popcorn/x86_64/lib/crt1.o
 .data          0x0000000000424000        0x0 0x4 /usr/local/popcorn/x86_64/lib/libc.a(__libc_start_main.o)
 .data          0x0000000000424000        0x0 0x4 /usr/local/popcorn/x86_64/lib/libc.a(exit.o)
 .data          0x0000000000424000        0x0 0x4 /usr/local/popcorn/x86_64/lib/libc.a(libc.o)
 .data          0x0000000000424000        0x0 0x4 /usr/local/popcorn/x86_64/lib/libc.a(printf.o)
 .data          0x0000000000424000        0x0 0x4 /usr/local/popcorn/x86_64/lib/libc.a(stdout.o)
 .data.src_stdio_stdout_c_f
                0x0000000000424000       0xe0 0x8 /usr/local/popcorn/x86_64/lib/libc.a(stdout.o)
 .data.__stdout_use
                0x00000000004240e0        0x8 0x8 /usr/local/popcorn/x86_64/lib/libc.a(stdout.o)
                0x00000000004240e0                __stdout_used
 .data          0x00000000004240e8        0x0 0x4 /usr/local/popcorn/x86_64/lib/libc.a(vfprintf.o)
 .data          0x00000000004240e8        0x0 0x4 /usr/local/popcorn/x86_64/lib/libc.a(memchr.o)
 .data          0x00000000004240e8        0x0 0x4 /usr/local/popcorn/x86_64/lib/libc.a(memset.o)
 .data          0x00000000004240e8        0x0 0x4 /usr/local/popcorn/x86_64/lib/libc.a(__environ.o)
 .data          0x00000000004240e8        0x0 0x4 /usr/local/popcorn/x86_64/lib/libc.a(__init_tls.o)
 .data          0x00000000004240e8        0x0 0x4 /usr/local/popcorn/x86_64/lib/libc.a(__errno_location.o)
 .data          0x00000000004240e8        0x0 0x4 /usr/local/popcorn/x86_64/lib/libc.a(strerror.o)
 .data          0x00000000004240e8        0x0 0x4 /usr/local/popcorn/x86_64/lib/libc.a(_Exit.o)
 .data          0x00000000004240e8        0x0 0x4 /usr/local/popcorn/x86_64/lib/libc.a(__lctrans.o)
 .data          0x00000000004240e8        0x0 0x4 /usr/local/popcorn/x86_64/lib/libc.a(__fpclassifyl.o)
 .data          0x00000000004240e8        0x0 0x4 /usr/local/popcorn/x86_64/lib/libc.a(__signbitl.o)
 .data          0x00000000004240e8        0x0 0x4 /usr/local/popcorn/x86_64/lib/libc.a(frexpl.o)
 .data          0x00000000004240e8        0x0 0x4 /usr/local/popcorn/x86_64/lib/libc.a(wctomb.o)
 .data          0x00000000004240e8        0x0 0x4 /usr/local/popcorn/x86_64/lib/libc.a(__lockfile.o)
 .data          0x00000000004240e8        0x0 0x4 /usr/local/popcorn/x86_64/lib/libc.a(__stdio_close.o)
 .data          0x00000000004240e8        0x0 0x4 /usr/local/popcorn/x86_64/lib/libc.a(__stdio_seek.o)
 .data          0x00000000004240e8        0x0 0x4 /usr/local/popcorn/x86_64/lib/libc.a(__stdout_write.o)
 .data          0x00000000004240e8        0x0 0x4 /usr/local/popcorn/x86_64/lib/libc.a(fwrite.o)
 .data          0x00000000004240e8        0x0 0x4 /usr/local/popcorn/x86_64/lib/libc.a(memcpy.o)
 .data          0x00000000004240e8        0x0 0x4 /usr/local/popcorn/x86_64/lib/libc.a(__set_thread_area.o)
 .data          0x00000000004240e8        0x0 0x4 /usr/local/popcorn/x86_64/lib/libc.a(__wait.o)
 .data          0x00000000004240e8        0x0 0x4 /usr/local/popcorn/x86_64/lib/libc.a(syscall_ret.o)
 .data          0x00000000004240e8        0x0 0x4 /usr/local/popcorn/x86_64/lib/libc.a(wcrtomb.o)
 .data          0x00000000004240e8        0x0 0x4 /usr/local/popcorn/x86_64/lib/libc.a(__stdio_write.o)
 .data          0x00000000004240e8        0x0 0x4 /usr/local/popcorn/x86_64/lib/libc.a(__towrite.o)
 .data          0x00000000004240e8        0x0 0x4 /usr/local/popcorn/x86_64/lib/libc.a(__syscall_cp.o)
 .data          0x00000000004240e8        0x0 0x4 /usr/local/popcorn/x86_64/lib/libc.a(pthread_cleanup_push.o)
 .data          0x00000000004240e8        0x0 0x4 /usr/local/popcorn/x86_64/lib/libc.a(syscall.o)
 .data          0x00000000004240e8        0x0 0x4 /usr/local/popcorn/x86_64/lib/libc.a(__stdio_exit.o)
 .data          0x00000000004240e8        0x0 0x4 /usr/local/popcorn/x86_64/lib/libc.a(__lock.o)
 .data          0x00000000004240e8        0x0 0x4 /usr/local/popcorn/x86_64/lib/libmigrate.a(migrate.o)
 .data          0x00000000004240e8        0x0 0x4 /usr/local/popcorn/x86_64/lib/libstack-transform.a(userspace.o)
 .data          0x00000000004240e8        0x0 0x4 /usr/local/popcorn/x86_64/lib/libstack-transform.a(init.o)
 .data          0x00000000004240e8        0x0 0x4 /usr/local/popcorn/x86_64/lib/libstack-transform.a(rewrite.o)
 .data          0x00000000004240e8        0x0 0x4 /usr/local/popcorn/x86_64/lib/libstack-transform.a(unwind.o)
 .data          0x00000000004240e8        0x0 0x4 /usr/local/popcorn/x86_64/lib/libstack-transform.a(util.o)
 .data          0x00000000004240e8        0x0 0x4 /usr/local/popcorn/x86_64/lib/libstack-transform.a(properties.o)
 .data          0x00000000004240e8        0x0 0x4 /usr/local/popcorn/x86_64/lib/libstack-transform.a(regs.o)
 .data          0x00000000004240e8        0x0 0x4 /usr/local/popcorn/x86_64/lib/libstack-transform.a(properties.o)
 .data          0x00000000004240e8        0x0 0x4 /usr/local/popcorn/x86_64/lib/libstack-transform.a(regs.o)
 .data          0x00000000004240e8        0x0 0x4 /usr/local/popcorn/x86_64/lib/libstack-transform.a(data.o)
 .data          0x00000000004240e8        0x0 0x1 /usr/local/popcorn/x86_64/lib/libelf.a(begin.o)
 .data          0x00000000004240e8        0x0 0x1 /usr/local/popcorn/x86_64/lib/libelf.a(end.o)
 .data          0x00000000004240e8        0x0 0x1 /usr/local/popcorn/x86_64/lib/libelf.a(getdata.o)
 .data          0x00000000004240e8        0x0 0x1 /usr/local/popcorn/x86_64/lib/libelf.a(getident.o)
 .data          0x00000000004240e8        0x0 0x1 /usr/local/popcorn/x86_64/lib/libelf.a(nextscn.o)
 .data          0x00000000004240e8        0x0 0x1 /usr/local/popcorn/x86_64/lib/libelf.a(strptr.o)
 .data          0x00000000004240e8        0x0 0x1 /usr/local/popcorn/x86_64/lib/libelf.a(version.o)
 .data          0x00000000004240e8        0x0 0x1 /usr/local/popcorn/x86_64/lib/libelf.a(32.getehdr.o)
 .data          0x00000000004240e8        0x0 0x1 /usr/local/popcorn/x86_64/lib/libelf.a(32.xlatetof.o)
 .data          0x00000000004240e8        0x0 0x1 /usr/local/popcorn/x86_64/lib/libelf.a(cook.o)
 .data          0x00000000004240e8        0x0 0x1 /usr/local/popcorn/x86_64/lib/libelf.a(data.o)
 .data._elf_sanity_checks
                0x00000000004240e8        0x4 0x4 /usr/local/popcorn/x86_64/lib/libelf.a(data.o)
                0x00000000004240e8                _elf_sanity_checks
 .data          0x00000000004240ec        0x0 0x1 /usr/local/popcorn/x86_64/lib/libelf.a(input.o)
 .data          0x00000000004240ec        0x0 0x1 /usr/local/popcorn/x86_64/lib/libelf.a(x.elfext.o)
 .data          0x00000000004240ec        0x0 0x1 /usr/local/popcorn/x86_64/lib/libelf.a(64.xlatetof.o)
 .data          0x00000000004240ec        0x0 0x1 /usr/local/popcorn/x86_64/lib/libelf.a(gelfshdr.o)
 .data          0x00000000004240ec        0x0 0x1 /usr/local/popcorn/x86_64/lib/libelf.a(swap64.o)
 .data          0x00000000004240ec        0x0 0x1 /usr/local/popcorn/x86_64/lib/libelf.a(verdef_32_tof.o)
 .data          0x00000000004240ec        0x0 0x1 /usr/local/popcorn/x86_64/lib/libelf.a(verdef_32_tom.o)
 .data          0x00000000004240ec        0x0 0x1 /usr/local/popcorn/x86_64/lib/libelf.a(verdef_64_tof.o)
 .data          0x00000000004240ec        0x0 0x1 /usr/local/popcorn/x86_64/lib/libelf.a(verdef_64_tom.o)
 .data          0x00000000004240ec        0x0 0x1 /usr/local/popcorn/x86_64/lib/libelf.a(getscn.o)
 .data          0x00000000004240ec        0x0 0x1 /usr/local/popcorn/x86_64/lib/libelf.a(newscn.o)
 .data          0x00000000004240ec        0x0 0x1 /usr/local/popcorn/x86_64/lib/libelf.a(32.fsize.o)
 .data          0x00000000004240ec        0x0 0x4 /usr/local/popcorn/x86_64/lib/libc.a(sysconf.o)
 .data          0x00000000004240ec        0x0 0x4 /usr/local/popcorn/x86_64/lib/libc.a(__stack_chk_fail.o)
 .data          0x00000000004240ec        0x0 0x4 /usr/local/popcorn/x86_64/lib/libc.a(getenv.o)
 .data          0x00000000004240ec        0x0 0x4 /usr/local/popcorn/x86_64/lib/libc.a(assert.o)
 .data          0x00000000004240ec        0x0 0x4 /usr/local/popcorn/x86_64/lib/libc.a(open.o)
 .data          0x00000000004240ec        0x0 0x4 /usr/local/popcorn/x86_64/lib/libc.a(prctl.o)
 .data          0x00000000004240ec        0x0 0x4 /usr/local/popcorn/x86_64/lib/libc.a(sysinfo.o)
 .data          0x00000000004240ec        0x0 0x4 /usr/local/popcorn/x86_64/lib/libc.a(calloc.o)
 .data          0x00000000004240ec        0x0 0x4 /usr/local/popcorn/x86_64/lib/libc.a(lite_malloc.o)
 .data          0x00000000004240ec        0x0 0x4 /usr/local/popcorn/x86_64/lib/libc.a(malloc.o)
 .data          0x00000000004240ec        0x0 0x4 /usr/local/popcorn/x86_64/lib/libc.a(getrlimit.o)
 .data          0x00000000004240ec        0x0 0x4 /usr/local/popcorn/x86_64/lib/libc.a(madvise.o)
 .data          0x00000000004240ec        0x0 0x4 /usr/local/popcorn/x86_64/lib/libc.a(mmap.o)
 .data          0x00000000004240ec        0x0 0x4 /usr/local/popcorn/x86_64/lib/libc.a(mremap.o)
 .data          0x00000000004240ec        0x0 0x4 /usr/local/popcorn/x86_64/lib/libc.a(munmap.o)
 .data          0x00000000004240ec        0x0 0x4 /usr/local/popcorn/x86_64/lib/libc.a(fclose.o)
 .data          0x00000000004240ec        0x0 0x4 /usr/local/popcorn/x86_64/lib/libc.a(fflush.o)
 .data          0x00000000004240ec        0x0 0x4 /usr/local/popcorn/x86_64/lib/libc.a(fgets.o)
 .data          0x00000000004240ec        0x0 0x4 /usr/local/popcorn/x86_64/lib/libc.a(fopen.o)
 .data          0x00000000004240ec        0x0 0x4 /usr/local/popcorn/x86_64/lib/libc.a(fprintf.o)
 .data          0x00000000004240ec        0x0 0x4 /usr/local/popcorn/x86_64/lib/libc.a(getline.o)
 .data          0x00000000004240ec        0x0 0x4 /usr/local/popcorn/x86_64/lib/libc.a(snprintf.o)
 .data          0x00000000004240ec        0x0 0x4 /usr/local/popcorn/x86_64/lib/libc.a(sscanf.o)
 .data          0x00000000004240ec        0x0 0x4 /usr/local/popcorn/x86_64/lib/libc.a(stderr.o)
 .data.src_stdio_stderr_c_f
                0x00000000004240f0       0xe0 0x8 /usr/local/popcorn/x86_64/lib/libc.a(stderr.o)
 .data.__stderr_used
                0x00000000004241d0        0x8 0x8 /usr/local/popcorn/x86_64/lib/libc.a(stderr.o)
                0x00000000004241d0                __stderr_used
 .data          0x00000000004241d8        0x0 0x4 /usr/local/popcorn/x86_64/lib/libc.a(vsnprintf.o)
 .data          0x00000000004241d8        0x0 0x4 /usr/local/popcorn/x86_64/lib/libc.a(vsscanf.o)
 .data          0x00000000004241d8        0x0 0x4 /usr/local/popcorn/x86_64/lib/libc.a(strtol.o)
 .data          0x00000000004241d8        0x0 0x4 /usr/local/popcorn/x86_64/lib/libc.a(memcmp.o)
 .data          0x00000000004241d8        0x0 0x4 /usr/local/popcorn/x86_64/lib/libc.a(memmove.o)
 .data          0x00000000004241d8        0x0 0x4 /usr/local/popcorn/x86_64/lib/libc.a(strchr.o)
 .data          0x00000000004241d8        0x0 0x4 /usr/local/popcorn/x86_64/lib/libc.a(strchrnul.o)
 .data          0x00000000004241d8        0x0 0x4 /usr/local/popcorn/x86_64/lib/libc.a(strcmp.o)
 .data          0x00000000004241d8        0x0 0x4 /usr/local/popcorn/x86_64/lib/libc.a(strlen.o)
 .data          0x00000000004241d8        0x0 0x4 /usr/local/popcorn/x86_64/lib/libc.a(strncmp.o)
 .data          0x00000000004241d8        0x0 0x4 /usr/local/popcorn/x86_64/lib/libc.a(strstr.o)
 .data          0x00000000004241d8        0x0 0x4 /usr/local/popcorn/x86_64/lib/libc.a(pthread_attr_get.o)
 .data          0x00000000004241d8        0x0 0x4 /usr/local/popcorn/x86_64/lib/libc.a(pthread_getattr_np.o)
 .data          0x00000000004241d8        0x0 0x4 /usr/local/popcorn/x86_64/lib/libc.a(pthread_getspecific.o)
 .data          0x00000000004241d8        0x0 0x4 /usr/local/popcorn/x86_64/lib/libc.a(pthread_key_create.o)
 .data.__pthread_tsd_size
                0x00000000004241d8        0x8 0x8 /usr/local/popcorn/x86_64/lib/libc.a(pthread_key_create.o)
                0x00000000004241d8                __pthread_tsd_size
 .data          0x00000000004241e0        0x0 0x4 /usr/local/popcorn/x86_64/lib/libc.a(pthread_migrate.o)
 .data          0x00000000004241e0        0x0 0x4 /usr/local/popcorn/x86_64/lib/libc.a(pthread_self.o)
 .data          0x00000000004241e0        0x0 0x4 /usr/local/popcorn/x86_64/lib/libc.a(pthread_setspecific.o)
 .data          0x00000000004241e0        0x0 0x4 /usr/local/popcorn/x86_64/lib/libc.a(close.o)
 .data          0x00000000004241e0        0x0 0x4 /usr/local/popcorn/x86_64/lib/libc.a(getpid.o)
 .data          0x00000000004241e0        0x0 0x4 /usr/local/popcorn/x86_64/lib/libc.a(lseek.o)
 .data          0x00000000004241e0        0x0 0x4 /usr/local/popcorn/x86_64/lib/libc.a(read.o)
 .data          0x00000000004241e0        0x0 0x4 /usr/local/popcorn/x86_64/lib/libc.a(abort.o)
 .data          0x00000000004241e0        0x0 0x4 /usr/local/popcorn/x86_64/lib/libc.a(intscan.o)
 .data          0x00000000004241e0        0x0 0x4 /usr/local/popcorn/x86_64/lib/libc.a(shgetc.o)
 .data          0x00000000004241e0        0x0 0x4 /usr/local/popcorn/x86_64/lib/libc.a(__brk.o)
 .data          0x00000000004241e0        0x0 0x4 /usr/local/popcorn/x86_64/lib/libc.a(raise.o)
 .data          0x00000000004241e0        0x0 0x4 /usr/local/popcorn/x86_64/lib/libc.a(__fdopen.o)
 .data          0x00000000004241e0        0x0 0x4 /usr/local/popcorn/x86_64/lib/libc.a(__fmodeflags.o)
 .data          0x00000000004241e0        0x0 0x4 /usr/local/popcorn/x86_64/lib/libc.a(__stdio_read.o)
 .data          0x00000000004241e0        0x0 0x4 /usr/local/popcorn/x86_64/lib/libc.a(__string_read.o)
 .data          0x00000000004241e0        0x0 0x4 /usr/local/popcorn/x86_64/lib/libc.a(__uflow.o)
 .data          0x00000000004241e0        0x0 0x4 /usr/local/popcorn/x86_64/lib/libc.a(getdelim.o)
 .data          0x00000000004241e0        0x0 0x4 /usr/local/popcorn/x86_64/lib/libc.a(vfscanf.o)
 .data          0x00000000004241e0        0x0 0x4 /usr/local/popcorn/x86_64/lib/libc.a(floatscan.o)
 .data          0x00000000004241e0        0x0 0x4 /usr/local/popcorn/x86_64/lib/libc.a(copysignl.o)
 .data          0x00000000004241e0        0x0 0x4 /usr/local/popcorn/x86_64/lib/libc.a(fabs.o)
 .data          0x00000000004241e0        0x0 0x4 /usr/local/popcorn/x86_64/lib/libc.a(fmodl.o)
 .data          0x00000000004241e0        0x0 0x4 /usr/local/popcorn/x86_64/lib/libc.a(scalbn.o)
 .data          0x00000000004241e0        0x0 0x4 /usr/local/popcorn/x86_64/lib/libc.a(scalbnl.o)
 .data          0x00000000004241e0        0x0 0x4 /usr/local/popcorn/x86_64/lib/libc.a(mbrtowc.o)
 .data          0x00000000004241e0        0x0 0x4 /usr/local/popcorn/x86_64/lib/libc.a(mbsinit.o)
 .data          0x00000000004241e0        0x0 0x4 /usr/local/popcorn/x86_64/lib/libc.a(block.o)
 .data          0x00000000004241e0        0x0 0x4 /usr/local/popcorn/x86_64/lib/libc.a(__toread.o)
 .data          0x00000000004241e0        0x0 0x4 /usr/local/popcorn/x86_64/lib/libc.a(internal.o)

.bss            0x00000000004241e0     0x1578
 .bss           0x00000000004241e0        0x0 0x4 pierre_x86_64.o
 .bss           0x00000000004241e0        0x0 0x4 test_x86_64.o
 .bss           0x00000000004241e0        0x0 0x4 /usr/local/popcorn/x86_64/lib/crt1.o
 .bss           0x00000000004241e0        0x0 0x4 /usr/local/popcorn/x86_64/lib/libc.a(__libc_start_main.o)
 .bss           0x00000000004241e0        0x0 0x4 /usr/local/popcorn/x86_64/lib/libc.a(exit.o)
 .bss           0x00000000004241e0        0x0 0x4 /usr/local/popcorn/x86_64/lib/libc.a(libc.o)
 .bss.__progname
                0x00000000004241e0        0x8 0x8 /usr/local/popcorn/x86_64/lib/libc.a(libc.o)
                0x00000000004241e0                __progname
                0x00000000004241e0                program_invocation_short_name
 .bss.__progname_full
                0x00000000004241e8        0x8 0x8 /usr/local/popcorn/x86_64/lib/libc.a(libc.o)
                0x00000000004241e8                __progname_full
                0x00000000004241e8                program_invocation_name
 .bss           0x00000000004241f0        0x0 0x4 /usr/local/popcorn/x86_64/lib/libc.a(printf.o)
 .bss           0x00000000004241f0        0x0 0x4 /usr/local/popcorn/x86_64/lib/libc.a(stdout.o)
 .bss.src_stdio_stdout_c_buf
                0x00000000004241f0      0x408 0x10 /usr/local/popcorn/x86_64/lib/libc.a(stdout.o)
 .bss           0x00000000004245f8        0x0 0x4 /usr/local/popcorn/x86_64/lib/libc.a(vfprintf.o)
 .bss           0x00000000004245f8        0x0 0x4 /usr/local/popcorn/x86_64/lib/libc.a(memchr.o)
 .bss           0x00000000004245f8        0x0 0x4 /usr/local/popcorn/x86_64/lib/libc.a(memset.o)
 .bss           0x00000000004245f8        0x0 0x4 /usr/local/popcorn/x86_64/lib/libc.a(__environ.o)
 .bss.__environ
                0x00000000004245f8        0x8 0x8 /usr/local/popcorn/x86_64/lib/libc.a(__environ.o)
                0x00000000004245f8                ___environ
                0x00000000004245f8                __environ
                0x00000000004245f8                _environ
                0x00000000004245f8                environ
 .bss           0x0000000000424600        0x0 0x4 /usr/local/popcorn/x86_64/lib/libc.a(__init_tls.o)
 .bss.src_env___init_tls_c_builtin_tls
                0x0000000000424600      0x1e0 0x10 /usr/local/popcorn/x86_64/lib/libc.a(__init_tls.o)
 .bss           0x00000000004247e0        0x0 0x4 /usr/local/popcorn/x86_64/lib/libc.a(__errno_location.o)
 .bss           0x00000000004247e0        0x0 0x4 /usr/local/popcorn/x86_64/lib/libc.a(strerror.o)
 .bss           0x00000000004247e0        0x0 0x4 /usr/local/popcorn/x86_64/lib/libc.a(_Exit.o)
 .bss           0x00000000004247e0        0x0 0x4 /usr/local/popcorn/x86_64/lib/libc.a(__lctrans.o)
 .bss           0x00000000004247e0        0x0 0x4 /usr/local/popcorn/x86_64/lib/libc.a(__fpclassifyl.o)
 .bss           0x00000000004247e0        0x0 0x4 /usr/local/popcorn/x86_64/lib/libc.a(__signbitl.o)
 .bss           0x00000000004247e0        0x0 0x4 /usr/local/popcorn/x86_64/lib/libc.a(frexpl.o)
 .bss           0x00000000004247e0        0x0 0x4 /usr/local/popcorn/x86_64/lib/libc.a(wctomb.o)
 .bss           0x00000000004247e0        0x0 0x4 /usr/local/popcorn/x86_64/lib/libc.a(__lockfile.o)
 .bss           0x00000000004247e0        0x0 0x4 /usr/local/popcorn/x86_64/lib/libc.a(__stdio_close.o)
 .bss           0x00000000004247e0        0x0 0x4 /usr/local/popcorn/x86_64/lib/libc.a(__stdio_seek.o)
 .bss           0x00000000004247e0        0x0 0x4 /usr/local/popcorn/x86_64/lib/libc.a(__stdout_write.o)
 .bss           0x00000000004247e0        0x0 0x4 /usr/local/popcorn/x86_64/lib/libc.a(fwrite.o)
 .bss           0x00000000004247e0        0x0 0x4 /usr/local/popcorn/x86_64/lib/libc.a(memcpy.o)
 .bss           0x00000000004247e0        0x0 0x4 /usr/local/popcorn/x86_64/lib/libc.a(__set_thread_area.o)
 .bss           0x00000000004247e0        0x0 0x4 /usr/local/popcorn/x86_64/lib/libc.a(__wait.o)
 .bss           0x00000000004247e0        0x0 0x4 /usr/local/popcorn/x86_64/lib/libc.a(syscall_ret.o)
 .bss           0x00000000004247e0        0x0 0x4 /usr/local/popcorn/x86_64/lib/libc.a(wcrtomb.o)
 .bss           0x00000000004247e0        0x0 0x4 /usr/local/popcorn/x86_64/lib/libc.a(__stdio_write.o)
 .bss           0x00000000004247e0        0x0 0x4 /usr/local/popcorn/x86_64/lib/libc.a(__towrite.o)
 .bss           0x00000000004247e0        0x0 0x4 /usr/local/popcorn/x86_64/lib/libc.a(__syscall_cp.o)
 .bss           0x00000000004247e0        0x0 0x4 /usr/local/popcorn/x86_64/lib/libc.a(pthread_cleanup_push.o)
 .bss           0x00000000004247e0        0x0 0x4 /usr/local/popcorn/x86_64/lib/libc.a(syscall.o)
 .bss           0x00000000004247e0        0x0 0x4 /usr/local/popcorn/x86_64/lib/libc.a(__stdio_exit.o)
 .bss.src_stdio___stdio_exit_c_dummy_file
                0x00000000004247e0        0x8 0x8 /usr/local/popcorn/x86_64/lib/libc.a(__stdio_exit.o)
                0x00000000004247e0                __stdin_used
 .bss           0x00000000004247e8        0x0 0x4 /usr/local/popcorn/x86_64/lib/libc.a(__lock.o)
 .bss           0x00000000004247e8        0x0 0x4 /usr/local/popcorn/x86_64/lib/libmigrate.a(migrate.o)
 .bss.build_x86_64_migrate_o_bc_cpus_x86
                0x00000000004247e8        0x4 0x4 /usr/local/popcorn/x86_64/lib/libmigrate.a(migrate.o)
 .bss.build_x86_64_migrate_o_bc_popcorn_vdso
                0x00000000004247f0        0x8 0x8 /usr/local/popcorn/x86_64/lib/libmigrate.a(migrate.o)
 .bss.build_x86_64_migrate_o_bc_migrate_callback
                0x00000000004247f8        0x8 0x8 /usr/local/popcorn/x86_64/lib/libmigrate.a(migrate.o)
 .bss.build_x86_64_migrate_o_bc_migrate_callback_data
                0x0000000000424800        0x8 0x8 /usr/local/popcorn/x86_64/lib/libmigrate.a(migrate.o)
 .bss           0x0000000000424808        0x0 0x4 /usr/local/popcorn/x86_64/lib/libstack-transform.a(userspace.o)
 .bss.aarch64_fn
                0x0000000000424808        0x8 0x8 /usr/local/popcorn/x86_64/lib/libstack-transform.a(userspace.o)
                0x0000000000424808                aarch64_fn
 .bss.x86_64_fn
                0x0000000000424810        0x8 0x8 /usr/local/popcorn/x86_64/lib/libstack-transform.a(userspace.o)
                0x0000000000424810                x86_64_fn
 .bss.src_userspace_c_aarch64_handle
                0x0000000000424818        0x8 0x8 /usr/local/popcorn/x86_64/lib/libstack-transform.a(userspace.o)
 .bss.src_userspace_c_alloc_aarch64_fn
                0x0000000000424820        0x1 0x1 /usr/local/popcorn/x86_64/lib/libstack-transform.a(userspace.o)
 .bss.src_userspace_c_x86_64_handle
                0x0000000000424828        0x8 0x8 /usr/local/popcorn/x86_64/lib/libstack-transform.a(userspace.o)
 .bss.src_userspace_c_alloc_x86_64_fn
                0x0000000000424830        0x1 0x1 /usr/local/popcorn/x86_64/lib/libstack-transform.a(userspace.o)
 .bss.src_userspace_c_stack_bounds_key
                0x0000000000424834        0x4 0x4 /usr/local/popcorn/x86_64/lib/libstack-transform.a(userspace.o)
 .bss           0x0000000000424838        0x0 0x4 /usr/local/popcorn/x86_64/lib/libstack-transform.a(init.o)
 .bss           0x0000000000424838        0x0 0x4 /usr/local/popcorn/x86_64/lib/libstack-transform.a(rewrite.o)
 .bss           0x0000000000424838        0x0 0x4 /usr/local/popcorn/x86_64/lib/libstack-transform.a(unwind.o)
 .bss           0x0000000000424838        0x0 0x4 /usr/local/popcorn/x86_64/lib/libstack-transform.a(util.o)
 .bss           0x0000000000424838        0x0 0x4 /usr/local/popcorn/x86_64/lib/libstack-transform.a(properties.o)
 .bss           0x0000000000424838        0x0 0x4 /usr/local/popcorn/x86_64/lib/libstack-transform.a(regs.o)
 .bss           0x0000000000424838        0x0 0x4 /usr/local/popcorn/x86_64/lib/libstack-transform.a(properties.o)
 .bss           0x0000000000424838        0x0 0x4 /usr/local/popcorn/x86_64/lib/libstack-transform.a(regs.o)
 .bss           0x0000000000424838        0x0 0x4 /usr/local/popcorn/x86_64/lib/libstack-transform.a(data.o)
 .bss           0x0000000000424838        0x0 0x1 /usr/local/popcorn/x86_64/lib/libelf.a(begin.o)
 .bss           0x0000000000424838        0x0 0x1 /usr/local/popcorn/x86_64/lib/libelf.a(end.o)
 .bss           0x0000000000424838        0x0 0x1 /usr/local/popcorn/x86_64/lib/libelf.a(getdata.o)
 .bss           0x0000000000424838        0x0 0x1 /usr/local/popcorn/x86_64/lib/libelf.a(getident.o)
 .bss           0x0000000000424838        0x0 0x1 /usr/local/popcorn/x86_64/lib/libelf.a(nextscn.o)
 .bss           0x0000000000424838        0x0 0x1 /usr/local/popcorn/x86_64/lib/libelf.a(strptr.o)
 .bss           0x0000000000424838        0x0 0x1 /usr/local/popcorn/x86_64/lib/libelf.a(version.o)
 .bss           0x0000000000424838        0x0 0x1 /usr/local/popcorn/x86_64/lib/libelf.a(32.getehdr.o)
 .bss           0x0000000000424838        0x0 0x1 /usr/local/popcorn/x86_64/lib/libelf.a(32.xlatetof.o)
 .bss           0x0000000000424838        0x0 0x1 /usr/local/popcorn/x86_64/lib/libelf.a(cook.o)
 .bss           0x0000000000424838        0x0 0x1 /usr/local/popcorn/x86_64/lib/libelf.a(data.o)
 .bss._elf_fill
                0x0000000000424838        0x4 0x4 /usr/local/popcorn/x86_64/lib/libelf.a(data.o)
                0x0000000000424838                _elf_fill
 .bss._elf_errno
                0x000000000042483c        0x4 0x4 /usr/local/popcorn/x86_64/lib/libelf.a(data.o)
                0x000000000042483c                _elf_errno
 .bss._elf_version
                0x0000000000424840        0x4 0x4 /usr/local/popcorn/x86_64/lib/libelf.a(data.o)
                0x0000000000424840                _elf_version
 .bss           0x0000000000424844        0x0 0x1 /usr/local/popcorn/x86_64/lib/libelf.a(input.o)
 .bss           0x0000000000424844        0x0 0x1 /usr/local/popcorn/x86_64/lib/libelf.a(x.elfext.o)
 .bss           0x0000000000424844        0x0 0x1 /usr/local/popcorn/x86_64/lib/libelf.a(64.xlatetof.o)
 .bss           0x0000000000424844        0x0 0x1 /usr/local/popcorn/x86_64/lib/libelf.a(gelfshdr.o)
 .bss           0x0000000000424844        0x0 0x1 /usr/local/popcorn/x86_64/lib/libelf.a(swap64.o)
 .bss           0x0000000000424844        0x0 0x1 /usr/local/popcorn/x86_64/lib/libelf.a(verdef_32_tof.o)
 .bss           0x0000000000424844        0x0 0x1 /usr/local/popcorn/x86_64/lib/libelf.a(verdef_32_tom.o)
 .bss           0x0000000000424844        0x0 0x1 /usr/local/popcorn/x86_64/lib/libelf.a(verdef_64_tof.o)
 .bss           0x0000000000424844        0x0 0x1 /usr/local/popcorn/x86_64/lib/libelf.a(verdef_64_tom.o)
 .bss           0x0000000000424844        0x0 0x1 /usr/local/popcorn/x86_64/lib/libelf.a(getscn.o)
 .bss           0x0000000000424844        0x0 0x1 /usr/local/popcorn/x86_64/lib/libelf.a(newscn.o)
 .bss           0x0000000000424844        0x0 0x1 /usr/local/popcorn/x86_64/lib/libelf.a(32.fsize.o)
 .bss           0x0000000000424844        0x0 0x4 /usr/local/popcorn/x86_64/lib/libc.a(sysconf.o)
 .bss           0x0000000000424844        0x0 0x4 /usr/local/popcorn/x86_64/lib/libc.a(__stack_chk_fail.o)
 .bss           0x0000000000424844        0x0 0x4 /usr/local/popcorn/x86_64/lib/libc.a(getenv.o)
 .bss           0x0000000000424844        0x0 0x4 /usr/local/popcorn/x86_64/lib/libc.a(assert.o)
 .bss           0x0000000000424844        0x0 0x4 /usr/local/popcorn/x86_64/lib/libc.a(open.o)
 .bss           0x0000000000424844        0x0 0x4 /usr/local/popcorn/x86_64/lib/libc.a(prctl.o)
 .bss           0x0000000000424844        0x0 0x4 /usr/local/popcorn/x86_64/lib/libc.a(sysinfo.o)
 .bss           0x0000000000424844        0x0 0x4 /usr/local/popcorn/x86_64/lib/libc.a(calloc.o)
 .bss           0x0000000000424844        0x0 0x4 /usr/local/popcorn/x86_64/lib/libc.a(lite_malloc.o)
 .bss.src_malloc_lite_malloc_c___simple_malloc_cur
                0x0000000000424848        0x8 0x8 /usr/local/popcorn/x86_64/lib/libc.a(lite_malloc.o)
 .bss.src_malloc_lite_malloc_c___simple_malloc_brk
                0x0000000000424850        0x8 0x8 /usr/local/popcorn/x86_64/lib/libc.a(lite_malloc.o)
 .bss.src_malloc_lite_malloc_c___simple_malloc_lock
                0x0000000000424858        0x8 0x4 /usr/local/popcorn/x86_64/lib/libc.a(lite_malloc.o)
 .bss           0x0000000000424860        0x0 0x4 /usr/local/popcorn/x86_64/lib/libc.a(malloc.o)
 .bss.src_malloc_malloc_c_mal
                0x0000000000424860      0x630 0x8 /usr/local/popcorn/x86_64/lib/libc.a(malloc.o)
 .bss.src_malloc_malloc_c_expand_heap_init
                0x0000000000424e90        0x1 0x1 /usr/local/popcorn/x86_64/lib/libc.a(malloc.o)
 .bss           0x0000000000424e94        0x0 0x4 /usr/local/popcorn/x86_64/lib/libc.a(getrlimit.o)
 .bss           0x0000000000424e94        0x0 0x4 /usr/local/popcorn/x86_64/lib/libc.a(madvise.o)
 .bss           0x0000000000424e94        0x0 0x4 /usr/local/popcorn/x86_64/lib/libc.a(mmap.o)
 .bss           0x0000000000424e94        0x0 0x4 /usr/local/popcorn/x86_64/lib/libc.a(mremap.o)
 .bss           0x0000000000424e94        0x0 0x4 /usr/local/popcorn/x86_64/lib/libc.a(munmap.o)
 .bss           0x0000000000424e94        0x0 0x4 /usr/local/popcorn/x86_64/lib/libc.a(fclose.o)
 .bss           0x0000000000424e94        0x0 0x4 /usr/local/popcorn/x86_64/lib/libc.a(fflush.o)
 .bss.src_stdio_fflush_c_dummy
                0x0000000000424e98        0x8 0x8 /usr/local/popcorn/x86_64/lib/libc.a(fflush.o)
 .bss           0x0000000000424ea0        0x0 0x4 /usr/local/popcorn/x86_64/lib/libc.a(fgets.o)
 .bss           0x0000000000424ea0        0x0 0x4 /usr/local/popcorn/x86_64/lib/libc.a(fopen.o)
 .bss           0x0000000000424ea0        0x0 0x4 /usr/local/popcorn/x86_64/lib/libc.a(fprintf.o)
 .bss           0x0000000000424ea0        0x0 0x4 /usr/local/popcorn/x86_64/lib/libc.a(getline.o)
 .bss           0x0000000000424ea0        0x0 0x4 /usr/local/popcorn/x86_64/lib/libc.a(snprintf.o)
 .bss           0x0000000000424ea0        0x0 0x4 /usr/local/popcorn/x86_64/lib/libc.a(sscanf.o)
 .bss           0x0000000000424ea0        0x0 0x4 /usr/local/popcorn/x86_64/lib/libc.a(stderr.o)
 .bss.src_stdio_stderr_c_buf
                0x0000000000424ea0        0x8 0x1 /usr/local/popcorn/x86_64/lib/libc.a(stderr.o)
 .bss           0x0000000000424ea8        0x0 0x4 /usr/local/popcorn/x86_64/lib/libc.a(vsnprintf.o)
 .bss           0x0000000000424ea8        0x0 0x4 /usr/local/popcorn/x86_64/lib/libc.a(vsscanf.o)
 .bss           0x0000000000424ea8        0x0 0x4 /usr/local/popcorn/x86_64/lib/libc.a(strtol.o)
 .bss           0x0000000000424ea8        0x0 0x4 /usr/local/popcorn/x86_64/lib/libc.a(memcmp.o)
 .bss           0x0000000000424ea8        0x0 0x4 /usr/local/popcorn/x86_64/lib/libc.a(memmove.o)
 .bss           0x0000000000424ea8        0x0 0x4 /usr/local/popcorn/x86_64/lib/libc.a(strchr.o)
 .bss           0x0000000000424ea8        0x0 0x4 /usr/local/popcorn/x86_64/lib/libc.a(strchrnul.o)
 .bss           0x0000000000424ea8        0x0 0x4 /usr/local/popcorn/x86_64/lib/libc.a(strcmp.o)
 .bss           0x0000000000424ea8        0x0 0x4 /usr/local/popcorn/x86_64/lib/libc.a(strlen.o)
 .bss           0x0000000000424ea8        0x0 0x4 /usr/local/popcorn/x86_64/lib/libc.a(strncmp.o)
 .bss           0x0000000000424ea8        0x0 0x4 /usr/local/popcorn/x86_64/lib/libc.a(strstr.o)
 .bss           0x0000000000424ea8        0x0 0x4 /usr/local/popcorn/x86_64/lib/libc.a(pthread_attr_get.o)
 .bss           0x0000000000424ea8        0x0 0x4 /usr/local/popcorn/x86_64/lib/libc.a(pthread_getattr_np.o)
 .bss           0x0000000000424ea8        0x0 0x4 /usr/local/popcorn/x86_64/lib/libc.a(pthread_getspecific.o)
 .bss           0x0000000000424ea8        0x0 0x4 /usr/local/popcorn/x86_64/lib/libc.a(pthread_key_create.o)
 .bss.__pthread_tsd_main
                0x0000000000424eb0      0x400 0x10 /usr/local/popcorn/x86_64/lib/libc.a(pthread_key_create.o)
                0x0000000000424eb0                __pthread_tsd_main
 .bss.src_thread_pthread_key_create_c_keys
                0x00000000004252b0      0x400 0x10 /usr/local/popcorn/x86_64/lib/libc.a(pthread_key_create.o)
 .bss           0x00000000004256b0        0x0 0x4 /usr/local/popcorn/x86_64/lib/libc.a(pthread_migrate.o)
 .bss           0x00000000004256b0        0x0 0x4 /usr/local/popcorn/x86_64/lib/libc.a(pthread_self.o)
 .bss           0x00000000004256b0        0x0 0x4 /usr/local/popcorn/x86_64/lib/libc.a(pthread_setspecific.o)
 .bss           0x00000000004256b0        0x0 0x4 /usr/local/popcorn/x86_64/lib/libc.a(close.o)
 .bss           0x00000000004256b0        0x0 0x4 /usr/local/popcorn/x86_64/lib/libc.a(getpid.o)
 .bss           0x00000000004256b0        0x0 0x4 /usr/local/popcorn/x86_64/lib/libc.a(lseek.o)
 .bss           0x00000000004256b0        0x0 0x4 /usr/local/popcorn/x86_64/lib/libc.a(read.o)
 .bss           0x00000000004256b0        0x0 0x4 /usr/local/popcorn/x86_64/lib/libc.a(abort.o)
 .bss           0x00000000004256b0        0x0 0x4 /usr/local/popcorn/x86_64/lib/libc.a(intscan.o)
 .bss           0x00000000004256b0        0x0 0x4 /usr/local/popcorn/x86_64/lib/libc.a(shgetc.o)
 .bss           0x00000000004256b0        0x0 0x4 /usr/local/popcorn/x86_64/lib/libc.a(__brk.o)
 .bss           0x00000000004256b0        0x0 0x4 /usr/local/popcorn/x86_64/lib/libc.a(raise.o)
 .bss           0x00000000004256b0        0x0 0x4 /usr/local/popcorn/x86_64/lib/libc.a(__fdopen.o)
 .bss           0x00000000004256b0        0x0 0x4 /usr/local/popcorn/x86_64/lib/libc.a(__fmodeflags.o)
 .bss           0x00000000004256b0        0x0 0x4 /usr/local/popcorn/x86_64/lib/libc.a(__stdio_read.o)
 .bss           0x00000000004256b0        0x0 0x4 /usr/local/popcorn/x86_64/lib/libc.a(__string_read.o)
 .bss           0x00000000004256b0        0x0 0x4 /usr/local/popcorn/x86_64/lib/libc.a(__uflow.o)
 .bss           0x00000000004256b0        0x0 0x4 /usr/local/popcorn/x86_64/lib/libc.a(getdelim.o)
 .bss           0x00000000004256b0        0x0 0x4 /usr/local/popcorn/x86_64/lib/libc.a(vfscanf.o)
 .bss           0x00000000004256b0        0x0 0x4 /usr/local/popcorn/x86_64/lib/libc.a(floatscan.o)
 .bss           0x00000000004256b0        0x0 0x4 /usr/local/popcorn/x86_64/lib/libc.a(copysignl.o)
 .bss           0x00000000004256b0        0x0 0x4 /usr/local/popcorn/x86_64/lib/libc.a(fabs.o)
 .bss           0x00000000004256b0        0x0 0x4 /usr/local/popcorn/x86_64/lib/libc.a(fmodl.o)
 .bss           0x00000000004256b0        0x0 0x4 /usr/local/popcorn/x86_64/lib/libc.a(scalbn.o)
 .bss           0x00000000004256b0        0x0 0x4 /usr/local/popcorn/x86_64/lib/libc.a(scalbnl.o)
 .bss           0x00000000004256b0        0x0 0x4 /usr/local/popcorn/x86_64/lib/libc.a(mbrtowc.o)
 .bss.src_multibyte_mbrtowc_c_mbrtowc_internal_state
                0x00000000004256b0        0x4 0x4 /usr/local/popcorn/x86_64/lib/libc.a(mbrtowc.o)
 .bss           0x00000000004256b4        0x0 0x4 /usr/local/popcorn/x86_64/lib/libc.a(mbsinit.o)
 .bss           0x00000000004256b4        0x0 0x4 /usr/local/popcorn/x86_64/lib/libc.a(block.o)
 .bss           0x00000000004256b4        0x0 0x4 /usr/local/popcorn/x86_64/lib/libc.a(__toread.o)
 .bss           0x00000000004256b4        0x0 0x4 /usr/local/popcorn/x86_64/lib/libc.a(internal.o)
 ** common      0x00000000004256b8       0xa0

.debug_str      0x0000000000000000     0x356e
 ** merge strings
                0x0000000000000000     0x356e

.debug_loc      0x0000000000000000    0x11134
 .debug_loc     0x0000000000000000        0x0 0x1 pierre_x86_64.o
 .debug_loc     0x0000000000000000        0x0 0x1 test_x86_64.o
 .debug_loc     0x0000000000000000      0x25d 0x1 /usr/local/popcorn/x86_64/lib/libc.a(__libc_start_main.o)
 .debug_loc     0x000000000000025d       0x5d 0x1 /usr/local/popcorn/x86_64/lib/libc.a(exit.o)
 .debug_loc     0x00000000000002ba        0x0 0x1 /usr/local/popcorn/x86_64/lib/libc.a(libc.o)
 .debug_loc     0x00000000000002ba       0x49 0x1 /usr/local/popcorn/x86_64/lib/libc.a(printf.o)
 .debug_loc     0x0000000000000303        0x0 0x1 /usr/local/popcorn/x86_64/lib/libc.a(stdout.o)
 .debug_loc     0x0000000000000303     0x53e1 0x1 /usr/local/popcorn/x86_64/lib/libc.a(vfprintf.o)
 .debug_loc     0x00000000000056e4      0x170 0x1 /usr/local/popcorn/x86_64/lib/libc.a(memchr.o)
 .debug_loc     0x0000000000005854        0x0 0x1 /usr/local/popcorn/x86_64/lib/libc.a(__environ.o)
 .debug_loc     0x0000000000005854      0x209 0x1 /usr/local/popcorn/x86_64/lib/libc.a(__init_tls.o)
 .debug_loc     0x0000000000005a5d       0x23 0x1 /usr/local/popcorn/x86_64/lib/libc.a(__errno_location.o)
 .debug_loc     0x0000000000005a80       0x5d 0x1 /usr/local/popcorn/x86_64/lib/libc.a(strerror.o)
 .debug_loc     0x0000000000005add       0x25 0x1 /usr/local/popcorn/x86_64/lib/libc.a(_Exit.o)
 .debug_loc     0x0000000000005b02       0x59 0x1 /usr/local/popcorn/x86_64/lib/libc.a(__lctrans.o)
 .debug_loc     0x0000000000005b5b       0x3a 0x1 /usr/local/popcorn/x86_64/lib/libc.a(__fpclassifyl.o)
 .debug_loc     0x0000000000005b95        0x0 0x1 /usr/local/popcorn/x86_64/lib/libc.a(__signbitl.o)
 .debug_loc     0x0000000000005b95       0xa6 0x1 /usr/local/popcorn/x86_64/lib/libc.a(frexpl.o)
 .debug_loc     0x0000000000005c3b        0x0 0x1 /usr/local/popcorn/x86_64/lib/libc.a(wctomb.o)
 .debug_loc     0x0000000000005c3b      0x11c 0x1 /usr/local/popcorn/x86_64/lib/libc.a(__lockfile.o)
 .debug_loc     0x0000000000005d57       0x80 0x1 /usr/local/popcorn/x86_64/lib/libc.a(__stdio_close.o)
 .debug_loc     0x0000000000005dd7       0x48 0x1 /usr/local/popcorn/x86_64/lib/libc.a(__stdio_seek.o)
 .debug_loc     0x0000000000005e1f       0xc5 0x1 /usr/local/popcorn/x86_64/lib/libc.a(__stdout_write.o)
 .debug_loc     0x0000000000005ee4      0x20c 0x1 /usr/local/popcorn/x86_64/lib/libc.a(fwrite.o)
 .debug_loc     0x00000000000060f0       0x8b 0x1 /usr/local/popcorn/x86_64/lib/libc.a(__wait.o)
 .debug_loc     0x000000000000617b       0x36 0x1 /usr/local/popcorn/x86_64/lib/libc.a(syscall_ret.o)
 .debug_loc     0x00000000000061b1       0x4f 0x1 /usr/local/popcorn/x86_64/lib/libc.a(wcrtomb.o)
 .debug_loc     0x0000000000006200      0x240 0x1 /usr/local/popcorn/x86_64/lib/libc.a(__stdio_write.o)
 .debug_loc     0x0000000000006440        0x0 0x1 /usr/local/popcorn/x86_64/lib/libc.a(__towrite.o)
 .debug_loc     0x0000000000006440       0x24 0x1 /usr/local/popcorn/x86_64/lib/libc.a(__syscall_cp.o)
 .debug_loc     0x0000000000006464       0x83 0x1 /usr/local/popcorn/x86_64/lib/libc.a(pthread_cleanup_push.o)
 .debug_loc     0x00000000000064e7       0x36 0x1 /usr/local/popcorn/x86_64/lib/libc.a(__stdio_exit.o)
 .debug_loc     0x000000000000651d       0x9a 0x1 /usr/local/popcorn/x86_64/lib/libc.a(__lock.o)
 .debug_loc     0x00000000000065b7      0x291 0x1 /usr/local/popcorn/x86_64/lib/libmigrate.a(migrate.o)
 .debug_loc     0x0000000000006848      0x633 0x1 /usr/local/popcorn/x86_64/lib/libstack-transform.a(userspace.o)
 .debug_loc     0x0000000000006e7b       0xb2 0x1 /usr/local/popcorn/x86_64/lib/libstack-transform.a(init.o)
 .debug_loc     0x0000000000006f2d      0xda3 0x1 /usr/local/popcorn/x86_64/lib/libstack-transform.a(rewrite.o)
 .debug_loc     0x0000000000007cd0      0x7b2 0x1 /usr/local/popcorn/x86_64/lib/libstack-transform.a(unwind.o)
 .debug_loc     0x0000000000008482      0x71b 0x1 /usr/local/popcorn/x86_64/lib/libstack-transform.a(util.o)
 .debug_loc     0x0000000000008b9d       0x97 0x1 /usr/local/popcorn/x86_64/lib/libstack-transform.a(properties.o)
 .debug_loc     0x0000000000008c34      0x6b2 0x1 /usr/local/popcorn/x86_64/lib/libstack-transform.a(regs.o)
 .debug_loc     0x00000000000092e6       0xaa 0x1 /usr/local/popcorn/x86_64/lib/libstack-transform.a(properties.o)
 .debug_loc     0x0000000000009390      0x4a4 0x1 /usr/local/popcorn/x86_64/lib/libstack-transform.a(regs.o)
 .debug_loc     0x0000000000009834      0xbbc 0x1 /usr/local/popcorn/x86_64/lib/libstack-transform.a(data.o)
 .debug_loc     0x000000000000a3f0      0x159 0x1 /usr/local/popcorn/x86_64/lib/libc.a(sysconf.o)
 .debug_loc     0x000000000000a549       0x36 0x1 /usr/local/popcorn/x86_64/lib/libc.a(__stack_chk_fail.o)
 .debug_loc     0x000000000000a57f       0x59 0x1 /usr/local/popcorn/x86_64/lib/libc.a(getenv.o)
 .debug_loc     0x000000000000a5d8       0xdc 0x1 /usr/local/popcorn/x86_64/lib/libc.a(assert.o)
 .debug_loc     0x000000000000a6b4       0x95 0x1 /usr/local/popcorn/x86_64/lib/libc.a(open.o)
 .debug_loc     0x000000000000a749       0x48 0x1 /usr/local/popcorn/x86_64/lib/libc.a(prctl.o)
 .debug_loc     0x000000000000a791        0x0 0x1 /usr/local/popcorn/x86_64/lib/libc.a(sysinfo.o)
 .debug_loc     0x000000000000a791      0x208 0x1 /usr/local/popcorn/x86_64/lib/libc.a(calloc.o)
 .debug_loc     0x000000000000a999       0xc9 0x1 /usr/local/popcorn/x86_64/lib/libc.a(lite_malloc.o)
 .debug_loc     0x000000000000aa62     0x1319 0x1 /usr/local/popcorn/x86_64/lib/libc.a(malloc.o)
 .debug_loc     0x000000000000bd7b       0xc6 0x1 /usr/local/popcorn/x86_64/lib/libc.a(getrlimit.o)
 .debug_loc     0x000000000000be41       0x25 0x1 /usr/local/popcorn/x86_64/lib/libc.a(madvise.o)
 .debug_loc     0x000000000000be66      0x263 0x1 /usr/local/popcorn/x86_64/lib/libc.a(mmap.o)
 .debug_loc     0x000000000000c0c9       0x6b 0x1 /usr/local/popcorn/x86_64/lib/libc.a(mremap.o)
 .debug_loc     0x000000000000c134       0x92 0x1 /usr/local/popcorn/x86_64/lib/libc.a(munmap.o)
 .debug_loc     0x000000000000c1c6       0x70 0x1 /usr/local/popcorn/x86_64/lib/libc.a(fclose.o)
 .debug_loc     0x000000000000c236       0xde 0x1 /usr/local/popcorn/x86_64/lib/libc.a(fflush.o)
 .debug_loc     0x000000000000c314      0x342 0x1 /usr/local/popcorn/x86_64/lib/libc.a(fgets.o)
 .debug_loc     0x000000000000c656       0xd9 0x1 /usr/local/popcorn/x86_64/lib/libc.a(fopen.o)
 .debug_loc     0x000000000000c72f        0x0 0x1 /usr/local/popcorn/x86_64/lib/libc.a(fprintf.o)
 .debug_loc     0x000000000000c72f       0x49 0x1 /usr/local/popcorn/x86_64/lib/libc.a(getline.o)
 .debug_loc     0x000000000000c778        0x0 0x1 /usr/local/popcorn/x86_64/lib/libc.a(snprintf.o)
 .debug_loc     0x000000000000c778        0x0 0x1 /usr/local/popcorn/x86_64/lib/libc.a(sscanf.o)
 .debug_loc     0x000000000000c778        0x0 0x1 /usr/local/popcorn/x86_64/lib/libc.a(stderr.o)
 .debug_loc     0x000000000000c778      0x26c 0x1 /usr/local/popcorn/x86_64/lib/libc.a(vsnprintf.o)
 .debug_loc     0x000000000000c9e4       0xec 0x1 /usr/local/popcorn/x86_64/lib/libc.a(vsscanf.o)
 .debug_loc     0x000000000000cad0      0x181 0x1 /usr/local/popcorn/x86_64/lib/libc.a(strtol.o)
 .debug_loc     0x000000000000cc51       0xd5 0x1 /usr/local/popcorn/x86_64/lib/libc.a(memcmp.o)
 .debug_loc     0x000000000000cd26       0x5d 0x1 /usr/local/popcorn/x86_64/lib/libc.a(strchr.o)
 .debug_loc     0x000000000000cd83       0xc8 0x1 /usr/local/popcorn/x86_64/lib/libc.a(strchrnul.o)
 .debug_loc     0x000000000000ce4b       0x46 0x1 /usr/local/popcorn/x86_64/lib/libc.a(strcmp.o)
 .debug_loc     0x000000000000ce91       0x6f 0x1 /usr/local/popcorn/x86_64/lib/libc.a(strlen.o)
 .debug_loc     0x000000000000cf00       0xc2 0x1 /usr/local/popcorn/x86_64/lib/libc.a(strncmp.o)
 .debug_loc     0x000000000000cfc2      0x7a8 0x1 /usr/local/popcorn/x86_64/lib/libc.a(strstr.o)
 .debug_loc     0x000000000000d76a        0x0 0x1 /usr/local/popcorn/x86_64/lib/libc.a(pthread_attr_get.o)
 .debug_loc     0x000000000000d76a       0xde 0x1 /usr/local/popcorn/x86_64/lib/libc.a(pthread_getattr_np.o)
 .debug_loc     0x000000000000d848       0x46 0x1 /usr/local/popcorn/x86_64/lib/libc.a(pthread_getspecific.o)
 .debug_loc     0x000000000000d88e      0x1d9 0x1 /usr/local/popcorn/x86_64/lib/libc.a(pthread_key_create.o)
 .debug_loc     0x000000000000da67       0x46 0x1 /usr/local/popcorn/x86_64/lib/libc.a(pthread_migrate.o)
 .debug_loc     0x000000000000daad        0x0 0x1 /usr/local/popcorn/x86_64/lib/libc.a(pthread_self.o)
 .debug_loc     0x000000000000daad       0x46 0x1 /usr/local/popcorn/x86_64/lib/libc.a(pthread_setspecific.o)
 .debug_loc     0x000000000000daf3       0x74 0x1 /usr/local/popcorn/x86_64/lib/libc.a(close.o)
 .debug_loc     0x000000000000db67        0x0 0x1 /usr/local/popcorn/x86_64/lib/libc.a(getpid.o)
 .debug_loc     0x000000000000db67       0x4a 0x1 /usr/local/popcorn/x86_64/lib/libc.a(lseek.o)
 .debug_loc     0x000000000000dbb1       0xb7 0x1 /usr/local/popcorn/x86_64/lib/libc.a(read.o)
 .debug_loc     0x000000000000dc68        0x0 0x1 /usr/local/popcorn/x86_64/lib/libc.a(abort.o)
 .debug_loc     0x000000000000dc68      0x5d8 0x1 /usr/local/popcorn/x86_64/lib/libc.a(intscan.o)
 .debug_loc     0x000000000000e240       0x83 0x1 /usr/local/popcorn/x86_64/lib/libc.a(shgetc.o)
 .debug_loc     0x000000000000e2c3        0x0 0x1 /usr/local/popcorn/x86_64/lib/libc.a(__brk.o)
 .debug_loc     0x000000000000e2c3       0xa5 0x1 /usr/local/popcorn/x86_64/lib/libc.a(raise.o)
 .debug_loc     0x000000000000e368      0x17a 0x1 /usr/local/popcorn/x86_64/lib/libc.a(__fdopen.o)
 .debug_loc     0x000000000000e4e2       0xaf 0x1 /usr/local/popcorn/x86_64/lib/libc.a(__fmodeflags.o)
 .debug_loc     0x000000000000e591      0x148 0x1 /usr/local/popcorn/x86_64/lib/libc.a(__stdio_read.o)
 .debug_loc     0x000000000000e6d9      0x144 0x1 /usr/local/popcorn/x86_64/lib/libc.a(__string_read.o)
 .debug_loc     0x000000000000e81d       0x5a 0x1 /usr/local/popcorn/x86_64/lib/libc.a(__uflow.o)
 .debug_loc     0x000000000000e877      0x3f1 0x1 /usr/local/popcorn/x86_64/lib/libc.a(getdelim.o)
 .debug_loc     0x000000000000ec68      0xcca 0x1 /usr/local/popcorn/x86_64/lib/libc.a(vfscanf.o)
 .debug_loc     0x000000000000f932     0x1392 0x1 /usr/local/popcorn/x86_64/lib/libc.a(floatscan.o)
 .debug_loc     0x0000000000010cc4        0x0 0x1 /usr/local/popcorn/x86_64/lib/libc.a(copysignl.o)
 .debug_loc     0x0000000000010cc4      0x148 0x1 /usr/local/popcorn/x86_64/lib/libc.a(scalbn.o)
 .debug_loc     0x0000000000010e0c       0xa3 0x1 /usr/local/popcorn/x86_64/lib/libc.a(scalbnl.o)
 .debug_loc     0x0000000000010eaf      0x174 0x1 /usr/local/popcorn/x86_64/lib/libc.a(mbrtowc.o)
 .debug_loc     0x0000000000011023        0x0 0x1 /usr/local/popcorn/x86_64/lib/libc.a(mbsinit.o)
 .debug_loc     0x0000000000011023       0xdb 0x1 /usr/local/popcorn/x86_64/lib/libc.a(block.o)
 .debug_loc     0x00000000000110fe       0x36 0x1 /usr/local/popcorn/x86_64/lib/libc.a(__toread.o)
 .debug_loc     0x0000000000011134        0x0 0x1 /usr/local/popcorn/x86_64/lib/libc.a(internal.o)

.debug_abbrev   0x0000000000000000     0x6c33
 .debug_abbrev  0x0000000000000000       0x69 0x1 pierre_x86_64.o
 .debug_abbrev  0x0000000000000069       0x45 0x1 test_x86_64.o
 .debug_abbrev  0x00000000000000ae       0x28 0x1 /usr/local/popcorn/x86_64/lib/crt1.o
 .debug_abbrev  0x00000000000000d6      0x1a1 0x1 /usr/local/popcorn/x86_64/lib/libc.a(__libc_start_main.o)
 .debug_abbrev  0x0000000000000277       0x90 0x1 /usr/local/popcorn/x86_64/lib/libc.a(exit.o)
 .debug_abbrev  0x0000000000000307       0x9e 0x1 /usr/local/popcorn/x86_64/lib/libc.a(libc.o)
 .debug_abbrev  0x00000000000003a5       0xc0 0x1 /usr/local/popcorn/x86_64/lib/libc.a(printf.o)
 .debug_abbrev  0x0000000000000465       0xb9 0x1 /usr/local/popcorn/x86_64/lib/libc.a(stdout.o)
 .debug_abbrev  0x000000000000051e      0x2d0 0x1 /usr/local/popcorn/x86_64/lib/libc.a(vfprintf.o)
 .debug_abbrev  0x00000000000007ee       0x8b 0x1 /usr/local/popcorn/x86_64/lib/libc.a(memchr.o)
 .debug_abbrev  0x0000000000000879       0x28 0x1 /usr/local/popcorn/x86_64/lib/libc.a(memset.o)
 .debug_abbrev  0x00000000000008a1       0x36 0x1 /usr/local/popcorn/x86_64/lib/libc.a(__environ.o)
 .debug_abbrev  0x00000000000008d7      0x1f4 0x1 /usr/local/popcorn/x86_64/lib/libc.a(__init_tls.o)
 .debug_abbrev  0x0000000000000acb      0x138 0x1 /usr/local/popcorn/x86_64/lib/libc.a(__errno_location.o)
 .debug_abbrev  0x0000000000000c03      0x188 0x1 /usr/local/popcorn/x86_64/lib/libc.a(strerror.o)
 .debug_abbrev  0x0000000000000d8b       0x92 0x1 /usr/local/popcorn/x86_64/lib/libc.a(_Exit.o)
 .debug_abbrev  0x0000000000000e1d      0x16d 0x1 /usr/local/popcorn/x86_64/lib/libc.a(__lctrans.o)
 .debug_abbrev  0x0000000000000f8a       0xad 0x1 /usr/local/popcorn/x86_64/lib/libc.a(__fpclassifyl.o)
 .debug_abbrev  0x0000000000001037       0x91 0x1 /usr/local/popcorn/x86_64/lib/libc.a(__signbitl.o)
 .debug_abbrev  0x00000000000010c8       0xa5 0x1 /usr/local/popcorn/x86_64/lib/libc.a(frexpl.o)
 .debug_abbrev  0x000000000000116d       0x62 0x1 /usr/local/popcorn/x86_64/lib/libc.a(wctomb.o)
 .debug_abbrev  0x00000000000011cf      0x1e2 0x1 /usr/local/popcorn/x86_64/lib/libc.a(__lockfile.o)
 .debug_abbrev  0x00000000000013b1      0x118 0x1 /usr/local/popcorn/x86_64/lib/libc.a(__stdio_close.o)
 .debug_abbrev  0x00000000000014c9      0x10c 0x1 /usr/local/popcorn/x86_64/lib/libc.a(__stdio_seek.o)
 .debug_abbrev  0x00000000000015d5       0xfd 0x1 /usr/local/popcorn/x86_64/lib/libc.a(__stdout_write.o)
 .debug_abbrev  0x00000000000016d2       0xe5 0x1 /usr/local/popcorn/x86_64/lib/libc.a(fwrite.o)
 .debug_abbrev  0x00000000000017b7       0x28 0x1 /usr/local/popcorn/x86_64/lib/libc.a(memcpy.o)
 .debug_abbrev  0x00000000000017df       0x28 0x1 /usr/local/popcorn/x86_64/lib/libc.a(__set_thread_area.o)
 .debug_abbrev  0x0000000000001807       0xce 0x1 /usr/local/popcorn/x86_64/lib/libc.a(__wait.o)
 .debug_abbrev  0x00000000000018d5       0x4e 0x1 /usr/local/popcorn/x86_64/lib/libc.a(syscall_ret.o)
 .debug_abbrev  0x0000000000001923       0xa1 0x1 /usr/local/popcorn/x86_64/lib/libc.a(wcrtomb.o)
 .debug_abbrev  0x00000000000019c4      0x13b 0x1 /usr/local/popcorn/x86_64/lib/libc.a(__stdio_write.o)
 .debug_abbrev  0x0000000000001aff       0xc7 0x1 /usr/local/popcorn/x86_64/lib/libc.a(__towrite.o)
 .debug_abbrev  0x0000000000001bc6       0x85 0x1 /usr/local/popcorn/x86_64/lib/libc.a(__syscall_cp.o)
 .debug_abbrev  0x0000000000001c4b       0xaa 0x1 /usr/local/popcorn/x86_64/lib/libc.a(pthread_cleanup_push.o)
 .debug_abbrev  0x0000000000001cf5       0x28 0x1 /usr/local/popcorn/x86_64/lib/libc.a(syscall.o)
 .debug_abbrev  0x0000000000001d1d       0xe1 0x1 /usr/local/popcorn/x86_64/lib/libc.a(__stdio_exit.o)
 .debug_abbrev  0x0000000000001dfe       0xdf 0x1 /usr/local/popcorn/x86_64/lib/libc.a(__lock.o)
 .debug_abbrev  0x0000000000001edd      0x202 0x1 /usr/local/popcorn/x86_64/lib/libmigrate.a(migrate.o)
 .debug_abbrev  0x00000000000020df      0x2ab 0x1 /usr/local/popcorn/x86_64/lib/libstack-transform.a(userspace.o)
 .debug_abbrev  0x000000000000238a      0x172 0x1 /usr/local/popcorn/x86_64/lib/libstack-transform.a(init.o)
 .debug_abbrev  0x00000000000024fc      0x257 0x1 /usr/local/popcorn/x86_64/lib/libstack-transform.a(rewrite.o)
 .debug_abbrev  0x0000000000002753      0x1fc 0x1 /usr/local/popcorn/x86_64/lib/libstack-transform.a(unwind.o)
 .debug_abbrev  0x000000000000294f      0x179 0x1 /usr/local/popcorn/x86_64/lib/libstack-transform.a(util.o)
 .debug_abbrev  0x0000000000002ac8       0xd3 0x1 /usr/local/popcorn/x86_64/lib/libstack-transform.a(properties.o)
 .debug_abbrev  0x0000000000002b9b      0x12a 0x1 /usr/local/popcorn/x86_64/lib/libstack-transform.a(regs.o)
 .debug_abbrev  0x0000000000002cc5       0xf1 0x1 /usr/local/popcorn/x86_64/lib/libstack-transform.a(properties.o)
 .debug_abbrev  0x0000000000002db6      0x12a 0x1 /usr/local/popcorn/x86_64/lib/libstack-transform.a(regs.o)
 .debug_abbrev  0x0000000000002ee0      0x249 0x1 /usr/local/popcorn/x86_64/lib/libstack-transform.a(data.o)
 .debug_abbrev  0x0000000000003129      0x148 0x1 /usr/local/popcorn/x86_64/lib/libc.a(sysconf.o)
 .debug_abbrev  0x0000000000003271      0x175 0x1 /usr/local/popcorn/x86_64/lib/libc.a(__stack_chk_fail.o)
 .debug_abbrev  0x00000000000033e6       0x85 0x1 /usr/local/popcorn/x86_64/lib/libc.a(getenv.o)
 .debug_abbrev  0x000000000000346b       0x5a 0x1 /usr/local/popcorn/x86_64/lib/libc.a(assert.o)
 .debug_abbrev  0x00000000000034c5      0x12f 0x1 /usr/local/popcorn/x86_64/lib/libc.a(open.o)
 .debug_abbrev  0x00000000000035f4      0x109 0x1 /usr/local/popcorn/x86_64/lib/libc.a(prctl.o)
 .debug_abbrev  0x00000000000036fd       0xe4 0x1 /usr/local/popcorn/x86_64/lib/libc.a(sysinfo.o)
 .debug_abbrev  0x00000000000037e1       0x76 0x1 /usr/local/popcorn/x86_64/lib/libc.a(calloc.o)
 .debug_abbrev  0x0000000000003857       0xa0 0x1 /usr/local/popcorn/x86_64/lib/libc.a(lite_malloc.o)
 .debug_abbrev  0x00000000000038f7      0x278 0x1 /usr/local/popcorn/x86_64/lib/libc.a(malloc.o)
 .debug_abbrev  0x0000000000003b6f      0x106 0x1 /usr/local/popcorn/x86_64/lib/libc.a(getrlimit.o)
 .debug_abbrev  0x0000000000003c75       0xbe 0x1 /usr/local/popcorn/x86_64/lib/libc.a(madvise.o)
 .debug_abbrev  0x0000000000003d33       0xc8 0x1 /usr/local/popcorn/x86_64/lib/libc.a(mmap.o)
 .debug_abbrev  0x0000000000003dfb      0x109 0x1 /usr/local/popcorn/x86_64/lib/libc.a(mremap.o)
 .debug_abbrev  0x0000000000003f04       0xc8 0x1 /usr/local/popcorn/x86_64/lib/libc.a(munmap.o)
 .debug_abbrev  0x0000000000003fcc       0xf2 0x1 /usr/local/popcorn/x86_64/lib/libc.a(fclose.o)
 .debug_abbrev  0x00000000000040be      0x104 0x1 /usr/local/popcorn/x86_64/lib/libc.a(fflush.o)
 .debug_abbrev  0x00000000000041c2       0xc4 0x1 /usr/local/popcorn/x86_64/lib/libc.a(fgets.o)
 .debug_abbrev  0x0000000000004286      0x113 0x1 /usr/local/popcorn/x86_64/lib/libc.a(fopen.o)
 .debug_abbrev  0x0000000000004399       0xd6 0x1 /usr/local/popcorn/x86_64/lib/libc.a(fprintf.o)
 .debug_abbrev  0x000000000000446f       0x8e 0x1 /usr/local/popcorn/x86_64/lib/libc.a(getline.o)
 .debug_abbrev  0x00000000000044fd       0xc0 0x1 /usr/local/popcorn/x86_64/lib/libc.a(snprintf.o)
 .debug_abbrev  0x00000000000045bd       0xc0 0x1 /usr/local/popcorn/x86_64/lib/libc.a(sscanf.o)
 .debug_abbrev  0x000000000000467d       0xb9 0x1 /usr/local/popcorn/x86_64/lib/libc.a(stderr.o)
 .debug_abbrev  0x0000000000004736      0x10b 0x1 /usr/local/popcorn/x86_64/lib/libc.a(vsnprintf.o)
 .debug_abbrev  0x0000000000004841      0x10b 0x1 /usr/local/popcorn/x86_64/lib/libc.a(vsscanf.o)
 .debug_abbrev  0x000000000000494c      0x142 0x1 /usr/local/popcorn/x86_64/lib/libc.a(strtol.o)
 .debug_abbrev  0x0000000000004a8e       0x7d 0x1 /usr/local/popcorn/x86_64/lib/libc.a(memcmp.o)
 .debug_abbrev  0x0000000000004b0b       0x28 0x1 /usr/local/popcorn/x86_64/lib/libc.a(memmove.o)
 .debug_abbrev  0x0000000000004b33       0x7a 0x1 /usr/local/popcorn/x86_64/lib/libc.a(strchr.o)
 .debug_abbrev  0x0000000000004bad       0x8c 0x1 /usr/local/popcorn/x86_64/lib/libc.a(strchrnul.o)
 .debug_abbrev  0x0000000000004c39       0x5c 0x1 /usr/local/popcorn/x86_64/lib/libc.a(strcmp.o)
 .debug_abbrev  0x0000000000004c95       0x8a 0x1 /usr/local/popcorn/x86_64/lib/libc.a(strlen.o)
 .debug_abbrev  0x0000000000004d1f       0x7d 0x1 /usr/local/popcorn/x86_64/lib/libc.a(strncmp.o)
 .debug_abbrev  0x0000000000004d9c      0x10c 0x1 /usr/local/popcorn/x86_64/lib/libc.a(strstr.o)
 .debug_abbrev  0x0000000000004ea8       0xfd 0x1 /usr/local/popcorn/x86_64/lib/libc.a(pthread_attr_get.o)
 .debug_abbrev  0x0000000000004fa5      0x128 0x1 /usr/local/popcorn/x86_64/lib/libc.a(pthread_getattr_np.o)
 .debug_abbrev  0x00000000000050cd      0x154 0x1 /usr/local/popcorn/x86_64/lib/libc.a(pthread_getspecific.o)
 .debug_abbrev  0x0000000000005221      0x1f7 0x1 /usr/local/popcorn/x86_64/lib/libc.a(pthread_key_create.o)
 .debug_abbrev  0x0000000000005418      0x145 0x1 /usr/local/popcorn/x86_64/lib/libc.a(pthread_migrate.o)
 .debug_abbrev  0x000000000000555d      0x134 0x1 /usr/local/popcorn/x86_64/lib/libc.a(pthread_self.o)
 .debug_abbrev  0x0000000000005691      0x15b 0x1 /usr/local/popcorn/x86_64/lib/libc.a(pthread_setspecific.o)
 .debug_abbrev  0x00000000000057ec       0x78 0x1 /usr/local/popcorn/x86_64/lib/libc.a(close.o)
 .debug_abbrev  0x0000000000005864       0x9b 0x1 /usr/local/popcorn/x86_64/lib/libc.a(getpid.o)
 .debug_abbrev  0x00000000000058ff       0xb9 0x1 /usr/local/popcorn/x86_64/lib/libc.a(lseek.o)
 .debug_abbrev  0x00000000000059b8       0x60 0x1 /usr/local/popcorn/x86_64/lib/libc.a(read.o)
 .debug_abbrev  0x0000000000005a18       0x32 0x1 /usr/local/popcorn/x86_64/lib/libc.a(abort.o)
 .debug_abbrev  0x0000000000005a4a      0x11c 0x1 /usr/local/popcorn/x86_64/lib/libc.a(intscan.o)
 .debug_abbrev  0x0000000000005b66       0xe7 0x1 /usr/local/popcorn/x86_64/lib/libc.a(shgetc.o)
 .debug_abbrev  0x0000000000005c4d       0xaa 0x1 /usr/local/popcorn/x86_64/lib/libc.a(__brk.o)
 .debug_abbrev  0x0000000000005cf7       0xf0 0x1 /usr/local/popcorn/x86_64/lib/libc.a(raise.o)
 .debug_abbrev  0x0000000000005de7      0x118 0x1 /usr/local/popcorn/x86_64/lib/libc.a(__fdopen.o)
 .debug_abbrev  0x0000000000005eff       0x6b 0x1 /usr/local/popcorn/x86_64/lib/libc.a(__fmodeflags.o)
 .debug_abbrev  0x0000000000005f6a      0x13b 0x1 /usr/local/popcorn/x86_64/lib/libc.a(__stdio_read.o)
 .debug_abbrev  0x00000000000060a5       0xbd 0x1 /usr/local/popcorn/x86_64/lib/libc.a(__string_read.o)
 .debug_abbrev  0x0000000000006162       0xbd 0x1 /usr/local/popcorn/x86_64/lib/libc.a(__uflow.o)
 .debug_abbrev  0x000000000000621f       0xc4 0x1 /usr/local/popcorn/x86_64/lib/libc.a(getdelim.o)
 .debug_abbrev  0x00000000000062e3      0x1db 0x1 /usr/local/popcorn/x86_64/lib/libc.a(vfscanf.o)
 .debug_abbrev  0x00000000000064be      0x200 0x1 /usr/local/popcorn/x86_64/lib/libc.a(floatscan.o)
 .debug_abbrev  0x00000000000066be       0x91 0x1 /usr/local/popcorn/x86_64/lib/libc.a(copysignl.o)
 .debug_abbrev  0x000000000000674f       0x28 0x1 /usr/local/popcorn/x86_64/lib/libc.a(fabs.o)
 .debug_abbrev  0x0000000000006777       0x28 0x1 /usr/local/popcorn/x86_64/lib/libc.a(fmodl.o)
 .debug_abbrev  0x000000000000679f       0x93 0x1 /usr/local/popcorn/x86_64/lib/libc.a(scalbn.o)
 .debug_abbrev  0x0000000000006832       0xa0 0x1 /usr/local/popcorn/x86_64/lib/libc.a(scalbnl.o)
 .debug_abbrev  0x00000000000068d2       0xdd 0x1 /usr/local/popcorn/x86_64/lib/libc.a(mbrtowc.o)
 .debug_abbrev  0x00000000000069af       0x85 0x1 /usr/local/popcorn/x86_64/lib/libc.a(mbsinit.o)
 .debug_abbrev  0x0000000000006a34       0xda 0x1 /usr/local/popcorn/x86_64/lib/libc.a(block.o)
 .debug_abbrev  0x0000000000006b0e       0xc7 0x1 /usr/local/popcorn/x86_64/lib/libc.a(__toread.o)
 .debug_abbrev  0x0000000000006bd5       0x5e 0x1 /usr/local/popcorn/x86_64/lib/libc.a(internal.o)

.debug_info     0x0000000000000000    0x16e54
 .debug_info    0x0000000000000000       0x82 0x1 pierre_x86_64.o
 .debug_info    0x0000000000000082       0x68 0x1 test_x86_64.o
 .debug_info    0x00000000000000ea       0xcc 0x1 /usr/local/popcorn/x86_64/lib/crt1.o
 .debug_info    0x00000000000001b6      0x304 0x1 /usr/local/popcorn/x86_64/lib/libc.a(__libc_start_main.o)
 .debug_info    0x00000000000004ba       0x9a 0x1 /usr/local/popcorn/x86_64/lib/libc.a(exit.o)
 .debug_info    0x0000000000000554      0x196 0x1 /usr/local/popcorn/x86_64/lib/libc.a(libc.o)
 .debug_info    0x00000000000006ea      0x105 0x1 /usr/local/popcorn/x86_64/lib/libc.a(printf.o)
 .debug_info    0x00000000000007ef      0x2f1 0x1 /usr/local/popcorn/x86_64/lib/libc.a(stdout.o)
 .debug_info    0x0000000000000ae0     0x10ea 0x1 /usr/local/popcorn/x86_64/lib/libc.a(vfprintf.o)
 .debug_info    0x0000000000001bca       0xf3 0x1 /usr/local/popcorn/x86_64/lib/libc.a(memchr.o)
 .debug_info    0x0000000000001cbd       0xcf 0x1 /usr/local/popcorn/x86_64/lib/libc.a(memset.o)
 .debug_info    0x0000000000001d8c       0x45 0x1 /usr/local/popcorn/x86_64/lib/libc.a(__environ.o)
 .debug_info    0x0000000000001dd1      0x7b5 0x1 /usr/local/popcorn/x86_64/lib/libc.a(__init_tls.o)
 .debug_info    0x0000000000002586      0x423 0x1 /usr/local/popcorn/x86_64/lib/libc.a(__errno_location.o)
 .debug_info    0x00000000000029a9      0x514 0x1 /usr/local/popcorn/x86_64/lib/libc.a(strerror.o)
 .debug_info    0x0000000000002ebd       0xc7 0x1 /usr/local/popcorn/x86_64/lib/libc.a(_Exit.o)
 .debug_info    0x0000000000002f84      0x4e5 0x1 /usr/local/popcorn/x86_64/lib/libc.a(__lctrans.o)
 .debug_info    0x0000000000003469       0xed 0x1 /usr/local/popcorn/x86_64/lib/libc.a(__fpclassifyl.o)
 .debug_info    0x0000000000003556       0xd3 0x1 /usr/local/popcorn/x86_64/lib/libc.a(__signbitl.o)
 .debug_info    0x0000000000003629       0xf2 0x1 /usr/local/popcorn/x86_64/lib/libc.a(frexpl.o)
 .debug_info    0x000000000000371b       0x7f 0x1 /usr/local/popcorn/x86_64/lib/libc.a(wctomb.o)
 .debug_info    0x000000000000379a      0x73a 0x1 /usr/local/popcorn/x86_64/lib/libc.a(__lockfile.o)
 .debug_info    0x0000000000003ed4      0x32e 0x1 /usr/local/popcorn/x86_64/lib/libc.a(__stdio_close.o)
 .debug_info    0x0000000000004202      0x340 0x1 /usr/local/popcorn/x86_64/lib/libc.a(__stdio_seek.o)
 .debug_info    0x0000000000004542      0x38c 0x1 /usr/local/popcorn/x86_64/lib/libc.a(__stdout_write.o)
 .debug_info    0x00000000000048ce      0x372 0x1 /usr/local/popcorn/x86_64/lib/libc.a(fwrite.o)
 .debug_info    0x0000000000004c40       0xef 0x1 /usr/local/popcorn/x86_64/lib/libc.a(memcpy.o)
 .debug_info    0x0000000000004d2f       0xe4 0x1 /usr/local/popcorn/x86_64/lib/libc.a(__set_thread_area.o)
 .debug_info    0x0000000000004e13      0x112 0x1 /usr/local/popcorn/x86_64/lib/libc.a(__wait.o)
 .debug_info    0x0000000000004f25       0x62 0x1 /usr/local/popcorn/x86_64/lib/libc.a(syscall_ret.o)
 .debug_info    0x0000000000004f87       0xe4 0x1 /usr/local/popcorn/x86_64/lib/libc.a(wcrtomb.o)
 .debug_info    0x000000000000506b      0x3ee 0x1 /usr/local/popcorn/x86_64/lib/libc.a(__stdio_write.o)
 .debug_info    0x0000000000005459      0x2c7 0x1 /usr/local/popcorn/x86_64/lib/libc.a(__towrite.o)
 .debug_info    0x0000000000005720      0x12a 0x1 /usr/local/popcorn/x86_64/lib/libc.a(__syscall_cp.o)
 .debug_info    0x000000000000584a      0x105 0x1 /usr/local/popcorn/x86_64/lib/libc.a(pthread_cleanup_push.o)
 .debug_info    0x000000000000594f       0xd2 0x1 /usr/local/popcorn/x86_64/lib/libc.a(syscall.o)
 .debug_info    0x0000000000005a21      0x2eb 0x1 /usr/local/popcorn/x86_64/lib/libc.a(__stdio_exit.o)
 .debug_info    0x0000000000005d0c      0x124 0x1 /usr/local/popcorn/x86_64/lib/libc.a(__lock.o)
 .debug_info    0x0000000000005e30      0x5e3 0x1 /usr/local/popcorn/x86_64/lib/libmigrate.a(migrate.o)
 .debug_info    0x0000000000006413      0xf23 0x1 /usr/local/popcorn/x86_64/lib/libstack-transform.a(userspace.o)
 .debug_info    0x0000000000007336      0x8c0 0x1 /usr/local/popcorn/x86_64/lib/libstack-transform.a(init.o)
 .debug_info    0x0000000000007bf6      0xfff 0x1 /usr/local/popcorn/x86_64/lib/libstack-transform.a(rewrite.o)
 .debug_info    0x0000000000008bf5      0xd89 0x1 /usr/local/popcorn/x86_64/lib/libstack-transform.a(unwind.o)
 .debug_info    0x000000000000997e      0xc76 0x1 /usr/local/popcorn/x86_64/lib/libstack-transform.a(util.o)
 .debug_info    0x000000000000a5f4      0x205 0x1 /usr/local/popcorn/x86_64/lib/libstack-transform.a(properties.o)
 .debug_info    0x000000000000a7f9      0x69d 0x1 /usr/local/popcorn/x86_64/lib/libstack-transform.a(regs.o)
 .debug_info    0x000000000000ae96      0x21d 0x1 /usr/local/popcorn/x86_64/lib/libstack-transform.a(properties.o)
 .debug_info    0x000000000000b0b3      0x7cd 0x1 /usr/local/popcorn/x86_64/lib/libstack-transform.a(regs.o)
 .debug_info    0x000000000000b880      0xf44 0x1 /usr/local/popcorn/x86_64/lib/libstack-transform.a(data.o)
 .debug_info    0x000000000000c7c4      0x298 0x1 /usr/local/popcorn/x86_64/lib/libc.a(sysconf.o)
 .debug_info    0x000000000000ca5c      0x46d 0x1 /usr/local/popcorn/x86_64/lib/libc.a(__stack_chk_fail.o)
 .debug_info    0x000000000000cec9       0x9d 0x1 /usr/local/popcorn/x86_64/lib/libc.a(getenv.o)
 .debug_info    0x000000000000cf66       0x95 0x1 /usr/local/popcorn/x86_64/lib/libc.a(assert.o)
 .debug_info    0x000000000000cffb      0x1b3 0x1 /usr/local/popcorn/x86_64/lib/libc.a(open.o)
 .debug_info    0x000000000000d1ae      0x1a9 0x1 /usr/local/popcorn/x86_64/lib/libc.a(prctl.o)
 .debug_info    0x000000000000d357      0x1a3 0x1 /usr/local/popcorn/x86_64/lib/libc.a(sysinfo.o)
 .debug_info    0x000000000000d4fa       0x99 0x1 /usr/local/popcorn/x86_64/lib/libc.a(calloc.o)
 .debug_info    0x000000000000d593       0xfd 0x1 /usr/local/popcorn/x86_64/lib/libc.a(lite_malloc.o)
 .debug_info    0x000000000000d690      0xf13 0x1 /usr/local/popcorn/x86_64/lib/libc.a(malloc.o)
 .debug_info    0x000000000000e5a3      0x1c7 0x1 /usr/local/popcorn/x86_64/lib/libc.a(getrlimit.o)
 .debug_info    0x000000000000e76a       0xf4 0x1 /usr/local/popcorn/x86_64/lib/libc.a(madvise.o)
 .debug_info    0x000000000000e85e      0x189 0x1 /usr/local/popcorn/x86_64/lib/libc.a(mmap.o)
 .debug_info    0x000000000000e9e7      0x1c0 0x1 /usr/local/popcorn/x86_64/lib/libc.a(mremap.o)
 .debug_info    0x000000000000eba7       0xf3 0x1 /usr/local/popcorn/x86_64/lib/libc.a(munmap.o)
 .debug_info    0x000000000000ec9a      0x2f1 0x1 /usr/local/popcorn/x86_64/lib/libc.a(fclose.o)
 .debug_info    0x000000000000ef8b      0x334 0x1 /usr/local/popcorn/x86_64/lib/libc.a(fflush.o)
 .debug_info    0x000000000000f2bf      0x327 0x1 /usr/local/popcorn/x86_64/lib/libc.a(fgets.o)
 .debug_info    0x000000000000f5e6      0x3be 0x1 /usr/local/popcorn/x86_64/lib/libc.a(fopen.o)
 .debug_info    0x000000000000f9a4      0x12b 0x1 /usr/local/popcorn/x86_64/lib/libc.a(fprintf.o)
 .debug_info    0x000000000000facf       0xcd 0x1 /usr/local/popcorn/x86_64/lib/libc.a(getline.o)
 .debug_info    0x000000000000fb9c      0x139 0x1 /usr/local/popcorn/x86_64/lib/libc.a(snprintf.o)
 .debug_info    0x000000000000fcd5      0x110 0x1 /usr/local/popcorn/x86_64/lib/libc.a(sscanf.o)
 .debug_info    0x000000000000fde5      0x2f0 0x1 /usr/local/popcorn/x86_64/lib/libc.a(stderr.o)
 .debug_info    0x00000000000100d5      0x3b3 0x1 /usr/local/popcorn/x86_64/lib/libc.a(vsnprintf.o)
 .debug_info    0x0000000000010488      0x36e 0x1 /usr/local/popcorn/x86_64/lib/libc.a(vsscanf.o)
 .debug_info    0x00000000000107f6      0x56d 0x1 /usr/local/popcorn/x86_64/lib/libc.a(strtol.o)
 .debug_info    0x0000000000010d63       0xc0 0x1 /usr/local/popcorn/x86_64/lib/libc.a(memcmp.o)
 .debug_info    0x0000000000010e23       0xd1 0x1 /usr/local/popcorn/x86_64/lib/libc.a(memmove.o)
 .debug_info    0x0000000000010ef4       0x99 0x1 /usr/local/popcorn/x86_64/lib/libc.a(strchr.o)
 .debug_info    0x0000000000010f8d       0xcd 0x1 /usr/local/popcorn/x86_64/lib/libc.a(strchrnul.o)
 .debug_info    0x000000000001105a       0x87 0x1 /usr/local/popcorn/x86_64/lib/libc.a(strcmp.o)
 .debug_info    0x00000000000110e1       0xaa 0x1 /usr/local/popcorn/x86_64/lib/libc.a(strlen.o)
 .debug_info    0x000000000001118b       0xcc 0x1 /usr/local/popcorn/x86_64/lib/libc.a(strncmp.o)
 .debug_info    0x0000000000011257      0x32c 0x1 /usr/local/popcorn/x86_64/lib/libc.a(strstr.o)
 .debug_info    0x0000000000011583      0x599 0x1 /usr/local/popcorn/x86_64/lib/libc.a(pthread_attr_get.o)
 .debug_info    0x0000000000011b1c      0x444 0x1 /usr/local/popcorn/x86_64/lib/libc.a(pthread_getattr_np.o)
 .debug_info    0x0000000000011f60      0x44f 0x1 /usr/local/popcorn/x86_64/lib/libc.a(pthread_getspecific.o)
 .debug_info    0x00000000000123af      0x607 0x1 /usr/local/popcorn/x86_64/lib/libc.a(pthread_key_create.o)
 .debug_info    0x00000000000129b6      0x42d 0x1 /usr/local/popcorn/x86_64/lib/libc.a(pthread_migrate.o)
 .debug_info    0x0000000000012de3      0x428 0x1 /usr/local/popcorn/x86_64/lib/libc.a(pthread_self.o)
 .debug_info    0x000000000001320b      0x462 0x1 /usr/local/popcorn/x86_64/lib/libc.a(pthread_setspecific.o)
 .debug_info    0x000000000001366d       0x9a 0x1 /usr/local/popcorn/x86_64/lib/libc.a(close.o)
 .debug_info    0x0000000000013707       0xaa 0x1 /usr/local/popcorn/x86_64/lib/libc.a(getpid.o)
 .debug_info    0x00000000000137b1       0xf5 0x1 /usr/local/popcorn/x86_64/lib/libc.a(lseek.o)
 .debug_info    0x00000000000138a6       0x9e 0x1 /usr/local/popcorn/x86_64/lib/libc.a(read.o)
 .debug_info    0x0000000000013944       0x40 0x1 /usr/local/popcorn/x86_64/lib/libc.a(abort.o)
 .debug_info    0x0000000000013984      0x388 0x1 /usr/local/popcorn/x86_64/lib/libc.a(intscan.o)
 .debug_info    0x0000000000013d0c      0x2f3 0x1 /usr/local/popcorn/x86_64/lib/libc.a(shgetc.o)
 .debug_info    0x0000000000013fff       0xba 0x1 /usr/local/popcorn/x86_64/lib/libc.a(__brk.o)
 .debug_info    0x00000000000140b9      0x168 0x1 /usr/local/popcorn/x86_64/lib/libc.a(raise.o)
 .debug_info    0x0000000000014221      0x48f 0x1 /usr/local/popcorn/x86_64/lib/libc.a(__fdopen.o)
 .debug_info    0x00000000000146b0       0x7b 0x1 /usr/local/popcorn/x86_64/lib/libc.a(__fmodeflags.o)
 .debug_info    0x000000000001472b      0x3bc 0x1 /usr/local/popcorn/x86_64/lib/libc.a(__stdio_read.o)
 .debug_info    0x0000000000014ae7      0x2ff 0x1 /usr/local/popcorn/x86_64/lib/libc.a(__string_read.o)
 .debug_info    0x0000000000014de6      0x2c3 0x1 /usr/local/popcorn/x86_64/lib/libc.a(__uflow.o)
 .debug_info    0x00000000000150a9      0x35f 0x1 /usr/local/popcorn/x86_64/lib/libc.a(getdelim.o)
 .debug_info    0x0000000000015408      0x683 0x1 /usr/local/popcorn/x86_64/lib/libc.a(vfscanf.o)
 .debug_info    0x0000000000015a8b      0x891 0x1 /usr/local/popcorn/x86_64/lib/libc.a(floatscan.o)
 .debug_info    0x000000000001631c       0xea 0x1 /usr/local/popcorn/x86_64/lib/libc.a(copysignl.o)
 .debug_info    0x0000000000016406       0xcb 0x1 /usr/local/popcorn/x86_64/lib/libc.a(fabs.o)
 .debug_info    0x00000000000164d1       0xcd 0x1 /usr/local/popcorn/x86_64/lib/libc.a(fmodl.o)
 .debug_info    0x000000000001659e       0xc7 0x1 /usr/local/popcorn/x86_64/lib/libc.a(scalbn.o)
 .debug_info    0x0000000000016665       0xe6 0x1 /usr/local/popcorn/x86_64/lib/libc.a(scalbnl.o)
 .debug_info    0x000000000001674b      0x17a 0x1 /usr/local/popcorn/x86_64/lib/libc.a(mbrtowc.o)
 .debug_info    0x00000000000168c5       0x9f 0x1 /usr/local/popcorn/x86_64/lib/libc.a(mbsinit.o)
 .debug_info    0x0000000000016964      0x1c9 0x1 /usr/local/popcorn/x86_64/lib/libc.a(block.o)
 .debug_info    0x0000000000016b2d      0x2c9 0x1 /usr/local/popcorn/x86_64/lib/libc.a(__toread.o)
 .debug_info    0x0000000000016df6       0x5e 0x1 /usr/local/popcorn/x86_64/lib/libc.a(internal.o)

.debug_ranges   0x0000000000000000     0x3220
 .debug_ranges  0x0000000000000000       0x30 0x1 pierre_x86_64.o
 .debug_ranges  0x0000000000000030        0x0 0x1 test_x86_64.o
 .debug_ranges  0x0000000000000030       0x40 0x1 /usr/local/popcorn/x86_64/lib/libc.a(__libc_start_main.o)
 .debug_ranges  0x0000000000000070       0x30 0x1 /usr/local/popcorn/x86_64/lib/libc.a(exit.o)
 .debug_ranges  0x00000000000000a0        0x0 0x1 /usr/local/popcorn/x86_64/lib/libc.a(libc.o)
 .debug_ranges  0x00000000000000a0        0x0 0x1 /usr/local/popcorn/x86_64/lib/libc.a(printf.o)
 .debug_ranges  0x00000000000000a0        0x0 0x1 /usr/local/popcorn/x86_64/lib/libc.a(stdout.o)
 .debug_ranges  0x00000000000000a0      0xa00 0x1 /usr/local/popcorn/x86_64/lib/libc.a(vfprintf.o)
 .debug_ranges  0x0000000000000aa0        0x0 0x1 /usr/local/popcorn/x86_64/lib/libc.a(memchr.o)
 .debug_ranges  0x0000000000000aa0        0x0 0x1 /usr/local/popcorn/x86_64/lib/libc.a(__environ.o)
 .debug_ranges  0x0000000000000aa0       0x30 0x1 /usr/local/popcorn/x86_64/lib/libc.a(__init_tls.o)
 .debug_ranges  0x0000000000000ad0        0x0 0x1 /usr/local/popcorn/x86_64/lib/libc.a(__errno_location.o)
 .debug_ranges  0x0000000000000ad0       0x30 0x1 /usr/local/popcorn/x86_64/lib/libc.a(strerror.o)
 .debug_ranges  0x0000000000000b00        0x0 0x1 /usr/local/popcorn/x86_64/lib/libc.a(_Exit.o)
 .debug_ranges  0x0000000000000b00       0x40 0x1 /usr/local/popcorn/x86_64/lib/libc.a(__lctrans.o)
 .debug_ranges  0x0000000000000b40        0x0 0x1 /usr/local/popcorn/x86_64/lib/libc.a(__fpclassifyl.o)
 .debug_ranges  0x0000000000000b40        0x0 0x1 /usr/local/popcorn/x86_64/lib/libc.a(__signbitl.o)
 .debug_ranges  0x0000000000000b40        0x0 0x1 /usr/local/popcorn/x86_64/lib/libc.a(frexpl.o)
 .debug_ranges  0x0000000000000b40        0x0 0x1 /usr/local/popcorn/x86_64/lib/libc.a(wctomb.o)
 .debug_ranges  0x0000000000000b40       0x60 0x1 /usr/local/popcorn/x86_64/lib/libc.a(__lockfile.o)
 .debug_ranges  0x0000000000000ba0       0x30 0x1 /usr/local/popcorn/x86_64/lib/libc.a(__stdio_close.o)
 .debug_ranges  0x0000000000000bd0        0x0 0x1 /usr/local/popcorn/x86_64/lib/libc.a(__stdio_seek.o)
 .debug_ranges  0x0000000000000bd0        0x0 0x1 /usr/local/popcorn/x86_64/lib/libc.a(__stdout_write.o)
 .debug_ranges  0x0000000000000bd0       0x30 0x1 /usr/local/popcorn/x86_64/lib/libc.a(fwrite.o)
 .debug_ranges  0x0000000000000c00        0x0 0x1 /usr/local/popcorn/x86_64/lib/libc.a(__wait.o)
 .debug_ranges  0x0000000000000c00        0x0 0x1 /usr/local/popcorn/x86_64/lib/libc.a(syscall_ret.o)
 .debug_ranges  0x0000000000000c00        0x0 0x1 /usr/local/popcorn/x86_64/lib/libc.a(wcrtomb.o)
 .debug_ranges  0x0000000000000c00       0x30 0x1 /usr/local/popcorn/x86_64/lib/libc.a(__stdio_write.o)
 .debug_ranges  0x0000000000000c30       0x30 0x1 /usr/local/popcorn/x86_64/lib/libc.a(__towrite.o)
 .debug_ranges  0x0000000000000c60       0x30 0x1 /usr/local/popcorn/x86_64/lib/libc.a(__syscall_cp.o)
 .debug_ranges  0x0000000000000c90       0x40 0x1 /usr/local/popcorn/x86_64/lib/libc.a(pthread_cleanup_push.o)
 .debug_ranges  0x0000000000000cd0       0x30 0x1 /usr/local/popcorn/x86_64/lib/libc.a(__stdio_exit.o)
 .debug_ranges  0x0000000000000d00       0x70 0x1 /usr/local/popcorn/x86_64/lib/libc.a(__lock.o)
 .debug_ranges  0x0000000000000d70      0x130 0x1 /usr/local/popcorn/x86_64/lib/libmigrate.a(migrate.o)
 .debug_ranges  0x0000000000000ea0      0x100 0x1 /usr/local/popcorn/x86_64/lib/libstack-transform.a(userspace.o)
 .debug_ranges  0x0000000000000fa0       0x50 0x1 /usr/local/popcorn/x86_64/lib/libstack-transform.a(init.o)
 .debug_ranges  0x0000000000000ff0      0x2c0 0x1 /usr/local/popcorn/x86_64/lib/libstack-transform.a(rewrite.o)
 .debug_ranges  0x00000000000012b0      0x190 0x1 /usr/local/popcorn/x86_64/lib/libstack-transform.a(unwind.o)
 .debug_ranges  0x0000000000001440      0x100 0x1 /usr/local/popcorn/x86_64/lib/libstack-transform.a(util.o)
 .debug_ranges  0x0000000000001540       0x40 0x1 /usr/local/popcorn/x86_64/lib/libstack-transform.a(properties.o)
 .debug_ranges  0x0000000000001580      0x120 0x1 /usr/local/popcorn/x86_64/lib/libstack-transform.a(regs.o)
 .debug_ranges  0x00000000000016a0       0x40 0x1 /usr/local/popcorn/x86_64/lib/libstack-transform.a(properties.o)
 .debug_ranges  0x00000000000016e0      0x120 0x1 /usr/local/popcorn/x86_64/lib/libstack-transform.a(regs.o)
 .debug_ranges  0x0000000000001800      0x3d0 0x1 /usr/local/popcorn/x86_64/lib/libstack-transform.a(data.o)
 .debug_ranges  0x0000000000001bd0       0x60 0x1 /usr/local/popcorn/x86_64/lib/libc.a(sysconf.o)
 .debug_ranges  0x0000000000001c30       0x30 0x1 /usr/local/popcorn/x86_64/lib/libc.a(__stack_chk_fail.o)
 .debug_ranges  0x0000000000001c60        0x0 0x1 /usr/local/popcorn/x86_64/lib/libc.a(getenv.o)
 .debug_ranges  0x0000000000001c60        0x0 0x1 /usr/local/popcorn/x86_64/lib/libc.a(assert.o)
 .debug_ranges  0x0000000000001c60        0x0 0x1 /usr/local/popcorn/x86_64/lib/libc.a(open.o)
 .debug_ranges  0x0000000000001c60        0x0 0x1 /usr/local/popcorn/x86_64/lib/libc.a(prctl.o)
 .debug_ranges  0x0000000000001c60        0x0 0x1 /usr/local/popcorn/x86_64/lib/libc.a(sysinfo.o)
 .debug_ranges  0x0000000000001c60        0x0 0x1 /usr/local/popcorn/x86_64/lib/libc.a(calloc.o)
 .debug_ranges  0x0000000000001c60        0x0 0x1 /usr/local/popcorn/x86_64/lib/libc.a(lite_malloc.o)
 .debug_ranges  0x0000000000001c60      0x930 0x1 /usr/local/popcorn/x86_64/lib/libc.a(malloc.o)
 .debug_ranges  0x0000000000002590        0x0 0x1 /usr/local/popcorn/x86_64/lib/libc.a(getrlimit.o)
 .debug_ranges  0x0000000000002590        0x0 0x1 /usr/local/popcorn/x86_64/lib/libc.a(madvise.o)
 .debug_ranges  0x0000000000002590       0x30 0x1 /usr/local/popcorn/x86_64/lib/libc.a(mmap.o)
 .debug_ranges  0x00000000000025c0        0x0 0x1 /usr/local/popcorn/x86_64/lib/libc.a(mremap.o)
 .debug_ranges  0x00000000000025c0       0x30 0x1 /usr/local/popcorn/x86_64/lib/libc.a(munmap.o)
 .debug_ranges  0x00000000000025f0       0x30 0x1 /usr/local/popcorn/x86_64/lib/libc.a(fclose.o)
 .debug_ranges  0x0000000000002620       0x60 0x1 /usr/local/popcorn/x86_64/lib/libc.a(fflush.o)
 .debug_ranges  0x0000000000002680        0x0 0x1 /usr/local/popcorn/x86_64/lib/libc.a(fgets.o)
 .debug_ranges  0x0000000000002680        0x0 0x1 /usr/local/popcorn/x86_64/lib/libc.a(fopen.o)
 .debug_ranges  0x0000000000002680        0x0 0x1 /usr/local/popcorn/x86_64/lib/libc.a(fprintf.o)
 .debug_ranges  0x0000000000002680        0x0 0x1 /usr/local/popcorn/x86_64/lib/libc.a(getline.o)
 .debug_ranges  0x0000000000002680        0x0 0x1 /usr/local/popcorn/x86_64/lib/libc.a(snprintf.o)
 .debug_ranges  0x0000000000002680        0x0 0x1 /usr/local/popcorn/x86_64/lib/libc.a(sscanf.o)
 .debug_ranges  0x0000000000002680        0x0 0x1 /usr/local/popcorn/x86_64/lib/libc.a(stderr.o)
 .debug_ranges  0x0000000000002680       0x30 0x1 /usr/local/popcorn/x86_64/lib/libc.a(vsnprintf.o)
 .debug_ranges  0x00000000000026b0       0x30 0x1 /usr/local/popcorn/x86_64/lib/libc.a(vsscanf.o)
 .debug_ranges  0x00000000000026e0       0x80 0x1 /usr/local/popcorn/x86_64/lib/libc.a(strtol.o)
 .debug_ranges  0x0000000000002760        0x0 0x1 /usr/local/popcorn/x86_64/lib/libc.a(memcmp.o)
 .debug_ranges  0x0000000000002760        0x0 0x1 /usr/local/popcorn/x86_64/lib/libc.a(strchr.o)
 .debug_ranges  0x0000000000002760        0x0 0x1 /usr/local/popcorn/x86_64/lib/libc.a(strchrnul.o)
 .debug_ranges  0x0000000000002760        0x0 0x1 /usr/local/popcorn/x86_64/lib/libc.a(strcmp.o)
 .debug_ranges  0x0000000000002760        0x0 0x1 /usr/local/popcorn/x86_64/lib/libc.a(strlen.o)
 .debug_ranges  0x0000000000002760        0x0 0x1 /usr/local/popcorn/x86_64/lib/libc.a(strncmp.o)
 .debug_ranges  0x0000000000002760      0x230 0x1 /usr/local/popcorn/x86_64/lib/libc.a(strstr.o)
 .debug_ranges  0x0000000000002990      0x110 0x1 /usr/local/popcorn/x86_64/lib/libc.a(pthread_attr_get.o)
 .debug_ranges  0x0000000000002aa0        0x0 0x1 /usr/local/popcorn/x86_64/lib/libc.a(pthread_getattr_np.o)
 .debug_ranges  0x0000000000002aa0        0x0 0x1 /usr/local/popcorn/x86_64/lib/libc.a(pthread_getspecific.o)
 .debug_ranges  0x0000000000002aa0       0x80 0x1 /usr/local/popcorn/x86_64/lib/libc.a(pthread_key_create.o)
 .debug_ranges  0x0000000000002b20        0x0 0x1 /usr/local/popcorn/x86_64/lib/libc.a(pthread_migrate.o)
 .debug_ranges  0x0000000000002b20        0x0 0x1 /usr/local/popcorn/x86_64/lib/libc.a(pthread_self.o)
 .debug_ranges  0x0000000000002b20        0x0 0x1 /usr/local/popcorn/x86_64/lib/libc.a(pthread_setspecific.o)
 .debug_ranges  0x0000000000002b20       0x30 0x1 /usr/local/popcorn/x86_64/lib/libc.a(close.o)
 .debug_ranges  0x0000000000002b50        0x0 0x1 /usr/local/popcorn/x86_64/lib/libc.a(getpid.o)
 .debug_ranges  0x0000000000002b50        0x0 0x1 /usr/local/popcorn/x86_64/lib/libc.a(lseek.o)
 .debug_ranges  0x0000000000002b50        0x0 0x1 /usr/local/popcorn/x86_64/lib/libc.a(read.o)
 .debug_ranges  0x0000000000002b50        0x0 0x1 /usr/local/popcorn/x86_64/lib/libc.a(abort.o)
 .debug_ranges  0x0000000000002b50        0x0 0x1 /usr/local/popcorn/x86_64/lib/libc.a(intscan.o)
 .debug_ranges  0x0000000000002b50       0x30 0x1 /usr/local/popcorn/x86_64/lib/libc.a(shgetc.o)
 .debug_ranges  0x0000000000002b80        0x0 0x1 /usr/local/popcorn/x86_64/lib/libc.a(__brk.o)
 .debug_ranges  0x0000000000002b80        0x0 0x1 /usr/local/popcorn/x86_64/lib/libc.a(raise.o)
 .debug_ranges  0x0000000000002b80        0x0 0x1 /usr/local/popcorn/x86_64/lib/libc.a(__fdopen.o)
 .debug_ranges  0x0000000000002b80        0x0 0x1 /usr/local/popcorn/x86_64/lib/libc.a(__fmodeflags.o)
 .debug_ranges  0x0000000000002b80       0x30 0x1 /usr/local/popcorn/x86_64/lib/libc.a(__stdio_read.o)
 .debug_ranges  0x0000000000002bb0        0x0 0x1 /usr/local/popcorn/x86_64/lib/libc.a(__string_read.o)
 .debug_ranges  0x0000000000002bb0        0x0 0x1 /usr/local/popcorn/x86_64/lib/libc.a(__uflow.o)
 .debug_ranges  0x0000000000002bb0        0x0 0x1 /usr/local/popcorn/x86_64/lib/libc.a(getdelim.o)
 .debug_ranges  0x0000000000002bb0       0x90 0x1 /usr/local/popcorn/x86_64/lib/libc.a(vfscanf.o)
 .debug_ranges  0x0000000000002c40      0x570 0x1 /usr/local/popcorn/x86_64/lib/libc.a(floatscan.o)
 .debug_ranges  0x00000000000031b0        0x0 0x1 /usr/local/popcorn/x86_64/lib/libc.a(copysignl.o)
 .debug_ranges  0x00000000000031b0        0x0 0x1 /usr/local/popcorn/x86_64/lib/libc.a(scalbn.o)
 .debug_ranges  0x00000000000031b0        0x0 0x1 /usr/local/popcorn/x86_64/lib/libc.a(scalbnl.o)
 .debug_ranges  0x00000000000031b0        0x0 0x1 /usr/local/popcorn/x86_64/lib/libc.a(mbrtowc.o)
 .debug_ranges  0x00000000000031b0        0x0 0x1 /usr/local/popcorn/x86_64/lib/libc.a(mbsinit.o)
 .debug_ranges  0x00000000000031b0       0x40 0x1 /usr/local/popcorn/x86_64/lib/libc.a(block.o)
 .debug_ranges  0x00000000000031f0       0x30 0x1 /usr/local/popcorn/x86_64/lib/libc.a(__toread.o)
 .debug_ranges  0x0000000000003220        0x0 0x1 /usr/local/popcorn/x86_64/lib/libc.a(internal.o)

.debug_pubnames
                0x0000000000000000     0x23b6
 .debug_pubnames
                0x0000000000000000       0x21 0x1 pierre_x86_64.o
 .debug_pubnames
                0x0000000000000021       0x22 0x1 test_x86_64.o
 .debug_pubnames
                0x0000000000000043       0x77 0x1 /usr/local/popcorn/x86_64/lib/libc.a(__libc_start_main.o)
 .debug_pubnames
                0x00000000000000ba       0x25 0x1 /usr/local/popcorn/x86_64/lib/libc.a(exit.o)
 .debug_pubnames
                0x00000000000000df       0x5a 0x1 /usr/local/popcorn/x86_64/lib/libc.a(libc.o)
 .debug_pubnames
                0x0000000000000139       0x1d 0x1 /usr/local/popcorn/x86_64/lib/libc.a(printf.o)
 .debug_pubnames
                0x0000000000000156       0x3d 0x1 /usr/local/popcorn/x86_64/lib/libc.a(stdout.o)
 .debug_pubnames
                0x0000000000000193       0xb9 0x1 /usr/local/popcorn/x86_64/lib/libc.a(vfprintf.o)
 .debug_pubnames
                0x000000000000024c       0x1d 0x1 /usr/local/popcorn/x86_64/lib/libc.a(memchr.o)
 .debug_pubnames
                0x0000000000000269       0x20 0x1 /usr/local/popcorn/x86_64/lib/libc.a(__environ.o)
 .debug_pubnames
                0x0000000000000289       0x89 0x1 /usr/local/popcorn/x86_64/lib/libc.a(__init_tls.o)
 .debug_pubnames
                0x0000000000000312       0x3a 0x1 /usr/local/popcorn/x86_64/lib/libc.a(__errno_location.o)
 .debug_pubnames
                0x000000000000034c       0x58 0x1 /usr/local/popcorn/x86_64/lib/libc.a(strerror.o)
 .debug_pubnames
                0x00000000000003a4       0x2b 0x1 /usr/local/popcorn/x86_64/lib/libc.a(_Exit.o)
 .debug_pubnames
                0x00000000000003cf       0x4f 0x1 /usr/local/popcorn/x86_64/lib/libc.a(__lctrans.o)
 .debug_pubnames
                0x000000000000041e       0x24 0x1 /usr/local/popcorn/x86_64/lib/libc.a(__fpclassifyl.o)
 .debug_pubnames
                0x0000000000000442       0x21 0x1 /usr/local/popcorn/x86_64/lib/libc.a(__signbitl.o)
 .debug_pubnames
                0x0000000000000463       0x1d 0x1 /usr/local/popcorn/x86_64/lib/libc.a(frexpl.o)
 .debug_pubnames
                0x0000000000000480       0x1d 0x1 /usr/local/popcorn/x86_64/lib/libc.a(wctomb.o)
 .debug_pubnames
                0x000000000000049d       0x66 0x1 /usr/local/popcorn/x86_64/lib/libc.a(__lockfile.o)
 .debug_pubnames
                0x0000000000000503       0x3d 0x1 /usr/local/popcorn/x86_64/lib/libc.a(__stdio_close.o)
 .debug_pubnames
                0x0000000000000540       0x32 0x1 /usr/local/popcorn/x86_64/lib/libc.a(__stdio_seek.o)
 .debug_pubnames
                0x0000000000000572       0x34 0x1 /usr/local/popcorn/x86_64/lib/libc.a(__stdout_write.o)
 .debug_pubnames
                0x00000000000005a6       0x2b 0x1 /usr/local/popcorn/x86_64/lib/libc.a(fwrite.o)
 .debug_pubnames
                0x00000000000005d1       0x3c 0x1 /usr/local/popcorn/x86_64/lib/libc.a(__wait.o)
 .debug_pubnames
                0x000000000000060d       0x24 0x1 /usr/local/popcorn/x86_64/lib/libc.a(syscall_ret.o)
 .debug_pubnames
                0x0000000000000631       0x1e 0x1 /usr/local/popcorn/x86_64/lib/libc.a(wcrtomb.o)
 .debug_pubnames
                0x000000000000064f       0x30 0x1 /usr/local/popcorn/x86_64/lib/libc.a(__stdio_write.o)
 .debug_pubnames
                0x000000000000067f       0x3f 0x1 /usr/local/popcorn/x86_64/lib/libc.a(__towrite.o)
 .debug_pubnames
                0x00000000000006be       0x2c 0x1 /usr/local/popcorn/x86_64/lib/libc.a(__syscall_cp.o)
 .debug_pubnames
                0x00000000000006ea       0x4f 0x1 /usr/local/popcorn/x86_64/lib/libc.a(pthread_cleanup_push.o)
 .debug_pubnames
                0x0000000000000739       0x41 0x1 /usr/local/popcorn/x86_64/lib/libc.a(__stdio_exit.o)
 .debug_pubnames
                0x000000000000077a       0x4c 0x1 /usr/local/popcorn/x86_64/lib/libc.a(__lock.o)
 .debug_pubnames
                0x00000000000007c6      0x15d 0x1 /usr/local/popcorn/x86_64/lib/libmigrate.a(migrate.o)
 .debug_pubnames
                0x0000000000000923      0x187 0x1 /usr/local/popcorn/x86_64/lib/libstack-transform.a(userspace.o)
 .debug_pubnames
                0x0000000000000aaa       0x49 0x1 /usr/local/popcorn/x86_64/lib/libstack-transform.a(init.o)
 .debug_pubnames
                0x0000000000000af3      0x158 0x1 /usr/local/popcorn/x86_64/lib/libstack-transform.a(rewrite.o)
 .debug_pubnames
                0x0000000000000c4b      0x128 0x1 /usr/local/popcorn/x86_64/lib/libstack-transform.a(unwind.o)
 .debug_pubnames
                0x0000000000000d73       0xda 0x1 /usr/local/popcorn/x86_64/lib/libstack-transform.a(util.o)
 .debug_pubnames
                0x0000000000000e4d       0xad 0x1 /usr/local/popcorn/x86_64/lib/libstack-transform.a(properties.o)
 .debug_pubnames
                0x0000000000000efa      0x189 0x1 /usr/local/popcorn/x86_64/lib/libstack-transform.a(regs.o)
 .debug_pubnames
                0x0000000000001083       0xa7 0x1 /usr/local/popcorn/x86_64/lib/libstack-transform.a(properties.o)
 .debug_pubnames
                0x000000000000112a      0x177 0x1 /usr/local/popcorn/x86_64/lib/libstack-transform.a(regs.o)
 .debug_pubnames
                0x00000000000012a1      0x12c 0x1 /usr/local/popcorn/x86_64/lib/libstack-transform.a(data.o)
 .debug_pubnames
                0x00000000000013cd       0x38 0x1 /usr/local/popcorn/x86_64/lib/libc.a(sysconf.o)
 .debug_pubnames
                0x0000000000001405       0x6b 0x1 /usr/local/popcorn/x86_64/lib/libc.a(__stack_chk_fail.o)
 .debug_pubnames
                0x0000000000001470       0x1d 0x1 /usr/local/popcorn/x86_64/lib/libc.a(getenv.o)
 .debug_pubnames
                0x000000000000148d       0x24 0x1 /usr/local/popcorn/x86_64/lib/libc.a(assert.o)
 .debug_pubnames
                0x00000000000014b1       0x2a 0x1 /usr/local/popcorn/x86_64/lib/libc.a(open.o)
 .debug_pubnames
                0x00000000000014db       0x2b 0x1 /usr/local/popcorn/x86_64/lib/libc.a(prctl.o)
 .debug_pubnames
                0x0000000000001506       0x30 0x1 /usr/local/popcorn/x86_64/lib/libc.a(sysinfo.o)
 .debug_pubnames
                0x0000000000001536       0x1d 0x1 /usr/local/popcorn/x86_64/lib/libc.a(calloc.o)
 .debug_pubnames
                0x0000000000001553       0x3f 0x1 /usr/local/popcorn/x86_64/lib/libc.a(lite_malloc.o)
 .debug_pubnames
                0x0000000000001592      0x14f 0x1 /usr/local/popcorn/x86_64/lib/libc.a(malloc.o)
 .debug_pubnames
                0x00000000000016e1       0x3e 0x1 /usr/local/popcorn/x86_64/lib/libc.a(getrlimit.o)
 .debug_pubnames
                0x000000000000171f       0x2f 0x1 /usr/local/popcorn/x86_64/lib/libc.a(madvise.o)
 .debug_pubnames
                0x000000000000174e       0x36 0x1 /usr/local/popcorn/x86_64/lib/libc.a(mmap.o)
 .debug_pubnames
                0x0000000000001784       0x2e 0x1 /usr/local/popcorn/x86_64/lib/libc.a(mremap.o)
 .debug_pubnames
                0x00000000000017b2       0x38 0x1 /usr/local/popcorn/x86_64/lib/libc.a(munmap.o)
 .debug_pubnames
                0x00000000000017ea       0x27 0x1 /usr/local/popcorn/x86_64/lib/libc.a(fclose.o)
 .debug_pubnames
                0x0000000000001811       0x3d 0x1 /usr/local/popcorn/x86_64/lib/libc.a(fflush.o)
 .debug_pubnames
                0x000000000000184e       0x1c 0x1 /usr/local/popcorn/x86_64/lib/libc.a(fgets.o)
 .debug_pubnames
                0x000000000000186a       0x3a 0x1 /usr/local/popcorn/x86_64/lib/libc.a(fopen.o)
 .debug_pubnames
                0x00000000000018a4       0x1e 0x1 /usr/local/popcorn/x86_64/lib/libc.a(fprintf.o)
 .debug_pubnames
                0x00000000000018c2       0x1e 0x1 /usr/local/popcorn/x86_64/lib/libc.a(getline.o)
 .debug_pubnames
                0x00000000000018e0       0x1f 0x1 /usr/local/popcorn/x86_64/lib/libc.a(snprintf.o)
 .debug_pubnames
                0x00000000000018ff       0x1d 0x1 /usr/local/popcorn/x86_64/lib/libc.a(sscanf.o)
 .debug_pubnames
                0x000000000000191c       0x3d 0x1 /usr/local/popcorn/x86_64/lib/libc.a(stderr.o)
 .debug_pubnames
                0x0000000000001959       0x2d 0x1 /usr/local/popcorn/x86_64/lib/libc.a(vsnprintf.o)
 .debug_pubnames
                0x0000000000001986       0x2a 0x1 /usr/local/popcorn/x86_64/lib/libc.a(vsscanf.o)
 .debug_pubnames
                0x00000000000019b0       0x69 0x1 /usr/local/popcorn/x86_64/lib/libc.a(strtol.o)
 .debug_pubnames
                0x0000000000001a19       0x1d 0x1 /usr/local/popcorn/x86_64/lib/libc.a(memcmp.o)
 .debug_pubnames
                0x0000000000001a36       0x1d 0x1 /usr/local/popcorn/x86_64/lib/libc.a(strchr.o)
 .debug_pubnames
                0x0000000000001a53       0x22 0x1 /usr/local/popcorn/x86_64/lib/libc.a(strchrnul.o)
 .debug_pubnames
                0x0000000000001a75       0x1d 0x1 /usr/local/popcorn/x86_64/lib/libc.a(strcmp.o)
 .debug_pubnames
                0x0000000000001a92       0x1d 0x1 /usr/local/popcorn/x86_64/lib/libc.a(strlen.o)
 .debug_pubnames
                0x0000000000001aaf       0x1e 0x1 /usr/local/popcorn/x86_64/lib/libc.a(strncmp.o)
 .debug_pubnames
                0x0000000000001acd       0x6b 0x1 /usr/local/popcorn/x86_64/lib/libc.a(strstr.o)
 .debug_pubnames
                0x0000000000001b38      0x206 0x1 /usr/local/popcorn/x86_64/lib/libc.a(pthread_attr_get.o)
 .debug_pubnames
                0x0000000000001d3e       0x29 0x1 /usr/local/popcorn/x86_64/lib/libc.a(pthread_getattr_np.o)
 .debug_pubnames
                0x0000000000001d67       0x3f 0x1 /usr/local/popcorn/x86_64/lib/libc.a(pthread_getspecific.o)
 .debug_pubnames
                0x0000000000001da6       0xc1 0x1 /usr/local/popcorn/x86_64/lib/libc.a(pthread_key_create.o)
 .debug_pubnames
                0x0000000000001e67       0x3e 0x1 /usr/local/popcorn/x86_64/lib/libc.a(pthread_migrate.o)
 .debug_pubnames
                0x0000000000001ea5       0x41 0x1 /usr/local/popcorn/x86_64/lib/libc.a(pthread_self.o)
 .debug_pubnames
                0x0000000000001ee6       0x3d 0x1 /usr/local/popcorn/x86_64/lib/libc.a(pthread_setspecific.o)
 .debug_pubnames
                0x0000000000001f23       0x26 0x1 /usr/local/popcorn/x86_64/lib/libc.a(close.o)
 .debug_pubnames
                0x0000000000001f49       0x2c 0x1 /usr/local/popcorn/x86_64/lib/libc.a(getpid.o)
 .debug_pubnames
                0x0000000000001f75       0x2b 0x1 /usr/local/popcorn/x86_64/lib/libc.a(lseek.o)
 .debug_pubnames
                0x0000000000001fa0       0x1b 0x1 /usr/local/popcorn/x86_64/lib/libc.a(read.o)
 .debug_pubnames
                0x0000000000001fbb       0x1c 0x1 /usr/local/popcorn/x86_64/lib/libc.a(abort.o)
 .debug_pubnames
                0x0000000000001fd7       0x38 0x1 /usr/local/popcorn/x86_64/lib/libc.a(intscan.o)
 .debug_pubnames
                0x000000000000200f       0x2b 0x1 /usr/local/popcorn/x86_64/lib/libc.a(shgetc.o)
 .debug_pubnames
                0x000000000000203a       0x2b 0x1 /usr/local/popcorn/x86_64/lib/libc.a(__brk.o)
 .debug_pubnames
                0x0000000000002065       0x3a 0x1 /usr/local/popcorn/x86_64/lib/libc.a(raise.o)
 .debug_pubnames
                0x000000000000209f       0x3d 0x1 /usr/local/popcorn/x86_64/lib/libc.a(__fdopen.o)
 .debug_pubnames
                0x00000000000020dc       0x23 0x1 /usr/local/popcorn/x86_64/lib/libc.a(__fmodeflags.o)
 .debug_pubnames
                0x00000000000020ff       0x2f 0x1 /usr/local/popcorn/x86_64/lib/libc.a(__stdio_read.o)
 .debug_pubnames
                0x000000000000212e       0x24 0x1 /usr/local/popcorn/x86_64/lib/libc.a(__string_read.o)
 .debug_pubnames
                0x0000000000002152       0x1e 0x1 /usr/local/popcorn/x86_64/lib/libc.a(__uflow.o)
 .debug_pubnames
                0x0000000000002170       0x1f 0x1 /usr/local/popcorn/x86_64/lib/libc.a(getdelim.o)
 .debug_pubnames
                0x000000000000218f       0x44 0x1 /usr/local/popcorn/x86_64/lib/libc.a(vfscanf.o)
 .debug_pubnames
                0x00000000000021d3       0x66 0x1 /usr/local/popcorn/x86_64/lib/libc.a(floatscan.o)
 .debug_pubnames
                0x0000000000002239       0x20 0x1 /usr/local/popcorn/x86_64/lib/libc.a(copysignl.o)
 .debug_pubnames
                0x0000000000002259       0x1d 0x1 /usr/local/popcorn/x86_64/lib/libc.a(scalbn.o)
 .debug_pubnames
                0x0000000000002276       0x1e 0x1 /usr/local/popcorn/x86_64/lib/libc.a(scalbnl.o)
 .debug_pubnames
                0x0000000000002294       0x31 0x1 /usr/local/popcorn/x86_64/lib/libc.a(mbrtowc.o)
 .debug_pubnames
                0x00000000000022c5       0x1e 0x1 /usr/local/popcorn/x86_64/lib/libc.a(mbsinit.o)
 .debug_pubnames
                0x00000000000022e3       0x78 0x1 /usr/local/popcorn/x86_64/lib/libc.a(block.o)
 .debug_pubnames
                0x000000000000235b       0x3d 0x1 /usr/local/popcorn/x86_64/lib/libc.a(__toread.o)
 .debug_pubnames
                0x0000000000002398       0x1e 0x1 /usr/local/popcorn/x86_64/lib/libc.a(internal.o)

.debug_pubtypes
                0x0000000000000000     0x4512
 .debug_pubtypes
                0x0000000000000000       0x1a 0x1 pierre_x86_64.o
 .debug_pubtypes
                0x000000000000001a       0x1a 0x1 test_x86_64.o
 .debug_pubtypes
                0x0000000000000034       0x74 0x1 /usr/local/popcorn/x86_64/lib/libc.a(__libc_start_main.o)
 .debug_pubtypes
                0x00000000000000a8       0x3e 0x1 /usr/local/popcorn/x86_64/lib/libc.a(exit.o)
 .debug_pubtypes
                0x00000000000000e6       0x6c 0x1 /usr/local/popcorn/x86_64/lib/libc.a(libc.o)
 .debug_pubtypes
                0x0000000000000152       0x68 0x1 /usr/local/popcorn/x86_64/lib/libc.a(printf.o)
 .debug_pubtypes
                0x00000000000001ba       0xae 0x1 /usr/local/popcorn/x86_64/lib/libc.a(stdout.o)
 .debug_pubtypes
                0x0000000000000268      0x183 0x1 /usr/local/popcorn/x86_64/lib/libc.a(vfprintf.o)
 .debug_pubtypes
                0x00000000000003eb       0x5b 0x1 /usr/local/popcorn/x86_64/lib/libc.a(memchr.o)
 .debug_pubtypes
                0x0000000000000446       0x1b 0x1 /usr/local/popcorn/x86_64/lib/libc.a(__environ.o)
 .debug_pubtypes
                0x0000000000000461      0x173 0x1 /usr/local/popcorn/x86_64/lib/libc.a(__init_tls.o)
 .debug_pubtypes
                0x00000000000005d4       0xc8 0x1 /usr/local/popcorn/x86_64/lib/libc.a(__errno_location.o)
 .debug_pubtypes
                0x000000000000069c       0xd9 0x1 /usr/local/popcorn/x86_64/lib/libc.a(strerror.o)
 .debug_pubtypes
                0x0000000000000775       0x3d 0x1 /usr/local/popcorn/x86_64/lib/libc.a(_Exit.o)
 .debug_pubtypes
                0x00000000000007b2       0xd9 0x1 /usr/local/popcorn/x86_64/lib/libc.a(__lctrans.o)
 .debug_pubtypes
                0x000000000000088b       0x79 0x1 /usr/local/popcorn/x86_64/lib/libc.a(__fpclassifyl.o)
 .debug_pubtypes
                0x0000000000000904       0x79 0x1 /usr/local/popcorn/x86_64/lib/libc.a(__signbitl.o)
 .debug_pubtypes
                0x000000000000097d       0x79 0x1 /usr/local/popcorn/x86_64/lib/libc.a(frexpl.o)
 .debug_pubtypes
                0x00000000000009f6       0x2f 0x1 /usr/local/popcorn/x86_64/lib/libc.a(wctomb.o)
 .debug_pubtypes
                0x0000000000000a25      0x113 0x1 /usr/local/popcorn/x86_64/lib/libc.a(__lockfile.o)
 .debug_pubtypes
                0x0000000000000b38       0xae 0x1 /usr/local/popcorn/x86_64/lib/libc.a(__stdio_close.o)
 .debug_pubtypes
                0x0000000000000be6       0xae 0x1 /usr/local/popcorn/x86_64/lib/libc.a(__stdio_seek.o)
 .debug_pubtypes
                0x0000000000000c94       0xcd 0x1 /usr/local/popcorn/x86_64/lib/libc.a(__stdout_write.o)
 .debug_pubtypes
                0x0000000000000d61       0xae 0x1 /usr/local/popcorn/x86_64/lib/libc.a(fwrite.o)
 .debug_pubtypes
                0x0000000000000e0f       0x1a 0x1 /usr/local/popcorn/x86_64/lib/libc.a(__wait.o)
 .debug_pubtypes
                0x0000000000000e29       0x35 0x1 /usr/local/popcorn/x86_64/lib/libc.a(syscall_ret.o)
 .debug_pubtypes
                0x0000000000000e5e       0x7f 0x1 /usr/local/popcorn/x86_64/lib/libc.a(wcrtomb.o)
 .debug_pubtypes
                0x0000000000000edd       0xcf 0x1 /usr/local/popcorn/x86_64/lib/libc.a(__stdio_write.o)
 .debug_pubtypes
                0x0000000000000fac       0xae 0x1 /usr/local/popcorn/x86_64/lib/libc.a(__towrite.o)
 .debug_pubtypes
                0x000000000000105a       0x31 0x1 /usr/local/popcorn/x86_64/lib/libc.a(__syscall_cp.o)
 .debug_pubtypes
                0x000000000000108b       0x25 0x1 /usr/local/popcorn/x86_64/lib/libc.a(pthread_cleanup_push.o)
 .debug_pubtypes
                0x00000000000010b0       0xae 0x1 /usr/local/popcorn/x86_64/lib/libc.a(__stdio_exit.o)
 .debug_pubtypes
                0x000000000000115e       0x1a 0x1 /usr/local/popcorn/x86_64/lib/libc.a(__lock.o)
 .debug_pubtypes
                0x0000000000001178       0xea 0x1 /usr/local/popcorn/x86_64/lib/libmigrate.a(migrate.o)
 .debug_pubtypes
                0x0000000000001262      0x260 0x1 /usr/local/popcorn/x86_64/lib/libstack-transform.a(userspace.o)
 .debug_pubtypes
                0x00000000000014c2      0x1ef 0x1 /usr/local/popcorn/x86_64/lib/libstack-transform.a(init.o)
 .debug_pubtypes
                0x00000000000016b1      0x20c 0x1 /usr/local/popcorn/x86_64/lib/libstack-transform.a(rewrite.o)
 .debug_pubtypes
                0x00000000000018bd      0x20c 0x1 /usr/local/popcorn/x86_64/lib/libstack-transform.a(unwind.o)
 .debug_pubtypes
                0x0000000000001ac9      0x22e 0x1 /usr/local/popcorn/x86_64/lib/libstack-transform.a(util.o)
 .debug_pubtypes
                0x0000000000001cf7       0x82 0x1 /usr/local/popcorn/x86_64/lib/libstack-transform.a(properties.o)
 .debug_pubtypes
                0x0000000000001d79       0xd7 0x1 /usr/local/popcorn/x86_64/lib/libstack-transform.a(regs.o)
 .debug_pubtypes
                0x0000000000001e50       0x8f 0x1 /usr/local/popcorn/x86_64/lib/libstack-transform.a(properties.o)
 .debug_pubtypes
                0x0000000000001edf      0x103 0x1 /usr/local/popcorn/x86_64/lib/libstack-transform.a(regs.o)
 .debug_pubtypes
                0x0000000000001fe2      0x22c 0x1 /usr/local/popcorn/x86_64/lib/libstack-transform.a(data.o)
 .debug_pubtypes
                0x000000000000220e       0xc3 0x1 /usr/local/popcorn/x86_64/lib/libc.a(sysconf.o)
 .debug_pubtypes
                0x00000000000022d1       0xc8 0x1 /usr/local/popcorn/x86_64/lib/libc.a(__stack_chk_fail.o)
 .debug_pubtypes
                0x0000000000002399       0x44 0x1 /usr/local/popcorn/x86_64/lib/libc.a(getenv.o)
 .debug_pubtypes
                0x00000000000023dd       0x23 0x1 /usr/local/popcorn/x86_64/lib/libc.a(assert.o)
 .debug_pubtypes
                0x0000000000002400       0x96 0x1 /usr/local/popcorn/x86_64/lib/libc.a(open.o)
 .debug_pubtypes
                0x0000000000002496       0x82 0x1 /usr/local/popcorn/x86_64/lib/libc.a(prctl.o)
 .debug_pubtypes
                0x0000000000002518       0x76 0x1 /usr/local/popcorn/x86_64/lib/libc.a(sysinfo.o)
 .debug_pubtypes
                0x000000000000258e       0x33 0x1 /usr/local/popcorn/x86_64/lib/libc.a(calloc.o)
 .debug_pubtypes
                0x00000000000025c1       0x49 0x1 /usr/local/popcorn/x86_64/lib/libc.a(lite_malloc.o)
 .debug_pubtypes
                0x000000000000260a       0x82 0x1 /usr/local/popcorn/x86_64/lib/libc.a(malloc.o)
 .debug_pubtypes
                0x000000000000268c       0x6e 0x1 /usr/local/popcorn/x86_64/lib/libc.a(getrlimit.o)
 .debug_pubtypes
                0x00000000000026fa       0x48 0x1 /usr/local/popcorn/x86_64/lib/libc.a(madvise.o)
 .debug_pubtypes
                0x0000000000002742       0x52 0x1 /usr/local/popcorn/x86_64/lib/libc.a(mmap.o)
 .debug_pubtypes
                0x0000000000002794       0x8d 0x1 /usr/local/popcorn/x86_64/lib/libc.a(mremap.o)
 .debug_pubtypes
                0x0000000000002821       0x48 0x1 /usr/local/popcorn/x86_64/lib/libc.a(munmap.o)
 .debug_pubtypes
                0x0000000000002869       0xae 0x1 /usr/local/popcorn/x86_64/lib/libc.a(fclose.o)
 .debug_pubtypes
                0x0000000000002917       0xae 0x1 /usr/local/popcorn/x86_64/lib/libc.a(fflush.o)
 .debug_pubtypes
                0x00000000000029c5       0xae 0x1 /usr/local/popcorn/x86_64/lib/libc.a(fgets.o)
 .debug_pubtypes
                0x0000000000002a73       0xae 0x1 /usr/local/popcorn/x86_64/lib/libc.a(fopen.o)
 .debug_pubtypes
                0x0000000000002b21       0x71 0x1 /usr/local/popcorn/x86_64/lib/libc.a(fprintf.o)
 .debug_pubtypes
                0x0000000000002b92       0x5e 0x1 /usr/local/popcorn/x86_64/lib/libc.a(getline.o)
 .debug_pubtypes
                0x0000000000002bf0       0x89 0x1 /usr/local/popcorn/x86_64/lib/libc.a(snprintf.o)
 .debug_pubtypes
                0x0000000000002c79       0x68 0x1 /usr/local/popcorn/x86_64/lib/libc.a(sscanf.o)
 .debug_pubtypes
                0x0000000000002ce1       0xae 0x1 /usr/local/popcorn/x86_64/lib/libc.a(stderr.o)
 .debug_pubtypes
                0x0000000000002d8f       0xc0 0x1 /usr/local/popcorn/x86_64/lib/libc.a(vsnprintf.o)
 .debug_pubtypes
                0x0000000000002e4f       0xc0 0x1 /usr/local/popcorn/x86_64/lib/libc.a(vsscanf.o)
 .debug_pubtypes
                0x0000000000002f0f       0xf6 0x1 /usr/local/popcorn/x86_64/lib/libc.a(strtol.o)
 .debug_pubtypes
                0x0000000000003005       0x4d 0x1 /usr/local/popcorn/x86_64/lib/libc.a(memcmp.o)
 .debug_pubtypes
                0x0000000000003052       0x35 0x1 /usr/local/popcorn/x86_64/lib/libc.a(strchr.o)
 .debug_pubtypes
                0x0000000000003087       0x64 0x1 /usr/local/popcorn/x86_64/lib/libc.a(strchrnul.o)
 .debug_pubtypes
                0x00000000000030eb       0x35 0x1 /usr/local/popcorn/x86_64/lib/libc.a(strcmp.o)
 .debug_pubtypes
                0x0000000000003120       0x4a 0x1 /usr/local/popcorn/x86_64/lib/libc.a(strlen.o)
 .debug_pubtypes
                0x000000000000316a       0x56 0x1 /usr/local/popcorn/x86_64/lib/libc.a(strncmp.o)
 .debug_pubtypes
                0x00000000000031c0       0x8c 0x1 /usr/local/popcorn/x86_64/lib/libc.a(strstr.o)
 .debug_pubtypes
                0x000000000000324c      0x104 0x1 /usr/local/popcorn/x86_64/lib/libc.a(pthread_attr_get.o)
 .debug_pubtypes
                0x0000000000003350       0xd6 0x1 /usr/local/popcorn/x86_64/lib/libc.a(pthread_getattr_np.o)
 .debug_pubtypes
                0x0000000000003426       0xeb 0x1 /usr/local/popcorn/x86_64/lib/libc.a(pthread_getspecific.o)
 .debug_pubtypes
                0x0000000000003511       0xf9 0x1 /usr/local/popcorn/x86_64/lib/libc.a(pthread_key_create.o)
 .debug_pubtypes
                0x000000000000360a       0xc8 0x1 /usr/local/popcorn/x86_64/lib/libc.a(pthread_migrate.o)
 .debug_pubtypes
                0x00000000000036d2       0xd6 0x1 /usr/local/popcorn/x86_64/lib/libc.a(pthread_self.o)
 .debug_pubtypes
                0x00000000000037a8       0xeb 0x1 /usr/local/popcorn/x86_64/lib/libc.a(pthread_setspecific.o)
 .debug_pubtypes
                0x0000000000003893       0x27 0x1 /usr/local/popcorn/x86_64/lib/libc.a(close.o)
 .debug_pubtypes
                0x00000000000038ba       0x47 0x1 /usr/local/popcorn/x86_64/lib/libc.a(getpid.o)
 .debug_pubtypes
                0x0000000000003901       0x47 0x1 /usr/local/popcorn/x86_64/lib/libc.a(lseek.o)
 .debug_pubtypes
                0x0000000000003948       0x54 0x1 /usr/local/popcorn/x86_64/lib/libc.a(read.o)
 .debug_pubtypes
                0x000000000000399c       0xc9 0x1 /usr/local/popcorn/x86_64/lib/libc.a(intscan.o)
 .debug_pubtypes
                0x0000000000003a65       0xae 0x1 /usr/local/popcorn/x86_64/lib/libc.a(shgetc.o)
 .debug_pubtypes
                0x0000000000003b13       0x43 0x1 /usr/local/popcorn/x86_64/lib/libc.a(__brk.o)
 .debug_pubtypes
                0x0000000000003b56       0x59 0x1 /usr/local/popcorn/x86_64/lib/libc.a(raise.o)
 .debug_pubtypes
                0x0000000000003baf       0xcd 0x1 /usr/local/popcorn/x86_64/lib/libc.a(__fdopen.o)
 .debug_pubtypes
                0x0000000000003c7c       0x23 0x1 /usr/local/popcorn/x86_64/lib/libc.a(__fmodeflags.o)
 .debug_pubtypes
                0x0000000000003c9f       0xcf 0x1 /usr/local/popcorn/x86_64/lib/libc.a(__stdio_read.o)
 .debug_pubtypes
                0x0000000000003d6e       0xae 0x1 /usr/local/popcorn/x86_64/lib/libc.a(__string_read.o)
 .debug_pubtypes
                0x0000000000003e1c       0xae 0x1 /usr/local/popcorn/x86_64/lib/libc.a(__uflow.o)
 .debug_pubtypes
                0x0000000000003eca       0xba 0x1 /usr/local/popcorn/x86_64/lib/libc.a(getdelim.o)
 .debug_pubtypes
                0x0000000000003f84      0x16c 0x1 /usr/local/popcorn/x86_64/lib/libc.a(vfscanf.o)
 .debug_pubtypes
                0x00000000000040f0       0xea 0x1 /usr/local/popcorn/x86_64/lib/libc.a(floatscan.o)
 .debug_pubtypes
                0x00000000000041da       0x71 0x1 /usr/local/popcorn/x86_64/lib/libc.a(copysignl.o)
 .debug_pubtypes
                0x000000000000424b       0x55 0x1 /usr/local/popcorn/x86_64/lib/libc.a(scalbn.o)
 .debug_pubtypes
                0x00000000000042a0       0x79 0x1 /usr/local/popcorn/x86_64/lib/libc.a(scalbnl.o)
 .debug_pubtypes
                0x0000000000004319       0x9d 0x1 /usr/local/popcorn/x86_64/lib/libc.a(mbrtowc.o)
 .debug_pubtypes
                0x00000000000043b6       0x49 0x1 /usr/local/popcorn/x86_64/lib/libc.a(mbsinit.o)
 .debug_pubtypes
                0x00000000000043ff       0x35 0x1 /usr/local/popcorn/x86_64/lib/libc.a(block.o)
 .debug_pubtypes
                0x0000000000004434       0xae 0x1 /usr/local/popcorn/x86_64/lib/libc.a(__toread.o)
 .debug_pubtypes
                0x00000000000044e2       0x30 0x1 /usr/local/popcorn/x86_64/lib/libc.a(internal.o)

.comment        0x0000000000000000       0xc2
 ** merge strings
                0x0000000000000000       0xc2

.stack_transform.unwind
                0x0000000000000000       0x90
 .stack_transform.unwind
                0x0000000000000000       0x14 0x4 pierre_x86_64.o
 .stack_transform.unwind
                0x0000000000000014       0x10 0x4 test_x86_64.o
 .stack_transform.unwind
                0x0000000000000024       0x6c 0x4 /usr/local/popcorn/x86_64/lib/libmigrate.a(migrate.o)

.stack_transform.unwind_arange
                0x0000000000000000       0xc0
 .stack_transform.unwind_arange
                0x0000000000000000       0x20 0x8 pierre_x86_64.o
 .stack_transform.unwind_arange
                0x0000000000000020       0x10 0x8 test_x86_64.o
 .stack_transform.unwind_arange
                0x0000000000000030       0x90 0x8 /usr/local/popcorn/x86_64/lib/libmigrate.a(migrate.o)

.debug_line     0x0000000000000000     0xae4a
 .debug_line    0x0000000000000000       0x81 0x1 pierre_x86_64.o
 .debug_line    0x0000000000000081       0x49 0x1 test_x86_64.o
 .debug_line    0x00000000000000ca       0x41 0x1 /usr/local/popcorn/x86_64/lib/crt1.o
 .debug_line    0x000000000000010b      0x1cc 0x1 /usr/local/popcorn/x86_64/lib/libc.a(__libc_start_main.o)
 .debug_line    0x00000000000002d7       0x9a 0x1 /usr/local/popcorn/x86_64/lib/libc.a(exit.o)
 .debug_line    0x0000000000000371       0x6e 0x1 /usr/local/popcorn/x86_64/lib/libc.a(libc.o)
 .debug_line    0x00000000000003df       0x78 0x1 /usr/local/popcorn/x86_64/lib/libc.a(printf.o)
 .debug_line    0x0000000000000457       0x73 0x1 /usr/local/popcorn/x86_64/lib/libc.a(stdout.o)
 .debug_line    0x00000000000004ca     0x1220 0x1 /usr/local/popcorn/x86_64/lib/libc.a(vfprintf.o)
 .debug_line    0x00000000000016ea       0xfb 0x1 /usr/local/popcorn/x86_64/lib/libc.a(memchr.o)
 .debug_line    0x00000000000017e5       0x72 0x1 /usr/local/popcorn/x86_64/lib/libc.a(memset.o)
 .debug_line    0x0000000000001857       0x34 0x1 /usr/local/popcorn/x86_64/lib/libc.a(__environ.o)
 .debug_line    0x000000000000188b      0x205 0x1 /usr/local/popcorn/x86_64/lib/libc.a(__init_tls.o)
 .debug_line    0x0000000000001a90       0xe0 0x1 /usr/local/popcorn/x86_64/lib/libc.a(__errno_location.o)
 .debug_line    0x0000000000001b70      0x12d 0x1 /usr/local/popcorn/x86_64/lib/libc.a(strerror.o)
 .debug_line    0x0000000000001c9d       0x71 0x1 /usr/local/popcorn/x86_64/lib/libc.a(_Exit.o)
 .debug_line    0x0000000000001d0e      0x11d 0x1 /usr/local/popcorn/x86_64/lib/libc.a(__lctrans.o)
 .debug_line    0x0000000000001e2b       0xab 0x1 /usr/local/popcorn/x86_64/lib/libc.a(__fpclassifyl.o)
 .debug_line    0x0000000000001ed6       0x89 0x1 /usr/local/popcorn/x86_64/lib/libc.a(__signbitl.o)
 .debug_line    0x0000000000001f5f       0xa7 0x1 /usr/local/popcorn/x86_64/lib/libc.a(frexpl.o)
 .debug_line    0x0000000000002006       0x75 0x1 /usr/local/popcorn/x86_64/lib/libc.a(wctomb.o)
 .debug_line    0x000000000000207b      0x147 0x1 /usr/local/popcorn/x86_64/lib/libc.a(__lockfile.o)
 .debug_line    0x00000000000021c2       0xd0 0x1 /usr/local/popcorn/x86_64/lib/libc.a(__stdio_close.o)
 .debug_line    0x0000000000002292       0xbc 0x1 /usr/local/popcorn/x86_64/lib/libc.a(__stdio_seek.o)
 .debug_line    0x000000000000234e       0xeb 0x1 /usr/local/popcorn/x86_64/lib/libc.a(__stdout_write.o)
 .debug_line    0x0000000000002439      0x11d 0x1 /usr/local/popcorn/x86_64/lib/libc.a(fwrite.o)
 .debug_line    0x0000000000002556       0x4c 0x1 /usr/local/popcorn/x86_64/lib/libc.a(memcpy.o)
 .debug_line    0x00000000000025a2       0x49 0x1 /usr/local/popcorn/x86_64/lib/libc.a(__set_thread_area.o)
 .debug_line    0x00000000000025eb       0xaa 0x1 /usr/local/popcorn/x86_64/lib/libc.a(__wait.o)
 .debug_line    0x0000000000002695       0x5e 0x1 /usr/local/popcorn/x86_64/lib/libc.a(syscall_ret.o)
 .debug_line    0x00000000000026f3       0xfe 0x1 /usr/local/popcorn/x86_64/lib/libc.a(wcrtomb.o)
 .debug_line    0x00000000000027f1      0x14b 0x1 /usr/local/popcorn/x86_64/lib/libc.a(__stdio_write.o)
 .debug_line    0x000000000000293c       0xd5 0x1 /usr/local/popcorn/x86_64/lib/libc.a(__towrite.o)
 .debug_line    0x0000000000002a11       0x88 0x1 /usr/local/popcorn/x86_64/lib/libc.a(__syscall_cp.o)
 .debug_line    0x0000000000002a99       0xae 0x1 /usr/local/popcorn/x86_64/lib/libc.a(pthread_cleanup_push.o)
 .debug_line    0x0000000000002b47       0x43 0x1 /usr/local/popcorn/x86_64/lib/libc.a(syscall.o)
 .debug_line    0x0000000000002b8a       0xf0 0x1 /usr/local/popcorn/x86_64/lib/libc.a(__stdio_exit.o)
 .debug_line    0x0000000000002c7a       0xe0 0x1 /usr/local/popcorn/x86_64/lib/libc.a(__lock.o)
 .debug_line    0x0000000000002d5a      0x381 0x1 /usr/local/popcorn/x86_64/lib/libmigrate.a(migrate.o)
 .debug_line    0x00000000000030db      0x4e8 0x1 /usr/local/popcorn/x86_64/lib/libstack-transform.a(userspace.o)
 .debug_line    0x00000000000035c3      0x2e7 0x1 /usr/local/popcorn/x86_64/lib/libstack-transform.a(init.o)
 .debug_line    0x00000000000038aa      0x8e4 0x1 /usr/local/popcorn/x86_64/lib/libstack-transform.a(rewrite.o)
 .debug_line    0x000000000000418e      0x49d 0x1 /usr/local/popcorn/x86_64/lib/libstack-transform.a(unwind.o)
 .debug_line    0x000000000000462b      0x3bb 0x1 /usr/local/popcorn/x86_64/lib/libstack-transform.a(util.o)
 .debug_line    0x00000000000049e6       0xe6 0x1 /usr/local/popcorn/x86_64/lib/libstack-transform.a(properties.o)
 .debug_line    0x0000000000004acc      0x2f5 0x1 /usr/local/popcorn/x86_64/lib/libstack-transform.a(regs.o)
 .debug_line    0x0000000000004dc1       0xef 0x1 /usr/local/popcorn/x86_64/lib/libstack-transform.a(properties.o)
 .debug_line    0x0000000000004eb0      0x2cf 0x1 /usr/local/popcorn/x86_64/lib/libstack-transform.a(regs.o)
 .debug_line    0x000000000000517f      0x622 0x1 /usr/local/popcorn/x86_64/lib/libstack-transform.a(data.o)
 .debug_line    0x00000000000057a1      0x14a 0x1 /usr/local/popcorn/x86_64/lib/libc.a(sysconf.o)
 .debug_line    0x00000000000058eb      0x124 0x1 /usr/local/popcorn/x86_64/lib/libc.a(__stack_chk_fail.o)
 .debug_line    0x0000000000005a0f       0xad 0x1 /usr/local/popcorn/x86_64/lib/libc.a(getenv.o)
 .debug_line    0x0000000000005abc       0x4e 0x1 /usr/local/popcorn/x86_64/lib/libc.a(assert.o)
 .debug_line    0x0000000000005b0a       0xcb 0x1 /usr/local/popcorn/x86_64/lib/libc.a(open.o)
 .debug_line    0x0000000000005bd5       0xc7 0x1 /usr/local/popcorn/x86_64/lib/libc.a(prctl.o)
 .debug_line    0x0000000000005c9c       0x8d 0x1 /usr/local/popcorn/x86_64/lib/libc.a(sysinfo.o)
 .debug_line    0x0000000000005d29       0xce 0x1 /usr/local/popcorn/x86_64/lib/libc.a(calloc.o)
 .debug_line    0x0000000000005df7       0xeb 0x1 /usr/local/popcorn/x86_64/lib/libc.a(lite_malloc.o)
 .debug_line    0x0000000000005ee2      0xa41 0x1 /usr/local/popcorn/x86_64/lib/libc.a(malloc.o)
 .debug_line    0x0000000000006923       0xfd 0x1 /usr/local/popcorn/x86_64/lib/libc.a(getrlimit.o)
 .debug_line    0x0000000000006a20       0x97 0x1 /usr/local/popcorn/x86_64/lib/libc.a(madvise.o)
 .debug_line    0x0000000000006ab7       0xd0 0x1 /usr/local/popcorn/x86_64/lib/libc.a(mmap.o)
 .debug_line    0x0000000000006b87       0xc4 0x1 /usr/local/popcorn/x86_64/lib/libc.a(mremap.o)
 .debug_line    0x0000000000006c4b       0xa9 0x1 /usr/local/popcorn/x86_64/lib/libc.a(munmap.o)
 .debug_line    0x0000000000006cf4       0xf2 0x1 /usr/local/popcorn/x86_64/lib/libc.a(fclose.o)
 .debug_line    0x0000000000006de6      0x13a 0x1 /usr/local/popcorn/x86_64/lib/libc.a(fflush.o)
 .debug_line    0x0000000000006f20      0x13e 0x1 /usr/local/popcorn/x86_64/lib/libc.a(fgets.o)
 .debug_line    0x000000000000705e       0xe2 0x1 /usr/local/popcorn/x86_64/lib/libc.a(fopen.o)
 .debug_line    0x0000000000007140       0x74 0x1 /usr/local/popcorn/x86_64/lib/libc.a(fprintf.o)
 .debug_line    0x00000000000071b4       0x6a 0x1 /usr/local/popcorn/x86_64/lib/libc.a(getline.o)
 .debug_line    0x000000000000721e       0x75 0x1 /usr/local/popcorn/x86_64/lib/libc.a(snprintf.o)
 .debug_line    0x0000000000007293       0x73 0x1 /usr/local/popcorn/x86_64/lib/libc.a(sscanf.o)
 .debug_line    0x0000000000007306       0x73 0x1 /usr/local/popcorn/x86_64/lib/libc.a(stderr.o)
 .debug_line    0x0000000000007379      0x108 0x1 /usr/local/popcorn/x86_64/lib/libc.a(vsnprintf.o)
 .debug_line    0x0000000000007481       0xae 0x1 /usr/local/popcorn/x86_64/lib/libc.a(vsscanf.o)
 .debug_line    0x000000000000752f      0x15b 0x1 /usr/local/popcorn/x86_64/lib/libc.a(strtol.o)
 .debug_line    0x000000000000768a       0x9b 0x1 /usr/local/popcorn/x86_64/lib/libc.a(memcmp.o)
 .debug_line    0x0000000000007725       0x47 0x1 /usr/local/popcorn/x86_64/lib/libc.a(memmove.o)
 .debug_line    0x000000000000776c       0x50 0x1 /usr/local/popcorn/x86_64/lib/libc.a(strchr.o)
 .debug_line    0x00000000000077bc       0xde 0x1 /usr/local/popcorn/x86_64/lib/libc.a(strchrnul.o)
 .debug_line    0x000000000000789a       0x73 0x1 /usr/local/popcorn/x86_64/lib/libc.a(strcmp.o)
 .debug_line    0x000000000000790d       0xb0 0x1 /usr/local/popcorn/x86_64/lib/libc.a(strlen.o)
 .debug_line    0x00000000000079bd       0x8f 0x1 /usr/local/popcorn/x86_64/lib/libc.a(strncmp.o)
 .debug_line    0x0000000000007a4c      0x3fe 0x1 /usr/local/popcorn/x86_64/lib/libc.a(strstr.o)
 .debug_line    0x0000000000007e4a      0x27f 0x1 /usr/local/popcorn/x86_64/lib/libc.a(pthread_attr_get.o)
 .debug_line    0x00000000000080c9      0x12d 0x1 /usr/local/popcorn/x86_64/lib/libc.a(pthread_getattr_np.o)
 .debug_line    0x00000000000081f6       0xea 0x1 /usr/local/popcorn/x86_64/lib/libc.a(pthread_getspecific.o)
 .debug_line    0x00000000000082e0      0x1c4 0x1 /usr/local/popcorn/x86_64/lib/libc.a(pthread_key_create.o)
 .debug_line    0x00000000000084a4       0xe0 0x1 /usr/local/popcorn/x86_64/lib/libc.a(pthread_migrate.o)
 .debug_line    0x0000000000008584       0xd7 0x1 /usr/local/popcorn/x86_64/lib/libc.a(pthread_self.o)
 .debug_line    0x000000000000865b       0xf1 0x1 /usr/local/popcorn/x86_64/lib/libc.a(pthread_setspecific.o)
 .debug_line    0x000000000000874c       0x6d 0x1 /usr/local/popcorn/x86_64/lib/libc.a(close.o)
 .debug_line    0x00000000000087b9       0x8f 0x1 /usr/local/popcorn/x86_64/lib/libc.a(getpid.o)
 .debug_line    0x0000000000008848       0x97 0x1 /usr/local/popcorn/x86_64/lib/libc.a(lseek.o)
 .debug_line    0x00000000000088df       0x68 0x1 /usr/local/popcorn/x86_64/lib/libc.a(read.o)
 .debug_line    0x0000000000008947       0x4c 0x1 /usr/local/popcorn/x86_64/lib/libc.a(abort.o)
 .debug_line    0x0000000000008993      0x36e 0x1 /usr/local/popcorn/x86_64/lib/libc.a(intscan.o)
 .debug_line    0x0000000000008d01      0x11f 0x1 /usr/local/popcorn/x86_64/lib/libc.a(shgetc.o)
 .debug_line    0x0000000000008e20       0x92 0x1 /usr/local/popcorn/x86_64/lib/libc.a(__brk.o)
 .debug_line    0x0000000000008eb2       0xa4 0x1 /usr/local/popcorn/x86_64/lib/libc.a(raise.o)
 .debug_line    0x0000000000008f56      0x182 0x1 /usr/local/popcorn/x86_64/lib/libc.a(__fdopen.o)
 .debug_line    0x00000000000090d8       0xb7 0x1 /usr/local/popcorn/x86_64/lib/libc.a(__fmodeflags.o)
 .debug_line    0x000000000000918f      0x11f 0x1 /usr/local/popcorn/x86_64/lib/libc.a(__stdio_read.o)
 .debug_line    0x00000000000092ae       0xc0 0x1 /usr/local/popcorn/x86_64/lib/libc.a(__string_read.o)
 .debug_line    0x000000000000936e       0xa2 0x1 /usr/local/popcorn/x86_64/lib/libc.a(__uflow.o)
 .debug_line    0x0000000000009410      0x18f 0x1 /usr/local/popcorn/x86_64/lib/libc.a(getdelim.o)
 .debug_line    0x000000000000959f      0x5b8 0x1 /usr/local/popcorn/x86_64/lib/libc.a(vfscanf.o)
 .debug_line    0x0000000000009b57      0xd2c 0x1 /usr/local/popcorn/x86_64/lib/libc.a(floatscan.o)
 .debug_line    0x000000000000a883       0x95 0x1 /usr/local/popcorn/x86_64/lib/libc.a(copysignl.o)
 .debug_line    0x000000000000a918       0x3d 0x1 /usr/local/popcorn/x86_64/lib/libc.a(fabs.o)
 .debug_line    0x000000000000a955       0x40 0x1 /usr/local/popcorn/x86_64/lib/libc.a(fmodl.o)
 .debug_line    0x000000000000a995       0xa6 0x1 /usr/local/popcorn/x86_64/lib/libc.a(scalbn.o)
 .debug_line    0x000000000000aa3b       0xbd 0x1 /usr/local/popcorn/x86_64/lib/libc.a(scalbnl.o)
 .debug_line    0x000000000000aaf8       0xed 0x1 /usr/local/popcorn/x86_64/lib/libc.a(mbrtowc.o)
 .debug_line    0x000000000000abe5       0x82 0x1 /usr/local/popcorn/x86_64/lib/libc.a(mbsinit.o)
 .debug_line    0x000000000000ac67       0xb0 0x1 /usr/local/popcorn/x86_64/lib/libc.a(block.o)
 .debug_line    0x000000000000ad17       0xd9 0x1 /usr/local/popcorn/x86_64/lib/libc.a(__toread.o)
 .debug_line    0x000000000000adf0       0x5a 0x1 /usr/local/popcorn/x86_64/lib/libc.a(internal.o)

.debug_aranges  0x0000000000000000      0x180
 .debug_aranges
                0x0000000000000000       0x30 0x1 /usr/local/popcorn/x86_64/lib/crt1.o
 .debug_aranges
                0x0000000000000030       0x30 0x1 /usr/local/popcorn/x86_64/lib/libc.a(memset.o)
 .debug_aranges
                0x0000000000000060       0x30 0x1 /usr/local/popcorn/x86_64/lib/libc.a(memcpy.o)
 .debug_aranges
                0x0000000000000090       0x30 0x1 /usr/local/popcorn/x86_64/lib/libc.a(__set_thread_area.o)
 .debug_aranges
                0x00000000000000c0       0x30 0x1 /usr/local/popcorn/x86_64/lib/libc.a(syscall.o)
 .debug_aranges
                0x00000000000000f0       0x30 0x1 /usr/local/popcorn/x86_64/lib/libc.a(memmove.o)
 .debug_aranges
                0x0000000000000120       0x30 0x1 /usr/local/popcorn/x86_64/lib/libc.a(fabs.o)
 .debug_aranges
                0x0000000000000150       0x30 0x1 /usr/local/popcorn/x86_64/lib/libc.a(fmodl.o)

.debug_frame    0x0000000000000000     0x1d20
 .debug_frame   0x0000000000000000       0x88 0x8 /usr/local/popcorn/x86_64/lib/libc.a(__libc_start_main.o)
 .debug_frame   0x0000000000000088       0x58 0x8 /usr/local/popcorn/x86_64/lib/libc.a(exit.o)
 .debug_frame   0x00000000000000e0       0x38 0x8 /usr/local/popcorn/x86_64/lib/libc.a(printf.o)
 .debug_frame   0x0000000000000118       0xe0 0x8 /usr/local/popcorn/x86_64/lib/libc.a(vfprintf.o)
 .debug_frame   0x00000000000001f8       0x30 0x8 /usr/local/popcorn/x86_64/lib/libc.a(memchr.o)
 .debug_frame   0x0000000000000228       0x58 0x8 /usr/local/popcorn/x86_64/lib/libc.a(__init_tls.o)
 .debug_frame   0x0000000000000280       0x30 0x8 /usr/local/popcorn/x86_64/lib/libc.a(__errno_location.o)
 .debug_frame   0x00000000000002b0       0x48 0x8 /usr/local/popcorn/x86_64/lib/libc.a(strerror.o)
 .debug_frame   0x00000000000002f8       0x30 0x8 /usr/local/popcorn/x86_64/lib/libc.a(_Exit.o)
 .debug_frame   0x0000000000000328       0x60 0x8 /usr/local/popcorn/x86_64/lib/libc.a(__lctrans.o)
 .debug_frame   0x0000000000000388       0x30 0x8 /usr/local/popcorn/x86_64/lib/libc.a(__fpclassifyl.o)
 .debug_frame   0x00000000000003b8       0x30 0x8 /usr/local/popcorn/x86_64/lib/libc.a(__signbitl.o)
 .debug_frame   0x00000000000003e8       0x38 0x8 /usr/local/popcorn/x86_64/lib/libc.a(frexpl.o)
 .debug_frame   0x0000000000000420       0x38 0x8 /usr/local/popcorn/x86_64/lib/libc.a(wctomb.o)
 .debug_frame   0x0000000000000458       0x60 0x8 /usr/local/popcorn/x86_64/lib/libc.a(__lockfile.o)
 .debug_frame   0x00000000000004b8       0x50 0x8 /usr/local/popcorn/x86_64/lib/libc.a(__stdio_close.o)
 .debug_frame   0x0000000000000508       0x30 0x8 /usr/local/popcorn/x86_64/lib/libc.a(__stdio_seek.o)
 .debug_frame   0x0000000000000538       0x38 0x8 /usr/local/popcorn/x86_64/lib/libc.a(__stdout_write.o)
 .debug_frame   0x0000000000000570       0x98 0x8 /usr/local/popcorn/x86_64/lib/libc.a(fwrite.o)
 .debug_frame   0x0000000000000608       0x30 0x8 /usr/local/popcorn/x86_64/lib/libc.a(__wait.o)
 .debug_frame   0x0000000000000638       0x38 0x8 /usr/local/popcorn/x86_64/lib/libc.a(syscall_ret.o)
 .debug_frame   0x0000000000000670       0x38 0x8 /usr/local/popcorn/x86_64/lib/libc.a(wcrtomb.o)
 .debug_frame   0x00000000000006a8       0x70 0x8 /usr/local/popcorn/x86_64/lib/libc.a(__stdio_write.o)
 .debug_frame   0x0000000000000718       0x48 0x8 /usr/local/popcorn/x86_64/lib/libc.a(__towrite.o)
 .debug_frame   0x0000000000000760       0x50 0x8 /usr/local/popcorn/x86_64/lib/libc.a(__syscall_cp.o)
 .debug_frame   0x00000000000007b0       0x70 0x8 /usr/local/popcorn/x86_64/lib/libc.a(pthread_cleanup_push.o)
 .debug_frame   0x0000000000000820       0x58 0x8 /usr/local/popcorn/x86_64/lib/libc.a(__stdio_exit.o)
 .debug_frame   0x0000000000000878       0x58 0x8 /usr/local/popcorn/x86_64/lib/libc.a(__lock.o)
 .debug_frame   0x00000000000008d0       0x40 0x8 /usr/local/popcorn/x86_64/lib/libc.a(sysconf.o)
 .debug_frame   0x0000000000000910       0x50 0x8 /usr/local/popcorn/x86_64/lib/libc.a(__stack_chk_fail.o)
 .debug_frame   0x0000000000000960       0x48 0x8 /usr/local/popcorn/x86_64/lib/libc.a(getenv.o)
 .debug_frame   0x00000000000009a8       0x38 0x8 /usr/local/popcorn/x86_64/lib/libc.a(assert.o)
 .debug_frame   0x00000000000009e0       0x40 0x8 /usr/local/popcorn/x86_64/lib/libc.a(open.o)
 .debug_frame   0x0000000000000a20       0x38 0x8 /usr/local/popcorn/x86_64/lib/libc.a(prctl.o)
 .debug_frame   0x0000000000000a58       0x30 0x8 /usr/local/popcorn/x86_64/lib/libc.a(sysinfo.o)
 .debug_frame   0x0000000000000a88       0x40 0x8 /usr/local/popcorn/x86_64/lib/libc.a(calloc.o)
 .debug_frame   0x0000000000000ac8       0x40 0x8 /usr/local/popcorn/x86_64/lib/libc.a(lite_malloc.o)
 .debug_frame   0x0000000000000b08      0x148 0x8 /usr/local/popcorn/x86_64/lib/libc.a(malloc.o)
 .debug_frame   0x0000000000000c50       0x48 0x8 /usr/local/popcorn/x86_64/lib/libc.a(getrlimit.o)
 .debug_frame   0x0000000000000c98       0x30 0x8 /usr/local/popcorn/x86_64/lib/libc.a(madvise.o)
 .debug_frame   0x0000000000000cc8       0x70 0x8 /usr/local/popcorn/x86_64/lib/libc.a(mmap.o)
 .debug_frame   0x0000000000000d38       0x38 0x8 /usr/local/popcorn/x86_64/lib/libc.a(mremap.o)
 .debug_frame   0x0000000000000d70       0x58 0x8 /usr/local/popcorn/x86_64/lib/libc.a(munmap.o)
 .debug_frame   0x0000000000000dc8       0x60 0x8 /usr/local/popcorn/x86_64/lib/libc.a(fclose.o)
 .debug_frame   0x0000000000000e28       0x60 0x8 /usr/local/popcorn/x86_64/lib/libc.a(fflush.o)
 .debug_frame   0x0000000000000e88       0x58 0x8 /usr/local/popcorn/x86_64/lib/libc.a(fgets.o)
 .debug_frame   0x0000000000000ee0       0x48 0x8 /usr/local/popcorn/x86_64/lib/libc.a(fopen.o)
 .debug_frame   0x0000000000000f28       0x38 0x8 /usr/local/popcorn/x86_64/lib/libc.a(fprintf.o)
 .debug_frame   0x0000000000000f60       0x30 0x8 /usr/local/popcorn/x86_64/lib/libc.a(getline.o)
 .debug_frame   0x0000000000000f90       0x38 0x8 /usr/local/popcorn/x86_64/lib/libc.a(snprintf.o)
 .debug_frame   0x0000000000000fc8       0x38 0x8 /usr/local/popcorn/x86_64/lib/libc.a(sscanf.o)
 .debug_frame   0x0000000000001000       0x78 0x8 /usr/local/popcorn/x86_64/lib/libc.a(vsnprintf.o)
 .debug_frame   0x0000000000001078       0x60 0x8 /usr/local/popcorn/x86_64/lib/libc.a(vsscanf.o)
 .debug_frame   0x00000000000010d8       0xe0 0x8 /usr/local/popcorn/x86_64/lib/libc.a(strtol.o)
 .debug_frame   0x00000000000011b8       0x30 0x8 /usr/local/popcorn/x86_64/lib/libc.a(memcmp.o)
 .debug_frame   0x00000000000011e8       0x38 0x8 /usr/local/popcorn/x86_64/lib/libc.a(strchr.o)
 .debug_frame   0x0000000000001220       0x38 0x8 /usr/local/popcorn/x86_64/lib/libc.a(strchrnul.o)
 .debug_frame   0x0000000000001258       0x30 0x8 /usr/local/popcorn/x86_64/lib/libc.a(strcmp.o)
 .debug_frame   0x0000000000001288       0x30 0x8 /usr/local/popcorn/x86_64/lib/libc.a(strlen.o)
 .debug_frame   0x00000000000012b8       0x30 0x8 /usr/local/popcorn/x86_64/lib/libc.a(strncmp.o)
 .debug_frame   0x00000000000012e8       0x58 0x8 /usr/local/popcorn/x86_64/lib/libc.a(strstr.o)
 .debug_frame   0x0000000000001340      0x198 0x8 /usr/local/popcorn/x86_64/lib/libc.a(pthread_attr_get.o)
 .debug_frame   0x00000000000014d8       0x48 0x8 /usr/local/popcorn/x86_64/lib/libc.a(pthread_getattr_np.o)
 .debug_frame   0x0000000000001520       0x30 0x8 /usr/local/popcorn/x86_64/lib/libc.a(pthread_getspecific.o)
 .debug_frame   0x0000000000001550       0x88 0x8 /usr/local/popcorn/x86_64/lib/libc.a(pthread_key_create.o)
 .debug_frame   0x00000000000015d8       0x30 0x8 /usr/local/popcorn/x86_64/lib/libc.a(pthread_migrate.o)
 .debug_frame   0x0000000000001608       0x30 0x8 /usr/local/popcorn/x86_64/lib/libc.a(pthread_self.o)
 .debug_frame   0x0000000000001638       0x30 0x8 /usr/local/popcorn/x86_64/lib/libc.a(pthread_setspecific.o)
 .debug_frame   0x0000000000001668       0x50 0x8 /usr/local/popcorn/x86_64/lib/libc.a(close.o)
 .debug_frame   0x00000000000016b8       0x30 0x8 /usr/local/popcorn/x86_64/lib/libc.a(getpid.o)
 .debug_frame   0x00000000000016e8       0x30 0x8 /usr/local/popcorn/x86_64/lib/libc.a(lseek.o)
 .debug_frame   0x0000000000001718       0x38 0x8 /usr/local/popcorn/x86_64/lib/libc.a(read.o)
 .debug_frame   0x0000000000001750       0x38 0x8 /usr/local/popcorn/x86_64/lib/libc.a(abort.o)
 .debug_frame   0x0000000000001788       0x58 0x8 /usr/local/popcorn/x86_64/lib/libc.a(intscan.o)
 .debug_frame   0x00000000000017e0       0x50 0x8 /usr/local/popcorn/x86_64/lib/libc.a(shgetc.o)
 .debug_frame   0x0000000000001830       0x30 0x8 /usr/local/popcorn/x86_64/lib/libc.a(__brk.o)
 .debug_frame   0x0000000000001860       0x40 0x8 /usr/local/popcorn/x86_64/lib/libc.a(raise.o)
 .debug_frame   0x00000000000018a0       0x48 0x8 /usr/local/popcorn/x86_64/lib/libc.a(__fdopen.o)
 .debug_frame   0x00000000000018e8       0x40 0x8 /usr/local/popcorn/x86_64/lib/libc.a(__fmodeflags.o)
 .debug_frame   0x0000000000001928       0x70 0x8 /usr/local/popcorn/x86_64/lib/libc.a(__stdio_read.o)
 .debug_frame   0x0000000000001998       0x58 0x8 /usr/local/popcorn/x86_64/lib/libc.a(__string_read.o)
 .debug_frame   0x00000000000019f0       0x40 0x8 /usr/local/popcorn/x86_64/lib/libc.a(__uflow.o)
 .debug_frame   0x0000000000001a30       0x58 0x8 /usr/local/popcorn/x86_64/lib/libc.a(getdelim.o)
 .debug_frame   0x0000000000001a88       0x58 0x8 /usr/local/popcorn/x86_64/lib/libc.a(vfscanf.o)
 .debug_frame   0x0000000000001ae0       0x90 0x8 /usr/local/popcorn/x86_64/lib/libc.a(floatscan.o)
 .debug_frame   0x0000000000001b70       0x30 0x8 /usr/local/popcorn/x86_64/lib/libc.a(copysignl.o)
 .debug_frame   0x0000000000001ba0       0x30 0x8 /usr/local/popcorn/x86_64/lib/libc.a(scalbn.o)
 .debug_frame   0x0000000000001bd0       0x30 0x8 /usr/local/popcorn/x86_64/lib/libc.a(scalbnl.o)
 .debug_frame   0x0000000000001c00       0x40 0x8 /usr/local/popcorn/x86_64/lib/libc.a(mbrtowc.o)
 .debug_frame   0x0000000000001c40       0x30 0x8 /usr/local/popcorn/x86_64/lib/libc.a(mbsinit.o)
 .debug_frame   0x0000000000001c70       0x60 0x8 /usr/local/popcorn/x86_64/lib/libc.a(block.o)
 .debug_frame   0x0000000000001cd0       0x50 0x8 /usr/local/popcorn/x86_64/lib/libc.a(__toread.o)

.note.gnu.gold-version
                0x0000000000000000       0x1c
 ** note header
                0x0000000000000000       0x10
 ** fill        0x0000000000000010        0x9
 ** zero fill   0x0000000000000019        0x3

.symtab         0x0000000000000000     0x4830
 ** symtab      0x0000000000000000     0x4830

.strtab         0x0000000000000000     0x3130
 ** string table
                0x0000000000000000     0x3130

.shstrtab       0x0000000000000000      0x14a
 ** string table
                0x0000000000000000      0x14a
