Archive member included because of file (symbol)

/usr/local/popcorn/aarch64//lib/libc.a(__libc_start_main.o)
                              /usr/local/popcorn/aarch64//lib/crt1.o (__libc_start_main)
/usr/local/popcorn/aarch64//lib/libc.a(exit.o)
                              /usr/local/popcorn/aarch64//lib/libc.a(__libc_start_main.o) (exit)
/usr/local/popcorn/aarch64//lib/libc.a(libc.o)
                              /usr/local/popcorn/aarch64//lib/libc.a(__libc_start_main.o) (__hwcap)
/usr/local/popcorn/aarch64//lib/libc.a(fclose.o)
                              /tmp/conftest-dcbec8.o (fclose)
/usr/local/popcorn/aarch64//lib/libc.a(ferror.o)
                              /tmp/conftest-dcbec8.o (ferror)
/usr/local/popcorn/aarch64//lib/libc.a(fflush.o)
                              /usr/local/popcorn/aarch64//lib/libc.a(fclose.o) (fflush)
/usr/local/popcorn/aarch64//lib/libc.a(fopen.o)
                              /tmp/conftest-dcbec8.o (fopen)
/usr/local/popcorn/aarch64//lib/libc.a(fprintf.o)
                              /tmp/conftest-dcbec8.o (fprintf)
/usr/local/popcorn/aarch64//lib/libc.a(vfprintf.o)
                              /usr/local/popcorn/aarch64//lib/libc.a(fprintf.o) (vfprintf)
/usr/local/popcorn/aarch64//lib/libc.a(memchr.o)
                              /usr/local/popcorn/aarch64//lib/libc.a(vfprintf.o) (memchr)
/usr/local/popcorn/aarch64//lib/libc.a(memset.o)
                              /usr/local/popcorn/aarch64//lib/libc.a(__libc_start_main.o) (memset)
/usr/local/popcorn/aarch64//lib/libc.a(strchr.o)
                              /usr/local/popcorn/aarch64//lib/libc.a(fopen.o) (strchr)
/usr/local/popcorn/aarch64//lib/libc.a(strchrnul.o)
                              /usr/local/popcorn/aarch64//lib/libc.a(strchr.o) (__strchrnul)
/usr/local/popcorn/aarch64//lib/libc.a(strlen.o)
                              /usr/local/popcorn/aarch64//lib/libc.a(strchrnul.o) (strlen)
/usr/local/popcorn/aarch64//lib/libc.a(__lock.o)
                              /usr/local/popcorn/aarch64//lib/libc.a(fclose.o) (__lock)
/usr/local/popcorn/aarch64//lib/libc.a(__syscall_cp.o)
                              /usr/local/popcorn/aarch64//lib/libc.a(fopen.o) (__syscall_cp)
/usr/local/popcorn/aarch64//lib/libc.a(__wait.o)
                              /usr/local/popcorn/aarch64//lib/libc.a(__lock.o) (__wait)
/usr/local/popcorn/aarch64//lib/libc.a(__environ.o)
                              /usr/local/popcorn/aarch64//lib/libc.a(__libc_start_main.o) (__environ)
/usr/local/popcorn/aarch64//lib/libc.a(__init_tls.o)
                              /usr/local/popcorn/aarch64//lib/libc.a(__libc_start_main.o) (__init_tls)
/usr/local/popcorn/aarch64//lib/libc.a(__errno_location.o)
                              /usr/local/popcorn/aarch64//lib/libc.a(fopen.o) (__errno_location)
/usr/local/popcorn/aarch64//lib/libc.a(strerror.o)
                              /usr/local/popcorn/aarch64//lib/libc.a(vfprintf.o) (strerror)
/usr/local/popcorn/aarch64//lib/libc.a(_Exit.o)
                              /usr/local/popcorn/aarch64//lib/libc.a(exit.o) (_Exit)
/usr/local/popcorn/aarch64//lib/libc.a(syscall.o)
                              /usr/local/popcorn/aarch64//lib/libc.a(__syscall_cp.o) (__syscall)
/usr/local/popcorn/aarch64//lib/libc.a(syscall_ret.o)
                              /usr/local/popcorn/aarch64//lib/libc.a(fopen.o) (__syscall_ret)
/usr/local/popcorn/aarch64//lib/libc.a(__lctrans.o)
                              /usr/local/popcorn/aarch64//lib/libc.a(strerror.o) (__lctrans)
/usr/local/popcorn/aarch64//lib/libc.a(malloc.o)
                              /usr/local/popcorn/aarch64//lib/libc.a(fclose.o) (free)
/usr/local/popcorn/aarch64//lib/libc.a(__fpclassifyl.o)
                              /usr/local/popcorn/aarch64//lib/libc.a(vfprintf.o) (__fpclassifyl)
/usr/local/popcorn/aarch64//lib/libc.a(__signbitl.o)
                              /usr/local/popcorn/aarch64//lib/libc.a(vfprintf.o) (__signbitl)
/usr/local/popcorn/aarch64//lib/libc.a(frexpl.o)
                              /usr/local/popcorn/aarch64//lib/libc.a(vfprintf.o) (frexpl)
/usr/local/popcorn/aarch64//lib/libc.a(madvise.o)
                              /usr/local/popcorn/aarch64//lib/libc.a(malloc.o) (__madvise)
/usr/local/popcorn/aarch64//lib/libc.a(mmap.o)
                              /usr/local/popcorn/aarch64//lib/libc.a(malloc.o) (__mmap)
/usr/local/popcorn/aarch64//lib/libc.a(mremap.o)
                              /usr/local/popcorn/aarch64//lib/libc.a(malloc.o) (__mremap)
/usr/local/popcorn/aarch64//lib/libc.a(munmap.o)
                              /usr/local/popcorn/aarch64//lib/libc.a(malloc.o) (__munmap)
/usr/local/popcorn/aarch64//lib/libc.a(wctomb.o)
                              /usr/local/popcorn/aarch64//lib/libc.a(vfprintf.o) (wctomb)
/usr/local/popcorn/aarch64//lib/libc.a(sched_yield.o)
                              /usr/local/popcorn/aarch64//lib/libc.a(__wait.o) (sched_yield)
/usr/local/popcorn/aarch64//lib/libc.a(__fdopen.o)
                              /usr/local/popcorn/aarch64//lib/libc.a(fopen.o) (__fdopen)
/usr/local/popcorn/aarch64//lib/libc.a(__fmodeflags.o)
                              /usr/local/popcorn/aarch64//lib/libc.a(fopen.o) (__fmodeflags)
/usr/local/popcorn/aarch64//lib/libc.a(__lockfile.o)
                              /usr/local/popcorn/aarch64//lib/libc.a(fclose.o) (__lockfile)
/usr/local/popcorn/aarch64//lib/libc.a(__stdio_close.o)
                              /usr/local/popcorn/aarch64//lib/libc.a(__fdopen.o) (__stdio_close)
/usr/local/popcorn/aarch64//lib/libc.a(__stdio_read.o)
                              /usr/local/popcorn/aarch64//lib/libc.a(__fdopen.o) (__stdio_read)
/usr/local/popcorn/aarch64//lib/libc.a(__stdio_seek.o)
                              /usr/local/popcorn/aarch64//lib/libc.a(__fdopen.o) (__stdio_seek)
/usr/local/popcorn/aarch64//lib/libc.a(__stdio_write.o)
                              /usr/local/popcorn/aarch64//lib/libc.a(__fdopen.o) (__stdio_write)
/usr/local/popcorn/aarch64//lib/libc.a(fwrite.o)
                              /usr/local/popcorn/aarch64//lib/libc.a(vfprintf.o) (__fwritex)
/usr/local/popcorn/aarch64//lib/libc.a(memcpy.o)
                              /usr/local/popcorn/aarch64//lib/libc.a(__init_tls.o) (memcpy)
/usr/local/popcorn/aarch64//lib/libc.a(__set_thread_area.o)
                              /usr/local/popcorn/aarch64//lib/libc.a(__init_tls.o) (__set_thread_area)
/usr/local/popcorn/aarch64//lib/libc.a(pthread_cleanup_push.o)
                              /usr/local/popcorn/aarch64//lib/libc.a(__stdio_read.o) (_pthread_cleanup_pop)
/usr/local/popcorn/aarch64//lib/libc.a(__brk.o)
                              /usr/local/popcorn/aarch64//lib/libc.a(malloc.o) (__brk)
/usr/local/popcorn/aarch64//lib/libc.a(wcrtomb.o)
                              /usr/local/popcorn/aarch64//lib/libc.a(wctomb.o) (wcrtomb)
/usr/local/popcorn/aarch64//lib/libc.a(__towrite.o)
                              /usr/local/popcorn/aarch64//lib/libc.a(fwrite.o) (__towrite)
/usr/local/popcorn/aarch64//lib/libc.a(__stdio_exit.o)
                              /usr/local/popcorn/aarch64//lib/libc.a(__towrite.o) (__stdio_exit_needed)
/usr/local/popcorn/aarch64//lib/libmigrate.a(migrate.o)
                              /tmp/conftest-dcbec8.o (__cyg_profile_func_enter)
/usr/local/popcorn/aarch64//lib/libstack-transform.a(userspace.o)
                              /usr/local/popcorn/aarch64//lib/libmigrate.a(migrate.o) (st_userspace_rewrite)
/usr/local/popcorn/aarch64//lib/libstack-transform.a(init.o)
                              /usr/local/popcorn/aarch64//lib/libstack-transform.a(userspace.o) (st_destroy)
/usr/local/popcorn/aarch64//lib/libstack-transform.a(rewrite.o)
                              /usr/local/popcorn/aarch64//lib/libstack-transform.a(userspace.o) (st_rewrite_stack)
/usr/local/popcorn/aarch64//lib/libstack-transform.a(unwind.o)
                              /usr/local/popcorn/aarch64//lib/libstack-transform.a(rewrite.o) (bootstrap_first_frame)
/usr/local/popcorn/aarch64//lib/libstack-transform.a(util.o)
                              /usr/local/popcorn/aarch64//lib/libstack-transform.a(rewrite.o) (get_function_address)
/usr/local/popcorn/aarch64//lib/libstack-transform.a(properties.o)
                              /usr/local/popcorn/aarch64//lib/libstack-transform.a(util.o) (properties_aarch64)
/usr/local/popcorn/aarch64//lib/libstack-transform.a(regs.o)
                              /usr/local/popcorn/aarch64//lib/libstack-transform.a(util.o) (regs_aarch64)
/usr/local/popcorn/aarch64//lib/libstack-transform.a(properties.o)
                              /usr/local/popcorn/aarch64//lib/libstack-transform.a(util.o) (properties_x86_64)
/usr/local/popcorn/aarch64//lib/libstack-transform.a(regs.o)
                              /usr/local/popcorn/aarch64//lib/libstack-transform.a(util.o) (regs_x86_64)
/usr/local/popcorn/aarch64//lib/libstack-transform.a(data.o)
                              /usr/local/popcorn/aarch64//lib/libstack-transform.a(rewrite.o) (get_savedfbp_loc)
/usr/local/popcorn/aarch64//lib/libelf.a(begin.o)
                              /usr/local/popcorn/aarch64//lib/libstack-transform.a(init.o) (elf_begin)
/usr/local/popcorn/aarch64//lib/libelf.a(end.o)
                              /usr/local/popcorn/aarch64//lib/libstack-transform.a(init.o) (elf_end)
/usr/local/popcorn/aarch64//lib/libelf.a(getdata.o)
                              /usr/local/popcorn/aarch64//lib/libstack-transform.a(util.o) (elf_getdata)
/usr/local/popcorn/aarch64//lib/libelf.a(getident.o)
                              /usr/local/popcorn/aarch64//lib/libstack-transform.a(init.o) (elf_getident)
/usr/local/popcorn/aarch64//lib/libelf.a(nextscn.o)
                              /usr/local/popcorn/aarch64//lib/libstack-transform.a(util.o) (elf_nextscn)
/usr/local/popcorn/aarch64//lib/libelf.a(strptr.o)
                              /usr/local/popcorn/aarch64//lib/libstack-transform.a(util.o) (elf_strptr)
/usr/local/popcorn/aarch64//lib/libelf.a(version.o)
                              /usr/local/popcorn/aarch64//lib/libstack-transform.a(userspace.o) (elf_version)
/usr/local/popcorn/aarch64//lib/libelf.a(32.getehdr.o)
                              /usr/local/popcorn/aarch64//lib/libstack-transform.a(init.o) (elf64_getehdr)
/usr/local/popcorn/aarch64//lib/libelf.a(32.xlatetof.o)
                              /usr/local/popcorn/aarch64//lib/libelf.a(getdata.o) (_elf32_xltsize)
/usr/local/popcorn/aarch64//lib/libelf.a(cook.o)
                              /usr/local/popcorn/aarch64//lib/libelf.a(getdata.o) (_elf_xlatetom)
/usr/local/popcorn/aarch64//lib/libelf.a(data.o)
                              /usr/local/popcorn/aarch64//lib/libelf.a(strptr.o) (_elf_sanity_checks)
/usr/local/popcorn/aarch64//lib/libelf.a(input.o)
                              /usr/local/popcorn/aarch64//lib/libelf.a(begin.o) (_elf_read)
/usr/local/popcorn/aarch64//lib/libelf.a(x.elfext.o)
                              /usr/local/popcorn/aarch64//lib/libstack-transform.a(util.o) (elf_getshdrstrndx)
/usr/local/popcorn/aarch64//lib/libelf.a(64.xlatetof.o)
                              /usr/local/popcorn/aarch64//lib/libelf.a(getdata.o) (_elf64_xltsize)
/usr/local/popcorn/aarch64//lib/libelf.a(gelfshdr.o)
                              /usr/local/popcorn/aarch64//lib/libstack-transform.a(util.o) (gelf_getshdr)
/usr/local/popcorn/aarch64//lib/libelf.a(swap64.o)
                              /usr/local/popcorn/aarch64//lib/libelf.a(64.xlatetof.o) (_elf_load_u64L)
/usr/local/popcorn/aarch64//lib/libelf.a(verdef_32_tof.o)
                              /usr/local/popcorn/aarch64//lib/libelf.a(32.xlatetof.o) (_elf_verdef_32L11_tof)
/usr/local/popcorn/aarch64//lib/libelf.a(verdef_32_tom.o)
                              /usr/local/popcorn/aarch64//lib/libelf.a(32.xlatetof.o) (_elf_verdef_32L11_tom)
/usr/local/popcorn/aarch64//lib/libelf.a(verdef_64_tof.o)
                              /usr/local/popcorn/aarch64//lib/libelf.a(64.xlatetof.o) (_elf_verdef_64L11_tof)
/usr/local/popcorn/aarch64//lib/libelf.a(verdef_64_tom.o)
                              /usr/local/popcorn/aarch64//lib/libelf.a(64.xlatetof.o) (_elf_verdef_64L11_tom)
/usr/local/popcorn/aarch64//lib/libelf.a(getscn.o)
                              /usr/local/popcorn/aarch64//lib/libelf.a(strptr.o) (elf_getscn)
/usr/local/popcorn/aarch64//lib/libelf.a(newscn.o)
                              /usr/local/popcorn/aarch64//lib/libelf.a(x.elfext.o) (_elf_first_scn)
/usr/local/popcorn/aarch64//lib/libelf.a(32.fsize.o)
                              /usr/local/popcorn/aarch64//lib/libelf.a(cook.o) (_elf_fmsize)
/usr/local/popcorn/aarch64//lib/libc.a(getenv.o)
                              /usr/local/popcorn/aarch64//lib/libstack-transform.a(userspace.o) (getenv)
/usr/local/popcorn/aarch64//lib/libc.a(assert.o)
                              /usr/local/popcorn/aarch64//lib/libmigrate.a(migrate.o) (__assert_fail)
/usr/local/popcorn/aarch64//lib/libc.a(open.o)
                              /usr/local/popcorn/aarch64//lib/libstack-transform.a(init.o) (open)
/usr/local/popcorn/aarch64//lib/libc.a(calloc.o)
                              /usr/local/popcorn/aarch64//lib/libstack-transform.a(regs.o) (calloc)
/usr/local/popcorn/aarch64//lib/libc.a(getrlimit.o)
                              /usr/local/popcorn/aarch64//lib/libstack-transform.a(userspace.o) (getrlimit)
/usr/local/popcorn/aarch64//lib/libc.a(syscall.o)
                              /usr/local/popcorn/aarch64//lib/libmigrate.a(migrate.o) (syscall)
/usr/local/popcorn/aarch64//lib/libc.a(getline.o)
                              /usr/local/popcorn/aarch64//lib/libstack-transform.a(userspace.o) (getline)
/usr/local/popcorn/aarch64//lib/libc.a(snprintf.o)
                              /usr/local/popcorn/aarch64//lib/libstack-transform.a(userspace.o) (snprintf)
/usr/local/popcorn/aarch64//lib/libc.a(sscanf.o)
                              /usr/local/popcorn/aarch64//lib/libstack-transform.a(userspace.o) (sscanf)
/usr/local/popcorn/aarch64//lib/libc.a(stderr.o)
                              /usr/local/popcorn/aarch64//lib/libmigrate.a(migrate.o) (stderr)
/usr/local/popcorn/aarch64//lib/libc.a(vsnprintf.o)
                              /usr/local/popcorn/aarch64//lib/libc.a(snprintf.o) (vsnprintf)
/usr/local/popcorn/aarch64//lib/libc.a(vsscanf.o)
                              /usr/local/popcorn/aarch64//lib/libc.a(sscanf.o) (vsscanf)
/usr/local/popcorn/aarch64//lib/libc.a(strtol.o)
                              /usr/local/popcorn/aarch64//lib/libelf.a(version.o) (strtol)
/usr/local/popcorn/aarch64//lib/libc.a(memcmp.o)
                              /usr/local/popcorn/aarch64//lib/libelf.a(begin.o) (memcmp)
/usr/local/popcorn/aarch64//lib/libc.a(strcmp.o)
                              /usr/local/popcorn/aarch64//lib/libstack-transform.a(util.o) (strcmp)
/usr/local/popcorn/aarch64//lib/libc.a(strncmp.o)
                              /usr/local/popcorn/aarch64//lib/libstack-transform.a(userspace.o) (strncmp)
/usr/local/popcorn/aarch64//lib/libc.a(pthread_attr_get.o)
                              /usr/local/popcorn/aarch64//lib/libstack-transform.a(userspace.o) (pthread_attr_getstack)
/usr/local/popcorn/aarch64//lib/libc.a(pthread_getattr_np.o)
                              /usr/local/popcorn/aarch64//lib/libstack-transform.a(userspace.o) (pthread_getattr_np)
/usr/local/popcorn/aarch64//lib/libc.a(pthread_getspecific.o)
                              /usr/local/popcorn/aarch64//lib/libstack-transform.a(userspace.o) (pthread_getspecific)
/usr/local/popcorn/aarch64//lib/libc.a(pthread_key_create.o)
                              /usr/local/popcorn/aarch64//lib/libstack-transform.a(userspace.o) (pthread_key_create)
/usr/local/popcorn/aarch64//lib/libc.a(pthread_migrate.o)
                              /usr/local/popcorn/aarch64//lib/libmigrate.a(migrate.o) (pthread_migrate_args)
/usr/local/popcorn/aarch64//lib/libc.a(pthread_self.o)
                              /usr/local/popcorn/aarch64//lib/libstack-transform.a(userspace.o) (pthread_self)
/usr/local/popcorn/aarch64//lib/libc.a(pthread_setspecific.o)
                              /usr/local/popcorn/aarch64//lib/libstack-transform.a(userspace.o) (pthread_setspecific)
/usr/local/popcorn/aarch64//lib/libc.a(close.o)
                              /usr/local/popcorn/aarch64//lib/libstack-transform.a(init.o) (close)
/usr/local/popcorn/aarch64//lib/libc.a(getpid.o)
                              /usr/local/popcorn/aarch64//lib/libstack-transform.a(userspace.o) (getpid)
/usr/local/popcorn/aarch64//lib/libc.a(lseek.o)
                              /usr/local/popcorn/aarch64//lib/libelf.a(begin.o) (lseek)
/usr/local/popcorn/aarch64//lib/libc.a(read.o)
                              /usr/local/popcorn/aarch64//lib/libelf.a(input.o) (read)
/usr/local/popcorn/aarch64//lib/libc.a(abort.o)
                              /usr/local/popcorn/aarch64//lib/libc.a(assert.o) (abort)
/usr/local/popcorn/aarch64//lib/libc.a(intscan.o)
                              /usr/local/popcorn/aarch64//lib/libc.a(strtol.o) (__intscan)
/usr/local/popcorn/aarch64//lib/libc.a(shgetc.o)
                              /usr/local/popcorn/aarch64//lib/libc.a(intscan.o) (__shgetc)
/usr/local/popcorn/aarch64//lib/libc.a(raise.o)
                              /usr/local/popcorn/aarch64//lib/libc.a(abort.o) (raise)
/usr/local/popcorn/aarch64//lib/libc.a(__string_read.o)
                              /usr/local/popcorn/aarch64//lib/libc.a(vsscanf.o) (__string_read)
/usr/local/popcorn/aarch64//lib/libc.a(__uflow.o)
                              /usr/local/popcorn/aarch64//lib/libc.a(shgetc.o) (__uflow)
/usr/local/popcorn/aarch64//lib/libc.a(getdelim.o)
                              /usr/local/popcorn/aarch64//lib/libc.a(getline.o) (getdelim)
/usr/local/popcorn/aarch64//lib/libc.a(vfscanf.o)
                              /usr/local/popcorn/aarch64//lib/libc.a(vsscanf.o) (vfscanf)
/usr/local/popcorn/aarch64//lib/libc.a(floatscan.o)
                              /usr/local/popcorn/aarch64//lib/libc.a(vfscanf.o) (__floatscan)
/usr/local/popcorn/aarch64//lib/libc.a(copysignl.o)
                              /usr/local/popcorn/aarch64//lib/libc.a(floatscan.o) (copysignl)
/usr/local/popcorn/aarch64//lib/libc.a(fabs.o)
                              /usr/local/popcorn/aarch64//lib/libc.a(floatscan.o) (fabs)
/usr/local/popcorn/aarch64//lib/libc.a(fmodl.o)
                              /usr/local/popcorn/aarch64//lib/libc.a(floatscan.o) (fmodl)
/usr/local/popcorn/aarch64//lib/libc.a(scalbn.o)
                              /usr/local/popcorn/aarch64//lib/libc.a(floatscan.o) (scalbn)
/usr/local/popcorn/aarch64//lib/libc.a(scalbnl.o)
                              /usr/local/popcorn/aarch64//lib/libc.a(floatscan.o) (scalbnl)
/usr/local/popcorn/aarch64//lib/libc.a(mbrtowc.o)
                              /usr/local/popcorn/aarch64//lib/libc.a(vfscanf.o) (mbrtowc)
/usr/local/popcorn/aarch64//lib/libc.a(mbsinit.o)
                              /usr/local/popcorn/aarch64//lib/libc.a(vfscanf.o) (mbsinit)
/usr/local/popcorn/aarch64//lib/libc.a(block.o)
                              /usr/local/popcorn/aarch64//lib/libc.a(raise.o) (__block_app_sigs)
/usr/local/popcorn/aarch64//lib/libc.a(__toread.o)
                              /usr/local/popcorn/aarch64//lib/libc.a(__uflow.o) (__toread)
/usr/local/popcorn/aarch64//lib/libc.a(internal.o)
                              /usr/local/popcorn/aarch64//lib/libc.a(mbrtowc.o) (__fsmu8)
/usr/lib/gcc/aarch64-linux-gnu/4.9/libgcc.a(addtf3.o)
                              /usr/local/popcorn/aarch64//lib/libc.a(vfprintf.o) (__addtf3)
/usr/lib/gcc/aarch64-linux-gnu/4.9/libgcc.a(divtf3.o)
                              /usr/local/popcorn/aarch64//lib/libc.a(floatscan.o) (__divtf3)
/usr/lib/gcc/aarch64-linux-gnu/4.9/libgcc.a(eqtf2.o)
                              /usr/local/popcorn/aarch64//lib/libc.a(vfprintf.o) (__eqtf2)
/usr/lib/gcc/aarch64-linux-gnu/4.9/libgcc.a(getf2.o)
                              /usr/local/popcorn/aarch64//lib/libc.a(fmodl.o) (__gttf2)
/usr/lib/gcc/aarch64-linux-gnu/4.9/libgcc.a(letf2.o)
                              /usr/local/popcorn/aarch64//lib/libc.a(floatscan.o) (__lttf2)
/usr/lib/gcc/aarch64-linux-gnu/4.9/libgcc.a(multf3.o)
                              /usr/local/popcorn/aarch64//lib/libc.a(vfprintf.o) (__multf3)
/usr/lib/gcc/aarch64-linux-gnu/4.9/libgcc.a(subtf3.o)
                              /usr/local/popcorn/aarch64//lib/libc.a(vfprintf.o) (__subtf3)
/usr/lib/gcc/aarch64-linux-gnu/4.9/libgcc.a(unordtf2.o)
                              /usr/local/popcorn/aarch64//lib/libc.a(vfprintf.o) (__unordtf2)
/usr/lib/gcc/aarch64-linux-gnu/4.9/libgcc.a(fixtfsi.o)
                              /usr/local/popcorn/aarch64//lib/libc.a(vfprintf.o) (__fixtfsi)
/usr/lib/gcc/aarch64-linux-gnu/4.9/libgcc.a(fixunstfsi.o)
                              /usr/local/popcorn/aarch64//lib/libc.a(vfprintf.o) (__fixunstfsi)
/usr/lib/gcc/aarch64-linux-gnu/4.9/libgcc.a(floatsitf.o)
                              /usr/local/popcorn/aarch64//lib/libc.a(vfprintf.o) (__floatsitf)
/usr/lib/gcc/aarch64-linux-gnu/4.9/libgcc.a(floatunsitf.o)
                              /usr/local/popcorn/aarch64//lib/libc.a(vfprintf.o) (__floatunsitf)
/usr/lib/gcc/aarch64-linux-gnu/4.9/libgcc.a(extendsftf2.o)
                              /usr/local/popcorn/aarch64//lib/libc.a(floatscan.o) (__extendsftf2)
/usr/lib/gcc/aarch64-linux-gnu/4.9/libgcc.a(extenddftf2.o)
                              /usr/local/popcorn/aarch64//lib/libc.a(vfprintf.o) (__extenddftf2)
/usr/lib/gcc/aarch64-linux-gnu/4.9/libgcc.a(trunctfsf2.o)
                              /usr/local/popcorn/aarch64//lib/libc.a(vfscanf.o) (__trunctfsf2)
/usr/lib/gcc/aarch64-linux-gnu/4.9/libgcc.a(trunctfdf2.o)
                              /usr/local/popcorn/aarch64//lib/libc.a(vfscanf.o) (__trunctfdf2)
/usr/lib/gcc/aarch64-linux-gnu/4.9/libgcc.a(sfp-exceptions.o)
                              /usr/lib/gcc/aarch64-linux-gnu/4.9/libgcc.a(addtf3.o) (__sfp_handle_exceptions)

Allocating common symbols
Common symbol       size              file

status              0x10              /usr/local/popcorn/aarch64//lib/libmigrate.a(migrate.o)

Discarded input sections

 .note.GNU-stack
                0x0000000000000000        0x0 0x1 /tmp/conftest-dcbec8.o
 .note.GNU-stack
                0x0000000000000000        0x0 0x1 /usr/local/popcorn/aarch64//lib/crt1.o
 .note.GNU-stack
                0x0000000000000000        0x0 0x1 /usr/local/popcorn/aarch64//lib/libc.a(__libc_start_main.o)
 .note.GNU-stack
                0x0000000000000000        0x0 0x1 /usr/local/popcorn/aarch64//lib/libc.a(exit.o)
 .note.GNU-stack
                0x0000000000000000        0x0 0x1 /usr/local/popcorn/aarch64//lib/libc.a(libc.o)
 .note.GNU-stack
                0x0000000000000000        0x0 0x1 /usr/local/popcorn/aarch64//lib/libc.a(fclose.o)
 .note.GNU-stack
                0x0000000000000000        0x0 0x1 /usr/local/popcorn/aarch64//lib/libc.a(ferror.o)
 .note.GNU-stack
                0x0000000000000000        0x0 0x1 /usr/local/popcorn/aarch64//lib/libc.a(fflush.o)
 .note.GNU-stack
                0x0000000000000000        0x0 0x1 /usr/local/popcorn/aarch64//lib/libc.a(fopen.o)
 .note.GNU-stack
                0x0000000000000000        0x0 0x1 /usr/local/popcorn/aarch64//lib/libc.a(fprintf.o)
 .note.GNU-stack
                0x0000000000000000        0x0 0x1 /usr/local/popcorn/aarch64//lib/libc.a(vfprintf.o)
 .note.GNU-stack
                0x0000000000000000        0x0 0x1 /usr/local/popcorn/aarch64//lib/libc.a(memchr.o)
 .note.GNU-stack
                0x0000000000000000        0x0 0x1 /usr/local/popcorn/aarch64//lib/libc.a(memset.o)
 .note.GNU-stack
                0x0000000000000000        0x0 0x1 /usr/local/popcorn/aarch64//lib/libc.a(strchr.o)
 .note.GNU-stack
                0x0000000000000000        0x0 0x1 /usr/local/popcorn/aarch64//lib/libc.a(strchrnul.o)
 .note.GNU-stack
                0x0000000000000000        0x0 0x1 /usr/local/popcorn/aarch64//lib/libc.a(strlen.o)
 .note.GNU-stack
                0x0000000000000000        0x0 0x1 /usr/local/popcorn/aarch64//lib/libc.a(__lock.o)
 .note.GNU-stack
                0x0000000000000000        0x0 0x1 /usr/local/popcorn/aarch64//lib/libc.a(__syscall_cp.o)
 .note.GNU-stack
                0x0000000000000000        0x0 0x1 /usr/local/popcorn/aarch64//lib/libc.a(__wait.o)
 .note.GNU-stack
                0x0000000000000000        0x0 0x1 /usr/local/popcorn/aarch64//lib/libc.a(__environ.o)
 .note.GNU-stack
                0x0000000000000000        0x0 0x1 /usr/local/popcorn/aarch64//lib/libc.a(__init_tls.o)
 .note.GNU-stack
                0x0000000000000000        0x0 0x1 /usr/local/popcorn/aarch64//lib/libc.a(__errno_location.o)
 .note.GNU-stack
                0x0000000000000000        0x0 0x1 /usr/local/popcorn/aarch64//lib/libc.a(strerror.o)
 .note.GNU-stack
                0x0000000000000000        0x0 0x1 /usr/local/popcorn/aarch64//lib/libc.a(_Exit.o)
 .note.GNU-stack
                0x0000000000000000        0x0 0x1 /usr/local/popcorn/aarch64//lib/libc.a(syscall.o)
 .note.GNU-stack
                0x0000000000000000        0x0 0x1 /usr/local/popcorn/aarch64//lib/libc.a(syscall_ret.o)
 .note.GNU-stack
                0x0000000000000000        0x0 0x1 /usr/local/popcorn/aarch64//lib/libc.a(__lctrans.o)
 .note.GNU-stack
                0x0000000000000000        0x0 0x1 /usr/local/popcorn/aarch64//lib/libc.a(malloc.o)
 .note.GNU-stack
                0x0000000000000000        0x0 0x1 /usr/local/popcorn/aarch64//lib/libc.a(__fpclassifyl.o)
 .note.GNU-stack
                0x0000000000000000        0x0 0x1 /usr/local/popcorn/aarch64//lib/libc.a(__signbitl.o)
 .note.GNU-stack
                0x0000000000000000        0x0 0x1 /usr/local/popcorn/aarch64//lib/libc.a(frexpl.o)
 .note.GNU-stack
                0x0000000000000000        0x0 0x1 /usr/local/popcorn/aarch64//lib/libc.a(madvise.o)
 .note.GNU-stack
                0x0000000000000000        0x0 0x1 /usr/local/popcorn/aarch64//lib/libc.a(mmap.o)
 .note.GNU-stack
                0x0000000000000000        0x0 0x1 /usr/local/popcorn/aarch64//lib/libc.a(mremap.o)
 .note.GNU-stack
                0x0000000000000000        0x0 0x1 /usr/local/popcorn/aarch64//lib/libc.a(munmap.o)
 .note.GNU-stack
                0x0000000000000000        0x0 0x1 /usr/local/popcorn/aarch64//lib/libc.a(wctomb.o)
 .note.GNU-stack
                0x0000000000000000        0x0 0x1 /usr/local/popcorn/aarch64//lib/libc.a(sched_yield.o)
 .note.GNU-stack
                0x0000000000000000        0x0 0x1 /usr/local/popcorn/aarch64//lib/libc.a(__fdopen.o)
 .note.GNU-stack
                0x0000000000000000        0x0 0x1 /usr/local/popcorn/aarch64//lib/libc.a(__fmodeflags.o)
 .note.GNU-stack
                0x0000000000000000        0x0 0x1 /usr/local/popcorn/aarch64//lib/libc.a(__lockfile.o)
 .note.GNU-stack
                0x0000000000000000        0x0 0x1 /usr/local/popcorn/aarch64//lib/libc.a(__stdio_close.o)
 .note.GNU-stack
                0x0000000000000000        0x0 0x1 /usr/local/popcorn/aarch64//lib/libc.a(__stdio_read.o)
 .note.GNU-stack
                0x0000000000000000        0x0 0x1 /usr/local/popcorn/aarch64//lib/libc.a(__stdio_seek.o)
 .note.GNU-stack
                0x0000000000000000        0x0 0x1 /usr/local/popcorn/aarch64//lib/libc.a(__stdio_write.o)
 .note.GNU-stack
                0x0000000000000000        0x0 0x1 /usr/local/popcorn/aarch64//lib/libc.a(fwrite.o)
 .note.GNU-stack
                0x0000000000000000        0x0 0x1 /usr/local/popcorn/aarch64//lib/libc.a(memcpy.o)
 .note.GNU-stack
                0x0000000000000000        0x0 0x1 /usr/local/popcorn/aarch64//lib/libc.a(__set_thread_area.o)
 .note.GNU-stack
                0x0000000000000000        0x0 0x1 /usr/local/popcorn/aarch64//lib/libc.a(pthread_cleanup_push.o)
 .note.GNU-stack
                0x0000000000000000        0x0 0x1 /usr/local/popcorn/aarch64//lib/libc.a(__brk.o)
 .note.GNU-stack
                0x0000000000000000        0x0 0x1 /usr/local/popcorn/aarch64//lib/libc.a(wcrtomb.o)
 .note.GNU-stack
                0x0000000000000000        0x0 0x1 /usr/local/popcorn/aarch64//lib/libc.a(__towrite.o)
 .note.GNU-stack
                0x0000000000000000        0x0 0x1 /usr/local/popcorn/aarch64//lib/libc.a(__stdio_exit.o)
 .note.GNU-stack
                0x0000000000000000        0x0 0x1 /usr/local/popcorn/aarch64//lib/libmigrate.a(migrate.o)
 .note.GNU-stack
                0x0000000000000000        0x0 0x1 /usr/local/popcorn/aarch64//lib/libstack-transform.a(userspace.o)
 .note.GNU-stack
                0x0000000000000000        0x0 0x1 /usr/local/popcorn/aarch64//lib/libstack-transform.a(init.o)
 .note.GNU-stack
                0x0000000000000000        0x0 0x1 /usr/local/popcorn/aarch64//lib/libstack-transform.a(rewrite.o)
 .note.GNU-stack
                0x0000000000000000        0x0 0x1 /usr/local/popcorn/aarch64//lib/libstack-transform.a(unwind.o)
 .note.GNU-stack
                0x0000000000000000        0x0 0x1 /usr/local/popcorn/aarch64//lib/libstack-transform.a(util.o)
 .note.GNU-stack
                0x0000000000000000        0x0 0x1 /usr/local/popcorn/aarch64//lib/libstack-transform.a(properties.o)
 .note.GNU-stack
                0x0000000000000000        0x0 0x1 /usr/local/popcorn/aarch64//lib/libstack-transform.a(regs.o)
 .note.GNU-stack
                0x0000000000000000        0x0 0x1 /usr/local/popcorn/aarch64//lib/libstack-transform.a(properties.o)
 .note.GNU-stack
                0x0000000000000000        0x0 0x1 /usr/local/popcorn/aarch64//lib/libstack-transform.a(regs.o)
 .note.GNU-stack
                0x0000000000000000        0x0 0x1 /usr/local/popcorn/aarch64//lib/libstack-transform.a(data.o)
 .note.GNU-stack
                0x0000000000000000        0x0 0x1 /usr/local/popcorn/aarch64//lib/libelf.a(begin.o)
 .note.GNU-stack
                0x0000000000000000        0x0 0x1 /usr/local/popcorn/aarch64//lib/libelf.a(end.o)
 .note.GNU-stack
                0x0000000000000000        0x0 0x1 /usr/local/popcorn/aarch64//lib/libelf.a(getdata.o)
 .note.GNU-stack
                0x0000000000000000        0x0 0x1 /usr/local/popcorn/aarch64//lib/libelf.a(getident.o)
 .note.GNU-stack
                0x0000000000000000        0x0 0x1 /usr/local/popcorn/aarch64//lib/libelf.a(nextscn.o)
 .note.GNU-stack
                0x0000000000000000        0x0 0x1 /usr/local/popcorn/aarch64//lib/libelf.a(strptr.o)
 .note.GNU-stack
                0x0000000000000000        0x0 0x1 /usr/local/popcorn/aarch64//lib/libelf.a(version.o)
 .note.GNU-stack
                0x0000000000000000        0x0 0x1 /usr/local/popcorn/aarch64//lib/libelf.a(32.getehdr.o)
 .note.GNU-stack
                0x0000000000000000        0x0 0x1 /usr/local/popcorn/aarch64//lib/libelf.a(32.xlatetof.o)
 .note.GNU-stack
                0x0000000000000000        0x0 0x1 /usr/local/popcorn/aarch64//lib/libelf.a(cook.o)
 .note.GNU-stack
                0x0000000000000000        0x0 0x1 /usr/local/popcorn/aarch64//lib/libelf.a(data.o)
 .note.GNU-stack
                0x0000000000000000        0x0 0x1 /usr/local/popcorn/aarch64//lib/libelf.a(input.o)
 .note.GNU-stack
                0x0000000000000000        0x0 0x1 /usr/local/popcorn/aarch64//lib/libelf.a(x.elfext.o)
 .note.GNU-stack
                0x0000000000000000        0x0 0x1 /usr/local/popcorn/aarch64//lib/libelf.a(64.xlatetof.o)
 .note.GNU-stack
                0x0000000000000000        0x0 0x1 /usr/local/popcorn/aarch64//lib/libelf.a(gelfshdr.o)
 .note.GNU-stack
                0x0000000000000000        0x0 0x1 /usr/local/popcorn/aarch64//lib/libelf.a(swap64.o)
 .note.GNU-stack
                0x0000000000000000        0x0 0x1 /usr/local/popcorn/aarch64//lib/libelf.a(verdef_32_tof.o)
 .note.GNU-stack
                0x0000000000000000        0x0 0x1 /usr/local/popcorn/aarch64//lib/libelf.a(verdef_32_tom.o)
 .note.GNU-stack
                0x0000000000000000        0x0 0x1 /usr/local/popcorn/aarch64//lib/libelf.a(verdef_64_tof.o)
 .note.GNU-stack
                0x0000000000000000        0x0 0x1 /usr/local/popcorn/aarch64//lib/libelf.a(verdef_64_tom.o)
 .note.GNU-stack
                0x0000000000000000        0x0 0x1 /usr/local/popcorn/aarch64//lib/libelf.a(getscn.o)
 .note.GNU-stack
                0x0000000000000000        0x0 0x1 /usr/local/popcorn/aarch64//lib/libelf.a(newscn.o)
 .note.GNU-stack
                0x0000000000000000        0x0 0x1 /usr/local/popcorn/aarch64//lib/libelf.a(32.fsize.o)
 .note.GNU-stack
                0x0000000000000000        0x0 0x1 /usr/local/popcorn/aarch64//lib/libc.a(getenv.o)
 .note.GNU-stack
                0x0000000000000000        0x0 0x1 /usr/local/popcorn/aarch64//lib/libc.a(assert.o)
 .note.GNU-stack
                0x0000000000000000        0x0 0x1 /usr/local/popcorn/aarch64//lib/libc.a(open.o)
 .note.GNU-stack
                0x0000000000000000        0x0 0x1 /usr/local/popcorn/aarch64//lib/libc.a(calloc.o)
 .note.GNU-stack
                0x0000000000000000        0x0 0x1 /usr/local/popcorn/aarch64//lib/libc.a(getrlimit.o)
 .note.GNU-stack
                0x0000000000000000        0x0 0x1 /usr/local/popcorn/aarch64//lib/libc.a(syscall.o)
 .note.GNU-stack
                0x0000000000000000        0x0 0x1 /usr/local/popcorn/aarch64//lib/libc.a(getline.o)
 .note.GNU-stack
                0x0000000000000000        0x0 0x1 /usr/local/popcorn/aarch64//lib/libc.a(snprintf.o)
 .note.GNU-stack
                0x0000000000000000        0x0 0x1 /usr/local/popcorn/aarch64//lib/libc.a(sscanf.o)
 .note.GNU-stack
                0x0000000000000000        0x0 0x1 /usr/local/popcorn/aarch64//lib/libc.a(stderr.o)
 .note.GNU-stack
                0x0000000000000000        0x0 0x1 /usr/local/popcorn/aarch64//lib/libc.a(vsnprintf.o)
 .note.GNU-stack
                0x0000000000000000        0x0 0x1 /usr/local/popcorn/aarch64//lib/libc.a(vsscanf.o)
 .note.GNU-stack
                0x0000000000000000        0x0 0x1 /usr/local/popcorn/aarch64//lib/libc.a(strtol.o)
 .note.GNU-stack
                0x0000000000000000        0x0 0x1 /usr/local/popcorn/aarch64//lib/libc.a(memcmp.o)
 .note.GNU-stack
                0x0000000000000000        0x0 0x1 /usr/local/popcorn/aarch64//lib/libc.a(strcmp.o)
 .note.GNU-stack
                0x0000000000000000        0x0 0x1 /usr/local/popcorn/aarch64//lib/libc.a(strncmp.o)
 .note.GNU-stack
                0x0000000000000000        0x0 0x1 /usr/local/popcorn/aarch64//lib/libc.a(pthread_attr_get.o)
 .note.GNU-stack
                0x0000000000000000        0x0 0x1 /usr/local/popcorn/aarch64//lib/libc.a(pthread_getattr_np.o)
 .note.GNU-stack
                0x0000000000000000        0x0 0x1 /usr/local/popcorn/aarch64//lib/libc.a(pthread_getspecific.o)
 .note.GNU-stack
                0x0000000000000000        0x0 0x1 /usr/local/popcorn/aarch64//lib/libc.a(pthread_key_create.o)
 .note.GNU-stack
                0x0000000000000000        0x0 0x1 /usr/local/popcorn/aarch64//lib/libc.a(pthread_migrate.o)
 .note.GNU-stack
                0x0000000000000000        0x0 0x1 /usr/local/popcorn/aarch64//lib/libc.a(pthread_self.o)
 .note.GNU-stack
                0x0000000000000000        0x0 0x1 /usr/local/popcorn/aarch64//lib/libc.a(pthread_setspecific.o)
 .note.GNU-stack
                0x0000000000000000        0x0 0x1 /usr/local/popcorn/aarch64//lib/libc.a(close.o)
 .note.GNU-stack
                0x0000000000000000        0x0 0x1 /usr/local/popcorn/aarch64//lib/libc.a(getpid.o)
 .note.GNU-stack
                0x0000000000000000        0x0 0x1 /usr/local/popcorn/aarch64//lib/libc.a(lseek.o)
 .note.GNU-stack
                0x0000000000000000        0x0 0x1 /usr/local/popcorn/aarch64//lib/libc.a(read.o)
 .note.GNU-stack
                0x0000000000000000        0x0 0x1 /usr/local/popcorn/aarch64//lib/libc.a(abort.o)
 .note.GNU-stack
                0x0000000000000000        0x0 0x1 /usr/local/popcorn/aarch64//lib/libc.a(intscan.o)
 .note.GNU-stack
                0x0000000000000000        0x0 0x1 /usr/local/popcorn/aarch64//lib/libc.a(shgetc.o)
 .note.GNU-stack
                0x0000000000000000        0x0 0x1 /usr/local/popcorn/aarch64//lib/libc.a(raise.o)
 .note.GNU-stack
                0x0000000000000000        0x0 0x1 /usr/local/popcorn/aarch64//lib/libc.a(__string_read.o)
 .note.GNU-stack
                0x0000000000000000        0x0 0x1 /usr/local/popcorn/aarch64//lib/libc.a(__uflow.o)
 .note.GNU-stack
                0x0000000000000000        0x0 0x1 /usr/local/popcorn/aarch64//lib/libc.a(getdelim.o)
 .note.GNU-stack
                0x0000000000000000        0x0 0x1 /usr/local/popcorn/aarch64//lib/libc.a(vfscanf.o)
 .note.GNU-stack
                0x0000000000000000        0x0 0x1 /usr/local/popcorn/aarch64//lib/libc.a(floatscan.o)
 .note.GNU-stack
                0x0000000000000000        0x0 0x1 /usr/local/popcorn/aarch64//lib/libc.a(copysignl.o)
 .note.GNU-stack
                0x0000000000000000        0x0 0x1 /usr/local/popcorn/aarch64//lib/libc.a(fabs.o)
 .note.GNU-stack
                0x0000000000000000        0x0 0x1 /usr/local/popcorn/aarch64//lib/libc.a(fmodl.o)
 .note.GNU-stack
                0x0000000000000000        0x0 0x1 /usr/local/popcorn/aarch64//lib/libc.a(scalbn.o)
 .note.GNU-stack
                0x0000000000000000        0x0 0x1 /usr/local/popcorn/aarch64//lib/libc.a(scalbnl.o)
 .note.GNU-stack
                0x0000000000000000        0x0 0x1 /usr/local/popcorn/aarch64//lib/libc.a(mbrtowc.o)
 .note.GNU-stack
                0x0000000000000000        0x0 0x1 /usr/local/popcorn/aarch64//lib/libc.a(mbsinit.o)
 .note.GNU-stack
                0x0000000000000000        0x0 0x1 /usr/local/popcorn/aarch64//lib/libc.a(block.o)
 .note.GNU-stack
                0x0000000000000000        0x0 0x1 /usr/local/popcorn/aarch64//lib/libc.a(__toread.o)
 .note.GNU-stack
                0x0000000000000000        0x0 0x1 /usr/local/popcorn/aarch64//lib/libc.a(internal.o)
 .note.GNU-stack
                0x0000000000000000        0x0 0x1 /usr/lib/gcc/aarch64-linux-gnu/4.9/libgcc.a(addtf3.o)
 .note.GNU-stack
                0x0000000000000000        0x0 0x1 /usr/lib/gcc/aarch64-linux-gnu/4.9/libgcc.a(divtf3.o)
 .note.GNU-stack
                0x0000000000000000        0x0 0x1 /usr/lib/gcc/aarch64-linux-gnu/4.9/libgcc.a(eqtf2.o)
 .note.GNU-stack
                0x0000000000000000        0x0 0x1 /usr/lib/gcc/aarch64-linux-gnu/4.9/libgcc.a(getf2.o)
 .note.GNU-stack
                0x0000000000000000        0x0 0x1 /usr/lib/gcc/aarch64-linux-gnu/4.9/libgcc.a(letf2.o)
 .note.GNU-stack
                0x0000000000000000        0x0 0x1 /usr/lib/gcc/aarch64-linux-gnu/4.9/libgcc.a(multf3.o)
 .note.GNU-stack
                0x0000000000000000        0x0 0x1 /usr/lib/gcc/aarch64-linux-gnu/4.9/libgcc.a(subtf3.o)
 .note.GNU-stack
                0x0000000000000000        0x0 0x1 /usr/lib/gcc/aarch64-linux-gnu/4.9/libgcc.a(unordtf2.o)
 .note.GNU-stack
                0x0000000000000000        0x0 0x1 /usr/lib/gcc/aarch64-linux-gnu/4.9/libgcc.a(fixtfsi.o)
 .note.GNU-stack
                0x0000000000000000        0x0 0x1 /usr/lib/gcc/aarch64-linux-gnu/4.9/libgcc.a(fixunstfsi.o)
 .note.GNU-stack
                0x0000000000000000        0x0 0x1 /usr/lib/gcc/aarch64-linux-gnu/4.9/libgcc.a(floatsitf.o)
 .note.GNU-stack
                0x0000000000000000        0x0 0x1 /usr/lib/gcc/aarch64-linux-gnu/4.9/libgcc.a(floatunsitf.o)
 .note.GNU-stack
                0x0000000000000000        0x0 0x1 /usr/lib/gcc/aarch64-linux-gnu/4.9/libgcc.a(extendsftf2.o)
 .note.GNU-stack
                0x0000000000000000        0x0 0x1 /usr/lib/gcc/aarch64-linux-gnu/4.9/libgcc.a(extenddftf2.o)
 .note.GNU-stack
                0x0000000000000000        0x0 0x1 /usr/lib/gcc/aarch64-linux-gnu/4.9/libgcc.a(trunctfsf2.o)
 .note.GNU-stack
                0x0000000000000000        0x0 0x1 /usr/lib/gcc/aarch64-linux-gnu/4.9/libgcc.a(trunctfdf2.o)
 .note.GNU-stack
                0x0000000000000000        0x0 0x1 /usr/lib/gcc/aarch64-linux-gnu/4.9/libgcc.a(sfp-exceptions.o)

Memory map

 ** file header
                0x00000000004f0000       0x40
 ** segment headers
                0x00000000004f0040      0x268

.text           0x0000000000500000    0x33024
 ** zero fill   0x0000000000500000        0x1
 ** zero fill   0x0000000000500001      0xfff
 .text.exit     0x0000000000501000       0x5c 0x4 /usr/local/popcorn/aarch64//lib/libc.a(exit.o)
                0x0000000000501000                exit
 ** zero fill   0x000000000050105c        0x4
 .text.main     0x0000000000501060       0xd4 0x4 /tmp/conftest-dcbec8.o
                0x0000000000501060                main
 ** zero fill   0x0000000000501134        0x3
 ** zero fill   0x0000000000501137        0x9
 .text.ulongval
                0x0000000000501140       0x40 0x4 /tmp/conftest-dcbec8.o
 .text.dummy1   0x0000000000501180        0x4 0x4 /usr/local/popcorn/aarch64//lib/libc.a(__libc_start_main.o)
                0x0000000000501180                __init_ssp
 .text.__libc_start_main
                0x0000000000501184      0x1f0 0x4 /usr/local/popcorn/aarch64//lib/libc.a(__libc_start_main.o)
                0x0000000000501184                __libc_start_main
 .text.dummy    0x0000000000501374        0x4 0x4 /usr/local/popcorn/aarch64//lib/libc.a(__libc_start_main.o)
                0x0000000000501374                _init
 .text.dummy    0x0000000000501378        0x4 0x4 /usr/local/popcorn/aarch64//lib/libc.a(exit.o)
                0x0000000000501378                __funcs_on_exit
                0x0000000000501378                _fini
 .text.dummy    0x000000000050137c        0x4 0x4 /usr/local/popcorn/aarch64//lib/libc.a(fclose.o)
                0x000000000050137c                __unlist_locked_file
 .text.fclose   0x0000000000501380       0xc8 0x4 /usr/local/popcorn/aarch64//lib/libc.a(fclose.o)
                0x0000000000501380                fclose
 .text.ferror   0x0000000000501448       0x50 0x4 /usr/local/popcorn/aarch64//lib/libc.a(ferror.o)
                0x0000000000501448                _IO_ferror_unlocked
                0x0000000000501448                ferror
                0x0000000000501448                ferror_unlocked
 .text.fflush   0x0000000000501498      0x100 0x4 /usr/local/popcorn/aarch64//lib/libc.a(fflush.o)
                0x0000000000501498                fflush
 .text.__fflush_unlocked
                0x0000000000501598       0x80 0x4 /usr/local/popcorn/aarch64//lib/libc.a(fflush.o)
                0x0000000000501598                fflush_unlocked
 .text.fopen    0x0000000000501618       0xcc 0x4 /usr/local/popcorn/aarch64//lib/libc.a(fopen.o)
                0x0000000000501618                fopen
                0x0000000000501618                fopen64
 .text.fprintf  0x00000000005016e4       0x74 0x4 /usr/local/popcorn/aarch64//lib/libc.a(fprintf.o)
                0x00000000005016e4                fprintf
 ** zero fill   0x0000000000501758       0x23
 ** zero fill   0x000000000050177b        0x1
 .text.vfprintf
                0x000000000050177c      0x170 0x4 /usr/local/popcorn/aarch64//lib/libc.a(vfprintf.o)
                0x000000000050177c                vfprintf
 ** zero fill   0x00000000005018ec       0x18
 .text.printf_core
                0x0000000000501904     0x1a98 0x4 /usr/local/popcorn/aarch64//lib/libc.a(vfprintf.o)
 ** zero fill   0x000000000050339c      0x1ee
 ** zero fill   0x000000000050358a        0x2
 .text.pop_arg  0x000000000050358c      0x260 0x4 /usr/local/popcorn/aarch64//lib/libc.a(vfprintf.o)
 .text.pad      0x00000000005037ec       0xcc 0x4 /usr/local/popcorn/aarch64//lib/libc.a(vfprintf.o)
 ** zero fill   0x00000000005038b8        0x8
 .text.memchr   0x00000000005038c0       0xb0 0x4 /usr/local/popcorn/aarch64//lib/libc.a(memchr.o)
                0x00000000005038c0                memchr
 ** zero fill   0x0000000000503970       0x32
 ** zero fill   0x00000000005039a2        0x2
 .text.memset   0x00000000005039a4      0x160 0x4 /usr/local/popcorn/aarch64//lib/libc.a(memset.o)
                0x00000000005039a4                memset
 ** zero fill   0x0000000000503b04        0xc
 .text.strchr   0x0000000000503b10       0x2c 0x4 /usr/local/popcorn/aarch64//lib/libc.a(strchr.o)
                0x0000000000503b10                strchr
 ** zero fill   0x0000000000503b3c        0x4
 .text.__strchrnul
                0x0000000000503b40       0xac 0x4 /usr/local/popcorn/aarch64//lib/libc.a(strchrnul.o)
                0x0000000000503b40                __strchrnul
                0x0000000000503b40                strchrnul
 ** zero fill   0x0000000000503bec       0x37
 ** zero fill   0x0000000000503c23        0xd
 .text.strlen   0x0000000000503c30       0x5c 0x4 /usr/local/popcorn/aarch64//lib/libc.a(strlen.o)
                0x0000000000503c30                strlen
 ** zero fill   0x0000000000503c8c       0x12
 ** zero fill   0x0000000000503c9e        0x2
 .text.__lock   0x0000000000503ca0       0x84 0x4 /usr/local/popcorn/aarch64//lib/libc.a(__lock.o)
                0x0000000000503ca0                __lock
 .text.__unlock
                0x0000000000503d24       0x20 0x4 /usr/local/popcorn/aarch64//lib/libc.a(__lock.o)
                0x0000000000503d24                __unlock
 .text.sccp     0x0000000000503d44        0x4 0x4 /usr/local/popcorn/aarch64//lib/libc.a(__syscall_cp.o)
                0x0000000000503d44                __syscall_cp_c
 ** zero fill   0x0000000000503d48        0xf
 ** zero fill   0x0000000000503d57        0x1
 .text.__syscall_cp
                0x0000000000503d58        0x4 0x4 /usr/local/popcorn/aarch64//lib/libc.a(__syscall_cp.o)
                0x0000000000503d58                __syscall_cp
 ** zero fill   0x0000000000503d5c        0x1
 ** zero fill   0x0000000000503d5d        0x3
 .text.__wait   0x0000000000503d60       0xac 0x4 /usr/local/popcorn/aarch64//lib/libc.a(__wait.o)
                0x0000000000503d60                __wait
 .text.__copy_tls
                0x0000000000503e0c       0x78 0x4 /usr/local/popcorn/aarch64//lib/libc.a(__init_tls.o)
                0x0000000000503e0c                __copy_tls
 .text.__init_tls
                0x0000000000503e84      0x174 0x4 /usr/local/popcorn/aarch64//lib/libc.a(__init_tls.o)
                0x0000000000503e84                __init_tls
 .text.__errno_location
                0x0000000000503ff8        0xc 0x4 /usr/local/popcorn/aarch64//lib/libc.a(__errno_location.o)
                0x0000000000503ff8                __errno_location
 ** zero fill   0x0000000000504004        0x2
 ** zero fill   0x0000000000504006        0x2
 .text.__strerror_l
                0x0000000000504008       0x60 0x4 /usr/local/popcorn/aarch64//lib/libc.a(strerror.o)
                0x0000000000504008                __strerror_l
                0x0000000000504008                strerror_l
 .text.strerror
                0x0000000000504068        0xc 0x4 /usr/local/popcorn/aarch64//lib/libc.a(strerror.o)
                0x0000000000504068                strerror
 ** zero fill   0x0000000000504074        0x9
 ** zero fill   0x000000000050407d        0x3
 .text._Exit    0x0000000000504080       0x20 0x4 /usr/local/popcorn/aarch64//lib/libc.a(_Exit.o)
                0x0000000000504080                _Exit
 .text.__syscall
                0x00000000005040a0       0x28 0x10 /usr/local/popcorn/aarch64//lib/libc.a(syscall.o)
                0x00000000005040a0                __syscall
 ** zero fill   0x00000000005040c8        0x8
 .text.__syscall_ret
                0x00000000005040d0       0x30 0x4 /usr/local/popcorn/aarch64//lib/libc.a(syscall_ret.o)
                0x00000000005040d0                __syscall_ret
 .text.dummy    0x0000000000504100        0x4 0x4 /usr/local/popcorn/aarch64//lib/libc.a(__lctrans.o)
                0x0000000000504100                __lctrans_impl
 .text.__lctrans
                0x0000000000504104        0x4 0x4 /usr/local/popcorn/aarch64//lib/libc.a(__lctrans.o)
                0x0000000000504104                __lctrans
 ** zero fill   0x0000000000504108        0x1
 ** zero fill   0x0000000000504109        0x3
 .text.__lctrans_cur
                0x000000000050410c       0x10 0x4 /usr/local/popcorn/aarch64//lib/libc.a(__lctrans.o)
                0x000000000050410c                __lctrans_cur
 ** zero fill   0x000000000050411c        0x9
 ** zero fill   0x0000000000504125        0xb
 .text.malloc   0x0000000000504130      0x59c 0x4 /usr/local/popcorn/aarch64//lib/libc.a(malloc.o)
                0x0000000000504130                malloc
 ** zero fill   0x00000000005046cc        0x4
 .text.alloc_rev
                0x00000000005046d0      0x110 0x4 /usr/local/popcorn/aarch64//lib/libc.a(malloc.o)
 .text.lock_bin
                0x00000000005047e0       0xcc 0x4 /usr/local/popcorn/aarch64//lib/libc.a(malloc.o)
 ** zero fill   0x00000000005048ac        0x4
 .text.unbin    0x00000000005048b0       0x70 0x4 /usr/local/popcorn/aarch64//lib/libc.a(malloc.o)
 .text.realloc  0x0000000000504920      0x3d8 0x4 /usr/local/popcorn/aarch64//lib/libc.a(malloc.o)
                0x0000000000504920                realloc
 ** zero fill   0x0000000000504cf8        0x8
 .text.free     0x0000000000504d00      0x560 0x4 /usr/local/popcorn/aarch64//lib/libc.a(malloc.o)
                0x0000000000504d00                free
 .text.__fpclassifyl
                0x0000000000505260       0x54 0x4 /usr/local/popcorn/aarch64//lib/libc.a(__fpclassifyl.o)
                0x0000000000505260                __fpclassifyl
 .text.__signbitl
                0x00000000005052b4       0x18 0x4 /usr/local/popcorn/aarch64//lib/libc.a(__signbitl.o)
                0x00000000005052b4                __signbitl
 .text.frexpl   0x00000000005052cc       0xb4 0x4 /usr/local/popcorn/aarch64//lib/libc.a(frexpl.o)
                0x00000000005052cc                frexpl
 .text.__madvise
                0x0000000000505380       0x20 0x4 /usr/local/popcorn/aarch64//lib/libc.a(madvise.o)
                0x0000000000505380                __madvise
                0x0000000000505380                madvise
 .text.dummy    0x00000000005053a0        0x4 0x4 /usr/local/popcorn/aarch64//lib/libc.a(mmap.o)
                0x00000000005053a0                __vm_wait
 .text.__mmap   0x00000000005053a4       0xa0 0x4 /usr/local/popcorn/aarch64//lib/libc.a(mmap.o)
                0x00000000005053a4                __mmap
                0x00000000005053a4                mmap
                0x00000000005053a4                mmap64
 .text.__mremap
                0x0000000000505444       0xa4 0x4 /usr/local/popcorn/aarch64//lib/libc.a(mremap.o)
                0x0000000000505444                __mremap
                0x0000000000505444                mremap
 ** zero fill   0x00000000005054e8       0x2b
 ** zero fill   0x0000000000505513        0x1
 .text.dummy    0x0000000000505514        0x4 0x4 /usr/local/popcorn/aarch64//lib/libc.a(munmap.o)
 .text.__munmap
                0x0000000000505518       0x38 0x4 /usr/local/popcorn/aarch64//lib/libc.a(munmap.o)
                0x0000000000505518                __munmap
                0x0000000000505518                munmap
 .text.wctomb   0x0000000000505550       0x24 0x4 /usr/local/popcorn/aarch64//lib/libc.a(wctomb.o)
                0x0000000000505550                wctomb
 .text.sched_yield
                0x0000000000505574       0x1c 0x4 /usr/local/popcorn/aarch64//lib/libc.a(sched_yield.o)
                0x0000000000505574                sched_yield
 .text.__fdopen
                0x0000000000505590      0x1d0 0x4 /usr/local/popcorn/aarch64//lib/libc.a(__fdopen.o)
                0x0000000000505590                __fdopen
                0x0000000000505590                fdopen
 .text.__fmodeflags
                0x0000000000505760       0x94 0x4 /usr/local/popcorn/aarch64//lib/libc.a(__fmodeflags.o)
                0x0000000000505760                __fmodeflags
 .text.__lockfile
                0x00000000005057f4       0xb4 0x4 /usr/local/popcorn/aarch64//lib/libc.a(__lockfile.o)
                0x00000000005057f4                __lockfile
 .text.__unlockfile
                0x00000000005058a8       0x1c 0x4 /usr/local/popcorn/aarch64//lib/libc.a(__lockfile.o)
                0x00000000005058a8                __unlockfile
 .text.dummy    0x00000000005058c4        0x4 0x4 /usr/local/popcorn/aarch64//lib/libc.a(__stdio_close.o)
                0x00000000005058c4                __aio_close
 .text.__stdio_close
                0x00000000005058c8       0x28 0x4 /usr/local/popcorn/aarch64//lib/libc.a(__stdio_close.o)
                0x00000000005058c8                __stdio_close
 .text.__stdio_read
                0x00000000005058f0       0xf4 0x4 /usr/local/popcorn/aarch64//lib/libc.a(__stdio_read.o)
                0x00000000005058f0                __stdio_read
 .text.cleanup  0x00000000005059e4       0x10 0x4 /usr/local/popcorn/aarch64//lib/libc.a(__stdio_read.o)
 .text.__stdio_seek
                0x00000000005059f4       0x14 0x4 /usr/local/popcorn/aarch64//lib/libc.a(__stdio_seek.o)
                0x00000000005059f4                __stdio_seek
 ** zero fill   0x0000000000505a08        0x2
 ** zero fill   0x0000000000505a0a        0x2
 .text.__stdio_write
                0x0000000000505a0c      0x15c 0x4 /usr/local/popcorn/aarch64//lib/libc.a(__stdio_write.o)
                0x0000000000505a0c                __stdio_write
 .text.cleanup  0x0000000000505b68       0x10 0x4 /usr/local/popcorn/aarch64//lib/libc.a(__stdio_write.o)
 .text.__fwritex
                0x0000000000505b78      0x114 0x4 /usr/local/popcorn/aarch64//lib/libc.a(fwrite.o)
                0x0000000000505b78                __fwritex
 .text.fwrite   0x0000000000505c8c       0x98 0x4 /usr/local/popcorn/aarch64//lib/libc.a(fwrite.o)
                0x0000000000505c8c                fwrite
                0x0000000000505c8c                fwrite_unlocked
 .text.memcpy   0x0000000000505d24      0x3b8 0x4 /usr/local/popcorn/aarch64//lib/libc.a(memcpy.o)
                0x0000000000505d24                memcpy
 ** zero fill   0x00000000005060dc        0x4
 .text.__set_thread_area
                0x00000000005060e0        0xc 0x10 /usr/local/popcorn/aarch64//lib/libc.a(__set_thread_area.o)
                0x00000000005060e0                __set_thread_area
 ** zero fill   0x00000000005060ec        0x4
 .text.dummy    0x00000000005060f0        0x4 0x4 /usr/local/popcorn/aarch64//lib/libc.a(pthread_cleanup_push.o)
                0x00000000005060f0                __do_cleanup_pop
                0x00000000005060f0                __do_cleanup_push
 .text._pthread_cleanup_push
                0x00000000005060f4        0x8 0x4 /usr/local/popcorn/aarch64//lib/libc.a(pthread_cleanup_push.o)
                0x00000000005060f4                _pthread_cleanup_push
 ** zero fill   0x00000000005060fc        0x4
 .text._pthread_cleanup_pop
                0x0000000000506100       0x38 0x4 /usr/local/popcorn/aarch64//lib/libc.a(pthread_cleanup_push.o)
                0x0000000000506100                _pthread_cleanup_pop
 ** zero fill   0x0000000000506138        0x8
 .text.__brk    0x0000000000506140        0xc 0x4 /usr/local/popcorn/aarch64//lib/libc.a(__brk.o)
                0x0000000000506140                __brk
 .text.wcrtomb  0x000000000050614c       0xf0 0x4 /usr/local/popcorn/aarch64//lib/libc.a(wcrtomb.o)
                0x000000000050614c                wcrtomb
 ** zero fill   0x000000000050623c        0x6
 ** zero fill   0x0000000000506242        0x2
 .text.__towrite
                0x0000000000506244       0x50 0x4 /usr/local/popcorn/aarch64//lib/libc.a(__towrite.o)
                0x0000000000506244                __towrite
 .text.__towrite_needs_stdio_exit
                0x0000000000506294        0x4 0x4 /usr/local/popcorn/aarch64//lib/libc.a(__towrite.o)
                0x0000000000506294                __towrite_needs_stdio_exit
 ** zero fill   0x0000000000506298        0x1
 ** zero fill   0x0000000000506299        0x3
 .text.__stdio_exit
                0x000000000050629c       0x54 0x4 /usr/local/popcorn/aarch64//lib/libc.a(__stdio_exit.o)
                0x000000000050629c                __stdio_exit
                0x000000000050629c                __stdio_exit_needed
 .text.close_file
                0x00000000005062f0       0x78 0x4 /usr/local/popcorn/aarch64//lib/libc.a(__stdio_exit.o)
 ** zero fill   0x0000000000506368        0x8
 .text.__init_nodes_info
                0x0000000000506370       0xa8 0x4 /usr/local/popcorn/aarch64//lib/libmigrate.a(migrate.o)
 ** zero fill   0x0000000000506418       0x8f
 ** zero fill   0x00000000005064a7        0x9
 .text.current_nid
                0x00000000005064b0       0x34 0x4 /usr/local/popcorn/aarch64//lib/libmigrate.a(migrate.o)
                0x00000000005064b0                current_nid
 ** zero fill   0x00000000005064e4        0xc
 .text.current_arch
                0x00000000005064f0       0x30 0x4 /usr/local/popcorn/aarch64//lib/libmigrate.a(migrate.o)
                0x00000000005064f0                current_arch
 .text.check_migrate
                0x0000000000506520       0x38 0x4 /usr/local/popcorn/aarch64//lib/libmigrate.a(migrate.o)
                0x0000000000506520                check_migrate
 ** zero fill   0x0000000000506558        0x8
 .text.do_migrate
                0x0000000000506560       0x34 0x4 /usr/local/popcorn/aarch64//lib/libmigrate.a(migrate.o)
 ** zero fill   0x0000000000506594        0xc
 .text.__migrate_shim_internal
                0x00000000005065a0      0x4d0 0x4 /usr/local/popcorn/aarch64//lib/libmigrate.a(migrate.o)
 .text.migrate  0x0000000000506a70       0x14 0x4 /usr/local/popcorn/aarch64//lib/libmigrate.a(migrate.o)
                0x0000000000506a70                migrate
 ** zero fill   0x0000000000506a84        0xc
 .text.register_migrate_callback
                0x0000000000506a90       0x14 0x4 /usr/local/popcorn/aarch64//lib/libmigrate.a(migrate.o)
                0x0000000000506a90                register_migrate_callback
 ** zero fill   0x0000000000506aa4        0xc
 .text.__cyg_profile_func_enter
                0x0000000000506ab0       0x2c 0x4 /usr/local/popcorn/aarch64//lib/libmigrate.a(migrate.o)
                0x0000000000506ab0                __cyg_profile_func_enter
 ** zero fill   0x0000000000506adc        0x4
 .text.__cyg_profile_func_exit
                0x0000000000506ae0       0x2c 0x4 /usr/local/popcorn/aarch64//lib/libmigrate.a(migrate.o)
                0x0000000000506ae0                __cyg_profile_func_exit
 ** zero fill   0x0000000000506b0c        0x4
 .text.__st_userspace_ctor
                0x0000000000506b10      0x2b0 0x4 /usr/local/popcorn/aarch64//lib/libstack-transform.a(userspace.o)
                0x0000000000506b10                __st_userspace_ctor
 ** zero fill   0x0000000000506dc0       0x9d
 ** zero fill   0x0000000000506e5d        0x3
 .text.__st_userspace_dtor
                0x0000000000506e60       0x6c 0x4 /usr/local/popcorn/aarch64//lib/libstack-transform.a(userspace.o)
                0x0000000000506e60                __st_userspace_dtor
 ** zero fill   0x0000000000506ecc        0x4
 .text.get_stack_bounds
                0x0000000000506ed0       0xd8 0x4 /usr/local/popcorn/aarch64//lib/libstack-transform.a(userspace.o)
                0x0000000000506ed0                get_stack_bounds
 ** zero fill   0x0000000000506fa8        0x8
 .text.st_userspace_rewrite
                0x0000000000506fb0       0x30 0x4 /usr/local/popcorn/aarch64//lib/libstack-transform.a(userspace.o)
                0x0000000000506fb0                st_userspace_rewrite
 ** zero fill   0x0000000000506fe0        0x6
 ** zero fill   0x0000000000506fe6        0xa
 .text.userspace_rewrite_internal
                0x0000000000506ff0      0x144 0x4 /usr/local/popcorn/aarch64//lib/libstack-transform.a(userspace.o)
 ** zero fill   0x0000000000507134       0x23
 ** zero fill   0x0000000000507157        0x9
 .text.st_userspace_rewrite_aarch64
                0x0000000000507160       0x24 0x4 /usr/local/popcorn/aarch64//lib/libstack-transform.a(userspace.o)
                0x0000000000507160                st_userspace_rewrite_aarch64
 ** zero fill   0x0000000000507184        0x3
 ** zero fill   0x0000000000507187        0x9
 .text.st_userspace_rewrite_x86_64
                0x0000000000507190       0x24 0x4 /usr/local/popcorn/aarch64//lib/libstack-transform.a(userspace.o)
                0x0000000000507190                st_userspace_rewrite_x86_64
 ** zero fill   0x00000000005071b4        0x2
 ** zero fill   0x00000000005071b6        0xa
 .text.__st_ctor
                0x00000000005071c0        0x4 0x4 /usr/local/popcorn/aarch64//lib/libstack-transform.a(init.o)
 ** zero fill   0x00000000005071c4        0x1
 ** zero fill   0x00000000005071c5        0xb
 .text.__st_dtor
                0x00000000005071d0        0x4 0x4 /usr/local/popcorn/aarch64//lib/libstack-transform.a(init.o)
                0x00000000005071d0                __st_dtor
 ** zero fill   0x00000000005071d4        0x1
 ** zero fill   0x00000000005071d5        0xb
 .text.st_init  0x00000000005071e0      0x1e8 0x4 /usr/local/popcorn/aarch64//lib/libstack-transform.a(init.o)
                0x00000000005071e0                st_init
 ** zero fill   0x00000000005073c8       0x2a
 ** zero fill   0x00000000005073f2        0xe
 .text.st_destroy
                0x0000000000507400       0x40 0x4 /usr/local/popcorn/aarch64//lib/libstack-transform.a(init.o)
                0x0000000000507400                st_destroy
 .text.st_rewrite_stack
                0x0000000000507440      0xc58 0x4 /usr/local/popcorn/aarch64//lib/libstack-transform.a(rewrite.o)
                0x0000000000507440                st_rewrite_stack
 ** zero fill   0x0000000000508098      0x11d
 ** zero fill   0x00000000005081b5        0xb
 .text.st_rewrite_ondemand
                0x00000000005081c0       0x2c 0x4 /usr/local/popcorn/aarch64//lib/libstack-transform.a(rewrite.o)
                0x00000000005081c0                st_rewrite_ondemand
 ** zero fill   0x00000000005081ec        0x4
 .text.rewrite_val
                0x00000000005081f0      0x244 0x4 /usr/local/popcorn/aarch64//lib/libstack-transform.a(rewrite.o)
 ** zero fill   0x0000000000508434        0xc
 .text.first_frame
                0x0000000000508440        0xc 0x4 /usr/local/popcorn/aarch64//lib/libstack-transform.a(unwind.o)
                0x0000000000508440                first_frame
 ** zero fill   0x000000000050844c        0x4
 .text.calculate_cfa
                0x0000000000508450       0x40 0x4 /usr/local/popcorn/aarch64//lib/libstack-transform.a(unwind.o)
                0x0000000000508450                calculate_cfa
 .text.bootstrap_first_frame
                0x0000000000508490       0x94 0x4 /usr/local/popcorn/aarch64//lib/libstack-transform.a(unwind.o)
                0x0000000000508490                bootstrap_first_frame
 ** zero fill   0x0000000000508524        0xc
 .text.bootstrap_first_frame_funcentry
                0x0000000000508530       0x9c 0x4 /usr/local/popcorn/aarch64//lib/libstack-transform.a(unwind.o)
                0x0000000000508530                bootstrap_first_frame_funcentry
 ** zero fill   0x00000000005085cc        0x4
 .text.pop_frame
                0x00000000005085d0      0x25c 0x4 /usr/local/popcorn/aarch64//lib/libstack-transform.a(unwind.o)
                0x00000000005085d0                pop_frame
 ** zero fill   0x000000000050882c        0x4
 .text.pop_frame_funcentry
                0x0000000000508830      0x198 0x4 /usr/local/popcorn/aarch64//lib/libstack-transform.a(unwind.o)
                0x0000000000508830                pop_frame_funcentry
 ** zero fill   0x00000000005089c8        0x8
 .text.get_register_save_loc
                0x00000000005089d0       0x84 0x4 /usr/local/popcorn/aarch64//lib/libstack-transform.a(unwind.o)
                0x00000000005089d0                get_register_save_loc
 ** zero fill   0x0000000000508a54        0xc
 .text.free_activation
                0x0000000000508a60        0x4 0x4 /usr/local/popcorn/aarch64//lib/libstack-transform.a(unwind.o)
                0x0000000000508a60                free_activation
 ** zero fill   0x0000000000508a64        0xc
 .text.arch_name
                0x0000000000508a70       0x30 0x4 /usr/local/popcorn/aarch64//lib/libstack-transform.a(util.o)
                0x0000000000508a70                arch_name
 .text.get_regops
                0x0000000000508aa0       0x28 0x4 /usr/local/popcorn/aarch64//lib/libstack-transform.a(util.o)
                0x0000000000508aa0                get_regops
 ** zero fill   0x0000000000508ac8        0x8
 .text.get_properties
                0x0000000000508ad0       0x28 0x4 /usr/local/popcorn/aarch64//lib/libstack-transform.a(util.o)
                0x0000000000508ad0                get_properties
 ** zero fill   0x0000000000508af8        0x8
 .text.get_section
                0x0000000000508b00       0xc0 0x4 /usr/local/popcorn/aarch64//lib/libstack-transform.a(util.o)
                0x0000000000508b00                get_section
 .text.get_num_entries
                0x0000000000508bc0       0x64 0x4 /usr/local/popcorn/aarch64//lib/libstack-transform.a(util.o)
                0x0000000000508bc0                get_num_entries
 ** zero fill   0x0000000000508c24        0xc
 .text.get_section_data
                0x0000000000508c30       0x3c 0x4 /usr/local/popcorn/aarch64//lib/libstack-transform.a(util.o)
                0x0000000000508c30                get_section_data
 ** zero fill   0x0000000000508c6c        0x4
 .text.get_site_by_addr
                0x0000000000508c70       0xa4 0x4 /usr/local/popcorn/aarch64//lib/libstack-transform.a(util.o)
                0x0000000000508c70                get_site_by_addr
 ** zero fill   0x0000000000508d14        0xc
 .text.get_site_by_id
                0x0000000000508d20       0x90 0x4 /usr/local/popcorn/aarch64//lib/libstack-transform.a(util.o)
                0x0000000000508d20                get_site_by_id
 .text.get_unwind_offset_by_addr
                0x0000000000508db0       0xb4 0x4 /usr/local/popcorn/aarch64//lib/libstack-transform.a(util.o)
                0x0000000000508db0                get_unwind_offset_by_addr
 ** zero fill   0x0000000000508e64        0xc
 .text.get_function_address
                0x0000000000508e70       0x88 0x4 /usr/local/popcorn/aarch64//lib/libstack-transform.a(util.o)
                0x0000000000508e70                get_function_address
 ** zero fill   0x0000000000508ef8        0x8
 .text.align_sp_aarch64
                0x0000000000508f00       0x2c 0x4 /usr/local/popcorn/aarch64//lib/libstack-transform.a(properties.o)
 ** zero fill   0x0000000000508f2c        0x4
 .text.is_callee_saved_aarch64
                0x0000000000508f30       0x30 0x4 /usr/local/popcorn/aarch64//lib/libstack-transform.a(properties.o)
 .text.callee_reg_size_aarch64
                0x0000000000508f60       0x58 0x4 /usr/local/popcorn/aarch64//lib/libstack-transform.a(properties.o)
 ** zero fill   0x0000000000508fb8        0x8
 .text.regset_default_aarch64
                0x0000000000508fc0       0x2c 0x4 /usr/local/popcorn/aarch64//lib/libstack-transform.a(regs.o)
 ** zero fill   0x0000000000508fec        0x4
 .text.regset_init_aarch64
                0x0000000000508ff0       0x40 0x4 /usr/local/popcorn/aarch64//lib/libstack-transform.a(regs.o)
 .text.regset_free_aarch64
                0x0000000000509030        0x4 0x4 /usr/local/popcorn/aarch64//lib/libstack-transform.a(regs.o)
 ** zero fill   0x0000000000509034        0x1
 ** zero fill   0x0000000000509035        0xb
 .text.regset_clone_aarch64
                0x0000000000509040       0x14 0x4 /usr/local/popcorn/aarch64//lib/libstack-transform.a(regs.o)
 ** zero fill   0x0000000000509054        0xc
 .text.regset_copyin_aarch64
                0x0000000000509060       0x10 0x4 /usr/local/popcorn/aarch64//lib/libstack-transform.a(regs.o)
 ** zero fill   0x0000000000509070        0x1
 ** zero fill   0x0000000000509071        0xf
 .text.regset_copyout_aarch64
                0x0000000000509080       0x14 0x4 /usr/local/popcorn/aarch64//lib/libstack-transform.a(regs.o)
 ** zero fill   0x0000000000509094        0xc
 .text.pc_aarch64
                0x00000000005090a0        0x8 0x4 /usr/local/popcorn/aarch64//lib/libstack-transform.a(regs.o)
 ** zero fill   0x00000000005090a8        0x8
 .text.sp_aarch64
                0x00000000005090b0        0x8 0x4 /usr/local/popcorn/aarch64//lib/libstack-transform.a(regs.o)
 ** zero fill   0x00000000005090b8        0x8
 .text.fbp_aarch64
                0x00000000005090c0        0x8 0x4 /usr/local/popcorn/aarch64//lib/libstack-transform.a(regs.o)
 ** zero fill   0x00000000005090c8        0x8
 .text.ra_reg_aarch64
                0x00000000005090d0        0x8 0x4 /usr/local/popcorn/aarch64//lib/libstack-transform.a(regs.o)
 ** zero fill   0x00000000005090d8        0x8
 .text.set_pc_aarch64
                0x00000000005090e0        0x8 0x4 /usr/local/popcorn/aarch64//lib/libstack-transform.a(regs.o)
 ** zero fill   0x00000000005090e8        0x8
 .text.set_sp_aarch64
                0x00000000005090f0        0x8 0x4 /usr/local/popcorn/aarch64//lib/libstack-transform.a(regs.o)
 ** zero fill   0x00000000005090f8        0x8
 .text.set_fbp_aarch64
                0x0000000000509100        0x8 0x4 /usr/local/popcorn/aarch64//lib/libstack-transform.a(regs.o)
 ** zero fill   0x0000000000509108        0x8
 .text.set_ra_reg_aarch64
                0x0000000000509110        0x8 0x4 /usr/local/popcorn/aarch64//lib/libstack-transform.a(regs.o)
 ** zero fill   0x0000000000509118        0x8
 .text.setup_fbp_aarch64
                0x0000000000509120        0xc 0x4 /usr/local/popcorn/aarch64//lib/libstack-transform.a(regs.o)
 ** zero fill   0x000000000050912c        0x4
 .text.reg_size_aarch64
                0x0000000000509130       0x54 0x4 /usr/local/popcorn/aarch64//lib/libstack-transform.a(regs.o)
 ** zero fill   0x0000000000509184        0xc
 .text.reg_aarch64
                0x0000000000509190      0x344 0x4 /usr/local/popcorn/aarch64//lib/libstack-transform.a(regs.o)
 ** zero fill   0x00000000005094d4        0xc
 .text.align_sp_x86_64
                0x00000000005094e0       0x14 0x4 /usr/local/popcorn/aarch64//lib/libstack-transform.a(properties.o)
 ** zero fill   0x00000000005094f4        0xc
 .text.is_callee_saved_x86_64
                0x0000000000509500       0x2c 0x4 /usr/local/popcorn/aarch64//lib/libstack-transform.a(properties.o)
 ** zero fill   0x000000000050952c        0x4
 .text.callee_reg_size_x86_64
                0x0000000000509530       0x54 0x4 /usr/local/popcorn/aarch64//lib/libstack-transform.a(properties.o)
 ** zero fill   0x0000000000509584        0xc
 .text.regset_default_x86_64
                0x0000000000509590       0x2c 0x4 /usr/local/popcorn/aarch64//lib/libstack-transform.a(regs.o)
 ** zero fill   0x00000000005095bc        0x4
 .text.regset_init_x86_64
                0x00000000005095c0       0x40 0x4 /usr/local/popcorn/aarch64//lib/libstack-transform.a(regs.o)
 .text.regset_free_x86_64
                0x0000000000509600        0x4 0x4 /usr/local/popcorn/aarch64//lib/libstack-transform.a(regs.o)
 ** zero fill   0x0000000000509604        0x1
 ** zero fill   0x0000000000509605        0xb
 .text.regset_clone_x86_64
                0x0000000000509610       0x14 0x4 /usr/local/popcorn/aarch64//lib/libstack-transform.a(regs.o)
 ** zero fill   0x0000000000509624        0xc
 .text.regset_copyin_x86_64
                0x0000000000509630       0x10 0x4 /usr/local/popcorn/aarch64//lib/libstack-transform.a(regs.o)
 ** zero fill   0x0000000000509640        0x1
 ** zero fill   0x0000000000509641        0xf
 .text.regset_copyout_x86_64
                0x0000000000509650       0x14 0x4 /usr/local/popcorn/aarch64//lib/libstack-transform.a(regs.o)
 ** zero fill   0x0000000000509664        0xc
 .text.pc_x86_64
                0x0000000000509670        0x8 0x4 /usr/local/popcorn/aarch64//lib/libstack-transform.a(regs.o)
 ** zero fill   0x0000000000509678        0x8
 .text.sp_x86_64
                0x0000000000509680        0x8 0x4 /usr/local/popcorn/aarch64//lib/libstack-transform.a(regs.o)
 ** zero fill   0x0000000000509688        0x8
 .text.fbp_x86_64
                0x0000000000509690        0x8 0x4 /usr/local/popcorn/aarch64//lib/libstack-transform.a(regs.o)
 ** zero fill   0x0000000000509698        0x8
 .text.ra_reg_x86_64
                0x00000000005096a0       0x2c 0x4 /usr/local/popcorn/aarch64//lib/libstack-transform.a(regs.o)
 ** zero fill   0x00000000005096cc        0x4
 .text.set_pc_x86_64
                0x00000000005096d0        0x8 0x4 /usr/local/popcorn/aarch64//lib/libstack-transform.a(regs.o)
 ** zero fill   0x00000000005096d8        0x8
 .text.set_sp_x86_64
                0x00000000005096e0        0x8 0x4 /usr/local/popcorn/aarch64//lib/libstack-transform.a(regs.o)
 ** zero fill   0x00000000005096e8        0x8
 .text.set_fbp_x86_64
                0x00000000005096f0        0x8 0x4 /usr/local/popcorn/aarch64//lib/libstack-transform.a(regs.o)
 ** zero fill   0x00000000005096f8        0x8
 .text.set_ra_reg_x86_64
                0x0000000000509700       0x2c 0x4 /usr/local/popcorn/aarch64//lib/libstack-transform.a(regs.o)
 ** zero fill   0x000000000050972c        0x4
 .text.setup_fbp_x86_64
                0x0000000000509730        0xc 0x4 /usr/local/popcorn/aarch64//lib/libstack-transform.a(regs.o)
 ** zero fill   0x000000000050973c        0x4
 .text.reg_size_x86_64
                0x0000000000509740       0x50 0x4 /usr/local/popcorn/aarch64//lib/libstack-transform.a(regs.o)
 .text.reg_x86_64
                0x0000000000509790      0x1d0 0x4 /usr/local/popcorn/aarch64//lib/libstack-transform.a(regs.o)
 .text.put_val  0x0000000000509960      0x258 0x4 /usr/local/popcorn/aarch64//lib/libstack-transform.a(data.o)
                0x0000000000509960                put_val
 ** zero fill   0x0000000000509bb8        0x8
 .text.get_dest_loc
                0x0000000000509bc0       0xdc 0x4 /usr/local/popcorn/aarch64//lib/libstack-transform.a(data.o)
 ** zero fill   0x0000000000509c9c        0x4
 .text.put_val_arch
                0x0000000000509ca0      0x2dc 0x4 /usr/local/popcorn/aarch64//lib/libstack-transform.a(data.o)
                0x0000000000509ca0                put_val_arch
 ** zero fill   0x0000000000509f7c        0x4
 .text.put_val_data
                0x0000000000509f80      0x118 0x4 /usr/local/popcorn/aarch64//lib/libstack-transform.a(data.o)
                0x0000000000509f80                put_val_data
 ** zero fill   0x000000000050a098        0x8
 .text.points_to_stack
                0x000000000050a0a0      0x138 0x4 /usr/local/popcorn/aarch64//lib/libstack-transform.a(data.o)
                0x000000000050a0a0                points_to_stack
 ** zero fill   0x000000000050a1d8        0x8
 .text.points_to_data
                0x000000000050a1e0      0x1a0 0x4 /usr/local/popcorn/aarch64//lib/libstack-transform.a(data.o)
                0x000000000050a1e0                points_to_data
 .text.set_return_address
                0x000000000050a380       0x24 0x4 /usr/local/popcorn/aarch64//lib/libstack-transform.a(data.o)
                0x000000000050a380                set_return_address
 ** zero fill   0x000000000050a3a4        0xc
 .text.set_return_address_funcentry
                0x000000000050a3b0       0x44 0x4 /usr/local/popcorn/aarch64//lib/libstack-transform.a(data.o)
                0x000000000050a3b0                set_return_address_funcentry
 ** zero fill   0x000000000050a3f4        0xc
 .text.get_savedfbp_loc
                0x000000000050a400       0x24 0x4 /usr/local/popcorn/aarch64//lib/libstack-transform.a(data.o)
                0x000000000050a400                get_savedfbp_loc
 ** zero fill   0x000000000050a424        0xc
 .text.elf_begin
                0x000000000050a430     0x10d4 0x4 /usr/local/popcorn/aarch64//lib/libelf.a(begin.o)
                0x000000000050a430                elf_begin
 ** zero fill   0x000000000050b504       0xbd
 ** zero fill   0x000000000050b5c1        0xf
 .text.elf_memory
                0x000000000050b5d0      0x3b0 0x4 /usr/local/popcorn/aarch64//lib/libelf.a(begin.o)
                0x000000000050b5d0                elf_memory
 .text.gelf_getclass
                0x000000000050b980       0x34 0x4 /usr/local/popcorn/aarch64//lib/libelf.a(begin.o)
                0x000000000050b980                gelf_getclass
 ** zero fill   0x000000000050b9b4        0xc
 .text.elf_end  0x000000000050b9c0      0x1d0 0x4 /usr/local/popcorn/aarch64//lib/libelf.a(end.o)
                0x000000000050b9c0                elf_end
 ** zero fill   0x000000000050bb90       0x3d
 ** zero fill   0x000000000050bbcd        0x3
 .text.elf_getdata
                0x000000000050bbd0      0x2e0 0x4 /usr/local/popcorn/aarch64//lib/libelf.a(getdata.o)
                0x000000000050bbd0                elf_getdata
 .text.elf_getident
                0x000000000050beb0       0x94 0x4 /usr/local/popcorn/aarch64//lib/libelf.a(getident.o)
                0x000000000050beb0                elf_getident
 ** zero fill   0x000000000050bf44        0xc
 .text.elf_nextscn
                0x000000000050bf50       0xbc 0x4 /usr/local/popcorn/aarch64//lib/libelf.a(nextscn.o)
                0x000000000050bf50                elf_nextscn
 ** zero fill   0x000000000050c00c        0x4
 .text.elf_strptr
                0x000000000050c010      0x1a4 0x4 /usr/local/popcorn/aarch64//lib/libelf.a(strptr.o)
                0x000000000050c010                elf_strptr
 ** zero fill   0x000000000050c1b4        0xc
 .text.elf_version
                0x000000000050c1c0       0x80 0x4 /usr/local/popcorn/aarch64//lib/libelf.a(version.o)
                0x000000000050c1c0                elf_version
 .text._elf_getehdr
                0x000000000050c240       0x9c 0x4 /usr/local/popcorn/aarch64//lib/libelf.a(32.getehdr.o)
                0x000000000050c240                _elf_getehdr
 ** zero fill   0x000000000050c2dc        0x4
 .text.elf32_getehdr
                0x000000000050c2e0       0x9c 0x4 /usr/local/popcorn/aarch64//lib/libelf.a(32.getehdr.o)
                0x000000000050c2e0                elf32_getehdr
 ** zero fill   0x000000000050c37c        0x4
 .text.elf64_getehdr
                0x000000000050c380       0x9c 0x4 /usr/local/popcorn/aarch64//lib/libelf.a(32.getehdr.o)
                0x000000000050c380                elf64_getehdr
 ** zero fill   0x000000000050c41c        0x4
 .text.addr_32L__tom
                0x000000000050c420      0x208 0x4 /usr/local/popcorn/aarch64//lib/libelf.a(32.xlatetof.o)
 ** zero fill   0x000000000050c628      0x182
 ** zero fill   0x000000000050c7aa        0x6
 .text.addr_32L__tof
                0x000000000050c7b0      0x1d8 0x4 /usr/local/popcorn/aarch64//lib/libelf.a(32.xlatetof.o)
 ** zero fill   0x000000000050c988      0x1a2
 ** zero fill   0x000000000050cb2a        0x6
 .text.addr_32M__tom
                0x000000000050cb30      0x208 0x4 /usr/local/popcorn/aarch64//lib/libelf.a(32.xlatetof.o)
 ** zero fill   0x000000000050cd38      0x173
 ** zero fill   0x000000000050ceab        0x5
 .text.addr_32M__tof
                0x000000000050ceb0      0x1e0 0x4 /usr/local/popcorn/aarch64//lib/libelf.a(32.xlatetof.o)
 ** zero fill   0x000000000050d090      0x19a
 ** zero fill   0x000000000050d22a        0x6
 .text.half_32L__tom
                0x000000000050d230      0x2d0 0x4 /usr/local/popcorn/aarch64//lib/libelf.a(32.xlatetof.o)
 ** zero fill   0x000000000050d500       0x2a
 ** zero fill   0x000000000050d52a        0x6
 .text.half_32L__tof
                0x000000000050d530      0x290 0x4 /usr/local/popcorn/aarch64//lib/libelf.a(32.xlatetof.o)
 ** zero fill   0x000000000050d7c0       0x26
 ** zero fill   0x000000000050d7e6        0xa
 .text.half_32M__tom
                0x000000000050d7f0      0x2d4 0x4 /usr/local/popcorn/aarch64//lib/libelf.a(32.xlatetof.o)
 ** zero fill   0x000000000050dac4       0x26
 ** zero fill   0x000000000050daea        0x6
 .text.half_32M__tof
                0x000000000050daf0      0x294 0x4 /usr/local/popcorn/aarch64//lib/libelf.a(32.xlatetof.o)
 ** zero fill   0x000000000050dd84       0x22
 ** zero fill   0x000000000050dda6        0xa
 .text.off_32L__tom
                0x000000000050ddb0      0x208 0x4 /usr/local/popcorn/aarch64//lib/libelf.a(32.xlatetof.o)
 ** zero fill   0x000000000050dfb8      0x182
 ** zero fill   0x000000000050e13a        0x6
 .text.off_32L__tof
                0x000000000050e140      0x1d8 0x4 /usr/local/popcorn/aarch64//lib/libelf.a(32.xlatetof.o)
 ** zero fill   0x000000000050e318      0x1a2
 ** zero fill   0x000000000050e4ba        0x6
 .text.off_32M__tom
                0x000000000050e4c0      0x208 0x4 /usr/local/popcorn/aarch64//lib/libelf.a(32.xlatetof.o)
 ** zero fill   0x000000000050e6c8      0x173
 ** zero fill   0x000000000050e83b        0x5
 .text.off_32M__tof
                0x000000000050e840      0x1e0 0x4 /usr/local/popcorn/aarch64//lib/libelf.a(32.xlatetof.o)
 ** zero fill   0x000000000050ea20      0x19a
 ** zero fill   0x000000000050ebba        0x6
 .text.sword_32L__tom
                0x000000000050ebc0      0x22c 0x4 /usr/local/popcorn/aarch64//lib/libelf.a(32.xlatetof.o)
 ** zero fill   0x000000000050edec      0x23b
 ** zero fill   0x000000000050f027        0x9
 .text.sword_32L__tof
                0x000000000050f030      0x1d8 0x4 /usr/local/popcorn/aarch64//lib/libelf.a(32.xlatetof.o)
 ** zero fill   0x000000000050f208      0x1a2
 ** zero fill   0x000000000050f3aa        0x6
 .text.sword_32M__tom
                0x000000000050f3b0      0x224 0x4 /usr/local/popcorn/aarch64//lib/libelf.a(32.xlatetof.o)
 ** zero fill   0x000000000050f5d4      0x243
 ** zero fill   0x000000000050f817        0x9
 .text.sword_32M__tof
                0x000000000050f820      0x1e0 0x4 /usr/local/popcorn/aarch64//lib/libelf.a(32.xlatetof.o)
 ** zero fill   0x000000000050fa00      0x19a
 ** zero fill   0x000000000050fb9a        0x6
 .text.word_32L__tom
                0x000000000050fba0      0x208 0x4 /usr/local/popcorn/aarch64//lib/libelf.a(32.xlatetof.o)
 ** zero fill   0x000000000050fda8      0x182
 ** zero fill   0x000000000050ff2a        0x6
 .text.word_32L__tof
                0x000000000050ff30      0x1d8 0x4 /usr/local/popcorn/aarch64//lib/libelf.a(32.xlatetof.o)
 ** zero fill   0x0000000000510108      0x1a2
 ** zero fill   0x00000000005102aa        0x6
 .text.word_32M__tom
                0x00000000005102b0      0x208 0x4 /usr/local/popcorn/aarch64//lib/libelf.a(32.xlatetof.o)
 ** zero fill   0x00000000005104b8      0x173
 ** zero fill   0x000000000051062b        0x5
 .text.word_32M__tof
                0x0000000000510630      0x1e0 0x4 /usr/local/popcorn/aarch64//lib/libelf.a(32.xlatetof.o)
 ** zero fill   0x0000000000510810      0x19a
 ** zero fill   0x00000000005109aa        0x6
 .text.dyn_32L11_tom
                0x00000000005109b0       0x74 0x4 /usr/local/popcorn/aarch64//lib/libelf.a(32.xlatetof.o)
 ** zero fill   0x0000000000510a24        0xc
 .text.dyn_32L11_tof
                0x0000000000510a30      0x400 0x4 /usr/local/popcorn/aarch64//lib/libelf.a(32.xlatetof.o)
 ** zero fill   0x0000000000510e30      0x307
 ** zero fill   0x0000000000511137        0x9
 .text.dyn_32M11_tom
                0x0000000000511140       0x74 0x4 /usr/local/popcorn/aarch64//lib/libelf.a(32.xlatetof.o)
 ** zero fill   0x00000000005111b4        0xb
 ** zero fill   0x00000000005111bf        0x1
 .text.dyn_32M11_tof
                0x00000000005111c0      0x400 0x4 /usr/local/popcorn/aarch64//lib/libelf.a(32.xlatetof.o)
 ** zero fill   0x00000000005115c0      0x2f7
 ** zero fill   0x00000000005118b7        0x9
 .text.phdr_32L11_tom
                0x00000000005118c0     0x21f4 0x4 /usr/local/popcorn/aarch64//lib/libelf.a(32.xlatetof.o)
 ** zero fill   0x0000000000513ab4     0x13d4
 ** zero fill   0x0000000000514e88        0x8
 .text.phdr_32L11_tof
                0x0000000000514e90     0x1904 0x4 /usr/local/popcorn/aarch64//lib/libelf.a(32.xlatetof.o)
 ** zero fill   0x0000000000516794      0xf61
 ** zero fill   0x00000000005176f5        0xb
 .text.phdr_32M11_tom
                0x0000000000517700     0x21f0 0x4 /usr/local/popcorn/aarch64//lib/libelf.a(32.xlatetof.o)
 ** zero fill   0x00000000005198f0     0x1438
 ** zero fill   0x000000000051ad28        0x8
 .text.phdr_32M11_tof
                0x000000000051ad30     0x18f4 0x4 /usr/local/popcorn/aarch64//lib/libelf.a(32.xlatetof.o)
 ** zero fill   0x000000000051c624      0xfc9
 ** zero fill   0x000000000051d5ed        0x3
 .text.rela_32L11_tom
                0x000000000051d5f0       0xa8 0x4 /usr/local/popcorn/aarch64//lib/libelf.a(32.xlatetof.o)
 ** zero fill   0x000000000051d698       0x18
 .text.rela_32L11_tof
                0x000000000051d6b0       0xa8 0x4 /usr/local/popcorn/aarch64//lib/libelf.a(32.xlatetof.o)
 ** zero fill   0x000000000051d758        0x8
 .text.rela_32M11_tom
                0x000000000051d760       0xa8 0x4 /usr/local/popcorn/aarch64//lib/libelf.a(32.xlatetof.o)
 ** zero fill   0x000000000051d808       0x17
 ** zero fill   0x000000000051d81f        0x1
 .text.rela_32M11_tof
                0x000000000051d820       0xa8 0x4 /usr/local/popcorn/aarch64//lib/libelf.a(32.xlatetof.o)
 ** zero fill   0x000000000051d8c8        0x8
 .text.rel_32L11_tom
                0x000000000051d8d0      0x408 0x4 /usr/local/popcorn/aarch64//lib/libelf.a(32.xlatetof.o)
 ** zero fill   0x000000000051dcd8      0x3d2
 ** zero fill   0x000000000051e0aa        0x6
 .text.rel_32L11_tof
                0x000000000051e0b0      0x3c4 0x4 /usr/local/popcorn/aarch64//lib/libelf.a(32.xlatetof.o)
 ** zero fill   0x000000000051e474      0x353
 ** zero fill   0x000000000051e7c7        0x9
 .text.rel_32M11_tom
                0x000000000051e7d0      0x408 0x4 /usr/local/popcorn/aarch64//lib/libelf.a(32.xlatetof.o)
 ** zero fill   0x000000000051ebd8      0x3d1
 ** zero fill   0x000000000051efa9        0x7
 .text.rel_32M11_tof
                0x000000000051efb0      0x3c4 0x4 /usr/local/popcorn/aarch64//lib/libelf.a(32.xlatetof.o)
 ** zero fill   0x000000000051f374      0x353
 ** zero fill   0x000000000051f6c7        0x9
 .text.shdr_32L11_tom
                0x000000000051f6d0      0x1a4 0x4 /usr/local/popcorn/aarch64//lib/libelf.a(32.xlatetof.o)
 ** zero fill   0x000000000051f874       0x16
 ** zero fill   0x000000000051f88a        0x6
 .text.shdr_32L11_tof
                0x000000000051f890      0x1a4 0x4 /usr/local/popcorn/aarch64//lib/libelf.a(32.xlatetof.o)
 ** zero fill   0x000000000051fa34        0xc
 .text.shdr_32M11_tom
                0x000000000051fa40      0x1a4 0x4 /usr/local/popcorn/aarch64//lib/libelf.a(32.xlatetof.o)
 ** zero fill   0x000000000051fbe4       0x16
 ** zero fill   0x000000000051fbfa        0x6
 .text.shdr_32M11_tof
                0x000000000051fc00      0x1a4 0x4 /usr/local/popcorn/aarch64//lib/libelf.a(32.xlatetof.o)
 ** zero fill   0x000000000051fda4        0xc
 .text.sym_32L11_tom
                0x000000000051fdb0       0xbc 0x4 /usr/local/popcorn/aarch64//lib/libelf.a(32.xlatetof.o)
 ** zero fill   0x000000000051fe6c        0xf
 ** zero fill   0x000000000051fe7b        0x5
 .text.sym_32L11_tof
                0x000000000051fe80       0xb8 0x4 /usr/local/popcorn/aarch64//lib/libelf.a(32.xlatetof.o)
 ** zero fill   0x000000000051ff38        0x8
 .text.sym_32M11_tom
                0x000000000051ff40       0xbc 0x4 /usr/local/popcorn/aarch64//lib/libelf.a(32.xlatetof.o)
 ** zero fill   0x000000000051fffc        0xe
 ** zero fill   0x000000000052000a        0x6
 .text.sym_32M11_tof
                0x0000000000520010       0xb8 0x4 /usr/local/popcorn/aarch64//lib/libelf.a(32.xlatetof.o)
 ** zero fill   0x00000000005200c8        0x8
 .text.ehdr_32M11_tom
                0x00000000005200d0      0x2d4 0x4 /usr/local/popcorn/aarch64//lib/libelf.a(32.xlatetof.o)
 ** zero fill   0x00000000005203a4        0xc
 .text.byte_copy
                0x00000000005203b0      0x648 0x4 /usr/local/popcorn/aarch64//lib/libelf.a(32.xlatetof.o)
 ** zero fill   0x00000000005209f8        0x8
 .text.ehdr_32L11_tom
                0x0000000000520a00      0x2d4 0x4 /usr/local/popcorn/aarch64//lib/libelf.a(32.xlatetof.o)
 ** zero fill   0x0000000000520cd4        0xc
 .text.ehdr_32M11_tof
                0x0000000000520ce0      0x2b4 0x4 /usr/local/popcorn/aarch64//lib/libelf.a(32.xlatetof.o)
 ** zero fill   0x0000000000520f94        0xc
 .text.ehdr_32L11_tof
                0x0000000000520fa0      0x2b4 0x4 /usr/local/popcorn/aarch64//lib/libelf.a(32.xlatetof.o)
 ** zero fill   0x0000000000521254        0xc
 .text._elf32_xltsize
                0x0000000000521260       0xc0 0x4 /usr/local/popcorn/aarch64//lib/libelf.a(32.xlatetof.o)
                0x0000000000521260                _elf32_xltsize
 .text.elf32_xlatetom
                0x0000000000521320      0x170 0x4 /usr/local/popcorn/aarch64//lib/libelf.a(32.xlatetof.o)
                0x0000000000521320                elf32_xlatetom
 .text.elf32_xlatetof
                0x0000000000521490      0x174 0x4 /usr/local/popcorn/aarch64//lib/libelf.a(32.xlatetof.o)
                0x0000000000521490                elf32_xlatetof
 ** zero fill   0x0000000000521604        0xc
 .text._elf_item
                0x0000000000521610      0x1d0 0x4 /usr/local/popcorn/aarch64//lib/libelf.a(cook.o)
 ** zero fill   0x00000000005217e0        0xe
 ** zero fill   0x00000000005217ee        0x2
 .text._elf_scn_type
                0x00000000005217f0       0xc8 0x4 /usr/local/popcorn/aarch64//lib/libelf.a(cook.o)
                0x00000000005217f0                _elf_scn_type
 ** zero fill   0x00000000005218b8        0x8
 .text._elf_xlatetom
                0x00000000005218c0       0x4c 0x4 /usr/local/popcorn/aarch64//lib/libelf.a(cook.o)
                0x00000000005218c0                _elf_xlatetom
 ** zero fill   0x000000000052190c        0x4
 .text._elf_cook
                0x0000000000521910      0x628 0x4 /usr/local/popcorn/aarch64//lib/libelf.a(cook.o)
                0x0000000000521910                _elf_cook
 ** zero fill   0x0000000000521f38       0x77
 ** zero fill   0x0000000000521faf        0x1
 .text._elf_read
                0x0000000000521fb0      0x160 0x4 /usr/local/popcorn/aarch64//lib/libelf.a(input.o)
                0x0000000000521fb0                _elf_read
 .text._elf_mmap
                0x0000000000522110        0x8 0x4 /usr/local/popcorn/aarch64//lib/libelf.a(input.o)
                0x0000000000522110                _elf_mmap
 ** zero fill   0x0000000000522118       0x5b
 ** zero fill   0x0000000000522173        0xd
 .text.elf_getphdrnum
                0x0000000000522180       0x74 0x4 /usr/local/popcorn/aarch64//lib/libelf.a(x.elfext.o)
                0x0000000000522180                elf_getphdrnum
 ** zero fill   0x00000000005221f4        0xc
 .text.elf_getshdrnum
                0x0000000000522200       0x84 0x4 /usr/local/popcorn/aarch64//lib/libelf.a(x.elfext.o)
                0x0000000000522200                elf_getshdrnum
 ** zero fill   0x0000000000522284        0xc
 .text.elf_getshdrstrndx
                0x0000000000522290      0x118 0x4 /usr/local/popcorn/aarch64//lib/libelf.a(x.elfext.o)
                0x0000000000522290                elf_getshdrstrndx
 ** zero fill   0x00000000005223a8        0x8
 .text.elf_getphnum
                0x00000000005223b0       0x70 0x4 /usr/local/popcorn/aarch64//lib/libelf.a(x.elfext.o)
                0x00000000005223b0                elf_getphnum
 .text.elf_getshnum
                0x0000000000522420       0x80 0x4 /usr/local/popcorn/aarch64//lib/libelf.a(x.elfext.o)
                0x0000000000522420                elf_getshnum
 .text.elf_getshstrndx
                0x00000000005224a0      0x114 0x4 /usr/local/popcorn/aarch64//lib/libelf.a(x.elfext.o)
                0x00000000005224a0                elf_getshstrndx
 ** zero fill   0x00000000005225b4        0xc
 .text.elfx_update_shstrndx
                0x00000000005225c0      0x118 0x4 /usr/local/popcorn/aarch64//lib/libelf.a(x.elfext.o)
                0x00000000005225c0                elfx_update_shstrndx
 ** zero fill   0x00000000005226d8        0x8
 .text.half_64L__tom
                0x00000000005226e0      0x2d0 0x4 /usr/local/popcorn/aarch64//lib/libelf.a(64.xlatetof.o)
 ** zero fill   0x00000000005229b0       0x2a
 ** zero fill   0x00000000005229da        0x6
 .text.half_64L__tof
                0x00000000005229e0      0x290 0x4 /usr/local/popcorn/aarch64//lib/libelf.a(64.xlatetof.o)
 ** zero fill   0x0000000000522c70       0x26
 ** zero fill   0x0000000000522c96        0xa
 .text.half_64M__tom
                0x0000000000522ca0      0x2d4 0x4 /usr/local/popcorn/aarch64//lib/libelf.a(64.xlatetof.o)
 ** zero fill   0x0000000000522f74       0x26
 ** zero fill   0x0000000000522f9a        0x6
 .text.half_64M__tof
                0x0000000000522fa0      0x294 0x4 /usr/local/popcorn/aarch64//lib/libelf.a(64.xlatetof.o)
 ** zero fill   0x0000000000523234       0x22
 ** zero fill   0x0000000000523256        0xa
 .text.sword_64L__tom
                0x0000000000523260      0x22c 0x4 /usr/local/popcorn/aarch64//lib/libelf.a(64.xlatetof.o)
 ** zero fill   0x000000000052348c      0x23b
 ** zero fill   0x00000000005236c7        0x9
 .text.sword_64L__tof
                0x00000000005236d0      0x1d8 0x4 /usr/local/popcorn/aarch64//lib/libelf.a(64.xlatetof.o)
 ** zero fill   0x00000000005238a8      0x1a2
 ** zero fill   0x0000000000523a4a        0x6
 .text.sword_64M__tom
                0x0000000000523a50      0x224 0x4 /usr/local/popcorn/aarch64//lib/libelf.a(64.xlatetof.o)
 ** zero fill   0x0000000000523c74      0x243
 ** zero fill   0x0000000000523eb7        0x9
 .text.sword_64M__tof
                0x0000000000523ec0      0x1e0 0x4 /usr/local/popcorn/aarch64//lib/libelf.a(64.xlatetof.o)
 ** zero fill   0x00000000005240a0      0x19a
 ** zero fill   0x000000000052423a        0x6
 .text.word_64L__tom
                0x0000000000524240      0x208 0x4 /usr/local/popcorn/aarch64//lib/libelf.a(64.xlatetof.o)
 ** zero fill   0x0000000000524448      0x182
 ** zero fill   0x00000000005245ca        0x6
 .text.word_64L__tof
                0x00000000005245d0      0x1d8 0x4 /usr/local/popcorn/aarch64//lib/libelf.a(64.xlatetof.o)
 ** zero fill   0x00000000005247a8      0x1a2
 ** zero fill   0x000000000052494a        0x6
 .text.word_64M__tom
                0x0000000000524950      0x208 0x4 /usr/local/popcorn/aarch64//lib/libelf.a(64.xlatetof.o)
 ** zero fill   0x0000000000524b58      0x173
 ** zero fill   0x0000000000524ccb        0x5
 .text.word_64M__tof
                0x0000000000524cd0      0x1e0 0x4 /usr/local/popcorn/aarch64//lib/libelf.a(64.xlatetof.o)
 ** zero fill   0x0000000000524eb0      0x19a
 ** zero fill   0x000000000052504a        0x6
 .text.elf64_xlate
                0x0000000000525050      0x178 0x4 /usr/local/popcorn/aarch64//lib/libelf.a(64.xlatetof.o)
 ** zero fill   0x00000000005251c8        0x8
 .text.xword_64M__tof
                0x00000000005251d0       0x58 0x4 /usr/local/popcorn/aarch64//lib/libelf.a(64.xlatetof.o)
 ** zero fill   0x0000000000525228        0x8
 .text.sym_64M11_tof
                0x0000000000525230       0xbc 0x4 /usr/local/popcorn/aarch64//lib/libelf.a(64.xlatetof.o)
 ** zero fill   0x00000000005252ec        0x4
 .text.shdr_64M11_tof
                0x00000000005252f0      0x128 0x4 /usr/local/popcorn/aarch64//lib/libelf.a(64.xlatetof.o)
 ** zero fill   0x0000000000525418        0x8
 .text.rel_64M11_tof
                0x0000000000525420       0x68 0x4 /usr/local/popcorn/aarch64//lib/libelf.a(64.xlatetof.o)
 ** zero fill   0x0000000000525488        0x8
 .text.phdr_64M11_tof
                0x0000000000525490       0xf8 0x4 /usr/local/popcorn/aarch64//lib/libelf.a(64.xlatetof.o)
 ** zero fill   0x0000000000525588        0x5
 ** zero fill   0x000000000052558d        0x3
 .text.off_64M__tof
                0x0000000000525590       0x58 0x4 /usr/local/popcorn/aarch64//lib/libelf.a(64.xlatetof.o)
 ** zero fill   0x00000000005255e8        0x8
 .text.dyn_64M11_tof
                0x00000000005255f0       0x68 0x4 /usr/local/popcorn/aarch64//lib/libelf.a(64.xlatetof.o)
 ** zero fill   0x0000000000525658        0x8
 .text.addr_64M__tof
                0x0000000000525660       0x58 0x4 /usr/local/popcorn/aarch64//lib/libelf.a(64.xlatetof.o)
 ** zero fill   0x00000000005256b8        0x8
 .text.xword_64M__tom
                0x00000000005256c0       0x58 0x4 /usr/local/popcorn/aarch64//lib/libelf.a(64.xlatetof.o)
 ** zero fill   0x0000000000525718        0x8
 .text.sym_64M11_tom
                0x0000000000525720       0xc0 0x4 /usr/local/popcorn/aarch64//lib/libelf.a(64.xlatetof.o)
 .text.shdr_64M11_tom
                0x00000000005257e0      0x128 0x4 /usr/local/popcorn/aarch64//lib/libelf.a(64.xlatetof.o)
 ** zero fill   0x0000000000525908        0xa
 ** zero fill   0x0000000000525912        0xe
 .text.rel_64M11_tom
                0x0000000000525920       0x68 0x4 /usr/local/popcorn/aarch64//lib/libelf.a(64.xlatetof.o)
 ** zero fill   0x0000000000525988        0x8
 .text.phdr_64M11_tom
                0x0000000000525990       0xf8 0x4 /usr/local/popcorn/aarch64//lib/libelf.a(64.xlatetof.o)
 ** zero fill   0x0000000000525a88        0xd
 ** zero fill   0x0000000000525a95        0xb
 .text.off_64M__tom
                0x0000000000525aa0       0x58 0x4 /usr/local/popcorn/aarch64//lib/libelf.a(64.xlatetof.o)
 ** zero fill   0x0000000000525af8        0x8
 .text.dyn_64M11_tom
                0x0000000000525b00       0x68 0x4 /usr/local/popcorn/aarch64//lib/libelf.a(64.xlatetof.o)
 ** zero fill   0x0000000000525b68        0x8
 .text.addr_64M__tom
                0x0000000000525b70       0x58 0x4 /usr/local/popcorn/aarch64//lib/libelf.a(64.xlatetof.o)
 ** zero fill   0x0000000000525bc8        0x8
 .text.sxword_64M__tof
                0x0000000000525bd0       0x58 0x4 /usr/local/popcorn/aarch64//lib/libelf.a(64.xlatetof.o)
 ** zero fill   0x0000000000525c28        0x8
 .text.rela_64M11_tof
                0x0000000000525c30       0x84 0x4 /usr/local/popcorn/aarch64//lib/libelf.a(64.xlatetof.o)
 ** zero fill   0x0000000000525cb4        0xc
 .text.sxword_64M__tom
                0x0000000000525cc0       0x58 0x4 /usr/local/popcorn/aarch64//lib/libelf.a(64.xlatetof.o)
 ** zero fill   0x0000000000525d18        0x8
 .text.rela_64M11_tom
                0x0000000000525d20       0x84 0x4 /usr/local/popcorn/aarch64//lib/libelf.a(64.xlatetof.o)
 ** zero fill   0x0000000000525da4        0xc
 .text.xword_64L__tof
                0x0000000000525db0       0x58 0x4 /usr/local/popcorn/aarch64//lib/libelf.a(64.xlatetof.o)
 ** zero fill   0x0000000000525e08        0x8
 .text.sym_64L11_tof
                0x0000000000525e10       0xbc 0x4 /usr/local/popcorn/aarch64//lib/libelf.a(64.xlatetof.o)
 ** zero fill   0x0000000000525ecc        0x4
 .text.shdr_64L11_tof
                0x0000000000525ed0      0x128 0x4 /usr/local/popcorn/aarch64//lib/libelf.a(64.xlatetof.o)
 ** zero fill   0x0000000000525ff8        0x8
 .text.rel_64L11_tof
                0x0000000000526000       0x68 0x4 /usr/local/popcorn/aarch64//lib/libelf.a(64.xlatetof.o)
 ** zero fill   0x0000000000526068        0x8
 .text.phdr_64L11_tof
                0x0000000000526070       0xf8 0x4 /usr/local/popcorn/aarch64//lib/libelf.a(64.xlatetof.o)
 ** zero fill   0x0000000000526168        0x5
 ** zero fill   0x000000000052616d        0x3
 .text.off_64L__tof
                0x0000000000526170       0x58 0x4 /usr/local/popcorn/aarch64//lib/libelf.a(64.xlatetof.o)
 ** zero fill   0x00000000005261c8        0x8
 .text.dyn_64L11_tof
                0x00000000005261d0       0x68 0x4 /usr/local/popcorn/aarch64//lib/libelf.a(64.xlatetof.o)
 ** zero fill   0x0000000000526238        0x8
 .text.addr_64L__tof
                0x0000000000526240       0x58 0x4 /usr/local/popcorn/aarch64//lib/libelf.a(64.xlatetof.o)
 ** zero fill   0x0000000000526298        0x8
 .text.xword_64L__tom
                0x00000000005262a0       0x58 0x4 /usr/local/popcorn/aarch64//lib/libelf.a(64.xlatetof.o)
 ** zero fill   0x00000000005262f8        0x8
 .text.sym_64L11_tom
                0x0000000000526300       0xc0 0x4 /usr/local/popcorn/aarch64//lib/libelf.a(64.xlatetof.o)
 .text.shdr_64L11_tom
                0x00000000005263c0      0x128 0x4 /usr/local/popcorn/aarch64//lib/libelf.a(64.xlatetof.o)
 ** zero fill   0x00000000005264e8        0xa
 ** zero fill   0x00000000005264f2        0xe
 .text.rel_64L11_tom
                0x0000000000526500       0x68 0x4 /usr/local/popcorn/aarch64//lib/libelf.a(64.xlatetof.o)
 ** zero fill   0x0000000000526568        0x8
 .text.phdr_64L11_tom
                0x0000000000526570       0xf8 0x4 /usr/local/popcorn/aarch64//lib/libelf.a(64.xlatetof.o)
 ** zero fill   0x0000000000526668        0xd
 ** zero fill   0x0000000000526675        0xb
 .text.off_64L__tom
                0x0000000000526680       0x58 0x4 /usr/local/popcorn/aarch64//lib/libelf.a(64.xlatetof.o)
 ** zero fill   0x00000000005266d8        0x8
 .text.dyn_64L11_tom
                0x00000000005266e0       0x68 0x4 /usr/local/popcorn/aarch64//lib/libelf.a(64.xlatetof.o)
 ** zero fill   0x0000000000526748        0x8
 .text.addr_64L__tom
                0x0000000000526750       0x58 0x4 /usr/local/popcorn/aarch64//lib/libelf.a(64.xlatetof.o)
 ** zero fill   0x00000000005267a8        0x8
 .text.sxword_64L__tof
                0x00000000005267b0       0x58 0x4 /usr/local/popcorn/aarch64//lib/libelf.a(64.xlatetof.o)
 ** zero fill   0x0000000000526808        0x8
 .text.rela_64L11_tof
                0x0000000000526810       0x84 0x4 /usr/local/popcorn/aarch64//lib/libelf.a(64.xlatetof.o)
 ** zero fill   0x0000000000526894        0xc
 .text.sxword_64L__tom
                0x00000000005268a0       0x58 0x4 /usr/local/popcorn/aarch64//lib/libelf.a(64.xlatetof.o)
 ** zero fill   0x00000000005268f8        0x8
 .text.rela_64L11_tom
                0x0000000000526900       0x84 0x4 /usr/local/popcorn/aarch64//lib/libelf.a(64.xlatetof.o)
 ** zero fill   0x0000000000526984        0xc
 .text.ehdr_64M11_tom
                0x0000000000526990      0x294 0x4 /usr/local/popcorn/aarch64//lib/libelf.a(64.xlatetof.o)
 ** zero fill   0x0000000000526c24        0xc
 .text.byte_copy
                0x0000000000526c30      0x648 0x4 /usr/local/popcorn/aarch64//lib/libelf.a(64.xlatetof.o)
 ** zero fill   0x0000000000527278        0x8
 .text.ehdr_64L11_tom
                0x0000000000527280      0x294 0x4 /usr/local/popcorn/aarch64//lib/libelf.a(64.xlatetof.o)
 ** zero fill   0x0000000000527514        0xc
 .text.ehdr_64M11_tof
                0x0000000000527520      0x274 0x4 /usr/local/popcorn/aarch64//lib/libelf.a(64.xlatetof.o)
 ** zero fill   0x0000000000527794        0xc
 .text.ehdr_64L11_tof
                0x00000000005277a0      0x274 0x4 /usr/local/popcorn/aarch64//lib/libelf.a(64.xlatetof.o)
 ** zero fill   0x0000000000527a14        0xc
 .text._elf64_xltsize
                0x0000000000527a20       0xc0 0x4 /usr/local/popcorn/aarch64//lib/libelf.a(64.xlatetof.o)
                0x0000000000527a20                _elf64_xltsize
 .text.elf64_xlatetom
                0x0000000000527ae0      0x170 0x4 /usr/local/popcorn/aarch64//lib/libelf.a(64.xlatetof.o)
                0x0000000000527ae0                elf64_xlatetom
 .text.elf64_xlatetof
                0x0000000000527c50      0x174 0x4 /usr/local/popcorn/aarch64//lib/libelf.a(64.xlatetof.o)
                0x0000000000527c50                elf64_xlatetof
 ** zero fill   0x0000000000527dc4        0xc
 .text.gelf_xlatetom
                0x0000000000527dd0       0x70 0x4 /usr/local/popcorn/aarch64//lib/libelf.a(64.xlatetof.o)
                0x0000000000527dd0                gelf_xlatetom
 .text.gelf_xlatetof
                0x0000000000527e40       0x70 0x4 /usr/local/popcorn/aarch64//lib/libelf.a(64.xlatetof.o)
                0x0000000000527e40                gelf_xlatetof
 .text.gelf_getshdr
                0x0000000000527eb0      0x128 0x4 /usr/local/popcorn/aarch64//lib/libelf.a(gelfshdr.o)
                0x0000000000527eb0                gelf_getshdr
 ** zero fill   0x0000000000527fd8       0x2a
 ** zero fill   0x0000000000528002        0xe
 .text.gelf_update_shdr
                0x0000000000528010      0x108 0x4 /usr/local/popcorn/aarch64//lib/libelf.a(gelfshdr.o)
                0x0000000000528010                gelf_update_shdr
 ** zero fill   0x0000000000528118        0xb
 ** zero fill   0x0000000000528123        0xd
 .text._elf_load_u64L
                0x0000000000528130       0x48 0x4 /usr/local/popcorn/aarch64//lib/libelf.a(swap64.o)
                0x0000000000528130                _elf_load_u64L
 ** zero fill   0x0000000000528178        0x4
 ** zero fill   0x000000000052817c        0x4
 .text._elf_load_u64M
                0x0000000000528180       0x48 0x4 /usr/local/popcorn/aarch64//lib/libelf.a(swap64.o)
                0x0000000000528180                _elf_load_u64M
 ** zero fill   0x00000000005281c8        0x4
 ** zero fill   0x00000000005281cc        0x4
 .text._elf_load_i64L
                0x00000000005281d0       0x48 0x4 /usr/local/popcorn/aarch64//lib/libelf.a(swap64.o)
                0x00000000005281d0                _elf_load_i64L
 ** zero fill   0x0000000000528218        0x4
 ** zero fill   0x000000000052821c        0x4
 .text._elf_load_i64M
                0x0000000000528220       0x48 0x4 /usr/local/popcorn/aarch64//lib/libelf.a(swap64.o)
                0x0000000000528220                _elf_load_i64M
 ** zero fill   0x0000000000528268        0x4
 ** zero fill   0x000000000052826c        0x4
 .text._elf_store_u64L
                0x0000000000528270       0x40 0x4 /usr/local/popcorn/aarch64//lib/libelf.a(swap64.o)
                0x0000000000528270                _elf_store_u64L
 .text._elf_store_u64M
                0x00000000005282b0       0x40 0x4 /usr/local/popcorn/aarch64//lib/libelf.a(swap64.o)
                0x00000000005282b0                _elf_store_u64M
 .text._elf_store_i64L
                0x00000000005282f0       0x40 0x4 /usr/local/popcorn/aarch64//lib/libelf.a(swap64.o)
                0x00000000005282f0                _elf_store_i64L
 .text._elf_store_i64M
                0x0000000000528330       0x40 0x4 /usr/local/popcorn/aarch64//lib/libelf.a(swap64.o)
                0x0000000000528330                _elf_store_i64M
 .text._elf_verdef_32L11_tof
                0x0000000000528370      0x204 0x4 /usr/local/popcorn/aarch64//lib/libelf.a(verdef_32_tof.o)
                0x0000000000528370                _elf_verdef_32L11_tof
 ** zero fill   0x0000000000528574       0x23
 ** zero fill   0x0000000000528597        0x9
 .text._elf_verdef_32M11_tof
                0x00000000005285a0      0x204 0x4 /usr/local/popcorn/aarch64//lib/libelf.a(verdef_32_tof.o)
                0x00000000005285a0                _elf_verdef_32M11_tof
 ** zero fill   0x00000000005287a4       0x23
 ** zero fill   0x00000000005287c7        0x9
 .text._elf_verneed_32L11_tof
                0x00000000005287d0      0x220 0x4 /usr/local/popcorn/aarch64//lib/libelf.a(verdef_32_tof.o)
                0x00000000005287d0                _elf_verneed_32L11_tof
 ** zero fill   0x00000000005289f0       0x47
 ** zero fill   0x0000000000528a37        0x9
 .text._elf_verneed_32M11_tof
                0x0000000000528a40      0x220 0x4 /usr/local/popcorn/aarch64//lib/libelf.a(verdef_32_tof.o)
                0x0000000000528a40                _elf_verneed_32M11_tof
 ** zero fill   0x0000000000528c60       0x47
 ** zero fill   0x0000000000528ca7        0x9
 .text._elf_verdef_32L11_tom
                0x0000000000528cb0      0x20c 0x4 /usr/local/popcorn/aarch64//lib/libelf.a(verdef_32_tom.o)
                0x0000000000528cb0                _elf_verdef_32L11_tom
 ** zero fill   0x0000000000528ebc       0x2b
 ** zero fill   0x0000000000528ee7        0x9
 .text._elf_verdef_32M11_tom
                0x0000000000528ef0      0x20c 0x4 /usr/local/popcorn/aarch64//lib/libelf.a(verdef_32_tom.o)
                0x0000000000528ef0                _elf_verdef_32M11_tom
 ** zero fill   0x00000000005290fc       0x2b
 ** zero fill   0x0000000000529127        0x9
 .text._elf_verneed_32L11_tom
                0x0000000000529130      0x23c 0x4 /usr/local/popcorn/aarch64//lib/libelf.a(verdef_32_tom.o)
                0x0000000000529130                _elf_verneed_32L11_tom
 ** zero fill   0x000000000052936c       0x2b
 ** zero fill   0x0000000000529397        0x9
 .text._elf_verneed_32M11_tom
                0x00000000005293a0      0x23c 0x4 /usr/local/popcorn/aarch64//lib/libelf.a(verdef_32_tom.o)
                0x00000000005293a0                _elf_verneed_32M11_tom
 ** zero fill   0x00000000005295dc       0x2b
 ** zero fill   0x0000000000529607        0x9
 .text._elf_verdef_64L11_tof
                0x0000000000529610      0x204 0x4 /usr/local/popcorn/aarch64//lib/libelf.a(verdef_64_tof.o)
                0x0000000000529610                _elf_verdef_64L11_tof
 ** zero fill   0x0000000000529814       0x23
 ** zero fill   0x0000000000529837        0x9
 .text._elf_verdef_64M11_tof
                0x0000000000529840      0x204 0x4 /usr/local/popcorn/aarch64//lib/libelf.a(verdef_64_tof.o)
                0x0000000000529840                _elf_verdef_64M11_tof
 ** zero fill   0x0000000000529a44       0x23
 ** zero fill   0x0000000000529a67        0x9
 .text._elf_verneed_64L11_tof
                0x0000000000529a70      0x220 0x4 /usr/local/popcorn/aarch64//lib/libelf.a(verdef_64_tof.o)
                0x0000000000529a70                _elf_verneed_64L11_tof
 ** zero fill   0x0000000000529c90       0x47
 ** zero fill   0x0000000000529cd7        0x9
 .text._elf_verneed_64M11_tof
                0x0000000000529ce0      0x220 0x4 /usr/local/popcorn/aarch64//lib/libelf.a(verdef_64_tof.o)
                0x0000000000529ce0                _elf_verneed_64M11_tof
 ** zero fill   0x0000000000529f00       0x47
 ** zero fill   0x0000000000529f47        0x9
 .text._elf_verdef_64L11_tom
                0x0000000000529f50      0x20c 0x4 /usr/local/popcorn/aarch64//lib/libelf.a(verdef_64_tom.o)
                0x0000000000529f50                _elf_verdef_64L11_tom
 ** zero fill   0x000000000052a15c       0x2b
 ** zero fill   0x000000000052a187        0x9
 .text._elf_verdef_64M11_tom
                0x000000000052a190      0x20c 0x4 /usr/local/popcorn/aarch64//lib/libelf.a(verdef_64_tom.o)
                0x000000000052a190                _elf_verdef_64M11_tom
 ** zero fill   0x000000000052a39c       0x2b
 ** zero fill   0x000000000052a3c7        0x9
 .text._elf_verneed_64L11_tom
                0x000000000052a3d0      0x23c 0x4 /usr/local/popcorn/aarch64//lib/libelf.a(verdef_64_tom.o)
                0x000000000052a3d0                _elf_verneed_64L11_tom
 ** zero fill   0x000000000052a60c       0x2b
 ** zero fill   0x000000000052a637        0x9
 .text._elf_verneed_64M11_tom
                0x000000000052a640      0x23c 0x4 /usr/local/popcorn/aarch64//lib/libelf.a(verdef_64_tom.o)
                0x000000000052a640                _elf_verneed_64M11_tom
 ** zero fill   0x000000000052a87c       0x2b
 ** zero fill   0x000000000052a8a7        0x9
 .text.elf_getscn
                0x000000000052a8b0       0xa0 0x4 /usr/local/popcorn/aarch64//lib/libelf.a(getscn.o)
                0x000000000052a8b0                elf_getscn
 .text._elf_update_shnum
                0x000000000052a950       0x88 0x4 /usr/local/popcorn/aarch64//lib/libelf.a(newscn.o)
                0x000000000052a950                _elf_update_shnum
 ** zero fill   0x000000000052a9d8        0x8
 .text._elf_first_scn
                0x000000000052a9e0       0xf4 0x4 /usr/local/popcorn/aarch64//lib/libelf.a(newscn.o)
                0x000000000052a9e0                _elf_first_scn
 ** zero fill   0x000000000052aad4       0x14
 ** zero fill   0x000000000052aae8        0x8
 .text.elf_newscn
                0x000000000052aaf0      0x260 0x4 /usr/local/popcorn/aarch64//lib/libelf.a(newscn.o)
                0x000000000052aaf0                elf_newscn
 ** zero fill   0x000000000052ad50        0xd
 ** zero fill   0x000000000052ad5d        0x3
 .text.elf32_fsize
                0x000000000052ad60       0x68 0x4 /usr/local/popcorn/aarch64//lib/libelf.a(32.fsize.o)
                0x000000000052ad60                elf32_fsize
 ** zero fill   0x000000000052adc8        0x8
 .text.elf64_fsize
                0x000000000052add0       0x68 0x4 /usr/local/popcorn/aarch64//lib/libelf.a(32.fsize.o)
                0x000000000052add0                elf64_fsize
 ** zero fill   0x000000000052ae38        0x8
 .text.gelf_fsize
                0x000000000052ae40       0xb4 0x4 /usr/local/popcorn/aarch64//lib/libelf.a(32.fsize.o)
                0x000000000052ae40                gelf_fsize
 ** zero fill   0x000000000052aef4        0xc
 .text.gelf_msize
                0x000000000052af00       0xa4 0x4 /usr/local/popcorn/aarch64//lib/libelf.a(32.fsize.o)
                0x000000000052af00                gelf_msize
 .text.getenv   0x000000000052afa4       0xb0 0x4 /usr/local/popcorn/aarch64//lib/libc.a(getenv.o)
                0x000000000052afa4                getenv
 .text.__assert_fail
                0x000000000052b054       0x4c 0x4 /usr/local/popcorn/aarch64//lib/libc.a(assert.o)
                0x000000000052b054                __assert_fail
 .text.open     0x000000000052b0a0      0x104 0x4 /usr/local/popcorn/aarch64//lib/libc.a(open.o)
                0x000000000052b0a0                open
                0x000000000052b0a0                open64
 ** zero fill   0x000000000052b1a4       0x21
 ** zero fill   0x000000000052b1c5        0xb
 .text.calloc   0x000000000052b1d0      0x110 0x4 /usr/local/popcorn/aarch64//lib/libc.a(calloc.o)
                0x000000000052b1d0                calloc
 ** zero fill   0x000000000052b2e0       0x10
 .text.getrlimit
                0x000000000052b2f0       0xe0 0x4 /usr/local/popcorn/aarch64//lib/libc.a(getrlimit.o)
                0x000000000052b2f0                getrlimit
                0x000000000052b2f0                getrlimit64
 .text.syscall  0x000000000052b3d0      0x180 0x4 /usr/local/popcorn/aarch64//lib/libc.a(syscall.o)
                0x000000000052b3d0                syscall
 ** zero fill   0x000000000052b550       0x7c
 .text.getline  0x000000000052b5cc       0x10 0x4 /usr/local/popcorn/aarch64//lib/libc.a(getline.o)
                0x000000000052b5cc                getline
 .text.snprintf
                0x000000000052b5dc       0x74 0x4 /usr/local/popcorn/aarch64//lib/libc.a(snprintf.o)
                0x000000000052b5dc                snprintf
 ** zero fill   0x000000000052b650       0x1e
 ** zero fill   0x000000000052b66e        0x2
 .text.sscanf   0x000000000052b670       0x74 0x4 /usr/local/popcorn/aarch64//lib/libc.a(sscanf.o)
                0x000000000052b670                __isoc99_sscanf
                0x000000000052b670                sscanf
 ** zero fill   0x000000000052b6e4       0x23
 ** zero fill   0x000000000052b707        0x1
 .text.vsnprintf
                0x000000000052b708       0xe0 0x4 /usr/local/popcorn/aarch64//lib/libc.a(vsnprintf.o)
                0x000000000052b708                vsnprintf
 .text.sn_write
                0x000000000052b7e8       0x50 0x4 /usr/local/popcorn/aarch64//lib/libc.a(vsnprintf.o)
 .text.vsscanf  0x000000000052b838       0x80 0x4 /usr/local/popcorn/aarch64//lib/libc.a(vsscanf.o)
                0x000000000052b838                __isoc99_vsscanf
                0x000000000052b838                vsscanf
 .text.do_read  0x000000000052b8b8        0x4 0x4 /usr/local/popcorn/aarch64//lib/libc.a(vsscanf.o)
 ** zero fill   0x000000000052b8bc        0x1
 ** zero fill   0x000000000052b8bd        0x3
 .text.strtoull
                0x000000000052b8c0        0x8 0x4 /usr/local/popcorn/aarch64//lib/libc.a(strtol.o)
                0x000000000052b8c0                __strtoull_internal
                0x000000000052b8c0                strtoull
 ** zero fill   0x000000000052b8c8        0x4
 .text.strtox   0x000000000052b8cc       0xa4 0x4 /usr/local/popcorn/aarch64//lib/libc.a(strtol.o)
 ** zero fill   0x000000000052b970        0x2
 ** zero fill   0x000000000052b972        0x2
 .text.strtoll  0x000000000052b974        0x8 0x4 /usr/local/popcorn/aarch64//lib/libc.a(strtol.o)
                0x000000000052b974                __strtoll_internal
                0x000000000052b974                strtoll
 ** zero fill   0x000000000052b97c        0x7
 ** zero fill   0x000000000052b983        0x1
 .text.strtoul  0x000000000052b984        0x8 0x4 /usr/local/popcorn/aarch64//lib/libc.a(strtol.o)
                0x000000000052b984                __strtoul_internal
                0x000000000052b984                strtoul
 ** zero fill   0x000000000052b98c        0x4
 .text.strtol   0x000000000052b990        0x8 0x4 /usr/local/popcorn/aarch64//lib/libc.a(strtol.o)
                0x000000000052b990                __strtol_internal
                0x000000000052b990                strtol
 ** zero fill   0x000000000052b998        0x7
 ** zero fill   0x000000000052b99f        0x1
 .text.strtoimax
                0x000000000052b9a0        0x8 0x4 /usr/local/popcorn/aarch64//lib/libc.a(strtol.o)
                0x000000000052b9a0                __strtoimax_internal
                0x000000000052b9a0                strtoimax
 ** zero fill   0x000000000052b9a8        0x7
 ** zero fill   0x000000000052b9af        0x1
 .text.strtoumax
                0x000000000052b9b0        0x8 0x4 /usr/local/popcorn/aarch64//lib/libc.a(strtol.o)
                0x000000000052b9b0                __strtoumax_internal
                0x000000000052b9b0                strtoumax
 ** zero fill   0x000000000052b9b8        0x4
 ** zero fill   0x000000000052b9bc        0x4
 .text.memcmp   0x000000000052b9c0       0x30 0x4 /usr/local/popcorn/aarch64//lib/libc.a(memcmp.o)
                0x000000000052b9c0                memcmp
 .text.strcmp   0x000000000052b9f0       0x38 0x4 /usr/local/popcorn/aarch64//lib/libc.a(strcmp.o)
                0x000000000052b9f0                strcmp
 ** zero fill   0x000000000052ba28        0xc
 ** zero fill   0x000000000052ba34        0xc
 .text.strncmp  0x000000000052ba40       0x5c 0x4 /usr/local/popcorn/aarch64//lib/libc.a(strncmp.o)
                0x000000000052ba40                strncmp
 .text.pthread_attr_getdetachstate
                0x000000000052ba9c       0x10 0x4 /usr/local/popcorn/aarch64//lib/libc.a(pthread_attr_get.o)
                0x000000000052ba9c                pthread_attr_getdetachstate
 .text.pthread_attr_getguardsize
                0x000000000052baac       0x20 0x4 /usr/local/popcorn/aarch64//lib/libc.a(pthread_attr_get.o)
                0x000000000052baac                pthread_attr_getguardsize
 .text.pthread_attr_getinheritsched
                0x000000000052bacc       0x10 0x4 /usr/local/popcorn/aarch64//lib/libc.a(pthread_attr_get.o)
                0x000000000052bacc                pthread_attr_getinheritsched
 .text.pthread_attr_getschedparam
                0x000000000052badc       0x10 0x4 /usr/local/popcorn/aarch64//lib/libc.a(pthread_attr_get.o)
                0x000000000052badc                pthread_attr_getschedparam
 .text.pthread_attr_getschedpolicy
                0x000000000052baec       0x10 0x4 /usr/local/popcorn/aarch64//lib/libc.a(pthread_attr_get.o)
                0x000000000052baec                pthread_attr_getschedpolicy
 .text.pthread_attr_getscope
                0x000000000052bafc        0xc 0x4 /usr/local/popcorn/aarch64//lib/libc.a(pthread_attr_get.o)
                0x000000000052bafc                pthread_attr_getscope
 .text.pthread_attr_getstack
                0x000000000052bb08       0x30 0x4 /usr/local/popcorn/aarch64//lib/libc.a(pthread_attr_get.o)
                0x000000000052bb08                pthread_attr_getstack
 .text.pthread_attr_getstacksize
                0x000000000052bb38       0x14 0x4 /usr/local/popcorn/aarch64//lib/libc.a(pthread_attr_get.o)
                0x000000000052bb38                pthread_attr_getstacksize
 .text.pthread_barrierattr_getpshared
                0x000000000052bb4c       0x18 0x4 /usr/local/popcorn/aarch64//lib/libc.a(pthread_attr_get.o)
                0x000000000052bb4c                pthread_barrierattr_getpshared
 .text.pthread_condattr_getclock
                0x000000000052bb64       0x14 0x4 /usr/local/popcorn/aarch64//lib/libc.a(pthread_attr_get.o)
                0x000000000052bb64                pthread_condattr_getclock
 .text.pthread_condattr_getpshared
                0x000000000052bb78       0x14 0x4 /usr/local/popcorn/aarch64//lib/libc.a(pthread_attr_get.o)
                0x000000000052bb78                pthread_condattr_getpshared
 .text.pthread_mutexattr_getprotocol
                0x000000000052bb8c        0xc 0x4 /usr/local/popcorn/aarch64//lib/libc.a(pthread_attr_get.o)
                0x000000000052bb8c                pthread_mutexattr_getprotocol
 .text.pthread_mutexattr_getpshared
                0x000000000052bb98       0x14 0x4 /usr/local/popcorn/aarch64//lib/libc.a(pthread_attr_get.o)
                0x000000000052bb98                pthread_mutexattr_getpshared
 .text.pthread_mutexattr_getrobust
                0x000000000052bbac       0x14 0x4 /usr/local/popcorn/aarch64//lib/libc.a(pthread_attr_get.o)
                0x000000000052bbac                pthread_mutexattr_getrobust
 .text.pthread_mutexattr_gettype
                0x000000000052bbc0       0x14 0x4 /usr/local/popcorn/aarch64//lib/libc.a(pthread_attr_get.o)
                0x000000000052bbc0                pthread_mutexattr_gettype
 .text.pthread_rwlockattr_getpshared
                0x000000000052bbd4       0x10 0x4 /usr/local/popcorn/aarch64//lib/libc.a(pthread_attr_get.o)
                0x000000000052bbd4                pthread_rwlockattr_getpshared
 .text.pthread_getattr_np
                0x000000000052bbe4      0x114 0x4 /usr/local/popcorn/aarch64//lib/libc.a(pthread_getattr_np.o)
                0x000000000052bbe4                pthread_getattr_np
 ** zero fill   0x000000000052bcf8        0xd
 ** zero fill   0x000000000052bd05        0x3
 .text.__pthread_getspecific
                0x000000000052bd08       0x10 0x4 /usr/local/popcorn/aarch64//lib/libc.a(pthread_getspecific.o)
                0x000000000052bd08                pthread_getspecific
                0x000000000052bd08                tss_get
 ** zero fill   0x000000000052bd18        0x7
 ** zero fill   0x000000000052bd1f        0x1
 .text.__pthread_key_create
                0x000000000052bd20       0x9c 0x4 /usr/local/popcorn/aarch64//lib/libc.a(pthread_key_create.o)
                0x000000000052bd20                __pthread_key_create
                0x000000000052bd20                pthread_key_create
 .text.nodtor   0x000000000052bdbc        0x4 0x4 /usr/local/popcorn/aarch64//lib/libc.a(pthread_key_create.o)
 .text.__pthread_key_delete
                0x000000000052bdc0       0x14 0x4 /usr/local/popcorn/aarch64//lib/libc.a(pthread_key_create.o)
                0x000000000052bdc0                __pthread_key_delete
                0x000000000052bdc0                pthread_key_delete
 .text.__pthread_tsd_run_dtors
                0x000000000052bdd4       0x80 0x4 /usr/local/popcorn/aarch64//lib/libc.a(pthread_key_create.o)
                0x000000000052bdd4                __pthread_tsd_run_dtors
 .text.pthread_migrate_args
                0x000000000052be54        0xc 0x4 /usr/local/popcorn/aarch64//lib/libc.a(pthread_migrate.o)
                0x000000000052be54                pthread_migrate_args
 ** zero fill   0x000000000052be60        0x4
 .text.__pthread_self_internal
                0x000000000052be64        0x8 0x4 /usr/local/popcorn/aarch64//lib/libc.a(pthread_self.o)
                0x000000000052be64                pthread_self
                0x000000000052be64                thrd_current
 ** zero fill   0x000000000052be6c        0x2
 ** zero fill   0x000000000052be6e        0x2
 .text.pthread_setspecific
                0x000000000052be70       0x2c 0x4 /usr/local/popcorn/aarch64//lib/libc.a(pthread_setspecific.o)
                0x000000000052be70                pthread_setspecific
 .text.dummy    0x000000000052be9c        0x4 0x4 /usr/local/popcorn/aarch64//lib/libc.a(close.o)
 .text.close    0x000000000052bea0       0x44 0x4 /usr/local/popcorn/aarch64//lib/libc.a(close.o)
                0x000000000052bea0                close
 .text.getpid   0x000000000052bee4        0xc 0x4 /usr/local/popcorn/aarch64//lib/libc.a(getpid.o)
                0x000000000052bee4                getpid
 .text.lseek    0x000000000052bef0       0x14 0x4 /usr/local/popcorn/aarch64//lib/libc.a(lseek.o)
                0x000000000052bef0                lseek
                0x000000000052bef0                lseek64
 ** zero fill   0x000000000052bf04        0x1
 ** zero fill   0x000000000052bf05        0x3
 .text.read     0x000000000052bf08       0x38 0x4 /usr/local/popcorn/aarch64//lib/libc.a(read.o)
                0x000000000052bf08                read
 .text.abort    0x000000000052bf40       0x1c 0x4 /usr/local/popcorn/aarch64//lib/libc.a(abort.o)
                0x000000000052bf40                abort
 ** zero fill   0x000000000052bf5c        0x4
 .text.__intscan
                0x000000000052bf60      0x5a4 0x4 /usr/local/popcorn/aarch64//lib/libc.a(intscan.o)
                0x000000000052bf60                __intscan
 ** zero fill   0x000000000052c504        0xc
 .text.__shlim  0x000000000052c510       0x24 0x4 /usr/local/popcorn/aarch64//lib/libc.a(shgetc.o)
                0x000000000052c510                __shlim
 ** zero fill   0x000000000052c534       0x15
 ** zero fill   0x000000000052c549        0x7
 .text.__shgetc
                0x000000000052c550       0xb4 0x4 /usr/local/popcorn/aarch64//lib/libc.a(shgetc.o)
                0x000000000052c550                __shgetc
 .text.raise    0x000000000052c604       0x58 0x4 /usr/local/popcorn/aarch64//lib/libc.a(raise.o)
                0x000000000052c604                raise
 .text.__string_read
                0x000000000052c65c       0x84 0x4 /usr/local/popcorn/aarch64//lib/libc.a(__string_read.o)
                0x000000000052c65c                __string_read
 .text.__uflow  0x000000000052c6e0       0x54 0x4 /usr/local/popcorn/aarch64//lib/libc.a(__uflow.o)
                0x000000000052c6e0                __uflow
 .text.getdelim
                0x000000000052c734      0x214 0x4 /usr/local/popcorn/aarch64//lib/libc.a(getdelim.o)
                0x000000000052c734                __getdelim
                0x000000000052c734                getdelim
 .text.vfscanf  0x000000000052c948      0xbbc 0x4 /usr/local/popcorn/aarch64//lib/libc.a(vfscanf.o)
                0x000000000052c948                __isoc99_vfscanf
                0x000000000052c948                vfscanf
 ** zero fill   0x000000000052d504        0xc
 .text.__floatscan
                0x000000000052d510     0x156c 0x4 /usr/local/popcorn/aarch64//lib/libc.a(floatscan.o)
                0x000000000052d510                __floatscan
 ** zero fill   0x000000000052ea7c      0x19f
 ** zero fill   0x000000000052ec1b        0x5
 .text.scanexp  0x000000000052ec20      0x204 0x4 /usr/local/popcorn/aarch64//lib/libc.a(floatscan.o)
 .text.copysignl
                0x000000000052ee24       0x2c 0x4 /usr/local/popcorn/aarch64//lib/libc.a(copysignl.o)
                0x000000000052ee24                copysignl
 .text.fabs     0x000000000052ee50        0x8 0x10 /usr/local/popcorn/aarch64//lib/libc.a(fabs.o)
                0x000000000052ee50                fabs
 ** zero fill   0x000000000052ee58        0xa
 ** zero fill   0x000000000052ee62        0x2
 .text.fmodl    0x000000000052ee64      0x254 0x4 /usr/local/popcorn/aarch64//lib/libc.a(fmodl.o)
                0x000000000052ee64                fmodl
 .text.scalbn   0x000000000052f0b8       0x88 0x4 /usr/local/popcorn/aarch64//lib/libc.a(scalbn.o)
                0x000000000052f0b8                scalbn
 ** zero fill   0x000000000052f140        0x6
 ** zero fill   0x000000000052f146        0x2
 .text.scalbnl  0x000000000052f148       0xd4 0x4 /usr/local/popcorn/aarch64//lib/libc.a(scalbnl.o)
                0x000000000052f148                scalbnl
 .text.mbrtowc  0x000000000052f21c      0x11c 0x4 /usr/local/popcorn/aarch64//lib/libc.a(mbrtowc.o)
                0x000000000052f21c                mbrtowc
 .text.mbsinit  0x000000000052f338       0x1c 0x4 /usr/local/popcorn/aarch64//lib/libc.a(mbsinit.o)
                0x000000000052f338                mbsinit
 .text.__block_all_sigs
                0x000000000052f354       0x24 0x4 /usr/local/popcorn/aarch64//lib/libc.a(block.o)
                0x000000000052f354                __block_all_sigs
 .text.__block_app_sigs
                0x000000000052f378       0x24 0x4 /usr/local/popcorn/aarch64//lib/libc.a(block.o)
                0x000000000052f378                __block_app_sigs
 .text.__restore_sigs
                0x000000000052f39c       0x20 0x4 /usr/local/popcorn/aarch64//lib/libc.a(block.o)
                0x000000000052f39c                __restore_sigs
 .text.__toread
                0x000000000052f3bc       0x84 0x4 /usr/local/popcorn/aarch64//lib/libc.a(__toread.o)
                0x000000000052f3bc                __toread
 .text.__toread_needs_stdio_exit
                0x000000000052f440        0x4 0x4 /usr/local/popcorn/aarch64//lib/libc.a(__toread.o)
                0x000000000052f440                __toread_needs_stdio_exit
 ** zero fill   0x000000000052f444        0x1
 ** zero fill   0x000000000052f445       0x25
 ** zero fill   0x000000000052f46a        0x2
 .text._start_c
                0x000000000052f46c       0x34 0x4 /usr/local/popcorn/aarch64//lib/crt1.o
                0x000000000052f46c                _start_c
 .text          0x000000000052f4a0        0x0 0x4 /tmp/conftest-dcbec8.o
 .text          0x000000000052f4a0       0x1c 0x4 /usr/local/popcorn/aarch64//lib/crt1.o
                0x000000000052f4a0                _start
 .text          0x000000000052f4bc        0x0 0x4 /usr/local/popcorn/aarch64//lib/libc.a(__libc_start_main.o)
 .text          0x000000000052f4bc        0x0 0x4 /usr/local/popcorn/aarch64//lib/libc.a(exit.o)
 .text          0x000000000052f4bc        0x0 0x4 /usr/local/popcorn/aarch64//lib/libc.a(libc.o)
 .text          0x000000000052f4bc        0x0 0x4 /usr/local/popcorn/aarch64//lib/libc.a(fclose.o)
 .text          0x000000000052f4bc        0x0 0x4 /usr/local/popcorn/aarch64//lib/libc.a(ferror.o)
 .text          0x000000000052f4bc        0x0 0x4 /usr/local/popcorn/aarch64//lib/libc.a(fflush.o)
 .text          0x000000000052f4bc        0x0 0x4 /usr/local/popcorn/aarch64//lib/libc.a(fopen.o)
 .text          0x000000000052f4bc        0x0 0x4 /usr/local/popcorn/aarch64//lib/libc.a(fprintf.o)
 .text          0x000000000052f4bc        0x0 0x4 /usr/local/popcorn/aarch64//lib/libc.a(vfprintf.o)
 .text          0x000000000052f4bc        0x0 0x4 /usr/local/popcorn/aarch64//lib/libc.a(memchr.o)
 .text          0x000000000052f4bc        0x0 0x4 /usr/local/popcorn/aarch64//lib/libc.a(memset.o)
 .text          0x000000000052f4bc        0x0 0x4 /usr/local/popcorn/aarch64//lib/libc.a(strchr.o)
 .text          0x000000000052f4bc        0x0 0x4 /usr/local/popcorn/aarch64//lib/libc.a(strchrnul.o)
 .text          0x000000000052f4bc        0x0 0x4 /usr/local/popcorn/aarch64//lib/libc.a(strlen.o)
 .text          0x000000000052f4bc        0x0 0x4 /usr/local/popcorn/aarch64//lib/libc.a(__lock.o)
 .text          0x000000000052f4bc        0x0 0x4 /usr/local/popcorn/aarch64//lib/libc.a(__syscall_cp.o)
 .text          0x000000000052f4bc        0x0 0x4 /usr/local/popcorn/aarch64//lib/libc.a(__wait.o)
 .text          0x000000000052f4bc        0x0 0x4 /usr/local/popcorn/aarch64//lib/libc.a(__environ.o)
 .text          0x000000000052f4bc        0x0 0x4 /usr/local/popcorn/aarch64//lib/libc.a(__init_tls.o)
 .text          0x000000000052f4bc        0x0 0x4 /usr/local/popcorn/aarch64//lib/libc.a(__errno_location.o)
 .text          0x000000000052f4bc        0x0 0x4 /usr/local/popcorn/aarch64//lib/libc.a(strerror.o)
 .text          0x000000000052f4bc        0x0 0x4 /usr/local/popcorn/aarch64//lib/libc.a(_Exit.o)
 .text          0x000000000052f4bc        0x0 0x4 /usr/local/popcorn/aarch64//lib/libc.a(syscall.o)
 .text          0x000000000052f4bc        0x0 0x4 /usr/local/popcorn/aarch64//lib/libc.a(syscall_ret.o)
 .text          0x000000000052f4bc        0x0 0x4 /usr/local/popcorn/aarch64//lib/libc.a(__lctrans.o)
 .text          0x000000000052f4bc        0x0 0x4 /usr/local/popcorn/aarch64//lib/libc.a(malloc.o)
 .text          0x000000000052f4bc        0x0 0x4 /usr/local/popcorn/aarch64//lib/libc.a(__fpclassifyl.o)
 .text          0x000000000052f4bc        0x0 0x4 /usr/local/popcorn/aarch64//lib/libc.a(__signbitl.o)
 .text          0x000000000052f4bc        0x0 0x4 /usr/local/popcorn/aarch64//lib/libc.a(frexpl.o)
 .text          0x000000000052f4bc        0x0 0x4 /usr/local/popcorn/aarch64//lib/libc.a(madvise.o)
 .text          0x000000000052f4bc        0x0 0x4 /usr/local/popcorn/aarch64//lib/libc.a(mmap.o)
 .text          0x000000000052f4bc        0x0 0x4 /usr/local/popcorn/aarch64//lib/libc.a(mremap.o)
 .text          0x000000000052f4bc        0x0 0x4 /usr/local/popcorn/aarch64//lib/libc.a(munmap.o)
 .text          0x000000000052f4bc        0x0 0x4 /usr/local/popcorn/aarch64//lib/libc.a(wctomb.o)
 .text          0x000000000052f4bc        0x0 0x4 /usr/local/popcorn/aarch64//lib/libc.a(sched_yield.o)
 .text          0x000000000052f4bc        0x0 0x4 /usr/local/popcorn/aarch64//lib/libc.a(__fdopen.o)
 .text          0x000000000052f4bc        0x0 0x4 /usr/local/popcorn/aarch64//lib/libc.a(__fmodeflags.o)
 .text          0x000000000052f4bc        0x0 0x4 /usr/local/popcorn/aarch64//lib/libc.a(__lockfile.o)
 .text          0x000000000052f4bc        0x0 0x4 /usr/local/popcorn/aarch64//lib/libc.a(__stdio_close.o)
 .text          0x000000000052f4bc        0x0 0x4 /usr/local/popcorn/aarch64//lib/libc.a(__stdio_read.o)
 .text          0x000000000052f4bc        0x0 0x4 /usr/local/popcorn/aarch64//lib/libc.a(__stdio_seek.o)
 .text          0x000000000052f4bc        0x0 0x4 /usr/local/popcorn/aarch64//lib/libc.a(__stdio_write.o)
 .text          0x000000000052f4bc        0x0 0x4 /usr/local/popcorn/aarch64//lib/libc.a(fwrite.o)
 .text          0x000000000052f4bc        0x0 0x4 /usr/local/popcorn/aarch64//lib/libc.a(memcpy.o)
 .text          0x000000000052f4bc        0x0 0x4 /usr/local/popcorn/aarch64//lib/libc.a(__set_thread_area.o)
 .text          0x000000000052f4bc        0x0 0x4 /usr/local/popcorn/aarch64//lib/libc.a(pthread_cleanup_push.o)
 .text          0x000000000052f4bc        0x0 0x4 /usr/local/popcorn/aarch64//lib/libc.a(__brk.o)
 .text          0x000000000052f4bc        0x0 0x4 /usr/local/popcorn/aarch64//lib/libc.a(wcrtomb.o)
 .text          0x000000000052f4bc        0x0 0x4 /usr/local/popcorn/aarch64//lib/libc.a(__towrite.o)
 .text          0x000000000052f4bc        0x0 0x4 /usr/local/popcorn/aarch64//lib/libc.a(__stdio_exit.o)
 .text          0x000000000052f4bc        0x0 0x4 /usr/local/popcorn/aarch64//lib/libmigrate.a(migrate.o)
 .text          0x000000000052f4bc        0x0 0x4 /usr/local/popcorn/aarch64//lib/libstack-transform.a(userspace.o)
 .text          0x000000000052f4bc        0x0 0x4 /usr/local/popcorn/aarch64//lib/libstack-transform.a(init.o)
 .text          0x000000000052f4bc        0x0 0x4 /usr/local/popcorn/aarch64//lib/libstack-transform.a(rewrite.o)
 .text          0x000000000052f4bc        0x0 0x4 /usr/local/popcorn/aarch64//lib/libstack-transform.a(unwind.o)
 .text          0x000000000052f4bc        0x0 0x4 /usr/local/popcorn/aarch64//lib/libstack-transform.a(util.o)
 .text          0x000000000052f4bc        0x0 0x4 /usr/local/popcorn/aarch64//lib/libstack-transform.a(properties.o)
 .text          0x000000000052f4bc        0x0 0x4 /usr/local/popcorn/aarch64//lib/libstack-transform.a(regs.o)
 .text          0x000000000052f4bc        0x0 0x4 /usr/local/popcorn/aarch64//lib/libstack-transform.a(properties.o)
 .text          0x000000000052f4bc        0x0 0x4 /usr/local/popcorn/aarch64//lib/libstack-transform.a(regs.o)
 .text          0x000000000052f4bc        0x0 0x4 /usr/local/popcorn/aarch64//lib/libstack-transform.a(data.o)
 .text          0x000000000052f4bc        0x0 0x1 /usr/local/popcorn/aarch64//lib/libelf.a(begin.o)
 .text          0x000000000052f4bc        0x0 0x1 /usr/local/popcorn/aarch64//lib/libelf.a(end.o)
 .text          0x000000000052f4bc        0x0 0x1 /usr/local/popcorn/aarch64//lib/libelf.a(getdata.o)
 .text          0x000000000052f4bc        0x0 0x1 /usr/local/popcorn/aarch64//lib/libelf.a(getident.o)
 .text          0x000000000052f4bc        0x0 0x1 /usr/local/popcorn/aarch64//lib/libelf.a(nextscn.o)
 .text          0x000000000052f4bc        0x0 0x1 /usr/local/popcorn/aarch64//lib/libelf.a(strptr.o)
 .text          0x000000000052f4bc        0x0 0x1 /usr/local/popcorn/aarch64//lib/libelf.a(version.o)
 .text          0x000000000052f4bc        0x0 0x1 /usr/local/popcorn/aarch64//lib/libelf.a(32.getehdr.o)
 .text          0x000000000052f4bc        0x0 0x1 /usr/local/popcorn/aarch64//lib/libelf.a(32.xlatetof.o)
 .text          0x000000000052f4bc        0x0 0x1 /usr/local/popcorn/aarch64//lib/libelf.a(cook.o)
 .text          0x000000000052f4bc        0x0 0x1 /usr/local/popcorn/aarch64//lib/libelf.a(data.o)
 .text          0x000000000052f4bc        0x0 0x1 /usr/local/popcorn/aarch64//lib/libelf.a(input.o)
 .text          0x000000000052f4bc        0x0 0x1 /usr/local/popcorn/aarch64//lib/libelf.a(x.elfext.o)
 .text          0x000000000052f4bc        0x0 0x1 /usr/local/popcorn/aarch64//lib/libelf.a(64.xlatetof.o)
 .text          0x000000000052f4bc        0x0 0x1 /usr/local/popcorn/aarch64//lib/libelf.a(gelfshdr.o)
 .text          0x000000000052f4bc        0x0 0x1 /usr/local/popcorn/aarch64//lib/libelf.a(swap64.o)
 .text          0x000000000052f4bc        0x0 0x1 /usr/local/popcorn/aarch64//lib/libelf.a(verdef_32_tof.o)
 .text          0x000000000052f4bc        0x0 0x1 /usr/local/popcorn/aarch64//lib/libelf.a(verdef_32_tom.o)
 .text          0x000000000052f4bc        0x0 0x1 /usr/local/popcorn/aarch64//lib/libelf.a(verdef_64_tof.o)
 .text          0x000000000052f4bc        0x0 0x1 /usr/local/popcorn/aarch64//lib/libelf.a(verdef_64_tom.o)
 .text          0x000000000052f4bc        0x0 0x1 /usr/local/popcorn/aarch64//lib/libelf.a(getscn.o)
 .text          0x000000000052f4bc        0x0 0x1 /usr/local/popcorn/aarch64//lib/libelf.a(newscn.o)
 .text          0x000000000052f4bc        0x0 0x1 /usr/local/popcorn/aarch64//lib/libelf.a(32.fsize.o)
 .text          0x000000000052f4bc        0x0 0x4 /usr/local/popcorn/aarch64//lib/libc.a(getenv.o)
 .text          0x000000000052f4bc        0x0 0x4 /usr/local/popcorn/aarch64//lib/libc.a(assert.o)
 .text          0x000000000052f4bc        0x0 0x4 /usr/local/popcorn/aarch64//lib/libc.a(open.o)
 .text          0x000000000052f4bc        0x0 0x4 /usr/local/popcorn/aarch64//lib/libc.a(calloc.o)
 .text          0x000000000052f4bc        0x0 0x4 /usr/local/popcorn/aarch64//lib/libc.a(getrlimit.o)
 .text          0x000000000052f4bc        0x0 0x4 /usr/local/popcorn/aarch64//lib/libc.a(syscall.o)
 .text          0x000000000052f4bc        0x0 0x4 /usr/local/popcorn/aarch64//lib/libc.a(getline.o)
 .text          0x000000000052f4bc        0x0 0x4 /usr/local/popcorn/aarch64//lib/libc.a(snprintf.o)
 .text          0x000000000052f4bc        0x0 0x4 /usr/local/popcorn/aarch64//lib/libc.a(sscanf.o)
 .text          0x000000000052f4bc        0x0 0x4 /usr/local/popcorn/aarch64//lib/libc.a(stderr.o)
 .text          0x000000000052f4bc        0x0 0x4 /usr/local/popcorn/aarch64//lib/libc.a(vsnprintf.o)
 .text          0x000000000052f4bc        0x0 0x4 /usr/local/popcorn/aarch64//lib/libc.a(vsscanf.o)
 .text          0x000000000052f4bc        0x0 0x4 /usr/local/popcorn/aarch64//lib/libc.a(strtol.o)
 .text          0x000000000052f4bc        0x0 0x4 /usr/local/popcorn/aarch64//lib/libc.a(memcmp.o)
 .text          0x000000000052f4bc        0x0 0x4 /usr/local/popcorn/aarch64//lib/libc.a(strcmp.o)
 .text          0x000000000052f4bc        0x0 0x4 /usr/local/popcorn/aarch64//lib/libc.a(strncmp.o)
 .text          0x000000000052f4bc        0x0 0x4 /usr/local/popcorn/aarch64//lib/libc.a(pthread_attr_get.o)
 .text          0x000000000052f4bc        0x0 0x4 /usr/local/popcorn/aarch64//lib/libc.a(pthread_getattr_np.o)
 .text          0x000000000052f4bc        0x0 0x4 /usr/local/popcorn/aarch64//lib/libc.a(pthread_getspecific.o)
 .text          0x000000000052f4bc        0x0 0x4 /usr/local/popcorn/aarch64//lib/libc.a(pthread_key_create.o)
 .text          0x000000000052f4bc        0x0 0x4 /usr/local/popcorn/aarch64//lib/libc.a(pthread_migrate.o)
 .text          0x000000000052f4bc        0x0 0x4 /usr/local/popcorn/aarch64//lib/libc.a(pthread_self.o)
 .text          0x000000000052f4bc        0x0 0x4 /usr/local/popcorn/aarch64//lib/libc.a(pthread_setspecific.o)
 .text          0x000000000052f4bc        0x0 0x4 /usr/local/popcorn/aarch64//lib/libc.a(close.o)
 .text          0x000000000052f4bc        0x0 0x4 /usr/local/popcorn/aarch64//lib/libc.a(getpid.o)
 .text          0x000000000052f4bc        0x0 0x4 /usr/local/popcorn/aarch64//lib/libc.a(lseek.o)
 .text          0x000000000052f4bc        0x0 0x4 /usr/local/popcorn/aarch64//lib/libc.a(read.o)
 .text          0x000000000052f4bc        0x0 0x4 /usr/local/popcorn/aarch64//lib/libc.a(abort.o)
 .text          0x000000000052f4bc        0x0 0x4 /usr/local/popcorn/aarch64//lib/libc.a(intscan.o)
 .text          0x000000000052f4bc        0x0 0x4 /usr/local/popcorn/aarch64//lib/libc.a(shgetc.o)
 .text          0x000000000052f4bc        0x0 0x4 /usr/local/popcorn/aarch64//lib/libc.a(raise.o)
 .text          0x000000000052f4bc        0x0 0x4 /usr/local/popcorn/aarch64//lib/libc.a(__string_read.o)
 .text          0x000000000052f4bc        0x0 0x4 /usr/local/popcorn/aarch64//lib/libc.a(__uflow.o)
 .text          0x000000000052f4bc        0x0 0x4 /usr/local/popcorn/aarch64//lib/libc.a(getdelim.o)
 .text          0x000000000052f4bc        0x0 0x4 /usr/local/popcorn/aarch64//lib/libc.a(vfscanf.o)
 .text          0x000000000052f4bc        0x0 0x4 /usr/local/popcorn/aarch64//lib/libc.a(floatscan.o)
 .text          0x000000000052f4bc        0x0 0x4 /usr/local/popcorn/aarch64//lib/libc.a(copysignl.o)
 .text          0x000000000052f4bc        0x0 0x4 /usr/local/popcorn/aarch64//lib/libc.a(fabs.o)
 .text          0x000000000052f4bc        0x0 0x4 /usr/local/popcorn/aarch64//lib/libc.a(fmodl.o)
 .text          0x000000000052f4bc        0x0 0x4 /usr/local/popcorn/aarch64//lib/libc.a(scalbn.o)
 .text          0x000000000052f4bc        0x0 0x4 /usr/local/popcorn/aarch64//lib/libc.a(scalbnl.o)
 .text          0x000000000052f4bc        0x0 0x4 /usr/local/popcorn/aarch64//lib/libc.a(mbrtowc.o)
 .text          0x000000000052f4bc        0x0 0x4 /usr/local/popcorn/aarch64//lib/libc.a(mbsinit.o)
 .text          0x000000000052f4bc        0x0 0x4 /usr/local/popcorn/aarch64//lib/libc.a(block.o)
 .text          0x000000000052f4bc        0x0 0x4 /usr/local/popcorn/aarch64//lib/libc.a(__toread.o)
 .text          0x000000000052f4bc        0x0 0x4 /usr/local/popcorn/aarch64//lib/libc.a(internal.o)
 .text          0x000000000052f4bc      0xd2c 0x4 /usr/lib/gcc/aarch64-linux-gnu/4.9/libgcc.a(addtf3.o)
                0x000000000052f4bc                __addtf3
 .text          0x00000000005301e8      0x8f4 0x4 /usr/lib/gcc/aarch64-linux-gnu/4.9/libgcc.a(divtf3.o)
                0x00000000005301e8                __divtf3
 .text          0x0000000000530adc      0x120 0x4 /usr/lib/gcc/aarch64-linux-gnu/4.9/libgcc.a(eqtf2.o)
                0x0000000000530adc                __eqtf2
                0x0000000000530adc                __netf2
 .text          0x0000000000530bfc      0x144 0x4 /usr/lib/gcc/aarch64-linux-gnu/4.9/libgcc.a(getf2.o)
                0x0000000000530bfc                __getf2
                0x0000000000530bfc                __gttf2
 .text          0x0000000000530d40      0x14c 0x4 /usr/lib/gcc/aarch64-linux-gnu/4.9/libgcc.a(letf2.o)
                0x0000000000530d40                __letf2
                0x0000000000530d40                __lttf2
 .text          0x0000000000530e8c      0x788 0x4 /usr/lib/gcc/aarch64-linux-gnu/4.9/libgcc.a(multf3.o)
                0x0000000000530e8c                __multf3
 .text          0x0000000000531614      0xd3c 0x4 /usr/lib/gcc/aarch64-linux-gnu/4.9/libgcc.a(subtf3.o)
                0x0000000000531614                __subtf3
 .text          0x0000000000532350       0xcc 0x4 /usr/lib/gcc/aarch64-linux-gnu/4.9/libgcc.a(unordtf2.o)
                0x0000000000532350                __unordtf2
 .text          0x000000000053241c      0x118 0x4 /usr/lib/gcc/aarch64-linux-gnu/4.9/libgcc.a(fixtfsi.o)
                0x000000000053241c                __fixtfsi
 .text          0x0000000000532534       0xf0 0x4 /usr/lib/gcc/aarch64-linux-gnu/4.9/libgcc.a(fixunstfsi.o)
                0x0000000000532534                __fixunstfsi
 .text          0x0000000000532624       0x80 0x4 /usr/lib/gcc/aarch64-linux-gnu/4.9/libgcc.a(floatsitf.o)
                0x0000000000532624                __floatsitf
 .text          0x00000000005326a4       0x70 0x4 /usr/lib/gcc/aarch64-linux-gnu/4.9/libgcc.a(floatunsitf.o)
                0x00000000005326a4                __floatunsitf
 .text          0x0000000000532714       0xe8 0x4 /usr/lib/gcc/aarch64-linux-gnu/4.9/libgcc.a(extendsftf2.o)
                0x0000000000532714                __extendsftf2
 .text          0x00000000005327fc      0x10c 0x4 /usr/lib/gcc/aarch64-linux-gnu/4.9/libgcc.a(extenddftf2.o)
                0x00000000005327fc                __extenddftf2
 .text          0x0000000000532908      0x358 0x4 /usr/lib/gcc/aarch64-linux-gnu/4.9/libgcc.a(trunctfsf2.o)
                0x0000000000532908                __trunctfsf2
 .text          0x0000000000532c60      0x358 0x4 /usr/lib/gcc/aarch64-linux-gnu/4.9/libgcc.a(trunctfdf2.o)
                0x0000000000532c60                __trunctfdf2
 .text          0x0000000000532fb8       0x6c 0x4 /usr/lib/gcc/aarch64-linux-gnu/4.9/libgcc.a(sfp-exceptions.o)
                0x0000000000532fb8                __sfp_handle_exceptions

.rodata         0x0000000000600000     0x3a60
 ** zero fill   0x0000000000600000        0x1
 ** zero fill   0x0000000000600001      0xfff
 .rodata.conftest__str_conftest_v
                0x0000000000601000        0xd 0x1 /tmp/conftest-dcbec8.o
                0x0000000000601000                conftest__str_conftest_v
 .rodata.conftest__str_1_w_
                0x000000000060100d        0x2 0x1 /tmp/conftest-dcbec8.o
                0x000000000060100d                conftest__str_1_w_
 .rodata.conftest__str_2__lu_
                0x000000000060100f        0x4 0x1 /tmp/conftest-dcbec8.o
                0x000000000060100f                conftest__str_2__lu_
 ** zero fill   0x0000000000601013        0xd
 .rodata.src_env___libc_start_main___init_libc_pfd_
                0x0000000000601020       0x18 0x4 /usr/local/popcorn/aarch64//lib/libc.a(__libc_start_main.o)
                0x0000000000601020                src_env___libc_start_main___init_libc_pfd_
 .rodata.src_env___libc_start_main__str__dev_null_
                0x0000000000601038        0xa 0x1 /usr/local/popcorn/aarch64//lib/libc.a(__libc_start_main.o)
                0x0000000000601038                src_env___libc_start_main__str__dev_null_
 .rodata.src_stdio_fopen__str_rwa_
                0x0000000000601042        0x4 0x1 /usr/local/popcorn/aarch64//lib/libc.a(fopen.o)
                0x0000000000601042                src_stdio_fopen__str_rwa_
 ** zero fill   0x0000000000601046        0x2
 .rodata.printf_core
                0x0000000000601048      0x170 0x8 /usr/local/popcorn/aarch64//lib/libc.a(vfprintf.o)
 .rodata.pop_arg
                0x00000000006011b8       0x60 0x8 /usr/local/popcorn/aarch64//lib/libc.a(vfprintf.o)
 ** zero fill   0x0000000000601218        0x8
 .rodata.src_stdio_vfprintf_c_states
                0x0000000000601220      0x1d0 0x1 /usr/local/popcorn/aarch64//lib/libc.a(vfprintf.o)
 .rodata.src_stdio_vfprintf__str______0X0x_
                0x00000000006013f0        0xa 0x1 /usr/local/popcorn/aarch64//lib/libc.a(vfprintf.o)
                0x00000000006013f0                src_stdio_vfprintf__str______0X0x_
 .rodata.src_stdio_vfprintf__str_1__null__
                0x00000000006013fa        0x7 0x1 /usr/local/popcorn/aarch64//lib/libc.a(vfprintf.o)
                0x00000000006013fa                src_stdio_vfprintf__str_1__null__
 ** zero fill   0x0000000000601401        0xf
 .rodata.src_stdio_vfprintf_c_xdigits
                0x0000000000601410       0x10 0x1 /usr/local/popcorn/aarch64//lib/libc.a(vfprintf.o)
 .rodata.src_stdio_vfprintf__str_2__0X_0X_0X_
                0x0000000000601420       0x13 0x1 /usr/local/popcorn/aarch64//lib/libc.a(vfprintf.o)
                0x0000000000601420                src_stdio_vfprintf__str_2__0X_0X_0X_
 .rodata.src_stdio_vfprintf__str_3_inf_
                0x0000000000601433        0x4 0x1 /usr/local/popcorn/aarch64//lib/libc.a(vfprintf.o)
                0x0000000000601433                src_stdio_vfprintf__str_3_inf_
 .rodata.src_stdio_vfprintf__str_4_INF_
                0x0000000000601437        0x4 0x1 /usr/local/popcorn/aarch64//lib/libc.a(vfprintf.o)
                0x0000000000601437                src_stdio_vfprintf__str_4_INF_
 .rodata.src_stdio_vfprintf__str_5_nan_
                0x000000000060143b        0x4 0x1 /usr/local/popcorn/aarch64//lib/libc.a(vfprintf.o)
                0x000000000060143b                src_stdio_vfprintf__str_5_nan_
 .rodata.src_stdio_vfprintf__str_6_NAN_
                0x000000000060143f        0x4 0x1 /usr/local/popcorn/aarch64//lib/libc.a(vfprintf.o)
                0x000000000060143f                src_stdio_vfprintf__str_6_NAN_
 .rodata.src_stdio_vfprintf__str_7___
                0x0000000000601443        0x2 0x1 /usr/local/popcorn/aarch64//lib/libc.a(vfprintf.o)
                0x0000000000601443                src_stdio_vfprintf__str_7___
 ** zero fill   0x0000000000601445        0xb
 .rodata.src_errno_strerror_c_errid
                0x0000000000601450       0x58 0x1 /usr/local/popcorn/aarch64//lib/libc.a(strerror.o)
 ** zero fill   0x00000000006014a8        0x8
 .rodata.src_errno_strerror_c_errmsg
                0x00000000006014b0      0x70c 0x1 /usr/local/popcorn/aarch64//lib/libc.a(strerror.o)
 .rodata.src_stdio___fdopen__str_rwa_
                0x0000000000601bbc        0x4 0x1 /usr/local/popcorn/aarch64//lib/libc.a(__fdopen.o)
                0x0000000000601bbc                src_stdio___fdopen__str_rwa_
 .rodata.src_migrate__str_Cannot_ret
                0x0000000000601bc0       0x2e 0x1 /usr/local/popcorn/aarch64//lib/libmigrate.a(migrate.o)
                0x0000000000601bc0                src_migrate__str_Cannot_ret
 .rodata.src_migrate__str_1_Could_not_
                0x0000000000601bee       0x1a 0x1 /usr/local/popcorn/aarch64//lib/libmigrate.a(migrate.o)
                0x0000000000601bee                src_migrate__str_1_Could_not_
 .rodata.src_migrate__str_2_0_____Unsu
                0x0000000000601c08       0x21 0x1 /usr/local/popcorn/aarch64//lib/libmigrate.a(migrate.o)
                0x0000000000601c08                src_migrate__str_2_0_____Unsu
 .rodata.src_migrate__str_3_src_migrat
                0x0000000000601c29        0xe 0x1 /usr/local/popcorn/aarch64//lib/libmigrate.a(migrate.o)
                0x0000000000601c29                src_migrate__str_3_src_migrat
 .rodata.src_migrate___func_____migrate_shim_internal___migrate_
                0x0000000000601c37       0x18 0x1 /usr/local/popcorn/aarch64//lib/libmigrate.a(migrate.o)
                0x0000000000601c37                src_migrate___func_____migrate_shim_internal___migrate_
 .rodata.src_migrate__str_4_0_____Coul
                0x0000000000601c4f       0x19 0x1 /usr/local/popcorn/aarch64//lib/libmigrate.a(migrate.o)
                0x0000000000601c4f                src_migrate__str_4_0_____Coul
 .rodata.src_userspace__str_ST_AARCH64
                0x0000000000601c68        0xf 0x1 /usr/local/popcorn/aarch64//lib/libstack-transform.a(userspace.o)
                0x0000000000601c68                src_userspace__str_ST_AARCH64
 .rodata.src_userspace__str_1__s_aarch64
                0x0000000000601c77        0xb 0x1 /usr/local/popcorn/aarch64//lib/libstack-transform.a(userspace.o)
                0x0000000000601c77                src_userspace__str_1__s_aarch64
 .rodata.src_userspace__str_2_ST_X86_64_
                0x0000000000601c82        0xe 0x1 /usr/local/popcorn/aarch64//lib/libstack-transform.a(userspace.o)
                0x0000000000601c82                src_userspace__str_2_ST_X86_64_
 .rodata.src_userspace__str_3__s_x86_64_
                0x0000000000601c90        0xa 0x1 /usr/local/popcorn/aarch64//lib/libstack-transform.a(userspace.o)
                0x0000000000601c90                src_userspace__str_3__s_x86_64_
 .rodata.src_userspace__str_4__proc__d_m
                0x0000000000601c9a        0xe 0x1 /usr/local/popcorn/aarch64//lib/libstack-transform.a(userspace.o)
                0x0000000000601c9a                src_userspace__str_4__proc__d_m
 .rodata.src_userspace__str_5_r_
                0x0000000000601ca8        0x2 0x1 /usr/local/popcorn/aarch64//lib/libstack-transform.a(userspace.o)
                0x0000000000601ca8                src_userspace__str_5_r_
 .rodata.src_userspace__str_6__lx__lx__s
                0x0000000000601caa       0x19 0x1 /usr/local/popcorn/aarch64//lib/libstack-transform.a(userspace.o)
                0x0000000000601caa                src_userspace__str_6__lx__lx(short)
 .rodata.src_userspace__str_7__stack__
                0x0000000000601cc3        0x8 0x1 /usr/local/popcorn/aarch64//lib/libstack-transform.a(userspace.o)
                0x0000000000601cc3                src_userspace__str_7__stack__
 .rodata.src_init__str__stack_tra
                0x0000000000601ccb       0x1f 0x1 /usr/local/popcorn/aarch64//lib/libstack-transform.a(init.o)
                0x0000000000601ccb                src_init__str__stack_tra
 .rodata.src_init__str_1__stack_tra
                0x0000000000601cea       0x18 0x1 /usr/local/popcorn/aarch64//lib/libstack-transform.a(init.o)
                0x0000000000601cea                src_init__str_1__stack_tra
 .rodata.src_init__str_2__stack_tra
                0x0000000000601d02       0x14 0x1 /usr/local/popcorn/aarch64//lib/libstack-transform.a(init.o)
                0x0000000000601d02                src_init__str_2__stack_tra
 .rodata.src_init__str_3__stack_tra
                0x0000000000601d16       0x16 0x1 /usr/local/popcorn/aarch64//lib/libstack-transform.a(init.o)
                0x0000000000601d16                src_init__str_3__stack_tra
 .rodata.src_init__str_4__stack_tra
                0x0000000000601d2c       0x16 0x1 /usr/local/popcorn/aarch64//lib/libstack-transform.a(init.o)
                0x0000000000601d2c                src_init__str_4__stack_tra
 .rodata.src_init__str_5__stack_tra
                0x0000000000601d42       0x1c 0x1 /usr/local/popcorn/aarch64//lib/libstack-transform.a(init.o)
                0x0000000000601d42                src_init__str_5__stack_tra
 .rodata.src_rewrite__str__src_rewri
                0x0000000000601d5e       0x42 0x1 /usr/local/popcorn/aarch64//lib/libstack-transform.a(rewrite.o)
                0x0000000000601d5e                src_rewrite__str__src_rewri
 .rodata.src_rewrite__str_1__src_rewri
                0x0000000000601da0       0x68 0x1 /usr/local/popcorn/aarch64//lib/libstack-transform.a(rewrite.o)
                0x0000000000601da0                src_rewrite__str_1__src_rewri
 .rodata.src_rewrite__str_2__src_rewri
                0x0000000000601e08       0x54 0x1 /usr/local/popcorn/aarch64//lib/libstack-transform.a(rewrite.o)
                0x0000000000601e08                src_rewrite__str_2__src_rewri
 .rodata.src_rewrite__str_3__src_rewri
                0x0000000000601e5c       0x61 0x1 /usr/local/popcorn/aarch64//lib/libstack-transform.a(rewrite.o)
                0x0000000000601e5c                src_rewrite__str_3__src_rewri
 .rodata.src_util__str_x86_64_
                0x0000000000601ebd        0x7 0x1 /usr/local/popcorn/aarch64//lib/libstack-transform.a(util.o)
                0x0000000000601ebd                src_util__str_x86_64_
 .rodata.src_util__str_1_aarch64_
                0x0000000000601ec4        0x8 0x1 /usr/local/popcorn/aarch64//lib/libstack-transform.a(util.o)
                0x0000000000601ec4                src_util__str_1_aarch64_
 .rodata.src_util__str_2_unknown_un
                0x0000000000601ecc       0x21 0x1 /usr/local/popcorn/aarch64//lib/libstack-transform.a(util.o)
                0x0000000000601ecc                src_util__str_2_unknown_un
 ** zero fill   0x0000000000601eed        0x3
 .rodata.src_arch_aarch64_properties_c_callee_saved_aarch64
                0x0000000000601ef0       0x28 0x2 /usr/local/popcorn/aarch64//lib/libstack-transform.a(properties.o)
 ** zero fill   0x0000000000601f18        0x8
 .rodata.src_arch_aarch64_properties_c_callee_saved_size_aarch64
                0x0000000000601f20       0x28 0x2 /usr/local/popcorn/aarch64//lib/libstack-transform.a(properties.o)
 .rodata.properties_aarch64
                0x0000000000601f48       0x48 0x8 /usr/local/popcorn/aarch64//lib/libstack-transform.a(properties.o)
                0x0000000000601f48                properties_aarch64
 .rodata.src_arch_aarch64_properties__str__src_arch_
                0x0000000000601f90       0x5a 0x1 /usr/local/popcorn/aarch64//lib/libstack-transform.a(properties.o)
                0x0000000000601f90                src_arch_aarch64_properties__str__src_arch_
 .rodata.src_arch_aarch64_properties__str_1__src_arch_
                0x0000000000601fea       0x51 0x1 /usr/local/popcorn/aarch64//lib/libstack-transform.a(properties.o)
                0x0000000000601fea                src_arch_aarch64_properties__str_1__src_arch_
 ** zero fill   0x000000000060203b        0x5
 .rodata.reg_aarch64
                0x0000000000602040      0x300 0x8 /usr/local/popcorn/aarch64//lib/libstack-transform.a(regs.o)
 .rodata.regs_aarch64
                0x0000000000602340       0xa0 0x8 /usr/local/popcorn/aarch64//lib/libstack-transform.a(regs.o)
                0x0000000000602340                regs_aarch64
 .rodata.src_arch_aarch64_regs__str__src_arch_
                0x00000000006023e0       0x4c 0x1 /usr/local/popcorn/aarch64//lib/libstack-transform.a(regs.o)
                0x00000000006023e0                src_arch_aarch64_regs__str__src_arch_
 .rodata.src_arch_aarch64_regs__str_1__src_arch_
                0x000000000060242c       0x4c 0x1 /usr/local/popcorn/aarch64//lib/libstack-transform.a(regs.o)
                0x000000000060242c                src_arch_aarch64_regs__str_1__src_arch_
 .rodata.src_arch_x86_64_properties_c_callee_saved_x86_64
                0x0000000000602478        0xe 0x2 /usr/local/popcorn/aarch64//lib/libstack-transform.a(properties.o)
 .rodata.src_arch_x86_64_properties_c_callee_saved_size_x86_64
                0x0000000000602486        0xe 0x2 /usr/local/popcorn/aarch64//lib/libstack-transform.a(properties.o)
 ** zero fill   0x0000000000602494        0x4
 .rodata.properties_x86_64
                0x0000000000602498       0x48 0x8 /usr/local/popcorn/aarch64//lib/libstack-transform.a(properties.o)
                0x0000000000602498                properties_x86_64
 .rodata.src_arch_x86_64_properties__str__src_arch_
                0x00000000006024e0       0x4f 0x1 /usr/local/popcorn/aarch64//lib/libstack-transform.a(properties.o)
                0x00000000006024e0                src_arch_x86_64_properties__str__src_arch_
 ** zero fill   0x000000000060252f        0x1
 .rodata.reg_x86_64
                0x0000000000602530      0x108 0x8 /usr/local/popcorn/aarch64//lib/libstack-transform.a(regs.o)
 .rodata.regs_x86_64
                0x0000000000602638       0xa0 0x8 /usr/local/popcorn/aarch64//lib/libstack-transform.a(regs.o)
                0x0000000000602638                regs_x86_64
 .rodata.src_arch_x86_64_regs__str__src_arch_
                0x00000000006026d8       0x4b 0x1 /usr/local/popcorn/aarch64//lib/libstack-transform.a(regs.o)
                0x00000000006026d8                src_arch_x86_64_regs__str__src_arch_
 .rodata.src_arch_x86_64_regs__str_1__src_arch_
                0x0000000000602723       0x4b 0x1 /usr/local/popcorn/aarch64//lib/libstack-transform.a(regs.o)
                0x0000000000602723                src_arch_x86_64_regs__str_1__src_arch_
 .rodata.src_arch_x86_64_regs__str_2__src_arch_
                0x000000000060276e       0x4a 0x1 /usr/local/popcorn/aarch64//lib/libstack-transform.a(regs.o)
                0x000000000060276e                src_arch_x86_64_regs__str_2__src_arch_
 .rodata.src_arch_x86_64_regs__str_3__src_arch_
                0x00000000006027b8       0x4a 0x1 /usr/local/popcorn/aarch64//lib/libstack-transform.a(regs.o)
                0x00000000006027b8                src_arch_x86_64_regs__str_3__src_arch_
 ** zero fill   0x0000000000602802        0x6
 .rodata.put_val_arch
                0x0000000000602808       0x50 0x8 /usr/local/popcorn/aarch64//lib/libstack-transform.a(data.o)
 .rodata.points_to_stack
                0x0000000000602858       0x28 0x8 /usr/local/popcorn/aarch64//lib/libstack-transform.a(data.o)
 .rodata.src_data__str__src_data_
                0x0000000000602880       0x38 0x1 /usr/local/popcorn/aarch64//lib/libstack-transform.a(data.o)
                0x0000000000602880                src_data__str__src_data_
 .rodata.src_data__str_1__src_data_
                0x00000000006028b8       0x50 0x1 /usr/local/popcorn/aarch64//lib/libstack-transform.a(data.o)
                0x00000000006028b8                src_data__str_1__src_data_
 .rodata.src_data__str_2__src_data_
                0x0000000000602908       0x3d 0x1 /usr/local/popcorn/aarch64//lib/libstack-transform.a(data.o)
                0x0000000000602908                src_data__str_2__src_data_
 .rodata.src_data__str_3__src_data_
                0x0000000000602945       0x30 0x1 /usr/local/popcorn/aarch64//lib/libstack-transform.a(data.o)
                0x0000000000602945                src_data__str_3__src_data_
 .rodata.src_data__str_4__src_data_
                0x0000000000602975       0x49 0x1 /usr/local/popcorn/aarch64//lib/libstack-transform.a(data.o)
                0x0000000000602975                src_data__str_4__src_data_
 .rodata.src_data__str_5__src_data_
                0x00000000006029be       0x3f 0x1 /usr/local/popcorn/aarch64//lib/libstack-transform.a(data.o)
                0x00000000006029be                src_data__str_5__src_data_
 .rodata.src_data__str_6__src_data_
                0x00000000006029fd       0x3d 0x1 /usr/local/popcorn/aarch64//lib/libstack-transform.a(data.o)
                0x00000000006029fd                src_data__str_6__src_data_
 .rodata.src_data__str_7__src_data_
                0x0000000000602a3a       0x3f 0x1 /usr/local/popcorn/aarch64//lib/libstack-transform.a(data.o)
                0x0000000000602a3a                src_data__str_7__src_data_
 .rodata.src_data__str_8__src_data_
                0x0000000000602a79       0x4b 0x1 /usr/local/popcorn/aarch64//lib/libstack-transform.a(data.o)
                0x0000000000602a79                src_data__str_8__src_data_
 .rodata.src_data__str_9__src_data_
                0x0000000000602ac4       0x37 0x1 /usr/local/popcorn/aarch64//lib/libstack-transform.a(data.o)
                0x0000000000602ac4                src_data__str_9__src_data_
 ** zero fill   0x0000000000602afb        0x5
 .rodata.fmag   0x0000000000602b00       0x10 0x10 /usr/local/popcorn/aarch64//lib/libelf.a(begin.o)
 ** zero fill   0x0000000000602b10       0x30
 .rodata.xlate32_11
                0x0000000000602b40      0x220 0x10 /usr/local/popcorn/aarch64//lib/libelf.a(32.xlatetof.o)
 ** zero fill   0x0000000000602d60       0x20
 .rodata._elf_data_init
                0x0000000000602d80       0x58 0x8 /usr/local/popcorn/aarch64//lib/libelf.a(cook.o)
                0x0000000000602d80                _elf_data_init
 ** zero fill   0x0000000000602dd8       0x28
 .rodata._elf_scn_init
                0x0000000000602e00       0xa0 0x8 /usr/local/popcorn/aarch64//lib/libelf.a(cook.o)
                0x0000000000602e00                _elf_scn_init
 ** zero fill   0x0000000000602ea0       0x20
 .rodata.xlate64_11
                0x0000000000602ec0      0x220 0x10 /usr/local/popcorn/aarch64//lib/libelf.a(64.xlatetof.o)
 ** zero fill   0x00000000006030e0       0x20
 .rodata._elf_fmsize
                0x0000000000603100      0x220 0x10 /usr/local/popcorn/aarch64//lib/libelf.a(32.fsize.o)
                0x0000000000603100                _elf_fmsize
 .rodata.src_exit_assert__str_Assertion_
                0x0000000000603320       0x23 0x1 /usr/local/popcorn/aarch64//lib/libc.a(assert.o)
                0x0000000000603320                src_exit_assert__str_Assertion_
 ** zero fill   0x0000000000603343        0x5
 .rodata.stderr
                0x0000000000603348        0x8 0x8 /usr/local/popcorn/aarch64//lib/libc.a(stderr.o)
                0x0000000000603348                stderr
 .rodata.src_stdio_vsnprintf_vsnprintf_f_
                0x0000000000603350       0xe0 0x8 /usr/local/popcorn/aarch64//lib/libc.a(vsnprintf.o)
                0x0000000000603350                src_stdio_vsnprintf_vsnprintf_f_
 .rodata.src_internal_intscan_c_table
                0x0000000000603430      0x101 0x1 /usr/local/popcorn/aarch64//lib/libc.a(intscan.o)
 .rodata.src_internal_intscan__str__________
                0x0000000000603531        0x9 0x1 /usr/local/popcorn/aarch64//lib/libc.a(intscan.o)
                0x0000000000603531                src_internal_intscan__str__________
 ** zero fill   0x000000000060353a        0x6
 .rodata.vfscanf
                0x0000000000603540      0x338 0x8 /usr/local/popcorn/aarch64//lib/libc.a(vfscanf.o)
 .rodata.src_internal_floatscan__str_infinity_
                0x0000000000603878        0x9 0x1 /usr/local/popcorn/aarch64//lib/libc.a(floatscan.o)
                0x0000000000603878                src_internal_floatscan__str_infinity_
 ** zero fill   0x0000000000603881        0xf
 .rodata.src_internal_floatscan_c_decfloat_p10s
                0x0000000000603890       0x20 0x4 /usr/local/popcorn/aarch64//lib/libc.a(floatscan.o)
 .rodata.src_internal_floatscan_switch_table_
                0x00000000006038b0        0xc 0x4 /usr/local/popcorn/aarch64//lib/libc.a(floatscan.o)
                0x00000000006038b0                src_internal_floatscan_switch_table_
 .rodata.src_internal_floatscan_switch_table_2_
                0x00000000006038bc        0xc 0x4 /usr/local/popcorn/aarch64//lib/libc.a(floatscan.o)
                0x00000000006038bc                src_internal_floatscan_switch_table_2_
 .rodata.src_signal_block_c_all_mask
                0x00000000006038c8        0x8 0x8 /usr/local/popcorn/aarch64//lib/libc.a(block.o)
 .rodata.src_signal_block_c_app_mask
                0x00000000006038d0        0x8 0x8 /usr/local/popcorn/aarch64//lib/libc.a(block.o)
 ** zero fill   0x00000000006038d8        0x8
 .rodata.__fsmu8
                0x00000000006038e0       0xcc 0x4 /usr/local/popcorn/aarch64//lib/libc.a(internal.o)
                0x00000000006038e0                __fsmu8
 ** zero fill   0x00000000006039ac        0x4
 ** zero fill   0x00000000006039b0       0x42
 .rodata        0x0000000000603a00       0x40 0x10 /usr/local/popcorn/aarch64//lib/libc.a(vfprintf.o)
 .rodata        0x0000000000603a40       0x10 0x4 /usr/lib/gcc/aarch64-linux-gnu/4.9/libgcc.a(divtf3.o)
 .rodata        0x0000000000603a50       0x10 0x4 /usr/lib/gcc/aarch64-linux-gnu/4.9/libgcc.a(multf3.o)

.rodata.cst16   0x0000000000603a60      0x110
 ** merge constants
                0x0000000000603a60      0x110

.rodata.str1.8  0x0000000000603b70       0x35
 ** merge strings
                0x0000000000603b70       0x35

.rodata.cst8    0x0000000000603ba8       0x18
 ** merge constants
                0x0000000000603ba8       0x18

.rodata.cst4    0x0000000000603bc0        0x4
 ** merge constants
                0x0000000000603bc0        0x4

.eh_frame       0x0000000000603bc8       0x60
 ** eh_frame    0x0000000000603bc8       0x60

.data           0x0000000000700000     0x11b8
 ** zero fill   0x0000000000700000        0x1
 ** zero fill   0x0000000000700001      0xfff
 .data.origin_nid
                0x0000000000701000        0x4 0x4 /usr/local/popcorn/aarch64//lib/libmigrate.a(migrate.o)
                0x0000000000701000                origin_nid
 ** zero fill   0x0000000000701004        0xc
 .data.archs    0x0000000000701010       0x80 0x4 /usr/local/popcorn/aarch64//lib/libmigrate.a(migrate.o)
                0x0000000000701010                archs
 .data._elf_sanity_checks
                0x0000000000701090        0x4 0x4 /usr/local/popcorn/aarch64//lib/libelf.a(data.o)
                0x0000000000701090                _elf_sanity_checks
 ** zero fill   0x0000000000701094        0x4
 .data.src_stdio_stderr_c_f
                0x0000000000701098       0xe0 0x8 /usr/local/popcorn/aarch64//lib/libc.a(stderr.o)
 .data.__stderr_used
                0x0000000000701178        0x8 0x8 /usr/local/popcorn/aarch64//lib/libc.a(stderr.o)
                0x0000000000701178                __stderr_used
 .data.__pthread_tsd_size
                0x0000000000701180        0x8 0x8 /usr/local/popcorn/aarch64//lib/libc.a(pthread_key_create.o)
                0x0000000000701180                __pthread_tsd_size
 .data.rel.ro   0x0000000000701188       0x10 0x8 /usr/local/popcorn/aarch64//lib/crt1.o
 .data.rel.ro   0x0000000000701198       0x10 0x8 /usr/local/popcorn/aarch64//lib/libc.a(__libc_start_main.o)
 .data.rel.ro   0x00000000007011a8       0x10 0x8 /usr/local/popcorn/aarch64//lib/libc.a(exit.o)
 .data          0x00000000007011b8        0x0 0x4 /tmp/conftest-dcbec8.o
 .data          0x00000000007011b8        0x0 0x4 /usr/local/popcorn/aarch64//lib/crt1.o
 .data          0x00000000007011b8        0x0 0x4 /usr/local/popcorn/aarch64//lib/libc.a(__libc_start_main.o)
 .data          0x00000000007011b8        0x0 0x4 /usr/local/popcorn/aarch64//lib/libc.a(exit.o)
 .data          0x00000000007011b8        0x0 0x4 /usr/local/popcorn/aarch64//lib/libc.a(libc.o)
 .data          0x00000000007011b8        0x0 0x4 /usr/local/popcorn/aarch64//lib/libc.a(fclose.o)
 .data          0x00000000007011b8        0x0 0x4 /usr/local/popcorn/aarch64//lib/libc.a(ferror.o)
 .data          0x00000000007011b8        0x0 0x4 /usr/local/popcorn/aarch64//lib/libc.a(fflush.o)
 .data          0x00000000007011b8        0x0 0x4 /usr/local/popcorn/aarch64//lib/libc.a(fopen.o)
 .data          0x00000000007011b8        0x0 0x4 /usr/local/popcorn/aarch64//lib/libc.a(fprintf.o)
 .data          0x00000000007011b8        0x0 0x4 /usr/local/popcorn/aarch64//lib/libc.a(vfprintf.o)
 .data          0x00000000007011b8        0x0 0x4 /usr/local/popcorn/aarch64//lib/libc.a(memchr.o)
 .data          0x00000000007011b8        0x0 0x4 /usr/local/popcorn/aarch64//lib/libc.a(memset.o)
 .data          0x00000000007011b8        0x0 0x4 /usr/local/popcorn/aarch64//lib/libc.a(strchr.o)
 .data          0x00000000007011b8        0x0 0x4 /usr/local/popcorn/aarch64//lib/libc.a(strchrnul.o)
 .data          0x00000000007011b8        0x0 0x4 /usr/local/popcorn/aarch64//lib/libc.a(strlen.o)
 .data          0x00000000007011b8        0x0 0x4 /usr/local/popcorn/aarch64//lib/libc.a(__lock.o)
 .data          0x00000000007011b8        0x0 0x4 /usr/local/popcorn/aarch64//lib/libc.a(__syscall_cp.o)
 .data          0x00000000007011b8        0x0 0x4 /usr/local/popcorn/aarch64//lib/libc.a(__wait.o)
 .data          0x00000000007011b8        0x0 0x4 /usr/local/popcorn/aarch64//lib/libc.a(__environ.o)
 .data          0x00000000007011b8        0x0 0x4 /usr/local/popcorn/aarch64//lib/libc.a(__init_tls.o)
 .data          0x00000000007011b8        0x0 0x4 /usr/local/popcorn/aarch64//lib/libc.a(__errno_location.o)
 .data          0x00000000007011b8        0x0 0x4 /usr/local/popcorn/aarch64//lib/libc.a(strerror.o)
 .data          0x00000000007011b8        0x0 0x4 /usr/local/popcorn/aarch64//lib/libc.a(_Exit.o)
 .data          0x00000000007011b8        0x0 0x4 /usr/local/popcorn/aarch64//lib/libc.a(syscall.o)
 .data          0x00000000007011b8        0x0 0x4 /usr/local/popcorn/aarch64//lib/libc.a(syscall_ret.o)
 .data          0x00000000007011b8        0x0 0x4 /usr/local/popcorn/aarch64//lib/libc.a(__lctrans.o)
 .data          0x00000000007011b8        0x0 0x4 /usr/local/popcorn/aarch64//lib/libc.a(malloc.o)
 .data          0x00000000007011b8        0x0 0x4 /usr/local/popcorn/aarch64//lib/libc.a(__fpclassifyl.o)
 .data          0x00000000007011b8        0x0 0x4 /usr/local/popcorn/aarch64//lib/libc.a(__signbitl.o)
 .data          0x00000000007011b8        0x0 0x4 /usr/local/popcorn/aarch64//lib/libc.a(frexpl.o)
 .data          0x00000000007011b8        0x0 0x4 /usr/local/popcorn/aarch64//lib/libc.a(madvise.o)
 .data          0x00000000007011b8        0x0 0x4 /usr/local/popcorn/aarch64//lib/libc.a(mmap.o)
 .data          0x00000000007011b8        0x0 0x4 /usr/local/popcorn/aarch64//lib/libc.a(mremap.o)
 .data          0x00000000007011b8        0x0 0x4 /usr/local/popcorn/aarch64//lib/libc.a(munmap.o)
 .data          0x00000000007011b8        0x0 0x4 /usr/local/popcorn/aarch64//lib/libc.a(wctomb.o)
 .data          0x00000000007011b8        0x0 0x4 /usr/local/popcorn/aarch64//lib/libc.a(sched_yield.o)
 .data          0x00000000007011b8        0x0 0x4 /usr/local/popcorn/aarch64//lib/libc.a(__fdopen.o)
 .data          0x00000000007011b8        0x0 0x4 /usr/local/popcorn/aarch64//lib/libc.a(__fmodeflags.o)
 .data          0x00000000007011b8        0x0 0x4 /usr/local/popcorn/aarch64//lib/libc.a(__lockfile.o)
 .data          0x00000000007011b8        0x0 0x4 /usr/local/popcorn/aarch64//lib/libc.a(__stdio_close.o)
 .data          0x00000000007011b8        0x0 0x4 /usr/local/popcorn/aarch64//lib/libc.a(__stdio_read.o)
 .data          0x00000000007011b8        0x0 0x4 /usr/local/popcorn/aarch64//lib/libc.a(__stdio_seek.o)
 .data          0x00000000007011b8        0x0 0x4 /usr/local/popcorn/aarch64//lib/libc.a(__stdio_write.o)
 .data          0x00000000007011b8        0x0 0x4 /usr/local/popcorn/aarch64//lib/libc.a(fwrite.o)
 .data          0x00000000007011b8        0x0 0x4 /usr/local/popcorn/aarch64//lib/libc.a(memcpy.o)
 .data          0x00000000007011b8        0x0 0x4 /usr/local/popcorn/aarch64//lib/libc.a(__set_thread_area.o)
 .data          0x00000000007011b8        0x0 0x4 /usr/local/popcorn/aarch64//lib/libc.a(pthread_cleanup_push.o)
 .data          0x00000000007011b8        0x0 0x4 /usr/local/popcorn/aarch64//lib/libc.a(__brk.o)
 .data          0x00000000007011b8        0x0 0x4 /usr/local/popcorn/aarch64//lib/libc.a(wcrtomb.o)
 .data          0x00000000007011b8        0x0 0x4 /usr/local/popcorn/aarch64//lib/libc.a(__towrite.o)
 .data          0x00000000007011b8        0x0 0x4 /usr/local/popcorn/aarch64//lib/libc.a(__stdio_exit.o)
 .data          0x00000000007011b8        0x0 0x4 /usr/local/popcorn/aarch64//lib/libmigrate.a(migrate.o)
 .data          0x00000000007011b8        0x0 0x4 /usr/local/popcorn/aarch64//lib/libstack-transform.a(userspace.o)
 .data          0x00000000007011b8        0x0 0x4 /usr/local/popcorn/aarch64//lib/libstack-transform.a(init.o)
 .data          0x00000000007011b8        0x0 0x4 /usr/local/popcorn/aarch64//lib/libstack-transform.a(rewrite.o)
 .data          0x00000000007011b8        0x0 0x4 /usr/local/popcorn/aarch64//lib/libstack-transform.a(unwind.o)
 .data          0x00000000007011b8        0x0 0x4 /usr/local/popcorn/aarch64//lib/libstack-transform.a(util.o)
 .data          0x00000000007011b8        0x0 0x4 /usr/local/popcorn/aarch64//lib/libstack-transform.a(properties.o)
 .data          0x00000000007011b8        0x0 0x4 /usr/local/popcorn/aarch64//lib/libstack-transform.a(regs.o)
 .data          0x00000000007011b8        0x0 0x4 /usr/local/popcorn/aarch64//lib/libstack-transform.a(properties.o)
 .data          0x00000000007011b8        0x0 0x4 /usr/local/popcorn/aarch64//lib/libstack-transform.a(regs.o)
 .data          0x00000000007011b8        0x0 0x4 /usr/local/popcorn/aarch64//lib/libstack-transform.a(data.o)
 .data          0x00000000007011b8        0x0 0x1 /usr/local/popcorn/aarch64//lib/libelf.a(begin.o)
 .data          0x00000000007011b8        0x0 0x1 /usr/local/popcorn/aarch64//lib/libelf.a(end.o)
 .data          0x00000000007011b8        0x0 0x1 /usr/local/popcorn/aarch64//lib/libelf.a(getdata.o)
 .data          0x00000000007011b8        0x0 0x1 /usr/local/popcorn/aarch64//lib/libelf.a(getident.o)
 .data          0x00000000007011b8        0x0 0x1 /usr/local/popcorn/aarch64//lib/libelf.a(nextscn.o)
 .data          0x00000000007011b8        0x0 0x1 /usr/local/popcorn/aarch64//lib/libelf.a(strptr.o)
 .data          0x00000000007011b8        0x0 0x1 /usr/local/popcorn/aarch64//lib/libelf.a(version.o)
 .data          0x00000000007011b8        0x0 0x1 /usr/local/popcorn/aarch64//lib/libelf.a(32.getehdr.o)
 .data          0x00000000007011b8        0x0 0x1 /usr/local/popcorn/aarch64//lib/libelf.a(32.xlatetof.o)
 .data          0x00000000007011b8        0x0 0x1 /usr/local/popcorn/aarch64//lib/libelf.a(cook.o)
 .data          0x00000000007011b8        0x0 0x1 /usr/local/popcorn/aarch64//lib/libelf.a(data.o)
 .data          0x00000000007011b8        0x0 0x1 /usr/local/popcorn/aarch64//lib/libelf.a(input.o)
 .data          0x00000000007011b8        0x0 0x1 /usr/local/popcorn/aarch64//lib/libelf.a(x.elfext.o)
 .data          0x00000000007011b8        0x0 0x1 /usr/local/popcorn/aarch64//lib/libelf.a(64.xlatetof.o)
 .data          0x00000000007011b8        0x0 0x1 /usr/local/popcorn/aarch64//lib/libelf.a(gelfshdr.o)
 .data          0x00000000007011b8        0x0 0x1 /usr/local/popcorn/aarch64//lib/libelf.a(swap64.o)
 .data          0x00000000007011b8        0x0 0x1 /usr/local/popcorn/aarch64//lib/libelf.a(verdef_32_tof.o)
 .data          0x00000000007011b8        0x0 0x1 /usr/local/popcorn/aarch64//lib/libelf.a(verdef_32_tom.o)
 .data          0x00000000007011b8        0x0 0x1 /usr/local/popcorn/aarch64//lib/libelf.a(verdef_64_tof.o)
 .data          0x00000000007011b8        0x0 0x1 /usr/local/popcorn/aarch64//lib/libelf.a(verdef_64_tom.o)
 .data          0x00000000007011b8        0x0 0x1 /usr/local/popcorn/aarch64//lib/libelf.a(getscn.o)
 .data          0x00000000007011b8        0x0 0x1 /usr/local/popcorn/aarch64//lib/libelf.a(newscn.o)
 .data          0x00000000007011b8        0x0 0x1 /usr/local/popcorn/aarch64//lib/libelf.a(32.fsize.o)
 .data          0x00000000007011b8        0x0 0x4 /usr/local/popcorn/aarch64//lib/libc.a(getenv.o)
 .data          0x00000000007011b8        0x0 0x4 /usr/local/popcorn/aarch64//lib/libc.a(assert.o)
 .data          0x00000000007011b8        0x0 0x4 /usr/local/popcorn/aarch64//lib/libc.a(open.o)
 .data          0x00000000007011b8        0x0 0x4 /usr/local/popcorn/aarch64//lib/libc.a(calloc.o)
 .data          0x00000000007011b8        0x0 0x4 /usr/local/popcorn/aarch64//lib/libc.a(getrlimit.o)
 .data          0x00000000007011b8        0x0 0x4 /usr/local/popcorn/aarch64//lib/libc.a(syscall.o)
 .data          0x00000000007011b8        0x0 0x4 /usr/local/popcorn/aarch64//lib/libc.a(getline.o)
 .data          0x00000000007011b8        0x0 0x4 /usr/local/popcorn/aarch64//lib/libc.a(snprintf.o)
 .data          0x00000000007011b8        0x0 0x4 /usr/local/popcorn/aarch64//lib/libc.a(sscanf.o)
 .data          0x00000000007011b8        0x0 0x4 /usr/local/popcorn/aarch64//lib/libc.a(stderr.o)
 .data          0x00000000007011b8        0x0 0x4 /usr/local/popcorn/aarch64//lib/libc.a(vsnprintf.o)
 .data          0x00000000007011b8        0x0 0x4 /usr/local/popcorn/aarch64//lib/libc.a(vsscanf.o)
 .data          0x00000000007011b8        0x0 0x4 /usr/local/popcorn/aarch64//lib/libc.a(strtol.o)
 .data          0x00000000007011b8        0x0 0x4 /usr/local/popcorn/aarch64//lib/libc.a(memcmp.o)
 .data          0x00000000007011b8        0x0 0x4 /usr/local/popcorn/aarch64//lib/libc.a(strcmp.o)
 .data          0x00000000007011b8        0x0 0x4 /usr/local/popcorn/aarch64//lib/libc.a(strncmp.o)
 .data          0x00000000007011b8        0x0 0x4 /usr/local/popcorn/aarch64//lib/libc.a(pthread_attr_get.o)
 .data          0x00000000007011b8        0x0 0x4 /usr/local/popcorn/aarch64//lib/libc.a(pthread_getattr_np.o)
 .data          0x00000000007011b8        0x0 0x4 /usr/local/popcorn/aarch64//lib/libc.a(pthread_getspecific.o)
 .data          0x00000000007011b8        0x0 0x4 /usr/local/popcorn/aarch64//lib/libc.a(pthread_key_create.o)
 .data          0x00000000007011b8        0x0 0x4 /usr/local/popcorn/aarch64//lib/libc.a(pthread_migrate.o)
 .data          0x00000000007011b8        0x0 0x4 /usr/local/popcorn/aarch64//lib/libc.a(pthread_self.o)
 .data          0x00000000007011b8        0x0 0x4 /usr/local/popcorn/aarch64//lib/libc.a(pthread_setspecific.o)
 .data          0x00000000007011b8        0x0 0x4 /usr/local/popcorn/aarch64//lib/libc.a(close.o)
 .data          0x00000000007011b8        0x0 0x4 /usr/local/popcorn/aarch64//lib/libc.a(getpid.o)
 .data          0x00000000007011b8        0x0 0x4 /usr/local/popcorn/aarch64//lib/libc.a(lseek.o)
 .data          0x00000000007011b8        0x0 0x4 /usr/local/popcorn/aarch64//lib/libc.a(read.o)
 .data          0x00000000007011b8        0x0 0x4 /usr/local/popcorn/aarch64//lib/libc.a(abort.o)
 .data          0x00000000007011b8        0x0 0x4 /usr/local/popcorn/aarch64//lib/libc.a(intscan.o)
 .data          0x00000000007011b8        0x0 0x4 /usr/local/popcorn/aarch64//lib/libc.a(shgetc.o)
 .data          0x00000000007011b8        0x0 0x4 /usr/local/popcorn/aarch64//lib/libc.a(raise.o)
 .data          0x00000000007011b8        0x0 0x4 /usr/local/popcorn/aarch64//lib/libc.a(__string_read.o)
 .data          0x00000000007011b8        0x0 0x4 /usr/local/popcorn/aarch64//lib/libc.a(__uflow.o)
 .data          0x00000000007011b8        0x0 0x4 /usr/local/popcorn/aarch64//lib/libc.a(getdelim.o)
 .data          0x00000000007011b8        0x0 0x4 /usr/local/popcorn/aarch64//lib/libc.a(vfscanf.o)
 .data          0x00000000007011b8        0x0 0x4 /usr/local/popcorn/aarch64//lib/libc.a(floatscan.o)
 .data          0x00000000007011b8        0x0 0x4 /usr/local/popcorn/aarch64//lib/libc.a(copysignl.o)
 .data          0x00000000007011b8        0x0 0x4 /usr/local/popcorn/aarch64//lib/libc.a(fabs.o)
 .data          0x00000000007011b8        0x0 0x4 /usr/local/popcorn/aarch64//lib/libc.a(fmodl.o)
 .data          0x00000000007011b8        0x0 0x4 /usr/local/popcorn/aarch64//lib/libc.a(scalbn.o)
 .data          0x00000000007011b8        0x0 0x4 /usr/local/popcorn/aarch64//lib/libc.a(scalbnl.o)
 .data          0x00000000007011b8        0x0 0x4 /usr/local/popcorn/aarch64//lib/libc.a(mbrtowc.o)
 .data          0x00000000007011b8        0x0 0x4 /usr/local/popcorn/aarch64//lib/libc.a(mbsinit.o)
 .data          0x00000000007011b8        0x0 0x4 /usr/local/popcorn/aarch64//lib/libc.a(block.o)
 .data          0x00000000007011b8        0x0 0x4 /usr/local/popcorn/aarch64//lib/libc.a(__toread.o)
 .data          0x00000000007011b8        0x0 0x4 /usr/local/popcorn/aarch64//lib/libc.a(internal.o)
 .data          0x00000000007011b8        0x0 0x1 /usr/lib/gcc/aarch64-linux-gnu/4.9/libgcc.a(addtf3.o)
 .data          0x00000000007011b8        0x0 0x1 /usr/lib/gcc/aarch64-linux-gnu/4.9/libgcc.a(divtf3.o)
 .data          0x00000000007011b8        0x0 0x1 /usr/lib/gcc/aarch64-linux-gnu/4.9/libgcc.a(eqtf2.o)
 .data          0x00000000007011b8        0x0 0x1 /usr/lib/gcc/aarch64-linux-gnu/4.9/libgcc.a(getf2.o)
 .data          0x00000000007011b8        0x0 0x1 /usr/lib/gcc/aarch64-linux-gnu/4.9/libgcc.a(letf2.o)
 .data          0x00000000007011b8        0x0 0x1 /usr/lib/gcc/aarch64-linux-gnu/4.9/libgcc.a(multf3.o)
 .data          0x00000000007011b8        0x0 0x1 /usr/lib/gcc/aarch64-linux-gnu/4.9/libgcc.a(subtf3.o)
 .data          0x00000000007011b8        0x0 0x1 /usr/lib/gcc/aarch64-linux-gnu/4.9/libgcc.a(unordtf2.o)
 .data          0x00000000007011b8        0x0 0x1 /usr/lib/gcc/aarch64-linux-gnu/4.9/libgcc.a(fixtfsi.o)
 .data          0x00000000007011b8        0x0 0x1 /usr/lib/gcc/aarch64-linux-gnu/4.9/libgcc.a(fixunstfsi.o)
 .data          0x00000000007011b8        0x0 0x1 /usr/lib/gcc/aarch64-linux-gnu/4.9/libgcc.a(floatsitf.o)
 .data          0x00000000007011b8        0x0 0x1 /usr/lib/gcc/aarch64-linux-gnu/4.9/libgcc.a(floatunsitf.o)
 .data          0x00000000007011b8        0x0 0x1 /usr/lib/gcc/aarch64-linux-gnu/4.9/libgcc.a(extendsftf2.o)
 .data          0x00000000007011b8        0x0 0x1 /usr/lib/gcc/aarch64-linux-gnu/4.9/libgcc.a(extenddftf2.o)
 .data          0x00000000007011b8        0x0 0x1 /usr/lib/gcc/aarch64-linux-gnu/4.9/libgcc.a(trunctfsf2.o)
 .data          0x00000000007011b8        0x0 0x1 /usr/lib/gcc/aarch64-linux-gnu/4.9/libgcc.a(trunctfdf2.o)
 .data          0x00000000007011b8        0x0 0x1 /usr/lib/gcc/aarch64-linux-gnu/4.9/libgcc.a(sfp-exceptions.o)

.bss            0x0000000000800000     0x2144
 ** common      0x0000000000800000       0x10
 ** zero fill   0x0000000000800010        0x1
 ** zero fill   0x0000000000800011      0xfef
 .bss.__popcorn_stack_base
                0x0000000000801000        0x8 0x8 /usr/local/popcorn/aarch64//lib/libc.a(__libc_start_main.o)
                0x0000000000801000                __popcorn_stack_base
 .bss.__progname
                0x0000000000801008        0x8 0x8 /usr/local/popcorn/aarch64//lib/libc.a(libc.o)
                0x0000000000801008                __progname
                0x0000000000801008                program_invocation_short_name
 .bss.__progname_full
                0x0000000000801010        0x8 0x8 /usr/local/popcorn/aarch64//lib/libc.a(libc.o)
                0x0000000000801010                __progname_full
                0x0000000000801010                program_invocation_name
 .bss.__libc    0x0000000000801018       0x68 0x8 /usr/local/popcorn/aarch64//lib/libc.a(libc.o)
                0x0000000000801018                __libc
 .bss.__hwcap   0x0000000000801080        0x8 0x8 /usr/local/popcorn/aarch64//lib/libc.a(libc.o)
                0x0000000000801080                __hwcap
 .bss.__sysinfo
                0x0000000000801088        0x8 0x8 /usr/local/popcorn/aarch64//lib/libc.a(libc.o)
                0x0000000000801088                __sysinfo
 .bss.src_stdio_fflush_c_dummy
                0x0000000000801090        0x8 0x8 /usr/local/popcorn/aarch64//lib/libc.a(fflush.o)
                0x0000000000801090                __stdout_used
 .bss.__environ
                0x0000000000801098        0x8 0x8 /usr/local/popcorn/aarch64//lib/libc.a(__environ.o)
                0x0000000000801098                ___environ
                0x0000000000801098                __environ
                0x0000000000801098                _environ
                0x0000000000801098                environ
 .bss.__static_tls
                0x00000000008010a0       0x20 0x8 /usr/local/popcorn/aarch64//lib/libc.a(__init_tls.o)
                0x00000000008010a0                __static_tls
 .bss.src_env___init_tls_c_builtin_tls
                0x00000000008010c0      0x1e0 0x8 /usr/local/popcorn/aarch64//lib/libc.a(__init_tls.o)
 .bss.src_malloc_malloc_c_mal
                0x00000000008012a0      0x630 0x8 /usr/local/popcorn/aarch64//lib/libc.a(malloc.o)
 .bss.src_malloc_malloc_c_expand_heap_init
                0x00000000008018d0        0x1 0x1 /usr/local/popcorn/aarch64//lib/libc.a(malloc.o)
 ** zero fill   0x00000000008018d1        0x7
 .bss.src_stdio___stdio_exit_c_dummy_file
                0x00000000008018d8        0x8 0x8 /usr/local/popcorn/aarch64//lib/libc.a(__stdio_exit.o)
                0x00000000008018d8                __stdin_used
 .bss.migrate_callback
                0x00000000008018e0        0x8 0x8 /usr/local/popcorn/aarch64//lib/libmigrate.a(migrate.o)
                0x00000000008018e0                migrate_callback
 .bss.migrate_callback_data
                0x00000000008018e8        0x8 0x8 /usr/local/popcorn/aarch64//lib/libmigrate.a(migrate.o)
                0x00000000008018e8                migrate_callback_data
 .bss.aarch64_fn
                0x00000000008018f0        0x8 0x8 /usr/local/popcorn/aarch64//lib/libstack-transform.a(userspace.o)
                0x00000000008018f0                aarch64_fn
 .bss.x86_64_fn
                0x00000000008018f8        0x8 0x8 /usr/local/popcorn/aarch64//lib/libstack-transform.a(userspace.o)
                0x00000000008018f8                x86_64_fn
 .bss.src_userspace_c_aarch64_handle
                0x0000000000801900        0x8 0x8 /usr/local/popcorn/aarch64//lib/libstack-transform.a(userspace.o)
 .bss.src_userspace_c_alloc_aarch64_fn
                0x0000000000801908        0x1 0x1 /usr/local/popcorn/aarch64//lib/libstack-transform.a(userspace.o)
 ** zero fill   0x0000000000801909        0x7
 .bss.src_userspace_c_x86_64_handle
                0x0000000000801910        0x8 0x8 /usr/local/popcorn/aarch64//lib/libstack-transform.a(userspace.o)
 .bss.src_userspace_c_alloc_x86_64_fn
                0x0000000000801918        0x1 0x1 /usr/local/popcorn/aarch64//lib/libstack-transform.a(userspace.o)
 ** zero fill   0x0000000000801919        0x3
 .bss.src_userspace_c_stack_bounds_key
                0x000000000080191c        0x4 0x4 /usr/local/popcorn/aarch64//lib/libstack-transform.a(userspace.o)
 .bss._elf_fill
                0x0000000000801920        0x4 0x4 /usr/local/popcorn/aarch64//lib/libelf.a(data.o)
                0x0000000000801920                _elf_fill
 .bss._elf_errno
                0x0000000000801924        0x4 0x4 /usr/local/popcorn/aarch64//lib/libelf.a(data.o)
                0x0000000000801924                _elf_errno
 .bss._elf_version
                0x0000000000801928        0x4 0x4 /usr/local/popcorn/aarch64//lib/libelf.a(data.o)
                0x0000000000801928                _elf_version
 .bss.src_stdio_stderr_c_buf
                0x000000000080192c        0x8 0x1 /usr/local/popcorn/aarch64//lib/libc.a(stderr.o)
 ** zero fill   0x0000000000801934        0xc
 .bss.__pthread_tsd_main
                0x0000000000801940      0x400 0x8 /usr/local/popcorn/aarch64//lib/libc.a(pthread_key_create.o)
                0x0000000000801940                __pthread_tsd_main
 .bss.src_thread_pthread_key_create_c_keys
                0x0000000000801d40      0x400 0x8 /usr/local/popcorn/aarch64//lib/libc.a(pthread_key_create.o)
 .bss.src_multibyte_mbrtowc_c_mbrtowc_internal_state
                0x0000000000802140        0x4 0x4 /usr/local/popcorn/aarch64//lib/libc.a(mbrtowc.o)
 .bss           0x0000000000802144        0x0 0x4 /tmp/conftest-dcbec8.o
 .bss           0x0000000000802144        0x0 0x4 /usr/local/popcorn/aarch64//lib/crt1.o
 .bss           0x0000000000802144        0x0 0x4 /usr/local/popcorn/aarch64//lib/libc.a(__libc_start_main.o)
 .bss           0x0000000000802144        0x0 0x4 /usr/local/popcorn/aarch64//lib/libc.a(exit.o)
 .bss           0x0000000000802144        0x0 0x4 /usr/local/popcorn/aarch64//lib/libc.a(libc.o)
 .bss           0x0000000000802144        0x0 0x4 /usr/local/popcorn/aarch64//lib/libc.a(fclose.o)
 .bss           0x0000000000802144        0x0 0x4 /usr/local/popcorn/aarch64//lib/libc.a(ferror.o)
 .bss           0x0000000000802144        0x0 0x4 /usr/local/popcorn/aarch64//lib/libc.a(fflush.o)
 .bss           0x0000000000802144        0x0 0x4 /usr/local/popcorn/aarch64//lib/libc.a(fopen.o)
 .bss           0x0000000000802144        0x0 0x4 /usr/local/popcorn/aarch64//lib/libc.a(fprintf.o)
 .bss           0x0000000000802144        0x0 0x4 /usr/local/popcorn/aarch64//lib/libc.a(vfprintf.o)
 .bss           0x0000000000802144        0x0 0x4 /usr/local/popcorn/aarch64//lib/libc.a(memchr.o)
 .bss           0x0000000000802144        0x0 0x4 /usr/local/popcorn/aarch64//lib/libc.a(memset.o)
 .bss           0x0000000000802144        0x0 0x4 /usr/local/popcorn/aarch64//lib/libc.a(strchr.o)
 .bss           0x0000000000802144        0x0 0x4 /usr/local/popcorn/aarch64//lib/libc.a(strchrnul.o)
 .bss           0x0000000000802144        0x0 0x4 /usr/local/popcorn/aarch64//lib/libc.a(strlen.o)
 .bss           0x0000000000802144        0x0 0x4 /usr/local/popcorn/aarch64//lib/libc.a(__lock.o)
 .bss           0x0000000000802144        0x0 0x4 /usr/local/popcorn/aarch64//lib/libc.a(__syscall_cp.o)
 .bss           0x0000000000802144        0x0 0x4 /usr/local/popcorn/aarch64//lib/libc.a(__wait.o)
 .bss           0x0000000000802144        0x0 0x4 /usr/local/popcorn/aarch64//lib/libc.a(__environ.o)
 .bss           0x0000000000802144        0x0 0x4 /usr/local/popcorn/aarch64//lib/libc.a(__init_tls.o)
 .bss           0x0000000000802144        0x0 0x4 /usr/local/popcorn/aarch64//lib/libc.a(__errno_location.o)
 .bss           0x0000000000802144        0x0 0x4 /usr/local/popcorn/aarch64//lib/libc.a(strerror.o)
 .bss           0x0000000000802144        0x0 0x4 /usr/local/popcorn/aarch64//lib/libc.a(_Exit.o)
 .bss           0x0000000000802144        0x0 0x4 /usr/local/popcorn/aarch64//lib/libc.a(syscall.o)
 .bss           0x0000000000802144        0x0 0x4 /usr/local/popcorn/aarch64//lib/libc.a(syscall_ret.o)
 .bss           0x0000000000802144        0x0 0x4 /usr/local/popcorn/aarch64//lib/libc.a(__lctrans.o)
 .bss           0x0000000000802144        0x0 0x4 /usr/local/popcorn/aarch64//lib/libc.a(malloc.o)
 .bss           0x0000000000802144        0x0 0x4 /usr/local/popcorn/aarch64//lib/libc.a(__fpclassifyl.o)
 .bss           0x0000000000802144        0x0 0x4 /usr/local/popcorn/aarch64//lib/libc.a(__signbitl.o)
 .bss           0x0000000000802144        0x0 0x4 /usr/local/popcorn/aarch64//lib/libc.a(frexpl.o)
 .bss           0x0000000000802144        0x0 0x4 /usr/local/popcorn/aarch64//lib/libc.a(madvise.o)
 .bss           0x0000000000802144        0x0 0x4 /usr/local/popcorn/aarch64//lib/libc.a(mmap.o)
 .bss           0x0000000000802144        0x0 0x4 /usr/local/popcorn/aarch64//lib/libc.a(mremap.o)
 .bss           0x0000000000802144        0x0 0x4 /usr/local/popcorn/aarch64//lib/libc.a(munmap.o)
 .bss           0x0000000000802144        0x0 0x4 /usr/local/popcorn/aarch64//lib/libc.a(wctomb.o)
 .bss           0x0000000000802144        0x0 0x4 /usr/local/popcorn/aarch64//lib/libc.a(sched_yield.o)
 .bss           0x0000000000802144        0x0 0x4 /usr/local/popcorn/aarch64//lib/libc.a(__fdopen.o)
 .bss           0x0000000000802144        0x0 0x4 /usr/local/popcorn/aarch64//lib/libc.a(__fmodeflags.o)
 .bss           0x0000000000802144        0x0 0x4 /usr/local/popcorn/aarch64//lib/libc.a(__lockfile.o)
 .bss           0x0000000000802144        0x0 0x4 /usr/local/popcorn/aarch64//lib/libc.a(__stdio_close.o)
 .bss           0x0000000000802144        0x0 0x4 /usr/local/popcorn/aarch64//lib/libc.a(__stdio_read.o)
 .bss           0x0000000000802144        0x0 0x4 /usr/local/popcorn/aarch64//lib/libc.a(__stdio_seek.o)
 .bss           0x0000000000802144        0x0 0x4 /usr/local/popcorn/aarch64//lib/libc.a(__stdio_write.o)
 .bss           0x0000000000802144        0x0 0x4 /usr/local/popcorn/aarch64//lib/libc.a(fwrite.o)
 .bss           0x0000000000802144        0x0 0x4 /usr/local/popcorn/aarch64//lib/libc.a(memcpy.o)
 .bss           0x0000000000802144        0x0 0x4 /usr/local/popcorn/aarch64//lib/libc.a(__set_thread_area.o)
 .bss           0x0000000000802144        0x0 0x4 /usr/local/popcorn/aarch64//lib/libc.a(pthread_cleanup_push.o)
 .bss           0x0000000000802144        0x0 0x4 /usr/local/popcorn/aarch64//lib/libc.a(__brk.o)
 .bss           0x0000000000802144        0x0 0x4 /usr/local/popcorn/aarch64//lib/libc.a(wcrtomb.o)
 .bss           0x0000000000802144        0x0 0x4 /usr/local/popcorn/aarch64//lib/libc.a(__towrite.o)
 .bss           0x0000000000802144        0x0 0x4 /usr/local/popcorn/aarch64//lib/libc.a(__stdio_exit.o)
 .bss           0x0000000000802144        0x0 0x4 /usr/local/popcorn/aarch64//lib/libmigrate.a(migrate.o)
 .bss           0x0000000000802144        0x0 0x4 /usr/local/popcorn/aarch64//lib/libstack-transform.a(userspace.o)
 .bss           0x0000000000802144        0x0 0x4 /usr/local/popcorn/aarch64//lib/libstack-transform.a(init.o)
 .bss           0x0000000000802144        0x0 0x4 /usr/local/popcorn/aarch64//lib/libstack-transform.a(rewrite.o)
 .bss           0x0000000000802144        0x0 0x4 /usr/local/popcorn/aarch64//lib/libstack-transform.a(unwind.o)
 .bss           0x0000000000802144        0x0 0x4 /usr/local/popcorn/aarch64//lib/libstack-transform.a(util.o)
 .bss           0x0000000000802144        0x0 0x4 /usr/local/popcorn/aarch64//lib/libstack-transform.a(properties.o)
 .bss           0x0000000000802144        0x0 0x4 /usr/local/popcorn/aarch64//lib/libstack-transform.a(regs.o)
 .bss           0x0000000000802144        0x0 0x4 /usr/local/popcorn/aarch64//lib/libstack-transform.a(properties.o)
 .bss           0x0000000000802144        0x0 0x4 /usr/local/popcorn/aarch64//lib/libstack-transform.a(regs.o)
 .bss           0x0000000000802144        0x0 0x4 /usr/local/popcorn/aarch64//lib/libstack-transform.a(data.o)
 .bss           0x0000000000802144        0x0 0x1 /usr/local/popcorn/aarch64//lib/libelf.a(begin.o)
 .bss           0x0000000000802144        0x0 0x1 /usr/local/popcorn/aarch64//lib/libelf.a(end.o)
 .bss           0x0000000000802144        0x0 0x1 /usr/local/popcorn/aarch64//lib/libelf.a(getdata.o)
 .bss           0x0000000000802144        0x0 0x1 /usr/local/popcorn/aarch64//lib/libelf.a(getident.o)
 .bss           0x0000000000802144        0x0 0x1 /usr/local/popcorn/aarch64//lib/libelf.a(nextscn.o)
 .bss           0x0000000000802144        0x0 0x1 /usr/local/popcorn/aarch64//lib/libelf.a(strptr.o)
 .bss           0x0000000000802144        0x0 0x1 /usr/local/popcorn/aarch64//lib/libelf.a(version.o)
 .bss           0x0000000000802144        0x0 0x1 /usr/local/popcorn/aarch64//lib/libelf.a(32.getehdr.o)
 .bss           0x0000000000802144        0x0 0x1 /usr/local/popcorn/aarch64//lib/libelf.a(32.xlatetof.o)
 .bss           0x0000000000802144        0x0 0x1 /usr/local/popcorn/aarch64//lib/libelf.a(cook.o)
 .bss           0x0000000000802144        0x0 0x1 /usr/local/popcorn/aarch64//lib/libelf.a(data.o)
 .bss           0x0000000000802144        0x0 0x1 /usr/local/popcorn/aarch64//lib/libelf.a(input.o)
 .bss           0x0000000000802144        0x0 0x1 /usr/local/popcorn/aarch64//lib/libelf.a(x.elfext.o)
 .bss           0x0000000000802144        0x0 0x1 /usr/local/popcorn/aarch64//lib/libelf.a(64.xlatetof.o)
 .bss           0x0000000000802144        0x0 0x1 /usr/local/popcorn/aarch64//lib/libelf.a(gelfshdr.o)
 .bss           0x0000000000802144        0x0 0x1 /usr/local/popcorn/aarch64//lib/libelf.a(swap64.o)
 .bss           0x0000000000802144        0x0 0x1 /usr/local/popcorn/aarch64//lib/libelf.a(verdef_32_tof.o)
 .bss           0x0000000000802144        0x0 0x1 /usr/local/popcorn/aarch64//lib/libelf.a(verdef_32_tom.o)
 .bss           0x0000000000802144        0x0 0x1 /usr/local/popcorn/aarch64//lib/libelf.a(verdef_64_tof.o)
 .bss           0x0000000000802144        0x0 0x1 /usr/local/popcorn/aarch64//lib/libelf.a(verdef_64_tom.o)
 .bss           0x0000000000802144        0x0 0x1 /usr/local/popcorn/aarch64//lib/libelf.a(getscn.o)
 .bss           0x0000000000802144        0x0 0x1 /usr/local/popcorn/aarch64//lib/libelf.a(newscn.o)
 .bss           0x0000000000802144        0x0 0x1 /usr/local/popcorn/aarch64//lib/libelf.a(32.fsize.o)
 .bss           0x0000000000802144        0x0 0x4 /usr/local/popcorn/aarch64//lib/libc.a(getenv.o)
 .bss           0x0000000000802144        0x0 0x4 /usr/local/popcorn/aarch64//lib/libc.a(assert.o)
 .bss           0x0000000000802144        0x0 0x4 /usr/local/popcorn/aarch64//lib/libc.a(open.o)
 .bss           0x0000000000802144        0x0 0x4 /usr/local/popcorn/aarch64//lib/libc.a(calloc.o)
 .bss           0x0000000000802144        0x0 0x4 /usr/local/popcorn/aarch64//lib/libc.a(getrlimit.o)
 .bss           0x0000000000802144        0x0 0x4 /usr/local/popcorn/aarch64//lib/libc.a(syscall.o)
 .bss           0x0000000000802144        0x0 0x4 /usr/local/popcorn/aarch64//lib/libc.a(getline.o)
 .bss           0x0000000000802144        0x0 0x4 /usr/local/popcorn/aarch64//lib/libc.a(snprintf.o)
 .bss           0x0000000000802144        0x0 0x4 /usr/local/popcorn/aarch64//lib/libc.a(sscanf.o)
 .bss           0x0000000000802144        0x0 0x4 /usr/local/popcorn/aarch64//lib/libc.a(stderr.o)
 .bss           0x0000000000802144        0x0 0x4 /usr/local/popcorn/aarch64//lib/libc.a(vsnprintf.o)
 .bss           0x0000000000802144        0x0 0x4 /usr/local/popcorn/aarch64//lib/libc.a(vsscanf.o)
 .bss           0x0000000000802144        0x0 0x4 /usr/local/popcorn/aarch64//lib/libc.a(strtol.o)
 .bss           0x0000000000802144        0x0 0x4 /usr/local/popcorn/aarch64//lib/libc.a(memcmp.o)
 .bss           0x0000000000802144        0x0 0x4 /usr/local/popcorn/aarch64//lib/libc.a(strcmp.o)
 .bss           0x0000000000802144        0x0 0x4 /usr/local/popcorn/aarch64//lib/libc.a(strncmp.o)
 .bss           0x0000000000802144        0x0 0x4 /usr/local/popcorn/aarch64//lib/libc.a(pthread_attr_get.o)
 .bss           0x0000000000802144        0x0 0x4 /usr/local/popcorn/aarch64//lib/libc.a(pthread_getattr_np.o)
 .bss           0x0000000000802144        0x0 0x4 /usr/local/popcorn/aarch64//lib/libc.a(pthread_getspecific.o)
 .bss           0x0000000000802144        0x0 0x4 /usr/local/popcorn/aarch64//lib/libc.a(pthread_key_create.o)
 .bss           0x0000000000802144        0x0 0x4 /usr/local/popcorn/aarch64//lib/libc.a(pthread_migrate.o)
 .bss           0x0000000000802144        0x0 0x4 /usr/local/popcorn/aarch64//lib/libc.a(pthread_self.o)
 .bss           0x0000000000802144        0x0 0x4 /usr/local/popcorn/aarch64//lib/libc.a(pthread_setspecific.o)
 .bss           0x0000000000802144        0x0 0x4 /usr/local/popcorn/aarch64//lib/libc.a(close.o)
 .bss           0x0000000000802144        0x0 0x4 /usr/local/popcorn/aarch64//lib/libc.a(getpid.o)
 .bss           0x0000000000802144        0x0 0x4 /usr/local/popcorn/aarch64//lib/libc.a(lseek.o)
 .bss           0x0000000000802144        0x0 0x4 /usr/local/popcorn/aarch64//lib/libc.a(read.o)
 .bss           0x0000000000802144        0x0 0x4 /usr/local/popcorn/aarch64//lib/libc.a(abort.o)
 .bss           0x0000000000802144        0x0 0x4 /usr/local/popcorn/aarch64//lib/libc.a(intscan.o)
 .bss           0x0000000000802144        0x0 0x4 /usr/local/popcorn/aarch64//lib/libc.a(shgetc.o)
 .bss           0x0000000000802144        0x0 0x4 /usr/local/popcorn/aarch64//lib/libc.a(raise.o)
 .bss           0x0000000000802144        0x0 0x4 /usr/local/popcorn/aarch64//lib/libc.a(__string_read.o)
 .bss           0x0000000000802144        0x0 0x4 /usr/local/popcorn/aarch64//lib/libc.a(__uflow.o)
 .bss           0x0000000000802144        0x0 0x4 /usr/local/popcorn/aarch64//lib/libc.a(getdelim.o)
 .bss           0x0000000000802144        0x0 0x4 /usr/local/popcorn/aarch64//lib/libc.a(vfscanf.o)
 .bss           0x0000000000802144        0x0 0x4 /usr/local/popcorn/aarch64//lib/libc.a(floatscan.o)
 .bss           0x0000000000802144        0x0 0x4 /usr/local/popcorn/aarch64//lib/libc.a(copysignl.o)
 .bss           0x0000000000802144        0x0 0x4 /usr/local/popcorn/aarch64//lib/libc.a(fabs.o)
 .bss           0x0000000000802144        0x0 0x4 /usr/local/popcorn/aarch64//lib/libc.a(fmodl.o)
 .bss           0x0000000000802144        0x0 0x4 /usr/local/popcorn/aarch64//lib/libc.a(scalbn.o)
 .bss           0x0000000000802144        0x0 0x4 /usr/local/popcorn/aarch64//lib/libc.a(scalbnl.o)
 .bss           0x0000000000802144        0x0 0x4 /usr/local/popcorn/aarch64//lib/libc.a(mbrtowc.o)
 .bss           0x0000000000802144        0x0 0x4 /usr/local/popcorn/aarch64//lib/libc.a(mbsinit.o)
 .bss           0x0000000000802144        0x0 0x4 /usr/local/popcorn/aarch64//lib/libc.a(block.o)
 .bss           0x0000000000802144        0x0 0x4 /usr/local/popcorn/aarch64//lib/libc.a(__toread.o)
 .bss           0x0000000000802144        0x0 0x4 /usr/local/popcorn/aarch64//lib/libc.a(internal.o)
 .bss           0x0000000000802144        0x0 0x1 /usr/lib/gcc/aarch64-linux-gnu/4.9/libgcc.a(addtf3.o)
 .bss           0x0000000000802144        0x0 0x1 /usr/lib/gcc/aarch64-linux-gnu/4.9/libgcc.a(divtf3.o)
 .bss           0x0000000000802144        0x0 0x1 /usr/lib/gcc/aarch64-linux-gnu/4.9/libgcc.a(eqtf2.o)
 .bss           0x0000000000802144        0x0 0x1 /usr/lib/gcc/aarch64-linux-gnu/4.9/libgcc.a(getf2.o)
 .bss           0x0000000000802144        0x0 0x1 /usr/lib/gcc/aarch64-linux-gnu/4.9/libgcc.a(letf2.o)
 .bss           0x0000000000802144        0x0 0x1 /usr/lib/gcc/aarch64-linux-gnu/4.9/libgcc.a(multf3.o)
 .bss           0x0000000000802144        0x0 0x1 /usr/lib/gcc/aarch64-linux-gnu/4.9/libgcc.a(subtf3.o)
 .bss           0x0000000000802144        0x0 0x1 /usr/lib/gcc/aarch64-linux-gnu/4.9/libgcc.a(unordtf2.o)
 .bss           0x0000000000802144        0x0 0x1 /usr/lib/gcc/aarch64-linux-gnu/4.9/libgcc.a(fixtfsi.o)
 .bss           0x0000000000802144        0x0 0x1 /usr/lib/gcc/aarch64-linux-gnu/4.9/libgcc.a(fixunstfsi.o)
 .bss           0x0000000000802144        0x0 0x1 /usr/lib/gcc/aarch64-linux-gnu/4.9/libgcc.a(floatsitf.o)
 .bss           0x0000000000802144        0x0 0x1 /usr/lib/gcc/aarch64-linux-gnu/4.9/libgcc.a(floatunsitf.o)
 .bss           0x0000000000802144        0x0 0x1 /usr/lib/gcc/aarch64-linux-gnu/4.9/libgcc.a(extendsftf2.o)
 .bss           0x0000000000802144        0x0 0x1 /usr/lib/gcc/aarch64-linux-gnu/4.9/libgcc.a(extenddftf2.o)
 .bss           0x0000000000802144        0x0 0x1 /usr/lib/gcc/aarch64-linux-gnu/4.9/libgcc.a(trunctfsf2.o)
 .bss           0x0000000000802144        0x0 0x1 /usr/lib/gcc/aarch64-linux-gnu/4.9/libgcc.a(trunctfdf2.o)
 .bss           0x0000000000802144        0x0 0x1 /usr/lib/gcc/aarch64-linux-gnu/4.9/libgcc.a(sfp-exceptions.o)

.eh_frame_hdr   0x0000000000802144       0x1c
 ** eh_frame_hdr
                0x0000000000802144       0x1c

.llvm_stackmaps
                0x0000000000803000      0x668
 .llvm_stackmaps
                0x0000000000803000      0x290 0x8 /tmp/conftest-dcbec8.o
 .llvm_stackmaps
                0x0000000000803290       0x48 0x8 /usr/local/popcorn/aarch64//lib/libc.a(__libc_start_main.o)
 .llvm_stackmaps
                0x00000000008032d8      0x390 0x8 /usr/local/popcorn/aarch64//lib/libmigrate.a(migrate.o)

.tdata          0x0000000000900000     0x1000
 ** zero fill   0x0000000000900000        0x1
 ** zero fill   0x0000000000900001      0xfff

.tbss           0x0000000000a00000     0x1000
 ** zero fill   0x0000000000a00000        0x1
 ** zero fill   0x0000000000a00001      0xfff

.init_array     0x0000000000a01000       0x10
 .init_array    0x0000000000a01000        0x8 0x8 /usr/local/popcorn/aarch64//lib/libmigrate.a(migrate.o)
 .init_array    0x0000000000a01008        0x8 0x8 /usr/local/popcorn/aarch64//lib/libstack-transform.a(init.o)

.comment        0x0000000000000000       0x70
 ** merge strings
                0x0000000000000000       0x70

.stack_transform.unwind
                0x0000000000000000       0xc0
 .stack_transform.unwind
                0x0000000000000000       0x20 0x4 /tmp/conftest-dcbec8.o
 .stack_transform.unwind
                0x0000000000000020       0x28 0x4 /usr/local/popcorn/aarch64//lib/libc.a(__libc_start_main.o)
 .stack_transform.unwind
                0x0000000000000048       0x78 0x4 /usr/local/popcorn/aarch64//lib/libmigrate.a(migrate.o)

.stack_transform.unwind_arange
                0x0000000000000000       0xc0
 .stack_transform.unwind_arange
                0x0000000000000000       0x20 0x8 /tmp/conftest-dcbec8.o
 .stack_transform.unwind_arange
                0x0000000000000020       0x10 0x8 /usr/local/popcorn/aarch64//lib/libc.a(__libc_start_main.o)
 .stack_transform.unwind_arange
                0x0000000000000030       0x90 0x8 /usr/local/popcorn/aarch64//lib/libmigrate.a(migrate.o)

.debug_str      0x0000000000000000     0x33e0
 ** merge strings
                0x0000000000000000     0x33e0

.debug_loc      0x0000000000000000    0x104d1
 .debug_loc     0x0000000000000000       0x36 0x1 /usr/local/popcorn/aarch64//lib/crt1.o
 .debug_loc     0x0000000000000036      0x1e9 0x1 /usr/local/popcorn/aarch64//lib/libc.a(__libc_start_main.o)
 .debug_loc     0x000000000000021f       0x59 0x1 /usr/local/popcorn/aarch64//lib/libc.a(exit.o)
 .debug_loc     0x0000000000000278        0x0 0x1 /usr/local/popcorn/aarch64//lib/libc.a(libc.o)
 .debug_loc     0x0000000000000278       0x8f 0x1 /usr/local/popcorn/aarch64//lib/libc.a(fclose.o)
 .debug_loc     0x0000000000000307       0x59 0x1 /usr/local/popcorn/aarch64//lib/libc.a(ferror.o)
 .debug_loc     0x0000000000000360       0xd8 0x1 /usr/local/popcorn/aarch64//lib/libc.a(fflush.o)
 .debug_loc     0x0000000000000438       0xd5 0x1 /usr/local/popcorn/aarch64//lib/libc.a(fopen.o)
 .debug_loc     0x000000000000050d       0x23 0x1 /usr/local/popcorn/aarch64//lib/libc.a(fprintf.o)
 .debug_loc     0x0000000000000530     0x4be6 0x1 /usr/local/popcorn/aarch64//lib/libc.a(vfprintf.o)
 .debug_loc     0x0000000000005116      0x16a 0x1 /usr/local/popcorn/aarch64//lib/libc.a(memchr.o)
 .debug_loc     0x0000000000005280      0x14a 0x1 /usr/local/popcorn/aarch64//lib/libc.a(memset.o)
 .debug_loc     0x00000000000053ca       0x7c 0x1 /usr/local/popcorn/aarch64//lib/libc.a(strchr.o)
 .debug_loc     0x0000000000005446       0xeb 0x1 /usr/local/popcorn/aarch64//lib/libc.a(strchrnul.o)
 .debug_loc     0x0000000000005531       0x92 0x1 /usr/local/popcorn/aarch64//lib/libc.a(strlen.o)
 .debug_loc     0x00000000000055c3       0x36 0x1 /usr/local/popcorn/aarch64//lib/libc.a(__lock.o)
 .debug_loc     0x00000000000055f9        0x0 0x1 /usr/local/popcorn/aarch64//lib/libc.a(__syscall_cp.o)
 .debug_loc     0x00000000000055f9      0x137 0x1 /usr/local/popcorn/aarch64//lib/libc.a(__wait.o)
 .debug_loc     0x0000000000005730        0x0 0x1 /usr/local/popcorn/aarch64//lib/libc.a(__environ.o)
 .debug_loc     0x0000000000005730      0x21f 0x1 /usr/local/popcorn/aarch64//lib/libc.a(__init_tls.o)
 .debug_loc     0x000000000000594f        0x0 0x1 /usr/local/popcorn/aarch64//lib/libc.a(__errno_location.o)
 .debug_loc     0x000000000000594f       0x83 0x1 /usr/local/popcorn/aarch64//lib/libc.a(strerror.o)
 .debug_loc     0x00000000000059d2       0x23 0x1 /usr/local/popcorn/aarch64//lib/libc.a(_Exit.o)
 .debug_loc     0x00000000000059f5       0x23 0x1 /usr/local/popcorn/aarch64//lib/libc.a(syscall_ret.o)
 .debug_loc     0x0000000000005a18       0x23 0x1 /usr/local/popcorn/aarch64//lib/libc.a(__lctrans.o)
 .debug_loc     0x0000000000005a3b      0xfbe 0x1 /usr/local/popcorn/aarch64//lib/libc.a(malloc.o)
 .debug_loc     0x00000000000069f9        0x0 0x1 /usr/local/popcorn/aarch64//lib/libc.a(__fpclassifyl.o)
 .debug_loc     0x00000000000069f9        0x0 0x1 /usr/local/popcorn/aarch64//lib/libc.a(__signbitl.o)
 .debug_loc     0x00000000000069f9      0x132 0x1 /usr/local/popcorn/aarch64//lib/libc.a(frexpl.o)
 .debug_loc     0x0000000000006b2b       0x69 0x1 /usr/local/popcorn/aarch64//lib/libc.a(madvise.o)
 .debug_loc     0x0000000000006b94      0x24b 0x1 /usr/local/popcorn/aarch64//lib/libc.a(mmap.o)
 .debug_loc     0x0000000000006ddf       0x8f 0x1 /usr/local/popcorn/aarch64//lib/libc.a(mremap.o)
 .debug_loc     0x0000000000006e6e       0xb5 0x1 /usr/local/popcorn/aarch64//lib/libc.a(munmap.o)
 .debug_loc     0x0000000000006f23       0x23 0x1 /usr/local/popcorn/aarch64//lib/libc.a(wctomb.o)
 .debug_loc     0x0000000000006f46       0x23 0x1 /usr/local/popcorn/aarch64//lib/libc.a(sched_yield.o)
 .debug_loc     0x0000000000006f69      0x207 0x1 /usr/local/popcorn/aarch64//lib/libc.a(__fdopen.o)
 .debug_loc     0x0000000000007170       0x6c 0x1 /usr/local/popcorn/aarch64//lib/libc.a(__fmodeflags.o)
 .debug_loc     0x00000000000071dc       0xfb 0x1 /usr/local/popcorn/aarch64//lib/libc.a(__lockfile.o)
 .debug_loc     0x00000000000072d7       0x46 0x1 /usr/local/popcorn/aarch64//lib/libc.a(__stdio_close.o)
 .debug_loc     0x000000000000731d      0x111 0x1 /usr/local/popcorn/aarch64//lib/libc.a(__stdio_read.o)
 .debug_loc     0x000000000000742e       0x46 0x1 /usr/local/popcorn/aarch64//lib/libc.a(__stdio_seek.o)
 .debug_loc     0x0000000000007474      0x1b7 0x1 /usr/local/popcorn/aarch64//lib/libc.a(__stdio_write.o)
 .debug_loc     0x000000000000762b      0x26b 0x1 /usr/local/popcorn/aarch64//lib/libc.a(fwrite.o)
 .debug_loc     0x0000000000007896      0x4c1 0x1 /usr/local/popcorn/aarch64//lib/libc.a(memcpy.o)
 .debug_loc     0x0000000000007d57       0x6c 0x1 /usr/local/popcorn/aarch64//lib/libc.a(pthread_cleanup_push.o)
 .debug_loc     0x0000000000007dc3       0x23 0x1 /usr/local/popcorn/aarch64//lib/libc.a(__brk.o)
 .debug_loc     0x0000000000007de6       0x23 0x1 /usr/local/popcorn/aarch64//lib/libc.a(wcrtomb.o)
 .debug_loc     0x0000000000007e09        0x0 0x1 /usr/local/popcorn/aarch64//lib/libc.a(__towrite.o)
 .debug_loc     0x0000000000007e09       0x36 0x1 /usr/local/popcorn/aarch64//lib/libc.a(__stdio_exit.o)
 .debug_loc     0x0000000000007e3f      0x4c4 0x1 /usr/local/popcorn/aarch64//lib/libmigrate.a(migrate.o)
 .debug_loc     0x0000000000008303      0x75f 0x1 /usr/local/popcorn/aarch64//lib/libstack-transform.a(userspace.o)
 .debug_loc     0x0000000000008a62       0xb2 0x1 /usr/local/popcorn/aarch64//lib/libstack-transform.a(init.o)
 .debug_loc     0x0000000000008b14      0xc86 0x1 /usr/local/popcorn/aarch64//lib/libstack-transform.a(rewrite.o)
 .debug_loc     0x000000000000979a      0x779 0x1 /usr/local/popcorn/aarch64//lib/libstack-transform.a(unwind.o)
 .debug_loc     0x0000000000009f13      0x82b 0x1 /usr/local/popcorn/aarch64//lib/libstack-transform.a(util.o)
 .debug_loc     0x000000000000a73e       0x23 0x1 /usr/local/popcorn/aarch64//lib/libstack-transform.a(properties.o)
 .debug_loc     0x000000000000a761      0x6a0 0x1 /usr/local/popcorn/aarch64//lib/libstack-transform.a(regs.o)
 .debug_loc     0x000000000000ae01       0x59 0x1 /usr/local/popcorn/aarch64//lib/libstack-transform.a(properties.o)
 .debug_loc     0x000000000000ae5a      0x499 0x1 /usr/local/popcorn/aarch64//lib/libstack-transform.a(regs.o)
 .debug_loc     0x000000000000b2f3      0xa0d 0x1 /usr/local/popcorn/aarch64//lib/libstack-transform.a(data.o)
 .debug_loc     0x000000000000bd00       0x59 0x1 /usr/local/popcorn/aarch64//lib/libc.a(getenv.o)
 .debug_loc     0x000000000000bd59      0x124 0x1 /usr/local/popcorn/aarch64//lib/libc.a(assert.o)
 .debug_loc     0x000000000000be7d       0xb5 0x1 /usr/local/popcorn/aarch64//lib/libc.a(open.o)
 .debug_loc     0x000000000000bf32      0x15d 0x1 /usr/local/popcorn/aarch64//lib/libc.a(calloc.o)
 .debug_loc     0x000000000000c08f       0xea 0x1 /usr/local/popcorn/aarch64//lib/libc.a(getrlimit.o)
 .debug_loc     0x000000000000c179      0x2e2 0x1 /usr/local/popcorn/aarch64//lib/libc.a(syscall.o)
 .debug_loc     0x000000000000c45b       0x49 0x1 /usr/local/popcorn/aarch64//lib/libc.a(getline.o)
 .debug_loc     0x000000000000c4a4       0x23 0x1 /usr/local/popcorn/aarch64//lib/libc.a(snprintf.o)
 .debug_loc     0x000000000000c4c7       0x23 0x1 /usr/local/popcorn/aarch64//lib/libc.a(sscanf.o)
 .debug_loc     0x000000000000c4ea        0x0 0x1 /usr/local/popcorn/aarch64//lib/libc.a(stderr.o)
 .debug_loc     0x000000000000c4ea      0x281 0x1 /usr/local/popcorn/aarch64//lib/libc.a(vsnprintf.o)
 .debug_loc     0x000000000000c76b       0xdb 0x1 /usr/local/popcorn/aarch64//lib/libc.a(vsscanf.o)
 .debug_loc     0x000000000000c846      0x144 0x1 /usr/local/popcorn/aarch64//lib/libc.a(strtol.o)
 .debug_loc     0x000000000000c98a       0xe8 0x1 /usr/local/popcorn/aarch64//lib/libc.a(memcmp.o)
 .debug_loc     0x000000000000ca72       0x23 0x1 /usr/local/popcorn/aarch64//lib/libc.a(strcmp.o)
 .debug_loc     0x000000000000ca95       0x9f 0x1 /usr/local/popcorn/aarch64//lib/libc.a(strncmp.o)
 .debug_loc     0x000000000000cb34       0x36 0x1 /usr/local/popcorn/aarch64//lib/libc.a(pthread_attr_get.o)
 .debug_loc     0x000000000000cb6a       0xc5 0x1 /usr/local/popcorn/aarch64//lib/libc.a(pthread_getattr_np.o)
 .debug_loc     0x000000000000cc2f       0x46 0x1 /usr/local/popcorn/aarch64//lib/libc.a(pthread_getspecific.o)
 .debug_loc     0x000000000000cc75      0x1e9 0x1 /usr/local/popcorn/aarch64//lib/libc.a(pthread_key_create.o)
 .debug_loc     0x000000000000ce5e        0x0 0x1 /usr/local/popcorn/aarch64//lib/libc.a(pthread_migrate.o)
 .debug_loc     0x000000000000ce5e        0x0 0x1 /usr/local/popcorn/aarch64//lib/libc.a(pthread_self.o)
 .debug_loc     0x000000000000ce5e       0x23 0x1 /usr/local/popcorn/aarch64//lib/libc.a(pthread_setspecific.o)
 .debug_loc     0x000000000000ce81       0x46 0x1 /usr/local/popcorn/aarch64//lib/libc.a(close.o)
 .debug_loc     0x000000000000cec7        0x0 0x1 /usr/local/popcorn/aarch64//lib/libc.a(getpid.o)
 .debug_loc     0x000000000000cec7       0x46 0x1 /usr/local/popcorn/aarch64//lib/libc.a(lseek.o)
 .debug_loc     0x000000000000cf0d       0xb5 0x1 /usr/local/popcorn/aarch64//lib/libc.a(read.o)
 .debug_loc     0x000000000000cfc2        0x0 0x1 /usr/local/popcorn/aarch64//lib/libc.a(abort.o)
 .debug_loc     0x000000000000cfc2      0x3bd 0x1 /usr/local/popcorn/aarch64//lib/libc.a(intscan.o)
 .debug_loc     0x000000000000d37f       0x6c 0x1 /usr/local/popcorn/aarch64//lib/libc.a(shgetc.o)
 .debug_loc     0x000000000000d3eb       0x9f 0x1 /usr/local/popcorn/aarch64//lib/libc.a(raise.o)
 .debug_loc     0x000000000000d48a      0x144 0x1 /usr/local/popcorn/aarch64//lib/libc.a(__string_read.o)
 .debug_loc     0x000000000000d5ce       0x6e 0x1 /usr/local/popcorn/aarch64//lib/libc.a(__uflow.o)
 .debug_loc     0x000000000000d63c      0x306 0x1 /usr/local/popcorn/aarch64//lib/libc.a(getdelim.o)
 .debug_loc     0x000000000000d942      0xd1a 0x1 /usr/local/popcorn/aarch64//lib/libc.a(vfscanf.o)
 .debug_loc     0x000000000000e65c     0x1317 0x1 /usr/local/popcorn/aarch64//lib/libc.a(floatscan.o)
 .debug_loc     0x000000000000f973       0x48 0x1 /usr/local/popcorn/aarch64//lib/libc.a(copysignl.o)
 .debug_loc     0x000000000000f9bb      0x561 0x1 /usr/local/popcorn/aarch64//lib/libc.a(fmodl.o)
 .debug_loc     0x000000000000ff1c      0x1b2 0x1 /usr/local/popcorn/aarch64//lib/libc.a(scalbn.o)
 .debug_loc     0x00000000000100ce       0xf2 0x1 /usr/local/popcorn/aarch64//lib/libc.a(scalbnl.o)
 .debug_loc     0x00000000000101c0      0x1dd 0x1 /usr/local/popcorn/aarch64//lib/libc.a(mbrtowc.o)
 .debug_loc     0x000000000001039d       0x23 0x1 /usr/local/popcorn/aarch64//lib/libc.a(mbsinit.o)
 .debug_loc     0x00000000000103c0       0xdb 0x1 /usr/local/popcorn/aarch64//lib/libc.a(block.o)
 .debug_loc     0x000000000001049b       0x36 0x1 /usr/local/popcorn/aarch64//lib/libc.a(__toread.o)
 .debug_loc     0x00000000000104d1        0x0 0x1 /usr/local/popcorn/aarch64//lib/libc.a(internal.o)

.debug_abbrev   0x0000000000000000     0x63c7
 .debug_abbrev  0x0000000000000000       0x62 0x1 /usr/local/popcorn/aarch64//lib/crt1.o
 .debug_abbrev  0x0000000000000062      0x1c6 0x1 /usr/local/popcorn/aarch64//lib/libc.a(__libc_start_main.o)
 .debug_abbrev  0x0000000000000228       0x8a 0x1 /usr/local/popcorn/aarch64//lib/libc.a(exit.o)
 .debug_abbrev  0x00000000000002b2       0x9e 0x1 /usr/local/popcorn/aarch64//lib/libc.a(libc.o)
 .debug_abbrev  0x0000000000000350       0xdf 0x1 /usr/local/popcorn/aarch64//lib/libc.a(fclose.o)
 .debug_abbrev  0x000000000000042f       0xc7 0x1 /usr/local/popcorn/aarch64//lib/libc.a(ferror.o)
 .debug_abbrev  0x00000000000004f6       0xfe 0x1 /usr/local/popcorn/aarch64//lib/libc.a(fflush.o)
 .debug_abbrev  0x00000000000005f4      0x110 0x1 /usr/local/popcorn/aarch64//lib/libc.a(fopen.o)
 .debug_abbrev  0x0000000000000704       0xd4 0x1 /usr/local/popcorn/aarch64//lib/libc.a(fprintf.o)
 .debug_abbrev  0x00000000000007d8      0x2c0 0x1 /usr/local/popcorn/aarch64//lib/libc.a(vfprintf.o)
 .debug_abbrev  0x0000000000000a98       0x88 0x1 /usr/local/popcorn/aarch64//lib/libc.a(memchr.o)
 .debug_abbrev  0x0000000000000b20       0x8f 0x1 /usr/local/popcorn/aarch64//lib/libc.a(memset.o)
 .debug_abbrev  0x0000000000000baf       0x68 0x1 /usr/local/popcorn/aarch64//lib/libc.a(strchr.o)
 .debug_abbrev  0x0000000000000c17       0x7a 0x1 /usr/local/popcorn/aarch64//lib/libc.a(strchrnul.o)
 .debug_abbrev  0x0000000000000c91       0x87 0x1 /usr/local/popcorn/aarch64//lib/libc.a(strlen.o)
 .debug_abbrev  0x0000000000000d18       0xe0 0x1 /usr/local/popcorn/aarch64//lib/libc.a(__lock.o)
 .debug_abbrev  0x0000000000000df8       0x70 0x1 /usr/local/popcorn/aarch64//lib/libc.a(__syscall_cp.o)
 .debug_abbrev  0x0000000000000e68       0xd8 0x1 /usr/local/popcorn/aarch64//lib/libc.a(__wait.o)
 .debug_abbrev  0x0000000000000f40       0x36 0x1 /usr/local/popcorn/aarch64//lib/libc.a(__environ.o)
 .debug_abbrev  0x0000000000000f76      0x1ee 0x1 /usr/local/popcorn/aarch64//lib/libc.a(__init_tls.o)
 .debug_abbrev  0x0000000000001164      0x135 0x1 /usr/local/popcorn/aarch64//lib/libc.a(__errno_location.o)
 .debug_abbrev  0x0000000000001299      0x176 0x1 /usr/local/popcorn/aarch64//lib/libc.a(strerror.o)
 .debug_abbrev  0x000000000000140f       0x8f 0x1 /usr/local/popcorn/aarch64//lib/libc.a(_Exit.o)
 .debug_abbrev  0x000000000000149e       0x28 0x1 /usr/local/popcorn/aarch64//lib/libc.a(syscall.o)
 .debug_abbrev  0x00000000000014c6       0x4b 0x1 /usr/local/popcorn/aarch64//lib/libc.a(syscall_ret.o)
 .debug_abbrev  0x0000000000001511      0x158 0x1 /usr/local/popcorn/aarch64//lib/libc.a(__lctrans.o)
 .debug_abbrev  0x0000000000001669      0x26a 0x1 /usr/local/popcorn/aarch64//lib/libc.a(malloc.o)
 .debug_abbrev  0x00000000000018d3       0x9b 0x1 /usr/local/popcorn/aarch64//lib/libc.a(__fpclassifyl.o)
 .debug_abbrev  0x000000000000196e       0x8e 0x1 /usr/local/popcorn/aarch64//lib/libc.a(__signbitl.o)
 .debug_abbrev  0x00000000000019fc       0xa2 0x1 /usr/local/popcorn/aarch64//lib/libc.a(frexpl.o)
 .debug_abbrev  0x0000000000001a9e       0xc4 0x1 /usr/local/popcorn/aarch64//lib/libc.a(madvise.o)
 .debug_abbrev  0x0000000000001b62       0xcb 0x1 /usr/local/popcorn/aarch64//lib/libc.a(mmap.o)
 .debug_abbrev  0x0000000000001c2d       0xe5 0x1 /usr/local/popcorn/aarch64//lib/libc.a(mremap.o)
 .debug_abbrev  0x0000000000001d12       0xcb 0x1 /usr/local/popcorn/aarch64//lib/libc.a(munmap.o)
 .debug_abbrev  0x0000000000001ddd       0x6e 0x1 /usr/local/popcorn/aarch64//lib/libc.a(wctomb.o)
 .debug_abbrev  0x0000000000001e4b       0x94 0x1 /usr/local/popcorn/aarch64//lib/libc.a(sched_yield.o)
 .debug_abbrev  0x0000000000001edf      0x129 0x1 /usr/local/popcorn/aarch64//lib/libc.a(__fdopen.o)
 .debug_abbrev  0x0000000000002008       0x68 0x1 /usr/local/popcorn/aarch64//lib/libc.a(__fmodeflags.o)
 .debug_abbrev  0x0000000000002070      0x1d3 0x1 /usr/local/popcorn/aarch64//lib/libc.a(__lockfile.o)
 .debug_abbrev  0x0000000000002243      0x12a 0x1 /usr/local/popcorn/aarch64//lib/libc.a(__stdio_close.o)
 .debug_abbrev  0x000000000000236d      0x142 0x1 /usr/local/popcorn/aarch64//lib/libc.a(__stdio_read.o)
 .debug_abbrev  0x00000000000024af      0x112 0x1 /usr/local/popcorn/aarch64//lib/libc.a(__stdio_seek.o)
 .debug_abbrev  0x00000000000025c1      0x140 0x1 /usr/local/popcorn/aarch64//lib/libc.a(__stdio_write.o)
 .debug_abbrev  0x0000000000002701       0xe2 0x1 /usr/local/popcorn/aarch64//lib/libc.a(fwrite.o)
 .debug_abbrev  0x00000000000027e3       0x95 0x1 /usr/local/popcorn/aarch64//lib/libc.a(memcpy.o)
 .debug_abbrev  0x0000000000002878       0x28 0x1 /usr/local/popcorn/aarch64//lib/libc.a(__set_thread_area.o)
 .debug_abbrev  0x00000000000028a0       0xa4 0x1 /usr/local/popcorn/aarch64//lib/libc.a(pthread_cleanup_push.o)
 .debug_abbrev  0x0000000000002944       0xb0 0x1 /usr/local/popcorn/aarch64//lib/libc.a(__brk.o)
 .debug_abbrev  0x00000000000029f4       0x9e 0x1 /usr/local/popcorn/aarch64//lib/libc.a(wcrtomb.o)
 .debug_abbrev  0x0000000000002a92       0xc1 0x1 /usr/local/popcorn/aarch64//lib/libc.a(__towrite.o)
 .debug_abbrev  0x0000000000002b53       0xdb 0x1 /usr/local/popcorn/aarch64//lib/libc.a(__stdio_exit.o)
 .debug_abbrev  0x0000000000002c2e      0x1cc 0x1 /usr/local/popcorn/aarch64//lib/libmigrate.a(migrate.o)
 .debug_abbrev  0x0000000000002dfa      0x28e 0x1 /usr/local/popcorn/aarch64//lib/libstack-transform.a(userspace.o)
 .debug_abbrev  0x0000000000003088      0x166 0x1 /usr/local/popcorn/aarch64//lib/libstack-transform.a(init.o)
 .debug_abbrev  0x00000000000031ee      0x24f 0x1 /usr/local/popcorn/aarch64//lib/libstack-transform.a(rewrite.o)
 .debug_abbrev  0x000000000000343d      0x1f0 0x1 /usr/local/popcorn/aarch64//lib/libstack-transform.a(unwind.o)
 .debug_abbrev  0x000000000000362d      0x173 0x1 /usr/local/popcorn/aarch64//lib/libstack-transform.a(util.o)
 .debug_abbrev  0x00000000000037a0       0xdd 0x1 /usr/local/popcorn/aarch64//lib/libstack-transform.a(properties.o)
 .debug_abbrev  0x000000000000387d      0x131 0x1 /usr/local/popcorn/aarch64//lib/libstack-transform.a(regs.o)
 .debug_abbrev  0x00000000000039ae       0xec 0x1 /usr/local/popcorn/aarch64//lib/libstack-transform.a(properties.o)
 .debug_abbrev  0x0000000000003a9a      0x131 0x1 /usr/local/popcorn/aarch64//lib/libstack-transform.a(regs.o)
 .debug_abbrev  0x0000000000003bcb      0x224 0x1 /usr/local/popcorn/aarch64//lib/libstack-transform.a(data.o)
 .debug_abbrev  0x0000000000003def       0x82 0x1 /usr/local/popcorn/aarch64//lib/libc.a(getenv.o)
 .debug_abbrev  0x0000000000003e71       0x57 0x1 /usr/local/popcorn/aarch64//lib/libc.a(assert.o)
 .debug_abbrev  0x0000000000003ec8      0x100 0x1 /usr/local/popcorn/aarch64//lib/libc.a(open.o)
 .debug_abbrev  0x0000000000003fc8       0x73 0x1 /usr/local/popcorn/aarch64//lib/libc.a(calloc.o)
 .debug_abbrev  0x000000000000403b      0x10c 0x1 /usr/local/popcorn/aarch64//lib/libc.a(getrlimit.o)
 .debug_abbrev  0x0000000000004147       0xdc 0x1 /usr/local/popcorn/aarch64//lib/libc.a(syscall.o)
 .debug_abbrev  0x0000000000004223       0x8b 0x1 /usr/local/popcorn/aarch64//lib/libc.a(getline.o)
 .debug_abbrev  0x00000000000042ae       0xbe 0x1 /usr/local/popcorn/aarch64//lib/libc.a(snprintf.o)
 .debug_abbrev  0x000000000000436c       0xbe 0x1 /usr/local/popcorn/aarch64//lib/libc.a(sscanf.o)
 .debug_abbrev  0x000000000000442a       0xb9 0x1 /usr/local/popcorn/aarch64//lib/libc.a(stderr.o)
 .debug_abbrev  0x00000000000044e3      0x105 0x1 /usr/local/popcorn/aarch64//lib/libc.a(vsnprintf.o)
 .debug_abbrev  0x00000000000045e8      0x105 0x1 /usr/local/popcorn/aarch64//lib/libc.a(vsscanf.o)
 .debug_abbrev  0x00000000000046ed      0x146 0x1 /usr/local/popcorn/aarch64//lib/libc.a(strtol.o)
 .debug_abbrev  0x0000000000004833       0x7a 0x1 /usr/local/popcorn/aarch64//lib/libc.a(memcmp.o)
 .debug_abbrev  0x00000000000048ad       0x68 0x1 /usr/local/popcorn/aarch64//lib/libc.a(strcmp.o)
 .debug_abbrev  0x0000000000004915       0x89 0x1 /usr/local/popcorn/aarch64//lib/libc.a(strncmp.o)
 .debug_abbrev  0x000000000000499e      0x109 0x1 /usr/local/popcorn/aarch64//lib/libc.a(pthread_attr_get.o)
 .debug_abbrev  0x0000000000004aa7      0x125 0x1 /usr/local/popcorn/aarch64//lib/libc.a(pthread_getattr_np.o)
 .debug_abbrev  0x0000000000004bcc      0x142 0x1 /usr/local/popcorn/aarch64//lib/libc.a(pthread_getspecific.o)
 .debug_abbrev  0x0000000000004d0e      0x1e3 0x1 /usr/local/popcorn/aarch64//lib/libc.a(pthread_key_create.o)
 .debug_abbrev  0x0000000000004ef1      0x133 0x1 /usr/local/popcorn/aarch64//lib/libc.a(pthread_migrate.o)
 .debug_abbrev  0x0000000000005024      0x131 0x1 /usr/local/popcorn/aarch64//lib/libc.a(pthread_self.o)
 .debug_abbrev  0x0000000000005155      0x149 0x1 /usr/local/popcorn/aarch64//lib/libc.a(pthread_setspecific.o)
 .debug_abbrev  0x000000000000529e       0x81 0x1 /usr/local/popcorn/aarch64//lib/libc.a(close.o)
 .debug_abbrev  0x000000000000531f       0xa1 0x1 /usr/local/popcorn/aarch64//lib/libc.a(getpid.o)
 .debug_abbrev  0x00000000000053c0       0xbf 0x1 /usr/local/popcorn/aarch64//lib/libc.a(lseek.o)
 .debug_abbrev  0x000000000000547f       0x5d 0x1 /usr/local/popcorn/aarch64//lib/libc.a(read.o)
 .debug_abbrev  0x00000000000054dc       0x2f 0x1 /usr/local/popcorn/aarch64//lib/libc.a(abort.o)
 .debug_abbrev  0x000000000000550b      0x117 0x1 /usr/local/popcorn/aarch64//lib/libc.a(intscan.o)
 .debug_abbrev  0x0000000000005622       0xe1 0x1 /usr/local/popcorn/aarch64//lib/libc.a(shgetc.o)
 .debug_abbrev  0x0000000000005703       0xf6 0x1 /usr/local/popcorn/aarch64//lib/libc.a(raise.o)
 .debug_abbrev  0x00000000000057f9       0xba 0x1 /usr/local/popcorn/aarch64//lib/libc.a(__string_read.o)
 .debug_abbrev  0x00000000000058b3       0xba 0x1 /usr/local/popcorn/aarch64//lib/libc.a(__uflow.o)
 .debug_abbrev  0x000000000000596d       0xc1 0x1 /usr/local/popcorn/aarch64//lib/libc.a(getdelim.o)
 .debug_abbrev  0x0000000000005a2e      0x1c6 0x1 /usr/local/popcorn/aarch64//lib/libc.a(vfscanf.o)
 .debug_abbrev  0x0000000000005bf4      0x1f1 0x1 /usr/local/popcorn/aarch64//lib/libc.a(floatscan.o)
 .debug_abbrev  0x0000000000005de5       0xac 0x1 /usr/local/popcorn/aarch64//lib/libc.a(copysignl.o)
 .debug_abbrev  0x0000000000005e91       0x28 0x1 /usr/local/popcorn/aarch64//lib/libc.a(fabs.o)
 .debug_abbrev  0x0000000000005eb9       0xc5 0x1 /usr/local/popcorn/aarch64//lib/libc.a(fmodl.o)
 .debug_abbrev  0x0000000000005f7e       0x81 0x1 /usr/local/popcorn/aarch64//lib/libc.a(scalbn.o)
 .debug_abbrev  0x0000000000005fff       0x8e 0x1 /usr/local/popcorn/aarch64//lib/libc.a(scalbnl.o)
 .debug_abbrev  0x000000000000608d       0xcb 0x1 /usr/local/popcorn/aarch64//lib/libc.a(mbrtowc.o)
 .debug_abbrev  0x0000000000006158       0x82 0x1 /usr/local/popcorn/aarch64//lib/libc.a(mbsinit.o)
 .debug_abbrev  0x00000000000061da       0xce 0x1 /usr/local/popcorn/aarch64//lib/libc.a(block.o)
 .debug_abbrev  0x00000000000062a8       0xc1 0x1 /usr/local/popcorn/aarch64//lib/libc.a(__toread.o)
 .debug_abbrev  0x0000000000006369       0x5e 0x1 /usr/local/popcorn/aarch64//lib/libc.a(internal.o)

.debug_info     0x0000000000000000    0x15f57
 .debug_info    0x0000000000000000       0x8b 0x1 /usr/local/popcorn/aarch64//lib/crt1.o
 .debug_info    0x000000000000008b      0x3c0 0x1 /usr/local/popcorn/aarch64//lib/libc.a(__libc_start_main.o)
 .debug_info    0x000000000000044b       0x9a 0x1 /usr/local/popcorn/aarch64//lib/libc.a(exit.o)
 .debug_info    0x00000000000004e5      0x196 0x1 /usr/local/popcorn/aarch64//lib/libc.a(libc.o)
 .debug_info    0x000000000000067b      0x2f5 0x1 /usr/local/popcorn/aarch64//lib/libc.a(fclose.o)
 .debug_info    0x0000000000000970      0x2ce 0x1 /usr/local/popcorn/aarch64//lib/libc.a(ferror.o)
 .debug_info    0x0000000000000c3e      0x334 0x1 /usr/local/popcorn/aarch64//lib/libc.a(fflush.o)
 .debug_info    0x0000000000000f72      0x401 0x1 /usr/local/popcorn/aarch64//lib/libc.a(fopen.o)
 .debug_info    0x0000000000001373      0x10e 0x1 /usr/local/popcorn/aarch64//lib/libc.a(fprintf.o)
 .debug_info    0x0000000000001481     0x1107 0x1 /usr/local/popcorn/aarch64//lib/libc.a(vfprintf.o)
 .debug_info    0x0000000000002588       0xf3 0x1 /usr/local/popcorn/aarch64//lib/libc.a(memchr.o)
 .debug_info    0x000000000000267b      0x114 0x1 /usr/local/popcorn/aarch64//lib/libc.a(memset.o)
 .debug_info    0x000000000000278f       0x9b 0x1 /usr/local/popcorn/aarch64//lib/libc.a(strchr.o)
 .debug_info    0x000000000000282a       0xcd 0x1 /usr/local/popcorn/aarch64//lib/libc.a(strchrnul.o)
 .debug_info    0x00000000000028f7       0xac 0x1 /usr/local/popcorn/aarch64//lib/libc.a(strlen.o)
 .debug_info    0x00000000000029a3      0x137 0x1 /usr/local/popcorn/aarch64//lib/libc.a(__lock.o)
 .debug_info    0x0000000000002ada      0x127 0x1 /usr/local/popcorn/aarch64//lib/libc.a(__syscall_cp.o)
 .debug_info    0x0000000000002c01      0x144 0x1 /usr/local/popcorn/aarch64//lib/libc.a(__wait.o)
 .debug_info    0x0000000000002d45       0x45 0x1 /usr/local/popcorn/aarch64//lib/libc.a(__environ.o)
 .debug_info    0x0000000000002d8a      0x7fc 0x1 /usr/local/popcorn/aarch64//lib/libc.a(__init_tls.o)
 .debug_info    0x0000000000003586      0x421 0x1 /usr/local/popcorn/aarch64//lib/libc.a(__errno_location.o)
 .debug_info    0x00000000000039a7      0x511 0x1 /usr/local/popcorn/aarch64//lib/libc.a(strerror.o)
 .debug_info    0x0000000000003eb8       0xcb 0x1 /usr/local/popcorn/aarch64//lib/libc.a(_Exit.o)
 .debug_info    0x0000000000003f83       0xb2 0x1 /usr/local/popcorn/aarch64//lib/libc.a(syscall.o)
 .debug_info    0x0000000000004035       0x62 0x1 /usr/local/popcorn/aarch64//lib/libc.a(syscall_ret.o)
 .debug_info    0x0000000000004097      0x4e3 0x1 /usr/local/popcorn/aarch64//lib/libc.a(__lctrans.o)
 .debug_info    0x000000000000457a      0xf1d 0x1 /usr/local/popcorn/aarch64//lib/libc.a(malloc.o)
 .debug_info    0x0000000000005497      0x12f 0x1 /usr/local/popcorn/aarch64//lib/libc.a(__fpclassifyl.o)
 .debug_info    0x00000000000055c6      0x124 0x1 /usr/local/popcorn/aarch64//lib/libc.a(__signbitl.o)
 .debug_info    0x00000000000056ea      0x145 0x1 /usr/local/popcorn/aarch64//lib/libc.a(frexpl.o)
 .debug_info    0x000000000000582f      0x121 0x1 /usr/local/popcorn/aarch64//lib/libc.a(madvise.o)
 .debug_info    0x0000000000005950      0x1b2 0x1 /usr/local/popcorn/aarch64//lib/libc.a(mmap.o)
 .debug_info    0x0000000000005b02      0x1cc 0x1 /usr/local/popcorn/aarch64//lib/libc.a(mremap.o)
 .debug_info    0x0000000000005cce      0x113 0x1 /usr/local/popcorn/aarch64//lib/libc.a(munmap.o)
 .debug_info    0x0000000000005de1       0x86 0x1 /usr/local/popcorn/aarch64//lib/libc.a(wctomb.o)
 .debug_info    0x0000000000005e67       0xac 0x1 /usr/local/popcorn/aarch64//lib/libc.a(sched_yield.o)
 .debug_info    0x0000000000005f13      0x507 0x1 /usr/local/popcorn/aarch64//lib/libc.a(__fdopen.o)
 .debug_info    0x000000000000641a       0x7b 0x1 /usr/local/popcorn/aarch64//lib/libc.a(__fmodeflags.o)
 .debug_info    0x0000000000006495      0x743 0x1 /usr/local/popcorn/aarch64//lib/libc.a(__lockfile.o)
 .debug_info    0x0000000000006bd8      0x33d 0x1 /usr/local/popcorn/aarch64//lib/libc.a(__stdio_close.o)
 .debug_info    0x0000000000006f15      0x3b8 0x1 /usr/local/popcorn/aarch64//lib/libc.a(__stdio_read.o)
 .debug_info    0x00000000000072cd      0x367 0x1 /usr/local/popcorn/aarch64//lib/libc.a(__stdio_seek.o)
 .debug_info    0x0000000000007634      0x3e2 0x1 /usr/local/popcorn/aarch64//lib/libc.a(__stdio_write.o)
 .debug_info    0x0000000000007a16      0x372 0x1 /usr/local/popcorn/aarch64//lib/libc.a(fwrite.o)
 .debug_info    0x0000000000007d88      0x112 0x1 /usr/local/popcorn/aarch64//lib/libc.a(memcpy.o)
 .debug_info    0x0000000000007e9a       0xc4 0x1 /usr/local/popcorn/aarch64//lib/libc.a(__set_thread_area.o)
 .debug_info    0x0000000000007f5e      0x105 0x1 /usr/local/popcorn/aarch64//lib/libc.a(pthread_cleanup_push.o)
 .debug_info    0x0000000000008063       0xcf 0x1 /usr/local/popcorn/aarch64//lib/libc.a(__brk.o)
 .debug_info    0x0000000000008132       0xdd 0x1 /usr/local/popcorn/aarch64//lib/libc.a(wcrtomb.o)
 .debug_info    0x000000000000820f      0x2c7 0x1 /usr/local/popcorn/aarch64//lib/libc.a(__towrite.o)
 .debug_info    0x00000000000084d6      0x2eb 0x1 /usr/local/popcorn/aarch64//lib/libc.a(__stdio_exit.o)
 .debug_info    0x00000000000087c1      0x6a9 0x1 /usr/local/popcorn/aarch64//lib/libmigrate.a(migrate.o)
 .debug_info    0x0000000000008e6a      0xedb 0x1 /usr/local/popcorn/aarch64//lib/libstack-transform.a(userspace.o)
 .debug_info    0x0000000000009d45      0x8c0 0x1 /usr/local/popcorn/aarch64//lib/libstack-transform.a(init.o)
 .debug_info    0x000000000000a605      0xfe2 0x1 /usr/local/popcorn/aarch64//lib/libstack-transform.a(rewrite.o)
 .debug_info    0x000000000000b5e7      0xd76 0x1 /usr/local/popcorn/aarch64//lib/libstack-transform.a(unwind.o)
 .debug_info    0x000000000000c35d      0xc6a 0x1 /usr/local/popcorn/aarch64//lib/libstack-transform.a(util.o)
 .debug_info    0x000000000000cfc7      0x1fd 0x1 /usr/local/popcorn/aarch64//lib/libstack-transform.a(properties.o)
 .debug_info    0x000000000000d1c4      0x69d 0x1 /usr/local/popcorn/aarch64//lib/libstack-transform.a(regs.o)
 .debug_info    0x000000000000d861      0x217 0x1 /usr/local/popcorn/aarch64//lib/libstack-transform.a(properties.o)
 .debug_info    0x000000000000da78      0x7cb 0x1 /usr/local/popcorn/aarch64//lib/libstack-transform.a(regs.o)
 .debug_info    0x000000000000e243      0xec9 0x1 /usr/local/popcorn/aarch64//lib/libstack-transform.a(data.o)
 .debug_info    0x000000000000f10c       0x9d 0x1 /usr/local/popcorn/aarch64//lib/libc.a(getenv.o)
 .debug_info    0x000000000000f1a9       0x95 0x1 /usr/local/popcorn/aarch64//lib/libc.a(assert.o)
 .debug_info    0x000000000000f23e      0x1c0 0x1 /usr/local/popcorn/aarch64//lib/libc.a(open.o)
 .debug_info    0x000000000000f3fe       0x99 0x1 /usr/local/popcorn/aarch64//lib/libc.a(calloc.o)
 .debug_info    0x000000000000f497      0x212 0x1 /usr/local/popcorn/aarch64//lib/libc.a(getrlimit.o)
 .debug_info    0x000000000000f6a9      0x25f 0x1 /usr/local/popcorn/aarch64//lib/libc.a(syscall.o)
 .debug_info    0x000000000000f908       0xcd 0x1 /usr/local/popcorn/aarch64//lib/libc.a(getline.o)
 .debug_info    0x000000000000f9d5      0x11c 0x1 /usr/local/popcorn/aarch64//lib/libc.a(snprintf.o)
 .debug_info    0x000000000000faf1       0xf3 0x1 /usr/local/popcorn/aarch64//lib/libc.a(sscanf.o)
 .debug_info    0x000000000000fbe4      0x2f0 0x1 /usr/local/popcorn/aarch64//lib/libc.a(stderr.o)
 .debug_info    0x000000000000fed4      0x3c3 0x1 /usr/local/popcorn/aarch64//lib/libc.a(vsnprintf.o)
 .debug_info    0x0000000000010297      0x37e 0x1 /usr/local/popcorn/aarch64//lib/libc.a(vsscanf.o)
 .debug_info    0x0000000000010615      0x559 0x1 /usr/local/popcorn/aarch64//lib/libc.a(strtol.o)
 .debug_info    0x0000000000010b6e       0xc0 0x1 /usr/local/popcorn/aarch64//lib/libc.a(memcmp.o)
 .debug_info    0x0000000000010c2e       0x85 0x1 /usr/local/popcorn/aarch64//lib/libc.a(strcmp.o)
 .debug_info    0x0000000000010cb3       0xca 0x1 /usr/local/popcorn/aarch64//lib/libc.a(strncmp.o)
 .debug_info    0x0000000000010d7d      0x59c 0x1 /usr/local/popcorn/aarch64//lib/libc.a(pthread_attr_get.o)
 .debug_info    0x0000000000011319      0x444 0x1 /usr/local/popcorn/aarch64//lib/libc.a(pthread_getattr_np.o)
 .debug_info    0x000000000001175d      0x44b 0x1 /usr/local/popcorn/aarch64//lib/libc.a(pthread_getspecific.o)
 .debug_info    0x0000000000011ba8      0x603 0x1 /usr/local/popcorn/aarch64//lib/libc.a(pthread_key_create.o)
 .debug_info    0x00000000000121ab      0x427 0x1 /usr/local/popcorn/aarch64//lib/libc.a(pthread_migrate.o)
 .debug_info    0x00000000000125d2      0x428 0x1 /usr/local/popcorn/aarch64//lib/libc.a(pthread_self.o)
 .debug_info    0x00000000000129fa      0x45c 0x1 /usr/local/popcorn/aarch64//lib/libc.a(pthread_setspecific.o)
 .debug_info    0x0000000000012e56       0x98 0x1 /usr/local/popcorn/aarch64//lib/libc.a(close.o)
 .debug_info    0x0000000000012eee       0xb6 0x1 /usr/local/popcorn/aarch64//lib/libc.a(getpid.o)
 .debug_info    0x0000000000012fa4      0x115 0x1 /usr/local/popcorn/aarch64//lib/libc.a(lseek.o)
 .debug_info    0x00000000000130b9       0x9e 0x1 /usr/local/popcorn/aarch64//lib/libc.a(read.o)
 .debug_info    0x0000000000013157       0x40 0x1 /usr/local/popcorn/aarch64//lib/libc.a(abort.o)
 .debug_info    0x0000000000013197      0x380 0x1 /usr/local/popcorn/aarch64//lib/libc.a(intscan.o)
 .debug_info    0x0000000000013517      0x2f3 0x1 /usr/local/popcorn/aarch64//lib/libc.a(shgetc.o)
 .debug_info    0x000000000001380a      0x197 0x1 /usr/local/popcorn/aarch64//lib/libc.a(raise.o)
 .debug_info    0x00000000000139a1      0x2ff 0x1 /usr/local/popcorn/aarch64//lib/libc.a(__string_read.o)
 .debug_info    0x0000000000013ca0      0x2c3 0x1 /usr/local/popcorn/aarch64//lib/libc.a(__uflow.o)
 .debug_info    0x0000000000013f63      0x35f 0x1 /usr/local/popcorn/aarch64//lib/libc.a(getdelim.o)
 .debug_info    0x00000000000142c2      0x670 0x1 /usr/local/popcorn/aarch64//lib/libc.a(vfscanf.o)
 .debug_info    0x0000000000014932      0x894 0x1 /usr/local/popcorn/aarch64//lib/libc.a(floatscan.o)
 .debug_info    0x00000000000151c6      0x13b 0x1 /usr/local/popcorn/aarch64//lib/libc.a(copysignl.o)
 .debug_info    0x0000000000015301       0xab 0x1 /usr/local/popcorn/aarch64//lib/libc.a(fabs.o)
 .debug_info    0x00000000000153ac      0x25a 0x1 /usr/local/popcorn/aarch64//lib/libc.a(fmodl.o)
 .debug_info    0x0000000000015606       0xc9 0x1 /usr/local/popcorn/aarch64//lib/libc.a(scalbn.o)
 .debug_info    0x00000000000156cf      0x142 0x1 /usr/local/popcorn/aarch64//lib/libc.a(scalbnl.o)
 .debug_info    0x0000000000015811      0x17c 0x1 /usr/local/popcorn/aarch64//lib/libc.a(mbrtowc.o)
 .debug_info    0x000000000001598d       0xa1 0x1 /usr/local/popcorn/aarch64//lib/libc.a(mbsinit.o)
 .debug_info    0x0000000000015a2e      0x202 0x1 /usr/local/popcorn/aarch64//lib/libc.a(block.o)
 .debug_info    0x0000000000015c30      0x2c9 0x1 /usr/local/popcorn/aarch64//lib/libc.a(__toread.o)
 .debug_info    0x0000000000015ef9       0x5e 0x1 /usr/local/popcorn/aarch64//lib/libc.a(internal.o)

.debug_ranges   0x0000000000000000     0x3360
 .debug_ranges  0x0000000000000000        0x0 0x1 /usr/local/popcorn/aarch64//lib/crt1.o
 .debug_ranges  0x0000000000000000       0xb0 0x1 /usr/local/popcorn/aarch64//lib/libc.a(__libc_start_main.o)
 .debug_ranges  0x00000000000000b0       0x30 0x1 /usr/local/popcorn/aarch64//lib/libc.a(exit.o)
 .debug_ranges  0x00000000000000e0        0x0 0x1 /usr/local/popcorn/aarch64//lib/libc.a(libc.o)
 .debug_ranges  0x00000000000000e0       0x30 0x1 /usr/local/popcorn/aarch64//lib/libc.a(fclose.o)
 .debug_ranges  0x0000000000000110        0x0 0x1 /usr/local/popcorn/aarch64//lib/libc.a(ferror.o)
 .debug_ranges  0x0000000000000110       0x60 0x1 /usr/local/popcorn/aarch64//lib/libc.a(fflush.o)
 .debug_ranges  0x0000000000000170        0x0 0x1 /usr/local/popcorn/aarch64//lib/libc.a(fopen.o)
 .debug_ranges  0x0000000000000170        0x0 0x1 /usr/local/popcorn/aarch64//lib/libc.a(fprintf.o)
 .debug_ranges  0x0000000000000170      0xa90 0x1 /usr/local/popcorn/aarch64//lib/libc.a(vfprintf.o)
 .debug_ranges  0x0000000000000c00        0x0 0x1 /usr/local/popcorn/aarch64//lib/libc.a(memchr.o)
 .debug_ranges  0x0000000000000c00        0x0 0x1 /usr/local/popcorn/aarch64//lib/libc.a(memset.o)
 .debug_ranges  0x0000000000000c00        0x0 0x1 /usr/local/popcorn/aarch64//lib/libc.a(strchr.o)
 .debug_ranges  0x0000000000000c00        0x0 0x1 /usr/local/popcorn/aarch64//lib/libc.a(strchrnul.o)
 .debug_ranges  0x0000000000000c00        0x0 0x1 /usr/local/popcorn/aarch64//lib/libc.a(strlen.o)
 .debug_ranges  0x0000000000000c00       0x60 0x1 /usr/local/popcorn/aarch64//lib/libc.a(__lock.o)
 .debug_ranges  0x0000000000000c60       0x30 0x1 /usr/local/popcorn/aarch64//lib/libc.a(__syscall_cp.o)
 .debug_ranges  0x0000000000000c90        0x0 0x1 /usr/local/popcorn/aarch64//lib/libc.a(__wait.o)
 .debug_ranges  0x0000000000000c90        0x0 0x1 /usr/local/popcorn/aarch64//lib/libc.a(__environ.o)
 .debug_ranges  0x0000000000000c90       0x30 0x1 /usr/local/popcorn/aarch64//lib/libc.a(__init_tls.o)
 .debug_ranges  0x0000000000000cc0        0x0 0x1 /usr/local/popcorn/aarch64//lib/libc.a(__errno_location.o)
 .debug_ranges  0x0000000000000cc0       0x30 0x1 /usr/local/popcorn/aarch64//lib/libc.a(strerror.o)
 .debug_ranges  0x0000000000000cf0        0x0 0x1 /usr/local/popcorn/aarch64//lib/libc.a(_Exit.o)
 .debug_ranges  0x0000000000000cf0        0x0 0x1 /usr/local/popcorn/aarch64//lib/libc.a(syscall_ret.o)
 .debug_ranges  0x0000000000000cf0       0x40 0x1 /usr/local/popcorn/aarch64//lib/libc.a(__lctrans.o)
 .debug_ranges  0x0000000000000d30      0x9c0 0x1 /usr/local/popcorn/aarch64//lib/libc.a(malloc.o)
 .debug_ranges  0x00000000000016f0        0x0 0x1 /usr/local/popcorn/aarch64//lib/libc.a(__fpclassifyl.o)
 .debug_ranges  0x00000000000016f0        0x0 0x1 /usr/local/popcorn/aarch64//lib/libc.a(__signbitl.o)
 .debug_ranges  0x00000000000016f0        0x0 0x1 /usr/local/popcorn/aarch64//lib/libc.a(frexpl.o)
 .debug_ranges  0x00000000000016f0        0x0 0x1 /usr/local/popcorn/aarch64//lib/libc.a(madvise.o)
 .debug_ranges  0x00000000000016f0       0x30 0x1 /usr/local/popcorn/aarch64//lib/libc.a(mmap.o)
 .debug_ranges  0x0000000000001720        0x0 0x1 /usr/local/popcorn/aarch64//lib/libc.a(mremap.o)
 .debug_ranges  0x0000000000001720       0x30 0x1 /usr/local/popcorn/aarch64//lib/libc.a(munmap.o)
 .debug_ranges  0x0000000000001750        0x0 0x1 /usr/local/popcorn/aarch64//lib/libc.a(wctomb.o)
 .debug_ranges  0x0000000000001750        0x0 0x1 /usr/local/popcorn/aarch64//lib/libc.a(sched_yield.o)
 .debug_ranges  0x0000000000001750       0x30 0x1 /usr/local/popcorn/aarch64//lib/libc.a(__fdopen.o)
 .debug_ranges  0x0000000000001780        0x0 0x1 /usr/local/popcorn/aarch64//lib/libc.a(__fmodeflags.o)
 .debug_ranges  0x0000000000001780       0x90 0x1 /usr/local/popcorn/aarch64//lib/libc.a(__lockfile.o)
 .debug_ranges  0x0000000000001810       0x30 0x1 /usr/local/popcorn/aarch64//lib/libc.a(__stdio_close.o)
 .debug_ranges  0x0000000000001840       0x30 0x1 /usr/local/popcorn/aarch64//lib/libc.a(__stdio_read.o)
 .debug_ranges  0x0000000000001870        0x0 0x1 /usr/local/popcorn/aarch64//lib/libc.a(__stdio_seek.o)
 .debug_ranges  0x0000000000001870       0x60 0x1 /usr/local/popcorn/aarch64//lib/libc.a(__stdio_write.o)
 .debug_ranges  0x00000000000018d0       0x30 0x1 /usr/local/popcorn/aarch64//lib/libc.a(fwrite.o)
 .debug_ranges  0x0000000000001900        0x0 0x1 /usr/local/popcorn/aarch64//lib/libc.a(memcpy.o)
 .debug_ranges  0x0000000000001900       0x40 0x1 /usr/local/popcorn/aarch64//lib/libc.a(pthread_cleanup_push.o)
 .debug_ranges  0x0000000000001940        0x0 0x1 /usr/local/popcorn/aarch64//lib/libc.a(__brk.o)
 .debug_ranges  0x0000000000001940        0x0 0x1 /usr/local/popcorn/aarch64//lib/libc.a(wcrtomb.o)
 .debug_ranges  0x0000000000001940       0x30 0x1 /usr/local/popcorn/aarch64//lib/libc.a(__towrite.o)
 .debug_ranges  0x0000000000001970       0x30 0x1 /usr/local/popcorn/aarch64//lib/libc.a(__stdio_exit.o)
 .debug_ranges  0x00000000000019a0       0xe0 0x1 /usr/local/popcorn/aarch64//lib/libmigrate.a(migrate.o)
 .debug_ranges  0x0000000000001a80      0x150 0x1 /usr/local/popcorn/aarch64//lib/libstack-transform.a(userspace.o)
 .debug_ranges  0x0000000000001bd0       0x50 0x1 /usr/local/popcorn/aarch64//lib/libstack-transform.a(init.o)
 .debug_ranges  0x0000000000001c20      0x4b0 0x1 /usr/local/popcorn/aarch64//lib/libstack-transform.a(rewrite.o)
 .debug_ranges  0x00000000000020d0      0x160 0x1 /usr/local/popcorn/aarch64//lib/libstack-transform.a(unwind.o)
 .debug_ranges  0x0000000000002230       0xf0 0x1 /usr/local/popcorn/aarch64//lib/libstack-transform.a(util.o)
 .debug_ranges  0x0000000000002320       0x40 0x1 /usr/local/popcorn/aarch64//lib/libstack-transform.a(properties.o)
 .debug_ranges  0x0000000000002360      0x120 0x1 /usr/local/popcorn/aarch64//lib/libstack-transform.a(regs.o)
 .debug_ranges  0x0000000000002480       0x40 0x1 /usr/local/popcorn/aarch64//lib/libstack-transform.a(properties.o)
 .debug_ranges  0x00000000000024c0      0x120 0x1 /usr/local/popcorn/aarch64//lib/libstack-transform.a(regs.o)
 .debug_ranges  0x00000000000025e0      0x370 0x1 /usr/local/popcorn/aarch64//lib/libstack-transform.a(data.o)
 .debug_ranges  0x0000000000002950        0x0 0x1 /usr/local/popcorn/aarch64//lib/libc.a(getenv.o)
 .debug_ranges  0x0000000000002950        0x0 0x1 /usr/local/popcorn/aarch64//lib/libc.a(assert.o)
 .debug_ranges  0x0000000000002950       0x30 0x1 /usr/local/popcorn/aarch64//lib/libc.a(open.o)
 .debug_ranges  0x0000000000002980        0x0 0x1 /usr/local/popcorn/aarch64//lib/libc.a(calloc.o)
 .debug_ranges  0x0000000000002980        0x0 0x1 /usr/local/popcorn/aarch64//lib/libc.a(getrlimit.o)
 .debug_ranges  0x0000000000002980        0x0 0x1 /usr/local/popcorn/aarch64//lib/libc.a(syscall.o)
 .debug_ranges  0x0000000000002980        0x0 0x1 /usr/local/popcorn/aarch64//lib/libc.a(getline.o)
 .debug_ranges  0x0000000000002980        0x0 0x1 /usr/local/popcorn/aarch64//lib/libc.a(snprintf.o)
 .debug_ranges  0x0000000000002980        0x0 0x1 /usr/local/popcorn/aarch64//lib/libc.a(sscanf.o)
 .debug_ranges  0x0000000000002980        0x0 0x1 /usr/local/popcorn/aarch64//lib/libc.a(stderr.o)
 .debug_ranges  0x0000000000002980       0x30 0x1 /usr/local/popcorn/aarch64//lib/libc.a(vsnprintf.o)
 .debug_ranges  0x00000000000029b0       0x30 0x1 /usr/local/popcorn/aarch64//lib/libc.a(vsscanf.o)
 .debug_ranges  0x00000000000029e0       0x80 0x1 /usr/local/popcorn/aarch64//lib/libc.a(strtol.o)
 .debug_ranges  0x0000000000002a60        0x0 0x1 /usr/local/popcorn/aarch64//lib/libc.a(memcmp.o)
 .debug_ranges  0x0000000000002a60        0x0 0x1 /usr/local/popcorn/aarch64//lib/libc.a(strcmp.o)
 .debug_ranges  0x0000000000002a60        0x0 0x1 /usr/local/popcorn/aarch64//lib/libc.a(strncmp.o)
 .debug_ranges  0x0000000000002a60      0x110 0x1 /usr/local/popcorn/aarch64//lib/libc.a(pthread_attr_get.o)
 .debug_ranges  0x0000000000002b70        0x0 0x1 /usr/local/popcorn/aarch64//lib/libc.a(pthread_getattr_np.o)
 .debug_ranges  0x0000000000002b70        0x0 0x1 /usr/local/popcorn/aarch64//lib/libc.a(pthread_getspecific.o)
 .debug_ranges  0x0000000000002b70       0xb0 0x1 /usr/local/popcorn/aarch64//lib/libc.a(pthread_key_create.o)
 .debug_ranges  0x0000000000002c20        0x0 0x1 /usr/local/popcorn/aarch64//lib/libc.a(pthread_migrate.o)
 .debug_ranges  0x0000000000002c20        0x0 0x1 /usr/local/popcorn/aarch64//lib/libc.a(pthread_self.o)
 .debug_ranges  0x0000000000002c20        0x0 0x1 /usr/local/popcorn/aarch64//lib/libc.a(pthread_setspecific.o)
 .debug_ranges  0x0000000000002c20       0x30 0x1 /usr/local/popcorn/aarch64//lib/libc.a(close.o)
 .debug_ranges  0x0000000000002c50        0x0 0x1 /usr/local/popcorn/aarch64//lib/libc.a(getpid.o)
 .debug_ranges  0x0000000000002c50        0x0 0x1 /usr/local/popcorn/aarch64//lib/libc.a(lseek.o)
 .debug_ranges  0x0000000000002c50        0x0 0x1 /usr/local/popcorn/aarch64//lib/libc.a(read.o)
 .debug_ranges  0x0000000000002c50        0x0 0x1 /usr/local/popcorn/aarch64//lib/libc.a(abort.o)
 .debug_ranges  0x0000000000002c50       0x30 0x1 /usr/local/popcorn/aarch64//lib/libc.a(intscan.o)
 .debug_ranges  0x0000000000002c80       0x30 0x1 /usr/local/popcorn/aarch64//lib/libc.a(shgetc.o)
 .debug_ranges  0x0000000000002cb0        0x0 0x1 /usr/local/popcorn/aarch64//lib/libc.a(raise.o)
 .debug_ranges  0x0000000000002cb0        0x0 0x1 /usr/local/popcorn/aarch64//lib/libc.a(__string_read.o)
 .debug_ranges  0x0000000000002cb0        0x0 0x1 /usr/local/popcorn/aarch64//lib/libc.a(__uflow.o)
 .debug_ranges  0x0000000000002cb0        0x0 0x1 /usr/local/popcorn/aarch64//lib/libc.a(getdelim.o)
 .debug_ranges  0x0000000000002cb0       0xa0 0x1 /usr/local/popcorn/aarch64//lib/libc.a(vfscanf.o)
 .debug_ranges  0x0000000000002d50      0x5a0 0x1 /usr/local/popcorn/aarch64//lib/libc.a(floatscan.o)
 .debug_ranges  0x00000000000032f0        0x0 0x1 /usr/local/popcorn/aarch64//lib/libc.a(copysignl.o)
 .debug_ranges  0x00000000000032f0        0x0 0x1 /usr/local/popcorn/aarch64//lib/libc.a(fmodl.o)
 .debug_ranges  0x00000000000032f0        0x0 0x1 /usr/local/popcorn/aarch64//lib/libc.a(scalbn.o)
 .debug_ranges  0x00000000000032f0        0x0 0x1 /usr/local/popcorn/aarch64//lib/libc.a(scalbnl.o)
 .debug_ranges  0x00000000000032f0        0x0 0x1 /usr/local/popcorn/aarch64//lib/libc.a(mbrtowc.o)
 .debug_ranges  0x00000000000032f0        0x0 0x1 /usr/local/popcorn/aarch64//lib/libc.a(mbsinit.o)
 .debug_ranges  0x00000000000032f0       0x40 0x1 /usr/local/popcorn/aarch64//lib/libc.a(block.o)
 .debug_ranges  0x0000000000003330       0x30 0x1 /usr/local/popcorn/aarch64//lib/libc.a(__toread.o)
 .debug_ranges  0x0000000000003360        0x0 0x1 /usr/local/popcorn/aarch64//lib/libc.a(internal.o)

.debug_pubnames
                0x0000000000000000     0x222f
 .debug_pubnames
                0x0000000000000000       0x1f 0x1 /usr/local/popcorn/aarch64//lib/crt1.o
 .debug_pubnames
                0x000000000000001f       0x90 0x1 /usr/local/popcorn/aarch64//lib/libc.a(__libc_start_main.o)
 .debug_pubnames
                0x00000000000000af       0x25 0x1 /usr/local/popcorn/aarch64//lib/libc.a(exit.o)
 .debug_pubnames
                0x00000000000000d4       0x5a 0x1 /usr/local/popcorn/aarch64//lib/libc.a(libc.o)
 .debug_pubnames
                0x000000000000012e       0x27 0x1 /usr/local/popcorn/aarch64//lib/libc.a(fclose.o)
 .debug_pubnames
                0x0000000000000155       0x1d 0x1 /usr/local/popcorn/aarch64//lib/libc.a(ferror.o)
 .debug_pubnames
                0x0000000000000172       0x3d 0x1 /usr/local/popcorn/aarch64//lib/libc.a(fflush.o)
 .debug_pubnames
                0x00000000000001af       0x3a 0x1 /usr/local/popcorn/aarch64//lib/libc.a(fopen.o)
 .debug_pubnames
                0x00000000000001e9       0x1e 0x1 /usr/local/popcorn/aarch64//lib/libc.a(fprintf.o)
 .debug_pubnames
                0x0000000000000207       0xb9 0x1 /usr/local/popcorn/aarch64//lib/libc.a(vfprintf.o)
 .debug_pubnames
                0x00000000000002c0       0x1d 0x1 /usr/local/popcorn/aarch64//lib/libc.a(memchr.o)
 .debug_pubnames
                0x00000000000002dd       0x1d 0x1 /usr/local/popcorn/aarch64//lib/libc.a(memset.o)
 .debug_pubnames
                0x00000000000002fa       0x1d 0x1 /usr/local/popcorn/aarch64//lib/libc.a(strchr.o)
 .debug_pubnames
                0x0000000000000317       0x22 0x1 /usr/local/popcorn/aarch64//lib/libc.a(strchrnul.o)
 .debug_pubnames
                0x0000000000000339       0x1d 0x1 /usr/local/popcorn/aarch64//lib/libc.a(strlen.o)
 .debug_pubnames
                0x0000000000000356       0x4c 0x1 /usr/local/popcorn/aarch64//lib/libc.a(__lock.o)
 .debug_pubnames
                0x00000000000003a2       0x2c 0x1 /usr/local/popcorn/aarch64//lib/libc.a(__syscall_cp.o)
 .debug_pubnames
                0x00000000000003ce       0x3f 0x1 /usr/local/popcorn/aarch64//lib/libc.a(__wait.o)
 .debug_pubnames
                0x000000000000040d       0x20 0x1 /usr/local/popcorn/aarch64//lib/libc.a(__environ.o)
 .debug_pubnames
                0x000000000000042d       0x89 0x1 /usr/local/popcorn/aarch64//lib/libc.a(__init_tls.o)
 .debug_pubnames
                0x00000000000004b6       0x3a 0x1 /usr/local/popcorn/aarch64//lib/libc.a(__errno_location.o)
 .debug_pubnames
                0x00000000000004f0       0x58 0x1 /usr/local/popcorn/aarch64//lib/libc.a(strerror.o)
 .debug_pubnames
                0x0000000000000548       0x2b 0x1 /usr/local/popcorn/aarch64//lib/libc.a(_Exit.o)
 .debug_pubnames
                0x0000000000000573       0x24 0x1 /usr/local/popcorn/aarch64//lib/libc.a(syscall_ret.o)
 .debug_pubnames
                0x0000000000000597       0x4f 0x1 /usr/local/popcorn/aarch64//lib/libc.a(__lctrans.o)
 .debug_pubnames
                0x00000000000005e6      0x14f 0x1 /usr/local/popcorn/aarch64//lib/libc.a(malloc.o)
 .debug_pubnames
                0x0000000000000735       0x24 0x1 /usr/local/popcorn/aarch64//lib/libc.a(__fpclassifyl.o)
 .debug_pubnames
                0x0000000000000759       0x21 0x1 /usr/local/popcorn/aarch64//lib/libc.a(__signbitl.o)
 .debug_pubnames
                0x000000000000077a       0x1d 0x1 /usr/local/popcorn/aarch64//lib/libc.a(frexpl.o)
 .debug_pubnames
                0x0000000000000797       0x2f 0x1 /usr/local/popcorn/aarch64//lib/libc.a(madvise.o)
 .debug_pubnames
                0x00000000000007c6       0x36 0x1 /usr/local/popcorn/aarch64//lib/libc.a(mmap.o)
 .debug_pubnames
                0x00000000000007fc       0x2e 0x1 /usr/local/popcorn/aarch64//lib/libc.a(mremap.o)
 .debug_pubnames
                0x000000000000082a       0x38 0x1 /usr/local/popcorn/aarch64//lib/libc.a(munmap.o)
 .debug_pubnames
                0x0000000000000862       0x1d 0x1 /usr/local/popcorn/aarch64//lib/libc.a(wctomb.o)
 .debug_pubnames
                0x000000000000087f       0x31 0x1 /usr/local/popcorn/aarch64//lib/libc.a(sched_yield.o)
 .debug_pubnames
                0x00000000000008b0       0x3d 0x1 /usr/local/popcorn/aarch64//lib/libc.a(__fdopen.o)
 .debug_pubnames
                0x00000000000008ed       0x23 0x1 /usr/local/popcorn/aarch64//lib/libc.a(__fmodeflags.o)
 .debug_pubnames
                0x0000000000000910       0x66 0x1 /usr/local/popcorn/aarch64//lib/libc.a(__lockfile.o)
 .debug_pubnames
                0x0000000000000976       0x3d 0x1 /usr/local/popcorn/aarch64//lib/libc.a(__stdio_close.o)
 .debug_pubnames
                0x00000000000009b3       0x2f 0x1 /usr/local/popcorn/aarch64//lib/libc.a(__stdio_read.o)
 .debug_pubnames
                0x00000000000009e2       0x32 0x1 /usr/local/popcorn/aarch64//lib/libc.a(__stdio_seek.o)
 .debug_pubnames
                0x0000000000000a14       0x30 0x1 /usr/local/popcorn/aarch64//lib/libc.a(__stdio_write.o)
 .debug_pubnames
                0x0000000000000a44       0x2b 0x1 /usr/local/popcorn/aarch64//lib/libc.a(fwrite.o)
 .debug_pubnames
                0x0000000000000a6f       0x1d 0x1 /usr/local/popcorn/aarch64//lib/libc.a(memcpy.o)
 .debug_pubnames
                0x0000000000000a8c       0x4f 0x1 /usr/local/popcorn/aarch64//lib/libc.a(pthread_cleanup_push.o)
 .debug_pubnames
                0x0000000000000adb       0x2b 0x1 /usr/local/popcorn/aarch64//lib/libc.a(__brk.o)
 .debug_pubnames
                0x0000000000000b06       0x1e 0x1 /usr/local/popcorn/aarch64//lib/libc.a(wcrtomb.o)
 .debug_pubnames
                0x0000000000000b24       0x3f 0x1 /usr/local/popcorn/aarch64//lib/libc.a(__towrite.o)
 .debug_pubnames
                0x0000000000000b63       0x41 0x1 /usr/local/popcorn/aarch64//lib/libc.a(__stdio_exit.o)
 .debug_pubnames
                0x0000000000000ba4      0x13c 0x1 /usr/local/popcorn/aarch64//lib/libmigrate.a(migrate.o)
 .debug_pubnames
                0x0000000000000ce0      0x187 0x1 /usr/local/popcorn/aarch64//lib/libstack-transform.a(userspace.o)
 .debug_pubnames
                0x0000000000000e67       0x49 0x1 /usr/local/popcorn/aarch64//lib/libstack-transform.a(init.o)
 .debug_pubnames
                0x0000000000000eb0      0x158 0x1 /usr/local/popcorn/aarch64//lib/libstack-transform.a(rewrite.o)
 .debug_pubnames
                0x0000000000001008      0x128 0x1 /usr/local/popcorn/aarch64//lib/libstack-transform.a(unwind.o)
 .debug_pubnames
                0x0000000000001130       0xda 0x1 /usr/local/popcorn/aarch64//lib/libstack-transform.a(util.o)
 .debug_pubnames
                0x000000000000120a       0xad 0x1 /usr/local/popcorn/aarch64//lib/libstack-transform.a(properties.o)
 .debug_pubnames
                0x00000000000012b7      0x189 0x1 /usr/local/popcorn/aarch64//lib/libstack-transform.a(regs.o)
 .debug_pubnames
                0x0000000000001440       0xa7 0x1 /usr/local/popcorn/aarch64//lib/libstack-transform.a(properties.o)
 .debug_pubnames
                0x00000000000014e7      0x177 0x1 /usr/local/popcorn/aarch64//lib/libstack-transform.a(regs.o)
 .debug_pubnames
                0x000000000000165e      0x12c 0x1 /usr/local/popcorn/aarch64//lib/libstack-transform.a(data.o)
 .debug_pubnames
                0x000000000000178a       0x1d 0x1 /usr/local/popcorn/aarch64//lib/libc.a(getenv.o)
 .debug_pubnames
                0x00000000000017a7       0x24 0x1 /usr/local/popcorn/aarch64//lib/libc.a(assert.o)
 .debug_pubnames
                0x00000000000017cb       0x2a 0x1 /usr/local/popcorn/aarch64//lib/libc.a(open.o)
 .debug_pubnames
                0x00000000000017f5       0x1d 0x1 /usr/local/popcorn/aarch64//lib/libc.a(calloc.o)
 .debug_pubnames
                0x0000000000001812       0x3e 0x1 /usr/local/popcorn/aarch64//lib/libc.a(getrlimit.o)
 .debug_pubnames
                0x0000000000001850       0x2d 0x1 /usr/local/popcorn/aarch64//lib/libc.a(syscall.o)
 .debug_pubnames
                0x000000000000187d       0x1e 0x1 /usr/local/popcorn/aarch64//lib/libc.a(getline.o)
 .debug_pubnames
                0x000000000000189b       0x1f 0x1 /usr/local/popcorn/aarch64//lib/libc.a(snprintf.o)
 .debug_pubnames
                0x00000000000018ba       0x1d 0x1 /usr/local/popcorn/aarch64//lib/libc.a(sscanf.o)
 .debug_pubnames
                0x00000000000018d7       0x3d 0x1 /usr/local/popcorn/aarch64//lib/libc.a(stderr.o)
 .debug_pubnames
                0x0000000000001914       0x2d 0x1 /usr/local/popcorn/aarch64//lib/libc.a(vsnprintf.o)
 .debug_pubnames
                0x0000000000001941       0x2a 0x1 /usr/local/popcorn/aarch64//lib/libc.a(vsscanf.o)
 .debug_pubnames
                0x000000000000196b       0x69 0x1 /usr/local/popcorn/aarch64//lib/libc.a(strtol.o)
 .debug_pubnames
                0x00000000000019d4       0x1d 0x1 /usr/local/popcorn/aarch64//lib/libc.a(memcmp.o)
 .debug_pubnames
                0x00000000000019f1       0x1d 0x1 /usr/local/popcorn/aarch64//lib/libc.a(strcmp.o)
 .debug_pubnames
                0x0000000000001a0e       0x1e 0x1 /usr/local/popcorn/aarch64//lib/libc.a(strncmp.o)
 .debug_pubnames
                0x0000000000001a2c      0x206 0x1 /usr/local/popcorn/aarch64//lib/libc.a(pthread_attr_get.o)
 .debug_pubnames
                0x0000000000001c32       0x29 0x1 /usr/local/popcorn/aarch64//lib/libc.a(pthread_getattr_np.o)
 .debug_pubnames
                0x0000000000001c5b       0x3f 0x1 /usr/local/popcorn/aarch64//lib/libc.a(pthread_getspecific.o)
 .debug_pubnames
                0x0000000000001c9a       0xc1 0x1 /usr/local/popcorn/aarch64//lib/libc.a(pthread_key_create.o)
 .debug_pubnames
                0x0000000000001d5b       0x3e 0x1 /usr/local/popcorn/aarch64//lib/libc.a(pthread_migrate.o)
 .debug_pubnames
                0x0000000000001d99       0x41 0x1 /usr/local/popcorn/aarch64//lib/libc.a(pthread_self.o)
 .debug_pubnames
                0x0000000000001dda       0x3d 0x1 /usr/local/popcorn/aarch64//lib/libc.a(pthread_setspecific.o)
 .debug_pubnames
                0x0000000000001e17       0x26 0x1 /usr/local/popcorn/aarch64//lib/libc.a(close.o)
 .debug_pubnames
                0x0000000000001e3d       0x2c 0x1 /usr/local/popcorn/aarch64//lib/libc.a(getpid.o)
 .debug_pubnames
                0x0000000000001e69       0x2b 0x1 /usr/local/popcorn/aarch64//lib/libc.a(lseek.o)
 .debug_pubnames
                0x0000000000001e94       0x1b 0x1 /usr/local/popcorn/aarch64//lib/libc.a(read.o)
 .debug_pubnames
                0x0000000000001eaf       0x1c 0x1 /usr/local/popcorn/aarch64//lib/libc.a(abort.o)
 .debug_pubnames
                0x0000000000001ecb       0x38 0x1 /usr/local/popcorn/aarch64//lib/libc.a(intscan.o)
 .debug_pubnames
                0x0000000000001f03       0x2b 0x1 /usr/local/popcorn/aarch64//lib/libc.a(shgetc.o)
 .debug_pubnames
                0x0000000000001f2e       0x3a 0x1 /usr/local/popcorn/aarch64//lib/libc.a(raise.o)
 .debug_pubnames
                0x0000000000001f68       0x24 0x1 /usr/local/popcorn/aarch64//lib/libc.a(__string_read.o)
 .debug_pubnames
                0x0000000000001f8c       0x1e 0x1 /usr/local/popcorn/aarch64//lib/libc.a(__uflow.o)
 .debug_pubnames
                0x0000000000001faa       0x1f 0x1 /usr/local/popcorn/aarch64//lib/libc.a(getdelim.o)
 .debug_pubnames
                0x0000000000001fc9       0x44 0x1 /usr/local/popcorn/aarch64//lib/libc.a(vfscanf.o)
 .debug_pubnames
                0x000000000000200d       0x66 0x1 /usr/local/popcorn/aarch64//lib/libc.a(floatscan.o)
 .debug_pubnames
                0x0000000000002073       0x20 0x1 /usr/local/popcorn/aarch64//lib/libc.a(copysignl.o)
 .debug_pubnames
                0x0000000000002093       0x3f 0x1 /usr/local/popcorn/aarch64//lib/libc.a(fmodl.o)
 .debug_pubnames
                0x00000000000020d2       0x1d 0x1 /usr/local/popcorn/aarch64//lib/libc.a(scalbn.o)
 .debug_pubnames
                0x00000000000020ef       0x1e 0x1 /usr/local/popcorn/aarch64//lib/libc.a(scalbnl.o)
 .debug_pubnames
                0x000000000000210d       0x31 0x1 /usr/local/popcorn/aarch64//lib/libc.a(mbrtowc.o)
 .debug_pubnames
                0x000000000000213e       0x1e 0x1 /usr/local/popcorn/aarch64//lib/libc.a(mbsinit.o)
 .debug_pubnames
                0x000000000000215c       0x78 0x1 /usr/local/popcorn/aarch64//lib/libc.a(block.o)
 .debug_pubnames
                0x00000000000021d4       0x3d 0x1 /usr/local/popcorn/aarch64//lib/libc.a(__toread.o)
 .debug_pubnames
                0x0000000000002211       0x1e 0x1 /usr/local/popcorn/aarch64//lib/libc.a(internal.o)

.debug_pubtypes
                0x0000000000000000     0x4231
 .debug_pubtypes
                0x0000000000000000       0x30 0x1 /usr/local/popcorn/aarch64//lib/crt1.o
 .debug_pubtypes
                0x0000000000000030       0x74 0x1 /usr/local/popcorn/aarch64//lib/libc.a(__libc_start_main.o)
 .debug_pubtypes
                0x00000000000000a4       0x3e 0x1 /usr/local/popcorn/aarch64//lib/libc.a(exit.o)
 .debug_pubtypes
                0x00000000000000e2       0x6c 0x1 /usr/local/popcorn/aarch64//lib/libc.a(libc.o)
 .debug_pubtypes
                0x000000000000014e       0xae 0x1 /usr/local/popcorn/aarch64//lib/libc.a(fclose.o)
 .debug_pubtypes
                0x00000000000001fc       0xae 0x1 /usr/local/popcorn/aarch64//lib/libc.a(ferror.o)
 .debug_pubtypes
                0x00000000000002aa       0xae 0x1 /usr/local/popcorn/aarch64//lib/libc.a(fflush.o)
 .debug_pubtypes
                0x0000000000000358       0xae 0x1 /usr/local/popcorn/aarch64//lib/libc.a(fopen.o)
 .debug_pubtypes
                0x0000000000000406       0x5c 0x1 /usr/local/popcorn/aarch64//lib/libc.a(fprintf.o)
 .debug_pubtypes
                0x0000000000000462      0x17f 0x1 /usr/local/popcorn/aarch64//lib/libc.a(vfprintf.o)
 .debug_pubtypes
                0x00000000000005e1       0x5b 0x1 /usr/local/popcorn/aarch64//lib/libc.a(memchr.o)
 .debug_pubtypes
                0x000000000000063c       0x86 0x1 /usr/local/popcorn/aarch64//lib/libc.a(memset.o)
 .debug_pubtypes
                0x00000000000006c2       0x35 0x1 /usr/local/popcorn/aarch64//lib/libc.a(strchr.o)
 .debug_pubtypes
                0x00000000000006f7       0x64 0x1 /usr/local/popcorn/aarch64//lib/libc.a(strchrnul.o)
 .debug_pubtypes
                0x000000000000075b       0x4a 0x1 /usr/local/popcorn/aarch64//lib/libc.a(strlen.o)
 .debug_pubtypes
                0x00000000000007a5       0x1a 0x1 /usr/local/popcorn/aarch64//lib/libc.a(__lock.o)
 .debug_pubtypes
                0x00000000000007bf       0x31 0x1 /usr/local/popcorn/aarch64//lib/libc.a(__syscall_cp.o)
 .debug_pubtypes
                0x00000000000007f0       0x1a 0x1 /usr/local/popcorn/aarch64//lib/libc.a(__wait.o)
 .debug_pubtypes
                0x000000000000080a       0x1b 0x1 /usr/local/popcorn/aarch64//lib/libc.a(__environ.o)
 .debug_pubtypes
                0x0000000000000825      0x173 0x1 /usr/local/popcorn/aarch64//lib/libc.a(__init_tls.o)
 .debug_pubtypes
                0x0000000000000998       0xc8 0x1 /usr/local/popcorn/aarch64//lib/libc.a(__errno_location.o)
 .debug_pubtypes
                0x0000000000000a60       0xd9 0x1 /usr/local/popcorn/aarch64//lib/libc.a(strerror.o)
 .debug_pubtypes
                0x0000000000000b39       0x27 0x1 /usr/local/popcorn/aarch64//lib/libc.a(_Exit.o)
 .debug_pubtypes
                0x0000000000000b60       0x35 0x1 /usr/local/popcorn/aarch64//lib/libc.a(syscall_ret.o)
 .debug_pubtypes
                0x0000000000000b95       0xd9 0x1 /usr/local/popcorn/aarch64//lib/libc.a(__lctrans.o)
 .debug_pubtypes
                0x0000000000000c6e       0x82 0x1 /usr/local/popcorn/aarch64//lib/libc.a(malloc.o)
 .debug_pubtypes
                0x0000000000000cf0       0x97 0x1 /usr/local/popcorn/aarch64//lib/libc.a(__fpclassifyl.o)
 .debug_pubtypes
                0x0000000000000d87       0x97 0x1 /usr/local/popcorn/aarch64//lib/libc.a(__signbitl.o)
 .debug_pubtypes
                0x0000000000000e1e       0x97 0x1 /usr/local/popcorn/aarch64//lib/libc.a(frexpl.o)
 .debug_pubtypes
                0x0000000000000eb5       0x48 0x1 /usr/local/popcorn/aarch64//lib/libc.a(madvise.o)
 .debug_pubtypes
                0x0000000000000efd       0x52 0x1 /usr/local/popcorn/aarch64//lib/libc.a(mmap.o)
 .debug_pubtypes
                0x0000000000000f4f       0x78 0x1 /usr/local/popcorn/aarch64//lib/libc.a(mremap.o)
 .debug_pubtypes
                0x0000000000000fc7       0x48 0x1 /usr/local/popcorn/aarch64//lib/libc.a(munmap.o)
 .debug_pubtypes
                0x000000000000100f       0x40 0x1 /usr/local/popcorn/aarch64//lib/libc.a(wctomb.o)
 .debug_pubtypes
                0x000000000000104f       0x27 0x1 /usr/local/popcorn/aarch64//lib/libc.a(sched_yield.o)
 .debug_pubtypes
                0x0000000000001076       0xcd 0x1 /usr/local/popcorn/aarch64//lib/libc.a(__fdopen.o)
 .debug_pubtypes
                0x0000000000001143       0x23 0x1 /usr/local/popcorn/aarch64//lib/libc.a(__fmodeflags.o)
 .debug_pubtypes
                0x0000000000001166      0x113 0x1 /usr/local/popcorn/aarch64//lib/libc.a(__lockfile.o)
 .debug_pubtypes
                0x0000000000001279       0xae 0x1 /usr/local/popcorn/aarch64//lib/libc.a(__stdio_close.o)
 .debug_pubtypes
                0x0000000000001327       0xcf 0x1 /usr/local/popcorn/aarch64//lib/libc.a(__stdio_read.o)
 .debug_pubtypes
                0x00000000000013f6       0xae 0x1 /usr/local/popcorn/aarch64//lib/libc.a(__stdio_seek.o)
 .debug_pubtypes
                0x00000000000014a4       0xcf 0x1 /usr/local/popcorn/aarch64//lib/libc.a(__stdio_write.o)
 .debug_pubtypes
                0x0000000000001573       0xae 0x1 /usr/local/popcorn/aarch64//lib/libc.a(fwrite.o)
 .debug_pubtypes
                0x0000000000001621       0x71 0x1 /usr/local/popcorn/aarch64//lib/libc.a(memcpy.o)
 .debug_pubtypes
                0x0000000000001692       0x25 0x1 /usr/local/popcorn/aarch64//lib/libc.a(pthread_cleanup_push.o)
 .debug_pubtypes
                0x00000000000016b7       0x43 0x1 /usr/local/popcorn/aarch64//lib/libc.a(__brk.o)
 .debug_pubtypes
                0x00000000000016fa       0x77 0x1 /usr/local/popcorn/aarch64//lib/libc.a(wcrtomb.o)
 .debug_pubtypes
                0x0000000000001771       0xae 0x1 /usr/local/popcorn/aarch64//lib/libc.a(__towrite.o)
 .debug_pubtypes
                0x000000000000181f       0xae 0x1 /usr/local/popcorn/aarch64//lib/libc.a(__stdio_exit.o)
 .debug_pubtypes
                0x00000000000018cd       0xd7 0x1 /usr/local/popcorn/aarch64//lib/libmigrate.a(migrate.o)
 .debug_pubtypes
                0x00000000000019a4      0x260 0x1 /usr/local/popcorn/aarch64//lib/libstack-transform.a(userspace.o)
 .debug_pubtypes
                0x0000000000001c04      0x1ef 0x1 /usr/local/popcorn/aarch64//lib/libstack-transform.a(init.o)
 .debug_pubtypes
                0x0000000000001df3      0x20c 0x1 /usr/local/popcorn/aarch64//lib/libstack-transform.a(rewrite.o)
 .debug_pubtypes
                0x0000000000001fff      0x20c 0x1 /usr/local/popcorn/aarch64//lib/libstack-transform.a(unwind.o)
 .debug_pubtypes
                0x000000000000220b      0x22e 0x1 /usr/local/popcorn/aarch64//lib/libstack-transform.a(util.o)
 .debug_pubtypes
                0x0000000000002439       0x82 0x1 /usr/local/popcorn/aarch64//lib/libstack-transform.a(properties.o)
 .debug_pubtypes
                0x00000000000024bb       0xd7 0x1 /usr/local/popcorn/aarch64//lib/libstack-transform.a(regs.o)
 .debug_pubtypes
                0x0000000000002592       0x8f 0x1 /usr/local/popcorn/aarch64//lib/libstack-transform.a(properties.o)
 .debug_pubtypes
                0x0000000000002621      0x103 0x1 /usr/local/popcorn/aarch64//lib/libstack-transform.a(regs.o)
 .debug_pubtypes
                0x0000000000002724      0x22c 0x1 /usr/local/popcorn/aarch64//lib/libstack-transform.a(data.o)
 .debug_pubtypes
                0x0000000000002950       0x44 0x1 /usr/local/popcorn/aarch64//lib/libc.a(getenv.o)
 .debug_pubtypes
                0x0000000000002994       0x23 0x1 /usr/local/popcorn/aarch64//lib/libc.a(assert.o)
 .debug_pubtypes
                0x00000000000029b7       0x7c 0x1 /usr/local/popcorn/aarch64//lib/libc.a(open.o)
 .debug_pubtypes
                0x0000000000002a33       0x33 0x1 /usr/local/popcorn/aarch64//lib/libc.a(calloc.o)
 .debug_pubtypes
                0x0000000000002a66       0x6e 0x1 /usr/local/popcorn/aarch64//lib/libc.a(getrlimit.o)
 .debug_pubtypes
                0x0000000000002ad4       0x69 0x1 /usr/local/popcorn/aarch64//lib/libc.a(syscall.o)
 .debug_pubtypes
                0x0000000000002b3d       0x5e 0x1 /usr/local/popcorn/aarch64//lib/libc.a(getline.o)
 .debug_pubtypes
                0x0000000000002b9b       0x74 0x1 /usr/local/popcorn/aarch64//lib/libc.a(snprintf.o)
 .debug_pubtypes
                0x0000000000002c0f       0x53 0x1 /usr/local/popcorn/aarch64//lib/libc.a(sscanf.o)
 .debug_pubtypes
                0x0000000000002c62       0xae 0x1 /usr/local/popcorn/aarch64//lib/libc.a(stderr.o)
 .debug_pubtypes
                0x0000000000002d10       0xde 0x1 /usr/local/popcorn/aarch64//lib/libc.a(vsnprintf.o)
 .debug_pubtypes
                0x0000000000002dee       0xde 0x1 /usr/local/popcorn/aarch64//lib/libc.a(vsscanf.o)
 .debug_pubtypes
                0x0000000000002ecc       0xf6 0x1 /usr/local/popcorn/aarch64//lib/libc.a(strtol.o)
 .debug_pubtypes
                0x0000000000002fc2       0x4d 0x1 /usr/local/popcorn/aarch64//lib/libc.a(memcmp.o)
 .debug_pubtypes
                0x000000000000300f       0x35 0x1 /usr/local/popcorn/aarch64//lib/libc.a(strcmp.o)
 .debug_pubtypes
                0x0000000000003044       0x56 0x1 /usr/local/popcorn/aarch64//lib/libc.a(strncmp.o)
 .debug_pubtypes
                0x000000000000309a      0x104 0x1 /usr/local/popcorn/aarch64//lib/libc.a(pthread_attr_get.o)
 .debug_pubtypes
                0x000000000000319e       0xd6 0x1 /usr/local/popcorn/aarch64//lib/libc.a(pthread_getattr_np.o)
 .debug_pubtypes
                0x0000000000003274       0xeb 0x1 /usr/local/popcorn/aarch64//lib/libc.a(pthread_getspecific.o)
 .debug_pubtypes
                0x000000000000335f       0xf9 0x1 /usr/local/popcorn/aarch64//lib/libc.a(pthread_key_create.o)
 .debug_pubtypes
                0x0000000000003458       0xc8 0x1 /usr/local/popcorn/aarch64//lib/libc.a(pthread_migrate.o)
 .debug_pubtypes
                0x0000000000003520       0xd6 0x1 /usr/local/popcorn/aarch64//lib/libc.a(pthread_self.o)
 .debug_pubtypes
                0x00000000000035f6       0xeb 0x1 /usr/local/popcorn/aarch64//lib/libc.a(pthread_setspecific.o)
 .debug_pubtypes
                0x00000000000036e1       0x27 0x1 /usr/local/popcorn/aarch64//lib/libc.a(close.o)
 .debug_pubtypes
                0x0000000000003708       0x31 0x1 /usr/local/popcorn/aarch64//lib/libc.a(getpid.o)
 .debug_pubtypes
                0x0000000000003739       0x31 0x1 /usr/local/popcorn/aarch64//lib/libc.a(lseek.o)
 .debug_pubtypes
                0x000000000000376a       0x54 0x1 /usr/local/popcorn/aarch64//lib/libc.a(read.o)
 .debug_pubtypes
                0x00000000000037be       0xc9 0x1 /usr/local/popcorn/aarch64//lib/libc.a(intscan.o)
 .debug_pubtypes
                0x0000000000003887       0xae 0x1 /usr/local/popcorn/aarch64//lib/libc.a(shgetc.o)
 .debug_pubtypes
                0x0000000000003935       0x59 0x1 /usr/local/popcorn/aarch64//lib/libc.a(raise.o)
 .debug_pubtypes
                0x000000000000398e       0xae 0x1 /usr/local/popcorn/aarch64//lib/libc.a(__string_read.o)
 .debug_pubtypes
                0x0000000000003a3c       0xae 0x1 /usr/local/popcorn/aarch64//lib/libc.a(__uflow.o)
 .debug_pubtypes
                0x0000000000003aea       0xba 0x1 /usr/local/popcorn/aarch64//lib/libc.a(getdelim.o)
 .debug_pubtypes
                0x0000000000003ba4      0x168 0x1 /usr/local/popcorn/aarch64//lib/libc.a(vfscanf.o)
 .debug_pubtypes
                0x0000000000003d0c       0xea 0x1 /usr/local/popcorn/aarch64//lib/libc.a(floatscan.o)
 .debug_pubtypes
                0x0000000000003df6       0x8f 0x1 /usr/local/popcorn/aarch64//lib/libc.a(copysignl.o)
 .debug_pubtypes
                0x0000000000003e85       0xc7 0x1 /usr/local/popcorn/aarch64//lib/libc.a(fmodl.o)
 .debug_pubtypes
                0x0000000000003f4c       0x55 0x1 /usr/local/popcorn/aarch64//lib/libc.a(scalbn.o)
 .debug_pubtypes
                0x0000000000003fa1       0x97 0x1 /usr/local/popcorn/aarch64//lib/libc.a(scalbnl.o)
 .debug_pubtypes
                0x0000000000004038       0x9d 0x1 /usr/local/popcorn/aarch64//lib/libc.a(mbrtowc.o)
 .debug_pubtypes
                0x00000000000040d5       0x49 0x1 /usr/local/popcorn/aarch64//lib/libc.a(mbsinit.o)
 .debug_pubtypes
                0x000000000000411e       0x35 0x1 /usr/local/popcorn/aarch64//lib/libc.a(block.o)
 .debug_pubtypes
                0x0000000000004153       0xae 0x1 /usr/local/popcorn/aarch64//lib/libc.a(__toread.o)
 .debug_pubtypes
                0x0000000000004201       0x30 0x1 /usr/local/popcorn/aarch64//lib/libc.a(internal.o)

.debug_frame    0x0000000000000000     0x2848
 .debug_frame   0x0000000000000000       0x38 0x8 /usr/local/popcorn/aarch64//lib/crt1.o
 .debug_frame   0x0000000000000038       0x78 0x8 /usr/local/popcorn/aarch64//lib/libc.a(__libc_start_main.o)
 .debug_frame   0x00000000000000b0       0x58 0x8 /usr/local/popcorn/aarch64//lib/libc.a(exit.o)
 .debug_frame   0x0000000000000108       0x58 0x8 /usr/local/popcorn/aarch64//lib/libc.a(fclose.o)
 .debug_frame   0x0000000000000160       0x40 0x8 /usr/local/popcorn/aarch64//lib/libc.a(ferror.o)
 .debug_frame   0x00000000000001a0       0x68 0x8 /usr/local/popcorn/aarch64//lib/libc.a(fflush.o)
 .debug_frame   0x0000000000000208       0x40 0x8 /usr/local/popcorn/aarch64//lib/libc.a(fopen.o)
 .debug_frame   0x0000000000000248       0x40 0x8 /usr/local/popcorn/aarch64//lib/libc.a(fprintf.o)
 .debug_frame   0x0000000000000288       0xd0 0x8 /usr/local/popcorn/aarch64//lib/libc.a(vfprintf.o)
 .debug_frame   0x0000000000000358       0x30 0x8 /usr/local/popcorn/aarch64//lib/libc.a(memchr.o)
 .debug_frame   0x0000000000000388       0x30 0x8 /usr/local/popcorn/aarch64//lib/libc.a(memset.o)
 .debug_frame   0x00000000000003b8       0x40 0x8 /usr/local/popcorn/aarch64//lib/libc.a(strchr.o)
 .debug_frame   0x00000000000003f8       0x40 0x8 /usr/local/popcorn/aarch64//lib/libc.a(strchrnul.o)
 .debug_frame   0x0000000000000438       0x30 0x8 /usr/local/popcorn/aarch64//lib/libc.a(strlen.o)
 .debug_frame   0x0000000000000468       0x58 0x8 /usr/local/popcorn/aarch64//lib/libc.a(__lock.o)
 .debug_frame   0x00000000000004c0       0x48 0x8 /usr/local/popcorn/aarch64//lib/libc.a(__syscall_cp.o)
 .debug_frame   0x0000000000000508       0x40 0x8 /usr/local/popcorn/aarch64//lib/libc.a(__wait.o)
 .debug_frame   0x0000000000000548       0x68 0x8 /usr/local/popcorn/aarch64//lib/libc.a(__init_tls.o)
 .debug_frame   0x00000000000005b0       0x30 0x8 /usr/local/popcorn/aarch64//lib/libc.a(__errno_location.o)
 .debug_frame   0x00000000000005e0       0x48 0x8 /usr/local/popcorn/aarch64//lib/libc.a(strerror.o)
 .debug_frame   0x0000000000000628       0x30 0x8 /usr/local/popcorn/aarch64//lib/libc.a(_Exit.o)
 .debug_frame   0x0000000000000658       0x40 0x8 /usr/local/popcorn/aarch64//lib/libc.a(syscall_ret.o)
 .debug_frame   0x0000000000000698       0x60 0x8 /usr/local/popcorn/aarch64//lib/libc.a(__lctrans.o)
 .debug_frame   0x00000000000006f8      0x138 0x8 /usr/local/popcorn/aarch64//lib/libc.a(malloc.o)
 .debug_frame   0x0000000000000830       0x38 0x8 /usr/local/popcorn/aarch64//lib/libc.a(__fpclassifyl.o)
 .debug_frame   0x0000000000000868       0x38 0x8 /usr/local/popcorn/aarch64//lib/libc.a(__signbitl.o)
 .debug_frame   0x00000000000008a0       0x40 0x8 /usr/local/popcorn/aarch64//lib/libc.a(frexpl.o)
 .debug_frame   0x00000000000008e0       0x38 0x8 /usr/local/popcorn/aarch64//lib/libc.a(madvise.o)
 .debug_frame   0x0000000000000918       0x60 0x8 /usr/local/popcorn/aarch64//lib/libc.a(mmap.o)
 .debug_frame   0x0000000000000978       0x38 0x8 /usr/local/popcorn/aarch64//lib/libc.a(mremap.o)
 .debug_frame   0x00000000000009b0       0x58 0x8 /usr/local/popcorn/aarch64//lib/libc.a(munmap.o)
 .debug_frame   0x0000000000000a08       0x38 0x8 /usr/local/popcorn/aarch64//lib/libc.a(wctomb.o)
 .debug_frame   0x0000000000000a40       0x38 0x8 /usr/local/popcorn/aarch64//lib/libc.a(sched_yield.o)
 .debug_frame   0x0000000000000a78       0x40 0x8 /usr/local/popcorn/aarch64//lib/libc.a(__fdopen.o)
 .debug_frame   0x0000000000000ab8       0x40 0x8 /usr/local/popcorn/aarch64//lib/libc.a(__fmodeflags.o)
 .debug_frame   0x0000000000000af8       0x58 0x8 /usr/local/popcorn/aarch64//lib/libc.a(__lockfile.o)
 .debug_frame   0x0000000000000b50       0x50 0x8 /usr/local/popcorn/aarch64//lib/libc.a(__stdio_close.o)
 .debug_frame   0x0000000000000ba0       0x58 0x8 /usr/local/popcorn/aarch64//lib/libc.a(__stdio_read.o)
 .debug_frame   0x0000000000000bf8       0x30 0x8 /usr/local/popcorn/aarch64//lib/libc.a(__stdio_seek.o)
 .debug_frame   0x0000000000000c28       0x60 0x8 /usr/local/popcorn/aarch64//lib/libc.a(__stdio_write.o)
 .debug_frame   0x0000000000000c88       0x78 0x8 /usr/local/popcorn/aarch64//lib/libc.a(fwrite.o)
 .debug_frame   0x0000000000000d00       0x30 0x8 /usr/local/popcorn/aarch64//lib/libc.a(memcpy.o)
 .debug_frame   0x0000000000000d30       0x70 0x8 /usr/local/popcorn/aarch64//lib/libc.a(pthread_cleanup_push.o)
 .debug_frame   0x0000000000000da0       0x30 0x8 /usr/local/popcorn/aarch64//lib/libc.a(__brk.o)
 .debug_frame   0x0000000000000dd0       0x38 0x8 /usr/local/popcorn/aarch64//lib/libc.a(wcrtomb.o)
 .debug_frame   0x0000000000000e08       0x48 0x8 /usr/local/popcorn/aarch64//lib/libc.a(__towrite.o)
 .debug_frame   0x0000000000000e50       0x68 0x8 /usr/local/popcorn/aarch64//lib/libc.a(__stdio_exit.o)
 .debug_frame   0x0000000000000eb8      0x170 0x8 /usr/local/popcorn/aarch64//lib/libmigrate.a(migrate.o)
 .debug_frame   0x0000000000001028      0x110 0x8 /usr/local/popcorn/aarch64//lib/libstack-transform.a(userspace.o)
 .debug_frame   0x0000000000001138       0x98 0x8 /usr/local/popcorn/aarch64//lib/libstack-transform.a(init.o)
 .debug_frame   0x00000000000011d0       0xa8 0x8 /usr/local/popcorn/aarch64//lib/libstack-transform.a(rewrite.o)
 .debug_frame   0x0000000000001278      0x150 0x8 /usr/local/popcorn/aarch64//lib/libstack-transform.a(unwind.o)
 .debug_frame   0x00000000000013c8      0x130 0x8 /usr/local/popcorn/aarch64//lib/libstack-transform.a(util.o)
 .debug_frame   0x00000000000014f8       0x70 0x8 /usr/local/popcorn/aarch64//lib/libstack-transform.a(properties.o)
 .debug_frame   0x0000000000001568      0x1e0 0x8 /usr/local/popcorn/aarch64//lib/libstack-transform.a(regs.o)
 .debug_frame   0x0000000000001748       0x68 0x8 /usr/local/popcorn/aarch64//lib/libstack-transform.a(properties.o)
 .debug_frame   0x00000000000017b0      0x1f0 0x8 /usr/local/popcorn/aarch64//lib/libstack-transform.a(regs.o)
 .debug_frame   0x00000000000019a0      0x168 0x8 /usr/local/popcorn/aarch64//lib/libstack-transform.a(data.o)
 .debug_frame   0x0000000000001b08       0x40 0x8 /usr/local/popcorn/aarch64//lib/libc.a(getenv.o)
 .debug_frame   0x0000000000001b48       0x38 0x8 /usr/local/popcorn/aarch64//lib/libc.a(assert.o)
 .debug_frame   0x0000000000001b80       0x40 0x8 /usr/local/popcorn/aarch64//lib/libc.a(open.o)
 .debug_frame   0x0000000000001bc0       0x40 0x8 /usr/local/popcorn/aarch64//lib/libc.a(calloc.o)
 .debug_frame   0x0000000000001c00       0x40 0x8 /usr/local/popcorn/aarch64//lib/libc.a(getrlimit.o)
 .debug_frame   0x0000000000001c40       0x38 0x8 /usr/local/popcorn/aarch64//lib/libc.a(syscall.o)
 .debug_frame   0x0000000000001c78       0x30 0x8 /usr/local/popcorn/aarch64//lib/libc.a(getline.o)
 .debug_frame   0x0000000000001ca8       0x40 0x8 /usr/local/popcorn/aarch64//lib/libc.a(snprintf.o)
 .debug_frame   0x0000000000001ce8       0x40 0x8 /usr/local/popcorn/aarch64//lib/libc.a(sscanf.o)
 .debug_frame   0x0000000000001d28       0x70 0x8 /usr/local/popcorn/aarch64//lib/libc.a(vsnprintf.o)
 .debug_frame   0x0000000000001d98       0x58 0x8 /usr/local/popcorn/aarch64//lib/libc.a(vsscanf.o)
 .debug_frame   0x0000000000001df0       0xd8 0x8 /usr/local/popcorn/aarch64//lib/libc.a(strtol.o)
 .debug_frame   0x0000000000001ec8       0x30 0x8 /usr/local/popcorn/aarch64//lib/libc.a(memcmp.o)
 .debug_frame   0x0000000000001ef8       0x30 0x8 /usr/local/popcorn/aarch64//lib/libc.a(strcmp.o)
 .debug_frame   0x0000000000001f28       0x30 0x8 /usr/local/popcorn/aarch64//lib/libc.a(strncmp.o)
 .debug_frame   0x0000000000001f58      0x198 0x8 /usr/local/popcorn/aarch64//lib/libc.a(pthread_attr_get.o)
 .debug_frame   0x00000000000020f0       0x48 0x8 /usr/local/popcorn/aarch64//lib/libc.a(pthread_getattr_np.o)
 .debug_frame   0x0000000000002138       0x30 0x8 /usr/local/popcorn/aarch64//lib/libc.a(pthread_getspecific.o)
 .debug_frame   0x0000000000002168       0x90 0x8 /usr/local/popcorn/aarch64//lib/libc.a(pthread_key_create.o)
 .debug_frame   0x00000000000021f8       0x30 0x8 /usr/local/popcorn/aarch64//lib/libc.a(pthread_migrate.o)
 .debug_frame   0x0000000000002228       0x30 0x8 /usr/local/popcorn/aarch64//lib/libc.a(pthread_self.o)
 .debug_frame   0x0000000000002258       0x30 0x8 /usr/local/popcorn/aarch64//lib/libc.a(pthread_setspecific.o)
 .debug_frame   0x0000000000002288       0x50 0x8 /usr/local/popcorn/aarch64//lib/libc.a(close.o)
 .debug_frame   0x00000000000022d8       0x30 0x8 /usr/local/popcorn/aarch64//lib/libc.a(getpid.o)
 .debug_frame   0x0000000000002308       0x30 0x8 /usr/local/popcorn/aarch64//lib/libc.a(lseek.o)
 .debug_frame   0x0000000000002338       0x38 0x8 /usr/local/popcorn/aarch64//lib/libc.a(read.o)
 .debug_frame   0x0000000000002370       0x38 0x8 /usr/local/popcorn/aarch64//lib/libc.a(abort.o)
 .debug_frame   0x00000000000023a8       0x48 0x8 /usr/local/popcorn/aarch64//lib/libc.a(intscan.o)
 .debug_frame   0x00000000000023f0       0x58 0x8 /usr/local/popcorn/aarch64//lib/libc.a(shgetc.o)
 .debug_frame   0x0000000000002448       0x40 0x8 /usr/local/popcorn/aarch64//lib/libc.a(raise.o)
 .debug_frame   0x0000000000002488       0x48 0x8 /usr/local/popcorn/aarch64//lib/libc.a(__string_read.o)
 .debug_frame   0x00000000000024d0       0x40 0x8 /usr/local/popcorn/aarch64//lib/libc.a(__uflow.o)
 .debug_frame   0x0000000000002510       0x50 0x8 /usr/local/popcorn/aarch64//lib/libc.a(getdelim.o)
 .debug_frame   0x0000000000002560       0x50 0x8 /usr/local/popcorn/aarch64//lib/libc.a(vfscanf.o)
 .debug_frame   0x00000000000025b0       0x88 0x8 /usr/local/popcorn/aarch64//lib/libc.a(floatscan.o)
 .debug_frame   0x0000000000002638       0x38 0x8 /usr/local/popcorn/aarch64//lib/libc.a(copysignl.o)
 .debug_frame   0x0000000000002670       0x48 0x8 /usr/local/popcorn/aarch64//lib/libc.a(fmodl.o)
 .debug_frame   0x00000000000026b8       0x30 0x8 /usr/local/popcorn/aarch64//lib/libc.a(scalbn.o)
 .debug_frame   0x00000000000026e8       0x40 0x8 /usr/local/popcorn/aarch64//lib/libc.a(scalbnl.o)
 .debug_frame   0x0000000000002728       0x38 0x8 /usr/local/popcorn/aarch64//lib/libc.a(mbrtowc.o)
 .debug_frame   0x0000000000002760       0x30 0x8 /usr/local/popcorn/aarch64//lib/libc.a(mbsinit.o)
 .debug_frame   0x0000000000002790       0x60 0x8 /usr/local/popcorn/aarch64//lib/libc.a(block.o)
 .debug_frame   0x00000000000027f0       0x58 0x8 /usr/local/popcorn/aarch64//lib/libc.a(__toread.o)

.debug_line     0x0000000000000000     0xadff
 .debug_line    0x0000000000000000       0x4b 0x1 /usr/local/popcorn/aarch64//lib/crt1.o
 .debug_line    0x000000000000004b      0x201 0x1 /usr/local/popcorn/aarch64//lib/libc.a(__libc_start_main.o)
 .debug_line    0x000000000000024c       0x96 0x1 /usr/local/popcorn/aarch64//lib/libc.a(exit.o)
 .debug_line    0x00000000000002e2       0x6f 0x1 /usr/local/popcorn/aarch64//lib/libc.a(libc.o)
 .debug_line    0x0000000000000351       0xf5 0x1 /usr/local/popcorn/aarch64//lib/libc.a(fclose.o)
 .debug_line    0x0000000000000446       0xb5 0x1 /usr/local/popcorn/aarch64//lib/libc.a(ferror.o)
 .debug_line    0x00000000000004fb      0x149 0x1 /usr/local/popcorn/aarch64//lib/libc.a(fflush.o)
 .debug_line    0x0000000000000644       0xf4 0x1 /usr/local/popcorn/aarch64//lib/libc.a(fopen.o)
 .debug_line    0x0000000000000738       0x79 0x1 /usr/local/popcorn/aarch64//lib/libc.a(fprintf.o)
 .debug_line    0x00000000000007b1     0x114c 0x1 /usr/local/popcorn/aarch64//lib/libc.a(vfprintf.o)
 .debug_line    0x00000000000018fd       0xea 0x1 /usr/local/popcorn/aarch64//lib/libc.a(memchr.o)
 .debug_line    0x00000000000019e7      0x11b 0x1 /usr/local/popcorn/aarch64//lib/libc.a(memset.o)
 .debug_line    0x0000000000001b02       0x53 0x1 /usr/local/popcorn/aarch64//lib/libc.a(strchr.o)
 .debug_line    0x0000000000001b55       0xb8 0x1 /usr/local/popcorn/aarch64//lib/libc.a(strchrnul.o)
 .debug_line    0x0000000000001c0d       0x9f 0x1 /usr/local/popcorn/aarch64//lib/libc.a(strlen.o)
 .debug_line    0x0000000000001cac       0xd7 0x1 /usr/local/popcorn/aarch64//lib/libc.a(__lock.o)
 .debug_line    0x0000000000001d83       0x84 0x1 /usr/local/popcorn/aarch64//lib/libc.a(__syscall_cp.o)
 .debug_line    0x0000000000001e07       0xae 0x1 /usr/local/popcorn/aarch64//lib/libc.a(__wait.o)
 .debug_line    0x0000000000001eb5       0x34 0x1 /usr/local/popcorn/aarch64//lib/libc.a(__environ.o)
 .debug_line    0x0000000000001ee9      0x237 0x1 /usr/local/popcorn/aarch64//lib/libc.a(__init_tls.o)
 .debug_line    0x0000000000002120       0xe2 0x1 /usr/local/popcorn/aarch64//lib/libc.a(__errno_location.o)
 .debug_line    0x0000000000002202      0x12b 0x1 /usr/local/popcorn/aarch64//lib/libc.a(strerror.o)
 .debug_line    0x000000000000232d       0x7c 0x1 /usr/local/popcorn/aarch64//lib/libc.a(_Exit.o)
 .debug_line    0x00000000000023a9       0x44 0x1 /usr/local/popcorn/aarch64//lib/libc.a(syscall.o)
 .debug_line    0x00000000000023ed       0x61 0x1 /usr/local/popcorn/aarch64//lib/libc.a(syscall_ret.o)
 .debug_line    0x000000000000244e      0x11f 0x1 /usr/local/popcorn/aarch64//lib/libc.a(__lctrans.o)
 .debug_line    0x000000000000256d      0xa7b 0x1 /usr/local/popcorn/aarch64//lib/libc.a(malloc.o)
 .debug_line    0x0000000000002fe8       0xad 0x1 /usr/local/popcorn/aarch64//lib/libc.a(__fpclassifyl.o)
 .debug_line    0x0000000000003095       0x8a 0x1 /usr/local/popcorn/aarch64//lib/libc.a(__signbitl.o)
 .debug_line    0x000000000000311f       0xbd 0x1 /usr/local/popcorn/aarch64//lib/libc.a(frexpl.o)
 .debug_line    0x00000000000031dc       0xa8 0x1 /usr/local/popcorn/aarch64//lib/libc.a(madvise.o)
 .debug_line    0x0000000000003284       0xdd 0x1 /usr/local/popcorn/aarch64//lib/libc.a(mmap.o)
 .debug_line    0x0000000000003361       0xd1 0x1 /usr/local/popcorn/aarch64//lib/libc.a(mremap.o)
 .debug_line    0x0000000000003432       0xbb 0x1 /usr/local/popcorn/aarch64//lib/libc.a(munmap.o)
 .debug_line    0x00000000000034ed       0x76 0x1 /usr/local/popcorn/aarch64//lib/libc.a(wctomb.o)
 .debug_line    0x0000000000003563       0x86 0x1 /usr/local/popcorn/aarch64//lib/libc.a(sched_yield.o)
 .debug_line    0x00000000000035e9      0x196 0x1 /usr/local/popcorn/aarch64//lib/libc.a(__fdopen.o)
 .debug_line    0x000000000000377f       0xb3 0x1 /usr/local/popcorn/aarch64//lib/libc.a(__fmodeflags.o)
 .debug_line    0x0000000000003832      0x15e 0x1 /usr/local/popcorn/aarch64//lib/libc.a(__lockfile.o)
 .debug_line    0x0000000000003990       0xe5 0x1 /usr/local/popcorn/aarch64//lib/libc.a(__stdio_close.o)
 .debug_line    0x0000000000003a75      0x12d 0x1 /usr/local/popcorn/aarch64//lib/libc.a(__stdio_read.o)
 .debug_line    0x0000000000003ba2       0xc6 0x1 /usr/local/popcorn/aarch64//lib/libc.a(__stdio_seek.o)
 .debug_line    0x0000000000003c68      0x164 0x1 /usr/local/popcorn/aarch64//lib/libc.a(__stdio_write.o)
 .debug_line    0x0000000000003dcc      0x127 0x1 /usr/local/popcorn/aarch64//lib/libc.a(fwrite.o)
 .debug_line    0x0000000000003ef3      0x295 0x1 /usr/local/popcorn/aarch64//lib/libc.a(memcpy.o)
 .debug_line    0x0000000000004188       0x47 0x1 /usr/local/popcorn/aarch64//lib/libc.a(__set_thread_area.o)
 .debug_line    0x00000000000041cf       0xae 0x1 /usr/local/popcorn/aarch64//lib/libc.a(pthread_cleanup_push.o)
 .debug_line    0x000000000000427d       0x9c 0x1 /usr/local/popcorn/aarch64//lib/libc.a(__brk.o)
 .debug_line    0x0000000000004319       0xcb 0x1 /usr/local/popcorn/aarch64//lib/libc.a(wcrtomb.o)
 .debug_line    0x00000000000043e4       0xcf 0x1 /usr/local/popcorn/aarch64//lib/libc.a(__towrite.o)
 .debug_line    0x00000000000044b3       0xf7 0x1 /usr/local/popcorn/aarch64//lib/libc.a(__stdio_exit.o)
 .debug_line    0x00000000000045aa      0x331 0x1 /usr/local/popcorn/aarch64//lib/libmigrate.a(migrate.o)
 .debug_line    0x00000000000048db      0x4a0 0x1 /usr/local/popcorn/aarch64//lib/libstack-transform.a(userspace.o)
 .debug_line    0x0000000000004d7b      0x2c8 0x1 /usr/local/popcorn/aarch64//lib/libstack-transform.a(init.o)
 .debug_line    0x0000000000005043      0xa47 0x1 /usr/local/popcorn/aarch64//lib/libstack-transform.a(rewrite.o)
 .debug_line    0x0000000000005a8a      0x565 0x1 /usr/local/popcorn/aarch64//lib/libstack-transform.a(unwind.o)
 .debug_line    0x0000000000005fef      0x3f2 0x1 /usr/local/popcorn/aarch64//lib/libstack-transform.a(util.o)
 .debug_line    0x00000000000063e1       0xf6 0x1 /usr/local/popcorn/aarch64//lib/libstack-transform.a(properties.o)
 .debug_line    0x00000000000064d7      0x546 0x1 /usr/local/popcorn/aarch64//lib/libstack-transform.a(regs.o)
 .debug_line    0x0000000000006a1d       0xf6 0x1 /usr/local/popcorn/aarch64//lib/libstack-transform.a(properties.o)
 .debug_line    0x0000000000006b13      0x3fb 0x1 /usr/local/popcorn/aarch64//lib/libstack-transform.a(regs.o)
 .debug_line    0x0000000000006f0e      0x6cb 0x1 /usr/local/popcorn/aarch64//lib/libstack-transform.a(data.o)
 .debug_line    0x00000000000075d9       0xa4 0x1 /usr/local/popcorn/aarch64//lib/libc.a(getenv.o)
 .debug_line    0x000000000000767d       0x52 0x1 /usr/local/popcorn/aarch64//lib/libc.a(assert.o)
 .debug_line    0x00000000000076cf       0xd6 0x1 /usr/local/popcorn/aarch64//lib/libc.a(open.o)
 .debug_line    0x00000000000077a5       0xb6 0x1 /usr/local/popcorn/aarch64//lib/libc.a(calloc.o)
 .debug_line    0x000000000000785b      0x11a 0x1 /usr/local/popcorn/aarch64//lib/libc.a(getrlimit.o)
 .debug_line    0x0000000000007975      0x17c 0x1 /usr/local/popcorn/aarch64//lib/libc.a(syscall.o)
 .debug_line    0x0000000000007af1       0x6b 0x1 /usr/local/popcorn/aarch64//lib/libc.a(getline.o)
 .debug_line    0x0000000000007b5c       0x7a 0x1 /usr/local/popcorn/aarch64//lib/libc.a(snprintf.o)
 .debug_line    0x0000000000007bd6       0x78 0x1 /usr/local/popcorn/aarch64//lib/libc.a(sscanf.o)
 .debug_line    0x0000000000007c4e       0x74 0x1 /usr/local/popcorn/aarch64//lib/libc.a(stderr.o)
 .debug_line    0x0000000000007cc2       0xfd 0x1 /usr/local/popcorn/aarch64//lib/libc.a(vsnprintf.o)
 .debug_line    0x0000000000007dbf       0xb4 0x1 /usr/local/popcorn/aarch64//lib/libc.a(vsscanf.o)
 .debug_line    0x0000000000007e73      0x15a 0x1 /usr/local/popcorn/aarch64//lib/libc.a(strtol.o)
 .debug_line    0x0000000000007fcd       0x8f 0x1 /usr/local/popcorn/aarch64//lib/libc.a(memcmp.o)
 .debug_line    0x000000000000805c       0x66 0x1 /usr/local/popcorn/aarch64//lib/libc.a(strcmp.o)
 .debug_line    0x00000000000080c2       0x94 0x1 /usr/local/popcorn/aarch64//lib/libc.a(strncmp.o)
 .debug_line    0x0000000000008156      0x286 0x1 /usr/local/popcorn/aarch64//lib/libc.a(pthread_attr_get.o)
 .debug_line    0x00000000000083dc      0x140 0x1 /usr/local/popcorn/aarch64//lib/libc.a(pthread_getattr_np.o)
 .debug_line    0x000000000000851c       0xe9 0x1 /usr/local/popcorn/aarch64//lib/libc.a(pthread_getspecific.o)
 .debug_line    0x0000000000008605      0x1b7 0x1 /usr/local/popcorn/aarch64//lib/libc.a(pthread_key_create.o)
 .debug_line    0x00000000000087bc       0xe2 0x1 /usr/local/popcorn/aarch64//lib/libc.a(pthread_migrate.o)
 .debug_line    0x000000000000889e       0xd9 0x1 /usr/local/popcorn/aarch64//lib/libc.a(pthread_self.o)
 .debug_line    0x0000000000008977       0xf5 0x1 /usr/local/popcorn/aarch64//lib/libc.a(pthread_setspecific.o)
 .debug_line    0x0000000000008a6c       0x70 0x1 /usr/local/popcorn/aarch64//lib/libc.a(close.o)
 .debug_line    0x0000000000008adc       0x9d 0x1 /usr/local/popcorn/aarch64//lib/libc.a(getpid.o)
 .debug_line    0x0000000000008b79       0xa1 0x1 /usr/local/popcorn/aarch64//lib/libc.a(lseek.o)
 .debug_line    0x0000000000008c1a       0x6c 0x1 /usr/local/popcorn/aarch64//lib/libc.a(read.o)
 .debug_line    0x0000000000008c86       0x4c 0x1 /usr/local/popcorn/aarch64//lib/libc.a(abort.o)
 .debug_line    0x0000000000008cd2      0x352 0x1 /usr/local/popcorn/aarch64//lib/libc.a(intscan.o)
 .debug_line    0x0000000000009024      0x106 0x1 /usr/local/popcorn/aarch64//lib/libc.a(shgetc.o)
 .debug_line    0x000000000000912a       0xb9 0x1 /usr/local/popcorn/aarch64//lib/libc.a(raise.o)
 .debug_line    0x00000000000091e3       0xb3 0x1 /usr/local/popcorn/aarch64//lib/libc.a(__string_read.o)
 .debug_line    0x0000000000009296       0xa7 0x1 /usr/local/popcorn/aarch64//lib/libc.a(__uflow.o)
 .debug_line    0x000000000000933d      0x18a 0x1 /usr/local/popcorn/aarch64//lib/libc.a(getdelim.o)
 .debug_line    0x00000000000094c7      0x574 0x1 /usr/local/popcorn/aarch64//lib/libc.a(vfscanf.o)
 .debug_line    0x0000000000009a3b      0xca0 0x1 /usr/local/popcorn/aarch64//lib/libc.a(floatscan.o)
 .debug_line    0x000000000000a6db       0x98 0x1 /usr/local/popcorn/aarch64//lib/libc.a(copysignl.o)
 .debug_line    0x000000000000a773       0x3b 0x1 /usr/local/popcorn/aarch64//lib/libc.a(fabs.o)
 .debug_line    0x000000000000a7ae      0x178 0x1 /usr/local/popcorn/aarch64//lib/libc.a(fmodl.o)
 .debug_line    0x000000000000a926       0xaf 0x1 /usr/local/popcorn/aarch64//lib/libc.a(scalbn.o)
 .debug_line    0x000000000000a9d5       0xc4 0x1 /usr/local/popcorn/aarch64//lib/libc.a(scalbnl.o)
 .debug_line    0x000000000000aa99       0xdf 0x1 /usr/local/popcorn/aarch64//lib/libc.a(mbrtowc.o)
 .debug_line    0x000000000000ab78       0x78 0x1 /usr/local/popcorn/aarch64//lib/libc.a(mbsinit.o)
 .debug_line    0x000000000000abf0       0xd3 0x1 /usr/local/popcorn/aarch64//lib/libc.a(block.o)
 .debug_line    0x000000000000acc3       0xe1 0x1 /usr/local/popcorn/aarch64//lib/libc.a(__toread.o)
 .debug_line    0x000000000000ada4       0x5b 0x1 /usr/local/popcorn/aarch64//lib/libc.a(internal.o)

.debug_aranges  0x0000000000000000       0x90
 .debug_aranges
                0x0000000000000000       0x30 0x1 /usr/local/popcorn/aarch64//lib/libc.a(syscall.o)
 .debug_aranges
                0x0000000000000030       0x30 0x1 /usr/local/popcorn/aarch64//lib/libc.a(__set_thread_area.o)
 .debug_aranges
                0x0000000000000060       0x30 0x1 /usr/local/popcorn/aarch64//lib/libc.a(fabs.o)

.note.gnu.gold-version
                0x0000000000000000       0x1c
 ** note header
                0x0000000000000000       0x10
 ** fill        0x0000000000000010        0x9
 ** zero fill   0x0000000000000019        0x3

.symtab         0x0000000000000000     0xdc80
 ** symtab      0x0000000000000000     0xdc80

.strtab         0x0000000000000000     0x31e5
 ** string table
                0x0000000000000000     0x31e5

.shstrtab       0x0000000000000000      0x189
 ** string table
                0x0000000000000000      0x189
