Archive member included because of file (symbol)

/usr/local/popcorn/aarch64//lib/libc.a(__libc_start_main.o)
                              /usr/local/popcorn/aarch64//lib/crt1.o (__libc_start_main)
/usr/local/popcorn/aarch64//lib/libc.a(exit.o)
                              /usr/local/popcorn/aarch64//lib/libc.a(__libc_start_main.o) (exit)
/usr/local/popcorn/aarch64//lib/libc.a(libc.o)
                              /usr/local/popcorn/aarch64//lib/libc.a(__libc_start_main.o) (__hwcap)
/usr/local/popcorn/aarch64//lib/libc.a(fclose.o)
                              /tmp/conftest-dcbec8.o (fclose)
/usr/local/popcorn/aarch64//lib/libc.a(ferror.o)
                              /tmp/conftest-dcbec8.o (ferror)
/usr/local/popcorn/aarch64//lib/libc.a(fflush.o)
                              /usr/local/popcorn/aarch64//lib/libc.a(fclose.o) (fflush)
/usr/local/popcorn/aarch64//lib/libc.a(fopen.o)
                              /tmp/conftest-dcbec8.o (fopen)
/usr/local/popcorn/aarch64//lib/libc.a(fprintf.o)
                              /tmp/conftest-dcbec8.o (fprintf)
/usr/local/popcorn/aarch64//lib/libc.a(vfprintf.o)
                              /usr/local/popcorn/aarch64//lib/libc.a(fprintf.o) (vfprintf)
/usr/local/popcorn/aarch64//lib/libc.a(memchr.o)
                              /usr/local/popcorn/aarch64//lib/libc.a(vfprintf.o) (memchr)
/usr/local/popcorn/aarch64//lib/libc.a(memset.o)
                              /usr/local/popcorn/aarch64//lib/libc.a(__libc_start_main.o) (memset)
/usr/local/popcorn/aarch64//lib/libc.a(strchr.o)
                              /usr/local/popcorn/aarch64//lib/libc.a(fopen.o) (strchr)
/usr/local/popcorn/aarch64//lib/libc.a(strchrnul.o)
                              /usr/local/popcorn/aarch64//lib/libc.a(strchr.o) (__strchrnul)
/usr/local/popcorn/aarch64//lib/libc.a(strlen.o)
                              /usr/local/popcorn/aarch64//lib/libc.a(strchrnul.o) (strlen)
/usr/local/popcorn/aarch64//lib/libc.a(__lock.o)
                              /usr/local/popcorn/aarch64//lib/libc.a(fclose.o) (__lock)
/usr/local/popcorn/aarch64//lib/libc.a(__syscall_cp.o)
                              /usr/local/popcorn/aarch64//lib/libc.a(fopen.o) (__syscall_cp)
/usr/local/popcorn/aarch64//lib/libc.a(__wait.o)
                              /usr/local/popcorn/aarch64//lib/libc.a(__lock.o) (__wait)
/usr/local/popcorn/aarch64//lib/libc.a(__environ.o)
                              /usr/local/popcorn/aarch64//lib/libc.a(__libc_start_main.o) (__environ)
/usr/local/popcorn/aarch64//lib/libc.a(__init_tls.o)
                              /usr/local/popcorn/aarch64//lib/libc.a(__libc_start_main.o) (__init_tls)
/usr/local/popcorn/aarch64//lib/libc.a(__errno_location.o)
                              /usr/local/popcorn/aarch64//lib/libc.a(fopen.o) (__errno_location)
/usr/local/popcorn/aarch64//lib/libc.a(strerror.o)
                              /usr/local/popcorn/aarch64//lib/libc.a(vfprintf.o) (strerror)
/usr/local/popcorn/aarch64//lib/libc.a(_Exit.o)
                              /usr/local/popcorn/aarch64//lib/libc.a(exit.o) (_Exit)
/usr/local/popcorn/aarch64//lib/libc.a(syscall.o)
                              /usr/local/popcorn/aarch64//lib/libc.a(__syscall_cp.o) (__syscall)
/usr/local/popcorn/aarch64//lib/libc.a(syscall_ret.o)
                              /usr/local/popcorn/aarch64//lib/libc.a(fopen.o) (__syscall_ret)
/usr/local/popcorn/aarch64//lib/libc.a(__lctrans.o)
                              /usr/local/popcorn/aarch64//lib/libc.a(strerror.o) (__lctrans)
/usr/local/popcorn/aarch64//lib/libc.a(malloc.o)
                              /usr/local/popcorn/aarch64//lib/libc.a(fclose.o) (free)
/usr/local/popcorn/aarch64//lib/libc.a(__fpclassifyl.o)
                              /usr/local/popcorn/aarch64//lib/libc.a(vfprintf.o) (__fpclassifyl)
/usr/local/popcorn/aarch64//lib/libc.a(__signbitl.o)
                              /usr/local/popcorn/aarch64//lib/libc.a(vfprintf.o) (__signbitl)
/usr/local/popcorn/aarch64//lib/libc.a(frexpl.o)
                              /usr/local/popcorn/aarch64//lib/libc.a(vfprintf.o) (frexpl)
/usr/local/popcorn/aarch64//lib/libc.a(madvise.o)
                              /usr/local/popcorn/aarch64//lib/libc.a(malloc.o) (__madvise)
/usr/local/popcorn/aarch64//lib/libc.a(mmap.o)
                              /usr/local/popcorn/aarch64//lib/libc.a(malloc.o) (__mmap)
/usr/local/popcorn/aarch64//lib/libc.a(mremap.o)
                              /usr/local/popcorn/aarch64//lib/libc.a(malloc.o) (__mremap)
/usr/local/popcorn/aarch64//lib/libc.a(munmap.o)
                              /usr/local/popcorn/aarch64//lib/libc.a(malloc.o) (__munmap)
/usr/local/popcorn/aarch64//lib/libc.a(wctomb.o)
                              /usr/local/popcorn/aarch64//lib/libc.a(vfprintf.o) (wctomb)
/usr/local/popcorn/aarch64//lib/libc.a(sched_yield.o)
                              /usr/local/popcorn/aarch64//lib/libc.a(__wait.o) (sched_yield)
/usr/local/popcorn/aarch64//lib/libc.a(__fdopen.o)
                              /usr/local/popcorn/aarch64//lib/libc.a(fopen.o) (__fdopen)
/usr/local/popcorn/aarch64//lib/libc.a(__fmodeflags.o)
                              /usr/local/popcorn/aarch64//lib/libc.a(fopen.o) (__fmodeflags)
/usr/local/popcorn/aarch64//lib/libc.a(__lockfile.o)
                              /usr/local/popcorn/aarch64//lib/libc.a(fclose.o) (__lockfile)
/usr/local/popcorn/aarch64//lib/libc.a(__stdio_close.o)
                              /usr/local/popcorn/aarch64//lib/libc.a(__fdopen.o) (__stdio_close)
/usr/local/popcorn/aarch64//lib/libc.a(__stdio_read.o)
                              /usr/local/popcorn/aarch64//lib/libc.a(__fdopen.o) (__stdio_read)
/usr/local/popcorn/aarch64//lib/libc.a(__stdio_seek.o)
                              /usr/local/popcorn/aarch64//lib/libc.a(__fdopen.o) (__stdio_seek)
/usr/local/popcorn/aarch64//lib/libc.a(__stdio_write.o)
                              /usr/local/popcorn/aarch64//lib/libc.a(__fdopen.o) (__stdio_write)
/usr/local/popcorn/aarch64//lib/libc.a(fwrite.o)
                              /usr/local/popcorn/aarch64//lib/libc.a(vfprintf.o) (__fwritex)
/usr/local/popcorn/aarch64//lib/libc.a(memcpy.o)
                              /usr/local/popcorn/aarch64//lib/libc.a(__init_tls.o) (memcpy)
/usr/local/popcorn/aarch64//lib/libc.a(__set_thread_area.o)
                              /usr/local/popcorn/aarch64//lib/libc.a(__init_tls.o) (__set_thread_area)
/usr/local/popcorn/aarch64//lib/libc.a(pthread_cleanup_push.o)
                              /usr/local/popcorn/aarch64//lib/libc.a(__stdio_read.o) (_pthread_cleanup_pop)
/usr/local/popcorn/aarch64//lib/libc.a(__brk.o)
                              /usr/local/popcorn/aarch64//lib/libc.a(malloc.o) (__brk)
/usr/local/popcorn/aarch64//lib/libc.a(wcrtomb.o)
                              /usr/local/popcorn/aarch64//lib/libc.a(wctomb.o) (wcrtomb)
/usr/local/popcorn/aarch64//lib/libc.a(__towrite.o)
                              /usr/local/popcorn/aarch64//lib/libc.a(fwrite.o) (__towrite)
/usr/local/popcorn/aarch64//lib/libc.a(__stdio_exit.o)
                              /usr/local/popcorn/aarch64//lib/libc.a(__towrite.o) (__stdio_exit_needed)
/usr/local/popcorn/aarch64//lib/libmigrate.a(migrate.o)
                              /tmp/conftest-dcbec8.o (__cyg_profile_func_enter)
/usr/local/popcorn/aarch64//lib/libstack-transform.a(userspace.o)
                              /usr/local/popcorn/aarch64//lib/libmigrate.a(migrate.o) (st_userspace_rewrite)
/usr/local/popcorn/aarch64//lib/libstack-transform.a(init.o)
                              /usr/local/popcorn/aarch64//lib/libstack-transform.a(userspace.o) (st_destroy)
/usr/local/popcorn/aarch64//lib/libstack-transform.a(rewrite.o)
                              /usr/local/popcorn/aarch64//lib/libstack-transform.a(userspace.o) (st_rewrite_stack)
/usr/local/popcorn/aarch64//lib/libstack-transform.a(unwind.o)
                              /usr/local/popcorn/aarch64//lib/libstack-transform.a(rewrite.o) (bootstrap_first_frame)
/usr/local/popcorn/aarch64//lib/libstack-transform.a(util.o)
                              /usr/local/popcorn/aarch64//lib/libstack-transform.a(rewrite.o) (get_function_address)
/usr/local/popcorn/aarch64//lib/libstack-transform.a(properties.o)
                              /usr/local/popcorn/aarch64//lib/libstack-transform.a(util.o) (properties_aarch64)
/usr/local/popcorn/aarch64//lib/libstack-transform.a(regs.o)
                              /usr/local/popcorn/aarch64//lib/libstack-transform.a(util.o) (regs_aarch64)
/usr/local/popcorn/aarch64//lib/libstack-transform.a(properties.o)
                              /usr/local/popcorn/aarch64//lib/libstack-transform.a(util.o) (properties_x86_64)
/usr/local/popcorn/aarch64//lib/libstack-transform.a(regs.o)
                              /usr/local/popcorn/aarch64//lib/libstack-transform.a(util.o) (regs_x86_64)
/usr/local/popcorn/aarch64//lib/libstack-transform.a(data.o)
                              /usr/local/popcorn/aarch64//lib/libstack-transform.a(rewrite.o) (get_savedfbp_loc)
/usr/local/popcorn/aarch64//lib/libelf.a(begin.o)
                              /usr/local/popcorn/aarch64//lib/libstack-transform.a(init.o) (elf_begin)
/usr/local/popcorn/aarch64//lib/libelf.a(end.o)
                              /usr/local/popcorn/aarch64//lib/libstack-transform.a(init.o) (elf_end)
/usr/local/popcorn/aarch64//lib/libelf.a(getdata.o)
                              /usr/local/popcorn/aarch64//lib/libstack-transform.a(util.o) (elf_getdata)
/usr/local/popcorn/aarch64//lib/libelf.a(getident.o)
                              /usr/local/popcorn/aarch64//lib/libstack-transform.a(init.o) (elf_getident)
/usr/local/popcorn/aarch64//lib/libelf.a(nextscn.o)
                              /usr/local/popcorn/aarch64//lib/libstack-transform.a(util.o) (elf_nextscn)
/usr/local/popcorn/aarch64//lib/libelf.a(strptr.o)
                              /usr/local/popcorn/aarch64//lib/libstack-transform.a(util.o) (elf_strptr)
/usr/local/popcorn/aarch64//lib/libelf.a(version.o)
                              /usr/local/popcorn/aarch64//lib/libstack-transform.a(userspace.o) (elf_version)
/usr/local/popcorn/aarch64//lib/libelf.a(32.getehdr.o)
                              /usr/local/popcorn/aarch64//lib/libstack-transform.a(init.o) (elf64_getehdr)
/usr/local/popcorn/aarch64//lib/libelf.a(32.xlatetof.o)
                              /usr/local/popcorn/aarch64//lib/libelf.a(getdata.o) (_elf32_xltsize)
/usr/local/popcorn/aarch64//lib/libelf.a(cook.o)
                              /usr/local/popcorn/aarch64//lib/libelf.a(getdata.o) (_elf_xlatetom)
/usr/local/popcorn/aarch64//lib/libelf.a(data.o)
                              /usr/local/popcorn/aarch64//lib/libelf.a(strptr.o) (_elf_sanity_checks)
/usr/local/popcorn/aarch64//lib/libelf.a(input.o)
                              /usr/local/popcorn/aarch64//lib/libelf.a(begin.o) (_elf_read)
/usr/local/popcorn/aarch64//lib/libelf.a(x.elfext.o)
                              /usr/local/popcorn/aarch64//lib/libstack-transform.a(util.o) (elf_getshdrstrndx)
/usr/local/popcorn/aarch64//lib/libelf.a(64.xlatetof.o)
                              /usr/local/popcorn/aarch64//lib/libelf.a(getdata.o) (_elf64_xltsize)
/usr/local/popcorn/aarch64//lib/libelf.a(gelfshdr.o)
                              /usr/local/popcorn/aarch64//lib/libstack-transform.a(util.o) (gelf_getshdr)
/usr/local/popcorn/aarch64//lib/libelf.a(swap64.o)
                              /usr/local/popcorn/aarch64//lib/libelf.a(64.xlatetof.o) (_elf_load_u64L)
/usr/local/popcorn/aarch64//lib/libelf.a(verdef_32_tof.o)
                              /usr/local/popcorn/aarch64//lib/libelf.a(32.xlatetof.o) (_elf_verdef_32L11_tof)
/usr/local/popcorn/aarch64//lib/libelf.a(verdef_32_tom.o)
                              /usr/local/popcorn/aarch64//lib/libelf.a(32.xlatetof.o) (_elf_verdef_32L11_tom)
/usr/local/popcorn/aarch64//lib/libelf.a(verdef_64_tof.o)
                              /usr/local/popcorn/aarch64//lib/libelf.a(64.xlatetof.o) (_elf_verdef_64L11_tof)
/usr/local/popcorn/aarch64//lib/libelf.a(verdef_64_tom.o)
                              /usr/local/popcorn/aarch64//lib/libelf.a(64.xlatetof.o) (_elf_verdef_64L11_tom)
/usr/local/popcorn/aarch64//lib/libelf.a(getscn.o)
                              /usr/local/popcorn/aarch64//lib/libelf.a(strptr.o) (elf_getscn)
/usr/local/popcorn/aarch64//lib/libelf.a(newscn.o)
                              /usr/local/popcorn/aarch64//lib/libelf.a(x.elfext.o) (_elf_first_scn)
/usr/local/popcorn/aarch64//lib/libelf.a(32.fsize.o)
                              /usr/local/popcorn/aarch64//lib/libelf.a(cook.o) (_elf_fmsize)
/usr/local/popcorn/aarch64//lib/libc.a(getenv.o)
                              /usr/local/popcorn/aarch64//lib/libstack-transform.a(userspace.o) (getenv)
/usr/local/popcorn/aarch64//lib/libc.a(assert.o)
                              /usr/local/popcorn/aarch64//lib/libmigrate.a(migrate.o) (__assert_fail)
/usr/local/popcorn/aarch64//lib/libc.a(open.o)
                              /usr/local/popcorn/aarch64//lib/libstack-transform.a(init.o) (open)
/usr/local/popcorn/aarch64//lib/libc.a(calloc.o)
                              /usr/local/popcorn/aarch64//lib/libstack-transform.a(regs.o) (calloc)
/usr/local/popcorn/aarch64//lib/libc.a(getrlimit.o)
                              /usr/local/popcorn/aarch64//lib/libstack-transform.a(userspace.o) (getrlimit)
/usr/local/popcorn/aarch64//lib/libc.a(syscall.o)
                              /usr/local/popcorn/aarch64//lib/libmigrate.a(migrate.o) (syscall)
/usr/local/popcorn/aarch64//lib/libc.a(getline.o)
                              /usr/local/popcorn/aarch64//lib/libstack-transform.a(userspace.o) (getline)
/usr/local/popcorn/aarch64//lib/libc.a(snprintf.o)
                              /usr/local/popcorn/aarch64//lib/libstack-transform.a(userspace.o) (snprintf)
/usr/local/popcorn/aarch64//lib/libc.a(sscanf.o)
                              /usr/local/popcorn/aarch64//lib/libstack-transform.a(userspace.o) (sscanf)
/usr/local/popcorn/aarch64//lib/libc.a(stderr.o)
                              /usr/local/popcorn/aarch64//lib/libmigrate.a(migrate.o) (stderr)
/usr/local/popcorn/aarch64//lib/libc.a(vsnprintf.o)
                              /usr/local/popcorn/aarch64//lib/libc.a(snprintf.o) (vsnprintf)
/usr/local/popcorn/aarch64//lib/libc.a(vsscanf.o)
                              /usr/local/popcorn/aarch64//lib/libc.a(sscanf.o) (vsscanf)
/usr/local/popcorn/aarch64//lib/libc.a(strtol.o)
                              /usr/local/popcorn/aarch64//lib/libelf.a(version.o) (strtol)
/usr/local/popcorn/aarch64//lib/libc.a(memcmp.o)
                              /usr/local/popcorn/aarch64//lib/libelf.a(begin.o) (memcmp)
/usr/local/popcorn/aarch64//lib/libc.a(strcmp.o)
                              /usr/local/popcorn/aarch64//lib/libstack-transform.a(util.o) (strcmp)
/usr/local/popcorn/aarch64//lib/libc.a(strncmp.o)
                              /usr/local/popcorn/aarch64//lib/libstack-transform.a(userspace.o) (strncmp)
/usr/local/popcorn/aarch64//lib/libc.a(pthread_attr_get.o)
                              /usr/local/popcorn/aarch64//lib/libstack-transform.a(userspace.o) (pthread_attr_getstack)
/usr/local/popcorn/aarch64//lib/libc.a(pthread_getattr_np.o)
                              /usr/local/popcorn/aarch64//lib/libstack-transform.a(userspace.o) (pthread_getattr_np)
/usr/local/popcorn/aarch64//lib/libc.a(pthread_getspecific.o)
                              /usr/local/popcorn/aarch64//lib/libstack-transform.a(userspace.o) (pthread_getspecific)
/usr/local/popcorn/aarch64//lib/libc.a(pthread_key_create.o)
                              /usr/local/popcorn/aarch64//lib/libstack-transform.a(userspace.o) (pthread_key_create)
/usr/local/popcorn/aarch64//lib/libc.a(pthread_migrate.o)
                              /usr/local/popcorn/aarch64//lib/libmigrate.a(migrate.o) (pthread_migrate_args)
/usr/local/popcorn/aarch64//lib/libc.a(pthread_self.o)
                              /usr/local/popcorn/aarch64//lib/libstack-transform.a(userspace.o) (pthread_self)
/usr/local/popcorn/aarch64//lib/libc.a(pthread_setspecific.o)
                              /usr/local/popcorn/aarch64//lib/libstack-transform.a(userspace.o) (pthread_setspecific)
/usr/local/popcorn/aarch64//lib/libc.a(close.o)
                              /usr/local/popcorn/aarch64//lib/libstack-transform.a(init.o) (close)
/usr/local/popcorn/aarch64//lib/libc.a(getpid.o)
                              /usr/local/popcorn/aarch64//lib/libstack-transform.a(userspace.o) (getpid)
/usr/local/popcorn/aarch64//lib/libc.a(lseek.o)
                              /usr/local/popcorn/aarch64//lib/libelf.a(begin.o) (lseek)
/usr/local/popcorn/aarch64//lib/libc.a(read.o)
                              /usr/local/popcorn/aarch64//lib/libelf.a(input.o) (read)
/usr/local/popcorn/aarch64//lib/libc.a(abort.o)
                              /usr/local/popcorn/aarch64//lib/libc.a(assert.o) (abort)
/usr/local/popcorn/aarch64//lib/libc.a(intscan.o)
                              /usr/local/popcorn/aarch64//lib/libc.a(strtol.o) (__intscan)
/usr/local/popcorn/aarch64//lib/libc.a(shgetc.o)
                              /usr/local/popcorn/aarch64//lib/libc.a(intscan.o) (__shgetc)
/usr/local/popcorn/aarch64//lib/libc.a(raise.o)
                              /usr/local/popcorn/aarch64//lib/libc.a(abort.o) (raise)
/usr/local/popcorn/aarch64//lib/libc.a(__string_read.o)
                              /usr/local/popcorn/aarch64//lib/libc.a(vsscanf.o) (__string_read)
/usr/local/popcorn/aarch64//lib/libc.a(__uflow.o)
                              /usr/local/popcorn/aarch64//lib/libc.a(shgetc.o) (__uflow)
/usr/local/popcorn/aarch64//lib/libc.a(getdelim.o)
                              /usr/local/popcorn/aarch64//lib/libc.a(getline.o) (getdelim)
/usr/local/popcorn/aarch64//lib/libc.a(vfscanf.o)
                              /usr/local/popcorn/aarch64//lib/libc.a(vsscanf.o) (vfscanf)
/usr/local/popcorn/aarch64//lib/libc.a(floatscan.o)
                              /usr/local/popcorn/aarch64//lib/libc.a(vfscanf.o) (__floatscan)
/usr/local/popcorn/aarch64//lib/libc.a(copysignl.o)
                              /usr/local/popcorn/aarch64//lib/libc.a(floatscan.o) (copysignl)
/usr/local/popcorn/aarch64//lib/libc.a(fabs.o)
                              /usr/local/popcorn/aarch64//lib/libc.a(floatscan.o) (fabs)
/usr/local/popcorn/aarch64//lib/libc.a(fmodl.o)
                              /usr/local/popcorn/aarch64//lib/libc.a(floatscan.o) (fmodl)
/usr/local/popcorn/aarch64//lib/libc.a(scalbn.o)
                              /usr/local/popcorn/aarch64//lib/libc.a(floatscan.o) (scalbn)
/usr/local/popcorn/aarch64//lib/libc.a(scalbnl.o)
                              /usr/local/popcorn/aarch64//lib/libc.a(floatscan.o) (scalbnl)
/usr/local/popcorn/aarch64//lib/libc.a(mbrtowc.o)
                              /usr/local/popcorn/aarch64//lib/libc.a(vfscanf.o) (mbrtowc)
/usr/local/popcorn/aarch64//lib/libc.a(mbsinit.o)
                              /usr/local/popcorn/aarch64//lib/libc.a(vfscanf.o) (mbsinit)
/usr/local/popcorn/aarch64//lib/libc.a(block.o)
                              /usr/local/popcorn/aarch64//lib/libc.a(raise.o) (__block_app_sigs)
/usr/local/popcorn/aarch64//lib/libc.a(__toread.o)
                              /usr/local/popcorn/aarch64//lib/libc.a(__uflow.o) (__toread)
/usr/local/popcorn/aarch64//lib/libc.a(internal.o)
                              /usr/local/popcorn/aarch64//lib/libc.a(mbrtowc.o) (__fsmu8)
/usr/lib/gcc/aarch64-linux-gnu/4.9/libgcc.a(addtf3.o)
                              /usr/local/popcorn/aarch64//lib/libc.a(vfprintf.o) (__addtf3)
/usr/lib/gcc/aarch64-linux-gnu/4.9/libgcc.a(divtf3.o)
                              /usr/local/popcorn/aarch64//lib/libc.a(floatscan.o) (__divtf3)
/usr/lib/gcc/aarch64-linux-gnu/4.9/libgcc.a(eqtf2.o)
                              /usr/local/popcorn/aarch64//lib/libc.a(vfprintf.o) (__eqtf2)
/usr/lib/gcc/aarch64-linux-gnu/4.9/libgcc.a(getf2.o)
                              /usr/local/popcorn/aarch64//lib/libc.a(fmodl.o) (__gttf2)
/usr/lib/gcc/aarch64-linux-gnu/4.9/libgcc.a(letf2.o)
                              /usr/local/popcorn/aarch64//lib/libc.a(floatscan.o) (__lttf2)
/usr/lib/gcc/aarch64-linux-gnu/4.9/libgcc.a(multf3.o)
                              /usr/local/popcorn/aarch64//lib/libc.a(vfprintf.o) (__multf3)
/usr/lib/gcc/aarch64-linux-gnu/4.9/libgcc.a(subtf3.o)
                              /usr/local/popcorn/aarch64//lib/libc.a(vfprintf.o) (__subtf3)
/usr/lib/gcc/aarch64-linux-gnu/4.9/libgcc.a(unordtf2.o)
                              /usr/local/popcorn/aarch64//lib/libc.a(vfprintf.o) (__unordtf2)
/usr/lib/gcc/aarch64-linux-gnu/4.9/libgcc.a(fixtfsi.o)
                              /usr/local/popcorn/aarch64//lib/libc.a(vfprintf.o) (__fixtfsi)
/usr/lib/gcc/aarch64-linux-gnu/4.9/libgcc.a(fixunstfsi.o)
                              /usr/local/popcorn/aarch64//lib/libc.a(vfprintf.o) (__fixunstfsi)
/usr/lib/gcc/aarch64-linux-gnu/4.9/libgcc.a(floatsitf.o)
                              /usr/local/popcorn/aarch64//lib/libc.a(vfprintf.o) (__floatsitf)
/usr/lib/gcc/aarch64-linux-gnu/4.9/libgcc.a(floatunsitf.o)
                              /usr/local/popcorn/aarch64//lib/libc.a(vfprintf.o) (__floatunsitf)
/usr/lib/gcc/aarch64-linux-gnu/4.9/libgcc.a(extendsftf2.o)
                              /usr/local/popcorn/aarch64//lib/libc.a(floatscan.o) (__extendsftf2)
/usr/lib/gcc/aarch64-linux-gnu/4.9/libgcc.a(extenddftf2.o)
                              /usr/local/popcorn/aarch64//lib/libc.a(vfprintf.o) (__extenddftf2)
/usr/lib/gcc/aarch64-linux-gnu/4.9/libgcc.a(trunctfsf2.o)
                              /usr/local/popcorn/aarch64//lib/libc.a(vfscanf.o) (__trunctfsf2)
/usr/lib/gcc/aarch64-linux-gnu/4.9/libgcc.a(trunctfdf2.o)
                              /usr/local/popcorn/aarch64//lib/libc.a(vfscanf.o) (__trunctfdf2)
/usr/lib/gcc/aarch64-linux-gnu/4.9/libgcc.a(sfp-exceptions.o)
                              /usr/lib/gcc/aarch64-linux-gnu/4.9/libgcc.a(addtf3.o) (__sfp_handle_exceptions)

Allocating common symbols
Common symbol       size              file

status              0x10              /usr/local/popcorn/aarch64//lib/libmigrate.a(migrate.o)

Discarded input sections

 .note.GNU-stack
                0x0000000000000000        0x0 0x1 /tmp/conftest-dcbec8.o
 .note.GNU-stack
                0x0000000000000000        0x0 0x1 /usr/local/popcorn/aarch64//lib/crt1.o
 .note.GNU-stack
                0x0000000000000000        0x0 0x1 /usr/local/popcorn/aarch64//lib/libc.a(__libc_start_main.o)
 .note.GNU-stack
                0x0000000000000000        0x0 0x1 /usr/local/popcorn/aarch64//lib/libc.a(exit.o)
 .note.GNU-stack
                0x0000000000000000        0x0 0x1 /usr/local/popcorn/aarch64//lib/libc.a(libc.o)
 .note.GNU-stack
                0x0000000000000000        0x0 0x1 /usr/local/popcorn/aarch64//lib/libc.a(fclose.o)
 .note.GNU-stack
                0x0000000000000000        0x0 0x1 /usr/local/popcorn/aarch64//lib/libc.a(ferror.o)
 .note.GNU-stack
                0x0000000000000000        0x0 0x1 /usr/local/popcorn/aarch64//lib/libc.a(fflush.o)
 .note.GNU-stack
                0x0000000000000000        0x0 0x1 /usr/local/popcorn/aarch64//lib/libc.a(fopen.o)
 .note.GNU-stack
                0x0000000000000000        0x0 0x1 /usr/local/popcorn/aarch64//lib/libc.a(fprintf.o)
 .note.GNU-stack
                0x0000000000000000        0x0 0x1 /usr/local/popcorn/aarch64//lib/libc.a(vfprintf.o)
 .note.GNU-stack
                0x0000000000000000        0x0 0x1 /usr/local/popcorn/aarch64//lib/libc.a(memchr.o)
 .note.GNU-stack
                0x0000000000000000        0x0 0x1 /usr/local/popcorn/aarch64//lib/libc.a(memset.o)
 .note.GNU-stack
                0x0000000000000000        0x0 0x1 /usr/local/popcorn/aarch64//lib/libc.a(strchr.o)
 .note.GNU-stack
                0x0000000000000000        0x0 0x1 /usr/local/popcorn/aarch64//lib/libc.a(strchrnul.o)
 .note.GNU-stack
                0x0000000000000000        0x0 0x1 /usr/local/popcorn/aarch64//lib/libc.a(strlen.o)
 .note.GNU-stack
                0x0000000000000000        0x0 0x1 /usr/local/popcorn/aarch64//lib/libc.a(__lock.o)
 .note.GNU-stack
                0x0000000000000000        0x0 0x1 /usr/local/popcorn/aarch64//lib/libc.a(__syscall_cp.o)
 .note.GNU-stack
                0x0000000000000000        0x0 0x1 /usr/local/popcorn/aarch64//lib/libc.a(__wait.o)
 .note.GNU-stack
                0x0000000000000000        0x0 0x1 /usr/local/popcorn/aarch64//lib/libc.a(__environ.o)
 .note.GNU-stack
                0x0000000000000000        0x0 0x1 /usr/local/popcorn/aarch64//lib/libc.a(__init_tls.o)
 .note.GNU-stack
                0x0000000000000000        0x0 0x1 /usr/local/popcorn/aarch64//lib/libc.a(__errno_location.o)
 .note.GNU-stack
                0x0000000000000000        0x0 0x1 /usr/local/popcorn/aarch64//lib/libc.a(strerror.o)
 .note.GNU-stack
                0x0000000000000000        0x0 0x1 /usr/local/popcorn/aarch64//lib/libc.a(_Exit.o)
 .note.GNU-stack
                0x0000000000000000        0x0 0x1 /usr/local/popcorn/aarch64//lib/libc.a(syscall.o)
 .note.GNU-stack
                0x0000000000000000        0x0 0x1 /usr/local/popcorn/aarch64//lib/libc.a(syscall_ret.o)
 .note.GNU-stack
                0x0000000000000000        0x0 0x1 /usr/local/popcorn/aarch64//lib/libc.a(__lctrans.o)
 .note.GNU-stack
                0x0000000000000000        0x0 0x1 /usr/local/popcorn/aarch64//lib/libc.a(malloc.o)
 .note.GNU-stack
                0x0000000000000000        0x0 0x1 /usr/local/popcorn/aarch64//lib/libc.a(__fpclassifyl.o)
 .note.GNU-stack
                0x0000000000000000        0x0 0x1 /usr/local/popcorn/aarch64//lib/libc.a(__signbitl.o)
 .note.GNU-stack
                0x0000000000000000        0x0 0x1 /usr/local/popcorn/aarch64//lib/libc.a(frexpl.o)
 .note.GNU-stack
                0x0000000000000000        0x0 0x1 /usr/local/popcorn/aarch64//lib/libc.a(madvise.o)
 .note.GNU-stack
                0x0000000000000000        0x0 0x1 /usr/local/popcorn/aarch64//lib/libc.a(mmap.o)
 .note.GNU-stack
                0x0000000000000000        0x0 0x1 /usr/local/popcorn/aarch64//lib/libc.a(mremap.o)
 .note.GNU-stack
                0x0000000000000000        0x0 0x1 /usr/local/popcorn/aarch64//lib/libc.a(munmap.o)
 .note.GNU-stack
                0x0000000000000000        0x0 0x1 /usr/local/popcorn/aarch64//lib/libc.a(wctomb.o)
 .note.GNU-stack
                0x0000000000000000        0x0 0x1 /usr/local/popcorn/aarch64//lib/libc.a(sched_yield.o)
 .note.GNU-stack
                0x0000000000000000        0x0 0x1 /usr/local/popcorn/aarch64//lib/libc.a(__fdopen.o)
 .note.GNU-stack
                0x0000000000000000        0x0 0x1 /usr/local/popcorn/aarch64//lib/libc.a(__fmodeflags.o)
 .note.GNU-stack
                0x0000000000000000        0x0 0x1 /usr/local/popcorn/aarch64//lib/libc.a(__lockfile.o)
 .note.GNU-stack
                0x0000000000000000        0x0 0x1 /usr/local/popcorn/aarch64//lib/libc.a(__stdio_close.o)
 .note.GNU-stack
                0x0000000000000000        0x0 0x1 /usr/local/popcorn/aarch64//lib/libc.a(__stdio_read.o)
 .note.GNU-stack
                0x0000000000000000        0x0 0x1 /usr/local/popcorn/aarch64//lib/libc.a(__stdio_seek.o)
 .note.GNU-stack
                0x0000000000000000        0x0 0x1 /usr/local/popcorn/aarch64//lib/libc.a(__stdio_write.o)
 .note.GNU-stack
                0x0000000000000000        0x0 0x1 /usr/local/popcorn/aarch64//lib/libc.a(fwrite.o)
 .note.GNU-stack
                0x0000000000000000        0x0 0x1 /usr/local/popcorn/aarch64//lib/libc.a(memcpy.o)
 .note.GNU-stack
                0x0000000000000000        0x0 0x1 /usr/local/popcorn/aarch64//lib/libc.a(__set_thread_area.o)
 .note.GNU-stack
                0x0000000000000000        0x0 0x1 /usr/local/popcorn/aarch64//lib/libc.a(pthread_cleanup_push.o)
 .note.GNU-stack
                0x0000000000000000        0x0 0x1 /usr/local/popcorn/aarch64//lib/libc.a(__brk.o)
 .note.GNU-stack
                0x0000000000000000        0x0 0x1 /usr/local/popcorn/aarch64//lib/libc.a(wcrtomb.o)
 .note.GNU-stack
                0x0000000000000000        0x0 0x1 /usr/local/popcorn/aarch64//lib/libc.a(__towrite.o)
 .note.GNU-stack
                0x0000000000000000        0x0 0x1 /usr/local/popcorn/aarch64//lib/libc.a(__stdio_exit.o)
 .note.GNU-stack
                0x0000000000000000        0x0 0x1 /usr/local/popcorn/aarch64//lib/libmigrate.a(migrate.o)
 .note.GNU-stack
                0x0000000000000000        0x0 0x1 /usr/local/popcorn/aarch64//lib/libstack-transform.a(userspace.o)
 .note.GNU-stack
                0x0000000000000000        0x0 0x1 /usr/local/popcorn/aarch64//lib/libstack-transform.a(init.o)
 .note.GNU-stack
                0x0000000000000000        0x0 0x1 /usr/local/popcorn/aarch64//lib/libstack-transform.a(rewrite.o)
 .note.GNU-stack
                0x0000000000000000        0x0 0x1 /usr/local/popcorn/aarch64//lib/libstack-transform.a(unwind.o)
 .note.GNU-stack
                0x0000000000000000        0x0 0x1 /usr/local/popcorn/aarch64//lib/libstack-transform.a(util.o)
 .note.GNU-stack
                0x0000000000000000        0x0 0x1 /usr/local/popcorn/aarch64//lib/libstack-transform.a(properties.o)
 .note.GNU-stack
                0x0000000000000000        0x0 0x1 /usr/local/popcorn/aarch64//lib/libstack-transform.a(regs.o)
 .note.GNU-stack
                0x0000000000000000        0x0 0x1 /usr/local/popcorn/aarch64//lib/libstack-transform.a(properties.o)
 .note.GNU-stack
                0x0000000000000000        0x0 0x1 /usr/local/popcorn/aarch64//lib/libstack-transform.a(regs.o)
 .note.GNU-stack
                0x0000000000000000        0x0 0x1 /usr/local/popcorn/aarch64//lib/libstack-transform.a(data.o)
 .note.GNU-stack
                0x0000000000000000        0x0 0x1 /usr/local/popcorn/aarch64//lib/libelf.a(begin.o)
 .note.GNU-stack
                0x0000000000000000        0x0 0x1 /usr/local/popcorn/aarch64//lib/libelf.a(end.o)
 .note.GNU-stack
                0x0000000000000000        0x0 0x1 /usr/local/popcorn/aarch64//lib/libelf.a(getdata.o)
 .note.GNU-stack
                0x0000000000000000        0x0 0x1 /usr/local/popcorn/aarch64//lib/libelf.a(getident.o)
 .note.GNU-stack
                0x0000000000000000        0x0 0x1 /usr/local/popcorn/aarch64//lib/libelf.a(nextscn.o)
 .note.GNU-stack
                0x0000000000000000        0x0 0x1 /usr/local/popcorn/aarch64//lib/libelf.a(strptr.o)
 .note.GNU-stack
                0x0000000000000000        0x0 0x1 /usr/local/popcorn/aarch64//lib/libelf.a(version.o)
 .note.GNU-stack
                0x0000000000000000        0x0 0x1 /usr/local/popcorn/aarch64//lib/libelf.a(32.getehdr.o)
 .note.GNU-stack
                0x0000000000000000        0x0 0x1 /usr/local/popcorn/aarch64//lib/libelf.a(32.xlatetof.o)
 .note.GNU-stack
                0x0000000000000000        0x0 0x1 /usr/local/popcorn/aarch64//lib/libelf.a(cook.o)
 .note.GNU-stack
                0x0000000000000000        0x0 0x1 /usr/local/popcorn/aarch64//lib/libelf.a(data.o)
 .note.GNU-stack
                0x0000000000000000        0x0 0x1 /usr/local/popcorn/aarch64//lib/libelf.a(input.o)
 .note.GNU-stack
                0x0000000000000000        0x0 0x1 /usr/local/popcorn/aarch64//lib/libelf.a(x.elfext.o)
 .note.GNU-stack
                0x0000000000000000        0x0 0x1 /usr/local/popcorn/aarch64//lib/libelf.a(64.xlatetof.o)
 .note.GNU-stack
                0x0000000000000000        0x0 0x1 /usr/local/popcorn/aarch64//lib/libelf.a(gelfshdr.o)
 .note.GNU-stack
                0x0000000000000000        0x0 0x1 /usr/local/popcorn/aarch64//lib/libelf.a(swap64.o)
 .note.GNU-stack
                0x0000000000000000        0x0 0x1 /usr/local/popcorn/aarch64//lib/libelf.a(verdef_32_tof.o)
 .note.GNU-stack
                0x0000000000000000        0x0 0x1 /usr/local/popcorn/aarch64//lib/libelf.a(verdef_32_tom.o)
 .note.GNU-stack
                0x0000000000000000        0x0 0x1 /usr/local/popcorn/aarch64//lib/libelf.a(verdef_64_tof.o)
 .note.GNU-stack
                0x0000000000000000        0x0 0x1 /usr/local/popcorn/aarch64//lib/libelf.a(verdef_64_tom.o)
 .note.GNU-stack
                0x0000000000000000        0x0 0x1 /usr/local/popcorn/aarch64//lib/libelf.a(getscn.o)
 .note.GNU-stack
                0x0000000000000000        0x0 0x1 /usr/local/popcorn/aarch64//lib/libelf.a(newscn.o)
 .note.GNU-stack
                0x0000000000000000        0x0 0x1 /usr/local/popcorn/aarch64//lib/libelf.a(32.fsize.o)
 .note.GNU-stack
                0x0000000000000000        0x0 0x1 /usr/local/popcorn/aarch64//lib/libc.a(getenv.o)
 .note.GNU-stack
                0x0000000000000000        0x0 0x1 /usr/local/popcorn/aarch64//lib/libc.a(assert.o)
 .note.GNU-stack
                0x0000000000000000        0x0 0x1 /usr/local/popcorn/aarch64//lib/libc.a(open.o)
 .note.GNU-stack
                0x0000000000000000        0x0 0x1 /usr/local/popcorn/aarch64//lib/libc.a(calloc.o)
 .note.GNU-stack
                0x0000000000000000        0x0 0x1 /usr/local/popcorn/aarch64//lib/libc.a(getrlimit.o)
 .note.GNU-stack
                0x0000000000000000        0x0 0x1 /usr/local/popcorn/aarch64//lib/libc.a(syscall.o)
 .note.GNU-stack
                0x0000000000000000        0x0 0x1 /usr/local/popcorn/aarch64//lib/libc.a(getline.o)
 .note.GNU-stack
                0x0000000000000000        0x0 0x1 /usr/local/popcorn/aarch64//lib/libc.a(snprintf.o)
 .note.GNU-stack
                0x0000000000000000        0x0 0x1 /usr/local/popcorn/aarch64//lib/libc.a(sscanf.o)
 .note.GNU-stack
                0x0000000000000000        0x0 0x1 /usr/local/popcorn/aarch64//lib/libc.a(stderr.o)
 .note.GNU-stack
                0x0000000000000000        0x0 0x1 /usr/local/popcorn/aarch64//lib/libc.a(vsnprintf.o)
 .note.GNU-stack
                0x0000000000000000        0x0 0x1 /usr/local/popcorn/aarch64//lib/libc.a(vsscanf.o)
 .note.GNU-stack
                0x0000000000000000        0x0 0x1 /usr/local/popcorn/aarch64//lib/libc.a(strtol.o)
 .note.GNU-stack
                0x0000000000000000        0x0 0x1 /usr/local/popcorn/aarch64//lib/libc.a(memcmp.o)
 .note.GNU-stack
                0x0000000000000000        0x0 0x1 /usr/local/popcorn/aarch64//lib/libc.a(strcmp.o)
 .note.GNU-stack
                0x0000000000000000        0x0 0x1 /usr/local/popcorn/aarch64//lib/libc.a(strncmp.o)
 .note.GNU-stack
                0x0000000000000000        0x0 0x1 /usr/local/popcorn/aarch64//lib/libc.a(pthread_attr_get.o)
 .note.GNU-stack
                0x0000000000000000        0x0 0x1 /usr/local/popcorn/aarch64//lib/libc.a(pthread_getattr_np.o)
 .note.GNU-stack
                0x0000000000000000        0x0 0x1 /usr/local/popcorn/aarch64//lib/libc.a(pthread_getspecific.o)
 .note.GNU-stack
                0x0000000000000000        0x0 0x1 /usr/local/popcorn/aarch64//lib/libc.a(pthread_key_create.o)
 .note.GNU-stack
                0x0000000000000000        0x0 0x1 /usr/local/popcorn/aarch64//lib/libc.a(pthread_migrate.o)
 .note.GNU-stack
                0x0000000000000000        0x0 0x1 /usr/local/popcorn/aarch64//lib/libc.a(pthread_self.o)
 .note.GNU-stack
                0x0000000000000000        0x0 0x1 /usr/local/popcorn/aarch64//lib/libc.a(pthread_setspecific.o)
 .note.GNU-stack
                0x0000000000000000        0x0 0x1 /usr/local/popcorn/aarch64//lib/libc.a(close.o)
 .note.GNU-stack
                0x0000000000000000        0x0 0x1 /usr/local/popcorn/aarch64//lib/libc.a(getpid.o)
 .note.GNU-stack
                0x0000000000000000        0x0 0x1 /usr/local/popcorn/aarch64//lib/libc.a(lseek.o)
 .note.GNU-stack
                0x0000000000000000        0x0 0x1 /usr/local/popcorn/aarch64//lib/libc.a(read.o)
 .note.GNU-stack
                0x0000000000000000        0x0 0x1 /usr/local/popcorn/aarch64//lib/libc.a(abort.o)
 .note.GNU-stack
                0x0000000000000000        0x0 0x1 /usr/local/popcorn/aarch64//lib/libc.a(intscan.o)
 .note.GNU-stack
                0x0000000000000000        0x0 0x1 /usr/local/popcorn/aarch64//lib/libc.a(shgetc.o)
 .note.GNU-stack
                0x0000000000000000        0x0 0x1 /usr/local/popcorn/aarch64//lib/libc.a(raise.o)
 .note.GNU-stack
                0x0000000000000000        0x0 0x1 /usr/local/popcorn/aarch64//lib/libc.a(__string_read.o)
 .note.GNU-stack
                0x0000000000000000        0x0 0x1 /usr/local/popcorn/aarch64//lib/libc.a(__uflow.o)
 .note.GNU-stack
                0x0000000000000000        0x0 0x1 /usr/local/popcorn/aarch64//lib/libc.a(getdelim.o)
 .note.GNU-stack
                0x0000000000000000        0x0 0x1 /usr/local/popcorn/aarch64//lib/libc.a(vfscanf.o)
 .note.GNU-stack
                0x0000000000000000        0x0 0x1 /usr/local/popcorn/aarch64//lib/libc.a(floatscan.o)
 .note.GNU-stack
                0x0000000000000000        0x0 0x1 /usr/local/popcorn/aarch64//lib/libc.a(copysignl.o)
 .note.GNU-stack
                0x0000000000000000        0x0 0x1 /usr/local/popcorn/aarch64//lib/libc.a(fabs.o)
 .note.GNU-stack
                0x0000000000000000        0x0 0x1 /usr/local/popcorn/aarch64//lib/libc.a(fmodl.o)
 .note.GNU-stack
                0x0000000000000000        0x0 0x1 /usr/local/popcorn/aarch64//lib/libc.a(scalbn.o)
 .note.GNU-stack
                0x0000000000000000        0x0 0x1 /usr/local/popcorn/aarch64//lib/libc.a(scalbnl.o)
 .note.GNU-stack
                0x0000000000000000        0x0 0x1 /usr/local/popcorn/aarch64//lib/libc.a(mbrtowc.o)
 .note.GNU-stack
                0x0000000000000000        0x0 0x1 /usr/local/popcorn/aarch64//lib/libc.a(mbsinit.o)
 .note.GNU-stack
                0x0000000000000000        0x0 0x1 /usr/local/popcorn/aarch64//lib/libc.a(block.o)
 .note.GNU-stack
                0x0000000000000000        0x0 0x1 /usr/local/popcorn/aarch64//lib/libc.a(__toread.o)
 .note.GNU-stack
                0x0000000000000000        0x0 0x1 /usr/local/popcorn/aarch64//lib/libc.a(internal.o)
 .note.GNU-stack
                0x0000000000000000        0x0 0x1 /usr/lib/gcc/aarch64-linux-gnu/4.9/libgcc.a(addtf3.o)
 .note.GNU-stack
                0x0000000000000000        0x0 0x1 /usr/lib/gcc/aarch64-linux-gnu/4.9/libgcc.a(divtf3.o)
 .note.GNU-stack
                0x0000000000000000        0x0 0x1 /usr/lib/gcc/aarch64-linux-gnu/4.9/libgcc.a(eqtf2.o)
 .note.GNU-stack
                0x0000000000000000        0x0 0x1 /usr/lib/gcc/aarch64-linux-gnu/4.9/libgcc.a(getf2.o)
 .note.GNU-stack
                0x0000000000000000        0x0 0x1 /usr/lib/gcc/aarch64-linux-gnu/4.9/libgcc.a(letf2.o)
 .note.GNU-stack
                0x0000000000000000        0x0 0x1 /usr/lib/gcc/aarch64-linux-gnu/4.9/libgcc.a(multf3.o)
 .note.GNU-stack
                0x0000000000000000        0x0 0x1 /usr/lib/gcc/aarch64-linux-gnu/4.9/libgcc.a(subtf3.o)
 .note.GNU-stack
                0x0000000000000000        0x0 0x1 /usr/lib/gcc/aarch64-linux-gnu/4.9/libgcc.a(unordtf2.o)
 .note.GNU-stack
                0x0000000000000000        0x0 0x1 /usr/lib/gcc/aarch64-linux-gnu/4.9/libgcc.a(fixtfsi.o)
 .note.GNU-stack
                0x0000000000000000        0x0 0x1 /usr/lib/gcc/aarch64-linux-gnu/4.9/libgcc.a(fixunstfsi.o)
 .note.GNU-stack
                0x0000000000000000        0x0 0x1 /usr/lib/gcc/aarch64-linux-gnu/4.9/libgcc.a(floatsitf.o)
 .note.GNU-stack
                0x0000000000000000        0x0 0x1 /usr/lib/gcc/aarch64-linux-gnu/4.9/libgcc.a(floatunsitf.o)
 .note.GNU-stack
                0x0000000000000000        0x0 0x1 /usr/lib/gcc/aarch64-linux-gnu/4.9/libgcc.a(extendsftf2.o)
 .note.GNU-stack
                0x0000000000000000        0x0 0x1 /usr/lib/gcc/aarch64-linux-gnu/4.9/libgcc.a(extenddftf2.o)
 .note.GNU-stack
                0x0000000000000000        0x0 0x1 /usr/lib/gcc/aarch64-linux-gnu/4.9/libgcc.a(trunctfsf2.o)
 .note.GNU-stack
                0x0000000000000000        0x0 0x1 /usr/lib/gcc/aarch64-linux-gnu/4.9/libgcc.a(trunctfdf2.o)
 .note.GNU-stack
                0x0000000000000000        0x0 0x1 /usr/lib/gcc/aarch64-linux-gnu/4.9/libgcc.a(sfp-exceptions.o)

Memory map

 ** file header
                0x0000000000400000       0x40
 ** segment headers
                0x0000000000400040      0x150

.note.gnu.build-id
                0x0000000000400190       0x24
 ** note header
                0x0000000000400190       0x10
 ** zero fill   0x00000000004001a0       0x14

.text           0x00000000004001c0    0x28428
 .text.exit     0x00000000004001c0       0x5c 0x4 /usr/local/popcorn/aarch64//lib/libc.a(exit.o)
                0x00000000004001c0                exit
 .text          0x000000000040021c        0x0 0x4 /tmp/conftest-dcbec8.o
 .text.main     0x000000000040021c       0xd4 0x4 /tmp/conftest-dcbec8.o
                0x000000000040021c                main
 .text.ulongval
                0x00000000004002f0       0x40 0x4 /tmp/conftest-dcbec8.o
 .text          0x0000000000400330       0x1c 0x4 /usr/local/popcorn/aarch64//lib/crt1.o
                0x0000000000400330                _start
 .text._start_c
                0x000000000040034c       0x34 0x4 /usr/local/popcorn/aarch64//lib/crt1.o
                0x000000000040034c                _start_c
 .text          0x0000000000400380        0x0 0x4 /usr/local/popcorn/aarch64//lib/libc.a(__libc_start_main.o)
 .text.dummy1   0x0000000000400380        0x4 0x4 /usr/local/popcorn/aarch64//lib/libc.a(__libc_start_main.o)
                0x0000000000400380                __init_ssp
 .text.__libc_start_main
                0x0000000000400384      0x1f0 0x4 /usr/local/popcorn/aarch64//lib/libc.a(__libc_start_main.o)
                0x0000000000400384                __libc_start_main
 .text.dummy    0x0000000000400574        0x4 0x4 /usr/local/popcorn/aarch64//lib/libc.a(__libc_start_main.o)
                0x0000000000400574                _init
 .text          0x0000000000400578        0x0 0x4 /usr/local/popcorn/aarch64//lib/libc.a(exit.o)
 .text.dummy    0x0000000000400578        0x4 0x4 /usr/local/popcorn/aarch64//lib/libc.a(exit.o)
                0x0000000000400578                __funcs_on_exit
                0x0000000000400578                _fini
 .text          0x000000000040057c        0x0 0x4 /usr/local/popcorn/aarch64//lib/libc.a(libc.o)
 .text          0x000000000040057c        0x0 0x4 /usr/local/popcorn/aarch64//lib/libc.a(fclose.o)
 .text.dummy    0x000000000040057c        0x4 0x4 /usr/local/popcorn/aarch64//lib/libc.a(fclose.o)
                0x000000000040057c                __unlist_locked_file
 .text.fclose   0x0000000000400580       0xc8 0x4 /usr/local/popcorn/aarch64//lib/libc.a(fclose.o)
                0x0000000000400580                fclose
 .text          0x0000000000400648        0x0 0x4 /usr/local/popcorn/aarch64//lib/libc.a(ferror.o)
 .text.ferror   0x0000000000400648       0x50 0x4 /usr/local/popcorn/aarch64//lib/libc.a(ferror.o)
                0x0000000000400648                _IO_ferror_unlocked
                0x0000000000400648                ferror
                0x0000000000400648                ferror_unlocked
 .text          0x0000000000400698        0x0 0x4 /usr/local/popcorn/aarch64//lib/libc.a(fflush.o)
 .text.fflush   0x0000000000400698      0x100 0x4 /usr/local/popcorn/aarch64//lib/libc.a(fflush.o)
                0x0000000000400698                fflush
 .text.__fflush_unlocked
                0x0000000000400798       0x80 0x4 /usr/local/popcorn/aarch64//lib/libc.a(fflush.o)
                0x0000000000400798                fflush_unlocked
 .text          0x0000000000400818        0x0 0x4 /usr/local/popcorn/aarch64//lib/libc.a(fopen.o)
 .text.fopen    0x0000000000400818       0xcc 0x4 /usr/local/popcorn/aarch64//lib/libc.a(fopen.o)
                0x0000000000400818                fopen
                0x0000000000400818                fopen64
 .text          0x00000000004008e4        0x0 0x4 /usr/local/popcorn/aarch64//lib/libc.a(fprintf.o)
 .text.fprintf  0x00000000004008e4       0x74 0x4 /usr/local/popcorn/aarch64//lib/libc.a(fprintf.o)
                0x00000000004008e4                fprintf
 .text          0x0000000000400958        0x0 0x4 /usr/local/popcorn/aarch64//lib/libc.a(vfprintf.o)
 .text.vfprintf
                0x0000000000400958      0x170 0x4 /usr/local/popcorn/aarch64//lib/libc.a(vfprintf.o)
                0x0000000000400958                vfprintf
 .text.printf_core
                0x0000000000400ac8     0x1a98 0x4 /usr/local/popcorn/aarch64//lib/libc.a(vfprintf.o)
 .text.pop_arg  0x0000000000402560      0x260 0x4 /usr/local/popcorn/aarch64//lib/libc.a(vfprintf.o)
 .text.pad      0x00000000004027c0       0xcc 0x4 /usr/local/popcorn/aarch64//lib/libc.a(vfprintf.o)
 .text          0x000000000040288c        0x0 0x4 /usr/local/popcorn/aarch64//lib/libc.a(memchr.o)
 .text.memchr   0x000000000040288c       0xb0 0x4 /usr/local/popcorn/aarch64//lib/libc.a(memchr.o)
                0x000000000040288c                memchr
 .text          0x000000000040293c        0x0 0x4 /usr/local/popcorn/aarch64//lib/libc.a(memset.o)
 .text.memset   0x000000000040293c      0x160 0x4 /usr/local/popcorn/aarch64//lib/libc.a(memset.o)
                0x000000000040293c                memset
 .text          0x0000000000402a9c        0x0 0x4 /usr/local/popcorn/aarch64//lib/libc.a(strchr.o)
 .text.strchr   0x0000000000402a9c       0x2c 0x4 /usr/local/popcorn/aarch64//lib/libc.a(strchr.o)
                0x0000000000402a9c                strchr
 .text          0x0000000000402ac8        0x0 0x4 /usr/local/popcorn/aarch64//lib/libc.a(strchrnul.o)
 .text.__strchrnul
                0x0000000000402ac8       0xac 0x4 /usr/local/popcorn/aarch64//lib/libc.a(strchrnul.o)
                0x0000000000402ac8                __strchrnul
                0x0000000000402ac8                strchrnul
 .text          0x0000000000402b74        0x0 0x4 /usr/local/popcorn/aarch64//lib/libc.a(strlen.o)
 .text.strlen   0x0000000000402b74       0x5c 0x4 /usr/local/popcorn/aarch64//lib/libc.a(strlen.o)
                0x0000000000402b74                strlen
 .text          0x0000000000402bd0        0x0 0x4 /usr/local/popcorn/aarch64//lib/libc.a(__lock.o)
 .text.__lock   0x0000000000402bd0       0x84 0x4 /usr/local/popcorn/aarch64//lib/libc.a(__lock.o)
                0x0000000000402bd0                __lock
 .text.__unlock
                0x0000000000402c54       0x20 0x4 /usr/local/popcorn/aarch64//lib/libc.a(__lock.o)
                0x0000000000402c54                __unlock
 .text          0x0000000000402c74        0x0 0x4 /usr/local/popcorn/aarch64//lib/libc.a(__syscall_cp.o)
 .text.sccp     0x0000000000402c74        0x4 0x4 /usr/local/popcorn/aarch64//lib/libc.a(__syscall_cp.o)
                0x0000000000402c74                __syscall_cp_c
 .text.__syscall_cp
                0x0000000000402c78        0x4 0x4 /usr/local/popcorn/aarch64//lib/libc.a(__syscall_cp.o)
                0x0000000000402c78                __syscall_cp
 .text          0x0000000000402c7c        0x0 0x4 /usr/local/popcorn/aarch64//lib/libc.a(__wait.o)
 .text.__wait   0x0000000000402c7c       0xac 0x4 /usr/local/popcorn/aarch64//lib/libc.a(__wait.o)
                0x0000000000402c7c                __wait
 .text          0x0000000000402d28        0x0 0x4 /usr/local/popcorn/aarch64//lib/libc.a(__environ.o)
 .text          0x0000000000402d28        0x0 0x4 /usr/local/popcorn/aarch64//lib/libc.a(__init_tls.o)
 .text.__copy_tls
                0x0000000000402d28       0x78 0x4 /usr/local/popcorn/aarch64//lib/libc.a(__init_tls.o)
                0x0000000000402d28                __copy_tls
 .text.__init_tls
                0x0000000000402da0      0x174 0x4 /usr/local/popcorn/aarch64//lib/libc.a(__init_tls.o)
                0x0000000000402da0                __init_tls
 .text          0x0000000000402f14        0x0 0x4 /usr/local/popcorn/aarch64//lib/libc.a(__errno_location.o)
 .text.__errno_location
                0x0000000000402f14        0xc 0x4 /usr/local/popcorn/aarch64//lib/libc.a(__errno_location.o)
                0x0000000000402f14                __errno_location
 .text          0x0000000000402f20        0x0 0x4 /usr/local/popcorn/aarch64//lib/libc.a(strerror.o)
 .text.__strerror_l
                0x0000000000402f20       0x60 0x4 /usr/local/popcorn/aarch64//lib/libc.a(strerror.o)
                0x0000000000402f20                __strerror_l
                0x0000000000402f20                strerror_l
 .text.strerror
                0x0000000000402f80        0xc 0x4 /usr/local/popcorn/aarch64//lib/libc.a(strerror.o)
                0x0000000000402f80                strerror
 .text          0x0000000000402f8c        0x0 0x4 /usr/local/popcorn/aarch64//lib/libc.a(_Exit.o)
 .text._Exit    0x0000000000402f8c       0x20 0x4 /usr/local/popcorn/aarch64//lib/libc.a(_Exit.o)
                0x0000000000402f8c                _Exit
 .text          0x0000000000402fac        0x0 0x4 /usr/local/popcorn/aarch64//lib/libc.a(syscall.o)
 .text.__syscall
                0x0000000000402fb0       0x28 0x10 /usr/local/popcorn/aarch64//lib/libc.a(syscall.o)
                0x0000000000402fb0                __syscall
 .text          0x0000000000402fd8        0x0 0x4 /usr/local/popcorn/aarch64//lib/libc.a(syscall_ret.o)
 .text.__syscall_ret
                0x0000000000402fd8       0x30 0x4 /usr/local/popcorn/aarch64//lib/libc.a(syscall_ret.o)
                0x0000000000402fd8                __syscall_ret
 .text          0x0000000000403008        0x0 0x4 /usr/local/popcorn/aarch64//lib/libc.a(__lctrans.o)
 .text.dummy    0x0000000000403008        0x4 0x4 /usr/local/popcorn/aarch64//lib/libc.a(__lctrans.o)
                0x0000000000403008                __lctrans_impl
 .text.__lctrans
                0x000000000040300c        0x4 0x4 /usr/local/popcorn/aarch64//lib/libc.a(__lctrans.o)
                0x000000000040300c                __lctrans
 .text.__lctrans_cur
                0x0000000000403010       0x10 0x4 /usr/local/popcorn/aarch64//lib/libc.a(__lctrans.o)
                0x0000000000403010                __lctrans_cur
 .text          0x0000000000403020        0x0 0x4 /usr/local/popcorn/aarch64//lib/libc.a(malloc.o)
 .text.malloc   0x0000000000403020      0x59c 0x4 /usr/local/popcorn/aarch64//lib/libc.a(malloc.o)
                0x0000000000403020                malloc
 .text.alloc_rev
                0x00000000004035bc      0x110 0x4 /usr/local/popcorn/aarch64//lib/libc.a(malloc.o)
 .text.lock_bin
                0x00000000004036cc       0xcc 0x4 /usr/local/popcorn/aarch64//lib/libc.a(malloc.o)
 .text.unbin    0x0000000000403798       0x70 0x4 /usr/local/popcorn/aarch64//lib/libc.a(malloc.o)
 .text.realloc  0x0000000000403808      0x3d8 0x4 /usr/local/popcorn/aarch64//lib/libc.a(malloc.o)
                0x0000000000403808                realloc
 .text.free     0x0000000000403be0      0x560 0x4 /usr/local/popcorn/aarch64//lib/libc.a(malloc.o)
                0x0000000000403be0                free
 .text          0x0000000000404140        0x0 0x4 /usr/local/popcorn/aarch64//lib/libc.a(__fpclassifyl.o)
 .text.__fpclassifyl
                0x0000000000404140       0x54 0x4 /usr/local/popcorn/aarch64//lib/libc.a(__fpclassifyl.o)
                0x0000000000404140                __fpclassifyl
 .text          0x0000000000404194        0x0 0x4 /usr/local/popcorn/aarch64//lib/libc.a(__signbitl.o)
 .text.__signbitl
                0x0000000000404194       0x18 0x4 /usr/local/popcorn/aarch64//lib/libc.a(__signbitl.o)
                0x0000000000404194                __signbitl
 .text          0x00000000004041ac        0x0 0x4 /usr/local/popcorn/aarch64//lib/libc.a(frexpl.o)
 .text.frexpl   0x00000000004041ac       0xb4 0x4 /usr/local/popcorn/aarch64//lib/libc.a(frexpl.o)
                0x00000000004041ac                frexpl
 .text          0x0000000000404260        0x0 0x4 /usr/local/popcorn/aarch64//lib/libc.a(madvise.o)
 .text.__madvise
                0x0000000000404260       0x20 0x4 /usr/local/popcorn/aarch64//lib/libc.a(madvise.o)
                0x0000000000404260                __madvise
                0x0000000000404260                madvise
 .text          0x0000000000404280        0x0 0x4 /usr/local/popcorn/aarch64//lib/libc.a(mmap.o)
 .text.dummy    0x0000000000404280        0x4 0x4 /usr/local/popcorn/aarch64//lib/libc.a(mmap.o)
                0x0000000000404280                __vm_wait
 .text.__mmap   0x0000000000404284       0xa0 0x4 /usr/local/popcorn/aarch64//lib/libc.a(mmap.o)
                0x0000000000404284                __mmap
                0x0000000000404284                mmap
                0x0000000000404284                mmap64
 .text          0x0000000000404324        0x0 0x4 /usr/local/popcorn/aarch64//lib/libc.a(mremap.o)
 .text.__mremap
                0x0000000000404324       0xa4 0x4 /usr/local/popcorn/aarch64//lib/libc.a(mremap.o)
                0x0000000000404324                __mremap
                0x0000000000404324                mremap
 .text          0x00000000004043c8        0x0 0x4 /usr/local/popcorn/aarch64//lib/libc.a(munmap.o)
 .text.dummy    0x00000000004043c8        0x4 0x4 /usr/local/popcorn/aarch64//lib/libc.a(munmap.o)
 .text.__munmap
                0x00000000004043cc       0x38 0x4 /usr/local/popcorn/aarch64//lib/libc.a(munmap.o)
                0x00000000004043cc                __munmap
                0x00000000004043cc                munmap
 .text          0x0000000000404404        0x0 0x4 /usr/local/popcorn/aarch64//lib/libc.a(wctomb.o)
 .text.wctomb   0x0000000000404404       0x24 0x4 /usr/local/popcorn/aarch64//lib/libc.a(wctomb.o)
                0x0000000000404404                wctomb
 .text          0x0000000000404428        0x0 0x4 /usr/local/popcorn/aarch64//lib/libc.a(sched_yield.o)
 .text.sched_yield
                0x0000000000404428       0x1c 0x4 /usr/local/popcorn/aarch64//lib/libc.a(sched_yield.o)
                0x0000000000404428                sched_yield
 .text          0x0000000000404444        0x0 0x4 /usr/local/popcorn/aarch64//lib/libc.a(__fdopen.o)
 .text.__fdopen
                0x0000000000404444      0x1d0 0x4 /usr/local/popcorn/aarch64//lib/libc.a(__fdopen.o)
                0x0000000000404444                __fdopen
                0x0000000000404444                fdopen
 .text          0x0000000000404614        0x0 0x4 /usr/local/popcorn/aarch64//lib/libc.a(__fmodeflags.o)
 .text.__fmodeflags
                0x0000000000404614       0x94 0x4 /usr/local/popcorn/aarch64//lib/libc.a(__fmodeflags.o)
                0x0000000000404614                __fmodeflags
 .text          0x00000000004046a8        0x0 0x4 /usr/local/popcorn/aarch64//lib/libc.a(__lockfile.o)
 .text.__lockfile
                0x00000000004046a8       0xb4 0x4 /usr/local/popcorn/aarch64//lib/libc.a(__lockfile.o)
                0x00000000004046a8                __lockfile
 .text.__unlockfile
                0x000000000040475c       0x1c 0x4 /usr/local/popcorn/aarch64//lib/libc.a(__lockfile.o)
                0x000000000040475c                __unlockfile
 .text          0x0000000000404778        0x0 0x4 /usr/local/popcorn/aarch64//lib/libc.a(__stdio_close.o)
 .text.dummy    0x0000000000404778        0x4 0x4 /usr/local/popcorn/aarch64//lib/libc.a(__stdio_close.o)
                0x0000000000404778                __aio_close
 .text.__stdio_close
                0x000000000040477c       0x28 0x4 /usr/local/popcorn/aarch64//lib/libc.a(__stdio_close.o)
                0x000000000040477c                __stdio_close
 .text          0x00000000004047a4        0x0 0x4 /usr/local/popcorn/aarch64//lib/libc.a(__stdio_read.o)
 .text.__stdio_read
                0x00000000004047a4       0xf4 0x4 /usr/local/popcorn/aarch64//lib/libc.a(__stdio_read.o)
                0x00000000004047a4                __stdio_read
 .text.cleanup  0x0000000000404898       0x10 0x4 /usr/local/popcorn/aarch64//lib/libc.a(__stdio_read.o)
 .text          0x00000000004048a8        0x0 0x4 /usr/local/popcorn/aarch64//lib/libc.a(__stdio_seek.o)
 .text.__stdio_seek
                0x00000000004048a8       0x14 0x4 /usr/local/popcorn/aarch64//lib/libc.a(__stdio_seek.o)
                0x00000000004048a8                __stdio_seek
 .text          0x00000000004048bc        0x0 0x4 /usr/local/popcorn/aarch64//lib/libc.a(__stdio_write.o)
 .text.__stdio_write
                0x00000000004048bc      0x15c 0x4 /usr/local/popcorn/aarch64//lib/libc.a(__stdio_write.o)
                0x00000000004048bc                __stdio_write
 .text.cleanup  0x0000000000404a18       0x10 0x4 /usr/local/popcorn/aarch64//lib/libc.a(__stdio_write.o)
 .text          0x0000000000404a28        0x0 0x4 /usr/local/popcorn/aarch64//lib/libc.a(fwrite.o)
 .text.__fwritex
                0x0000000000404a28      0x114 0x4 /usr/local/popcorn/aarch64//lib/libc.a(fwrite.o)
                0x0000000000404a28                __fwritex
 .text.fwrite   0x0000000000404b3c       0x98 0x4 /usr/local/popcorn/aarch64//lib/libc.a(fwrite.o)
                0x0000000000404b3c                fwrite
                0x0000000000404b3c                fwrite_unlocked
 .text          0x0000000000404bd4        0x0 0x4 /usr/local/popcorn/aarch64//lib/libc.a(memcpy.o)
 .text.memcpy   0x0000000000404bd4      0x3b8 0x4 /usr/local/popcorn/aarch64//lib/libc.a(memcpy.o)
                0x0000000000404bd4                memcpy
 .text          0x0000000000404f8c        0x0 0x4 /usr/local/popcorn/aarch64//lib/libc.a(__set_thread_area.o)
 .text.__set_thread_area
                0x0000000000404f90        0xc 0x10 /usr/local/popcorn/aarch64//lib/libc.a(__set_thread_area.o)
                0x0000000000404f90                __set_thread_area
 .text          0x0000000000404f9c        0x0 0x4 /usr/local/popcorn/aarch64//lib/libc.a(pthread_cleanup_push.o)
 .text.dummy    0x0000000000404f9c        0x4 0x4 /usr/local/popcorn/aarch64//lib/libc.a(pthread_cleanup_push.o)
                0x0000000000404f9c                __do_cleanup_pop
                0x0000000000404f9c                __do_cleanup_push
 .text._pthread_cleanup_push
                0x0000000000404fa0        0x8 0x4 /usr/local/popcorn/aarch64//lib/libc.a(pthread_cleanup_push.o)
                0x0000000000404fa0                _pthread_cleanup_push
 .text._pthread_cleanup_pop
                0x0000000000404fa8       0x38 0x4 /usr/local/popcorn/aarch64//lib/libc.a(pthread_cleanup_push.o)
                0x0000000000404fa8                _pthread_cleanup_pop
 .text          0x0000000000404fe0        0x0 0x4 /usr/local/popcorn/aarch64//lib/libc.a(__brk.o)
 .text.__brk    0x0000000000404fe0        0xc 0x4 /usr/local/popcorn/aarch64//lib/libc.a(__brk.o)
                0x0000000000404fe0                __brk
 .text          0x0000000000404fec        0x0 0x4 /usr/local/popcorn/aarch64//lib/libc.a(wcrtomb.o)
 .text.wcrtomb  0x0000000000404fec       0xf0 0x4 /usr/local/popcorn/aarch64//lib/libc.a(wcrtomb.o)
                0x0000000000404fec                wcrtomb
 .text          0x00000000004050dc        0x0 0x4 /usr/local/popcorn/aarch64//lib/libc.a(__towrite.o)
 .text.__towrite
                0x00000000004050dc       0x50 0x4 /usr/local/popcorn/aarch64//lib/libc.a(__towrite.o)
                0x00000000004050dc                __towrite
 .text.__towrite_needs_stdio_exit
                0x000000000040512c        0x4 0x4 /usr/local/popcorn/aarch64//lib/libc.a(__towrite.o)
                0x000000000040512c                __towrite_needs_stdio_exit
 .text          0x0000000000405130        0x0 0x4 /usr/local/popcorn/aarch64//lib/libc.a(__stdio_exit.o)
 .text.__stdio_exit
                0x0000000000405130       0x54 0x4 /usr/local/popcorn/aarch64//lib/libc.a(__stdio_exit.o)
                0x0000000000405130                __stdio_exit
                0x0000000000405130                __stdio_exit_needed
 .text.close_file
                0x0000000000405184       0x78 0x4 /usr/local/popcorn/aarch64//lib/libc.a(__stdio_exit.o)
 .text          0x00000000004051fc        0x0 0x4 /usr/local/popcorn/aarch64//lib/libmigrate.a(migrate.o)
 .text.__init_nodes_info
                0x00000000004051fc       0xa8 0x4 /usr/local/popcorn/aarch64//lib/libmigrate.a(migrate.o)
 .text.current_nid
                0x00000000004052a4       0x34 0x4 /usr/local/popcorn/aarch64//lib/libmigrate.a(migrate.o)
                0x00000000004052a4                current_nid
 .text.current_arch
                0x00000000004052d8       0x30 0x4 /usr/local/popcorn/aarch64//lib/libmigrate.a(migrate.o)
                0x00000000004052d8                current_arch
 .text.check_migrate
                0x0000000000405308       0x38 0x4 /usr/local/popcorn/aarch64//lib/libmigrate.a(migrate.o)
                0x0000000000405308                check_migrate
 .text.do_migrate
                0x0000000000405340       0x34 0x4 /usr/local/popcorn/aarch64//lib/libmigrate.a(migrate.o)
 .text.__migrate_shim_internal
                0x0000000000405374      0x4d0 0x4 /usr/local/popcorn/aarch64//lib/libmigrate.a(migrate.o)
 .text.migrate  0x0000000000405844       0x14 0x4 /usr/local/popcorn/aarch64//lib/libmigrate.a(migrate.o)
                0x0000000000405844                migrate
 .text.register_migrate_callback
                0x0000000000405858       0x14 0x4 /usr/local/popcorn/aarch64//lib/libmigrate.a(migrate.o)
                0x0000000000405858                register_migrate_callback
 .text.__cyg_profile_func_enter
                0x000000000040586c       0x2c 0x4 /usr/local/popcorn/aarch64//lib/libmigrate.a(migrate.o)
                0x000000000040586c                __cyg_profile_func_enter
 .text.__cyg_profile_func_exit
                0x0000000000405898       0x2c 0x4 /usr/local/popcorn/aarch64//lib/libmigrate.a(migrate.o)
                0x0000000000405898                __cyg_profile_func_exit
 .text          0x00000000004058c4        0x0 0x4 /usr/local/popcorn/aarch64//lib/libstack-transform.a(userspace.o)
 .text.__st_userspace_ctor
                0x00000000004058c4      0x2b0 0x4 /usr/local/popcorn/aarch64//lib/libstack-transform.a(userspace.o)
                0x00000000004058c4                __st_userspace_ctor
 .text.__st_userspace_dtor
                0x0000000000405b74       0x6c 0x4 /usr/local/popcorn/aarch64//lib/libstack-transform.a(userspace.o)
                0x0000000000405b74                __st_userspace_dtor
 .text.get_stack_bounds
                0x0000000000405be0       0xd8 0x4 /usr/local/popcorn/aarch64//lib/libstack-transform.a(userspace.o)
                0x0000000000405be0                get_stack_bounds
 .text.st_userspace_rewrite
                0x0000000000405cb8       0x30 0x4 /usr/local/popcorn/aarch64//lib/libstack-transform.a(userspace.o)
                0x0000000000405cb8                st_userspace_rewrite
 .text.userspace_rewrite_internal
                0x0000000000405ce8      0x144 0x4 /usr/local/popcorn/aarch64//lib/libstack-transform.a(userspace.o)
 .text.st_userspace_rewrite_aarch64
                0x0000000000405e2c       0x24 0x4 /usr/local/popcorn/aarch64//lib/libstack-transform.a(userspace.o)
                0x0000000000405e2c                st_userspace_rewrite_aarch64
 .text.st_userspace_rewrite_x86_64
                0x0000000000405e50       0x24 0x4 /usr/local/popcorn/aarch64//lib/libstack-transform.a(userspace.o)
                0x0000000000405e50                st_userspace_rewrite_x86_64
 .text          0x0000000000405e74        0x0 0x4 /usr/local/popcorn/aarch64//lib/libstack-transform.a(init.o)
 .text.__st_ctor
                0x0000000000405e74        0x4 0x4 /usr/local/popcorn/aarch64//lib/libstack-transform.a(init.o)
 .text.__st_dtor
                0x0000000000405e78        0x4 0x4 /usr/local/popcorn/aarch64//lib/libstack-transform.a(init.o)
                0x0000000000405e78                __st_dtor
 .text.st_init  0x0000000000405e7c      0x1e8 0x4 /usr/local/popcorn/aarch64//lib/libstack-transform.a(init.o)
                0x0000000000405e7c                st_init
 .text.st_destroy
                0x0000000000406064       0x40 0x4 /usr/local/popcorn/aarch64//lib/libstack-transform.a(init.o)
                0x0000000000406064                st_destroy
 .text          0x00000000004060a4        0x0 0x4 /usr/local/popcorn/aarch64//lib/libstack-transform.a(rewrite.o)
 .text.st_rewrite_stack
                0x00000000004060a4      0xc58 0x4 /usr/local/popcorn/aarch64//lib/libstack-transform.a(rewrite.o)
                0x00000000004060a4                st_rewrite_stack
 .text.st_rewrite_ondemand
                0x0000000000406cfc       0x2c 0x4 /usr/local/popcorn/aarch64//lib/libstack-transform.a(rewrite.o)
                0x0000000000406cfc                st_rewrite_ondemand
 .text.rewrite_val
                0x0000000000406d28      0x244 0x4 /usr/local/popcorn/aarch64//lib/libstack-transform.a(rewrite.o)
 .text          0x0000000000406f6c        0x0 0x4 /usr/local/popcorn/aarch64//lib/libstack-transform.a(unwind.o)
 .text.first_frame
                0x0000000000406f6c        0xc 0x4 /usr/local/popcorn/aarch64//lib/libstack-transform.a(unwind.o)
                0x0000000000406f6c                first_frame
 .text.calculate_cfa
                0x0000000000406f78       0x40 0x4 /usr/local/popcorn/aarch64//lib/libstack-transform.a(unwind.o)
                0x0000000000406f78                calculate_cfa
 .text.bootstrap_first_frame
                0x0000000000406fb8       0x94 0x4 /usr/local/popcorn/aarch64//lib/libstack-transform.a(unwind.o)
                0x0000000000406fb8                bootstrap_first_frame
 .text.bootstrap_first_frame_funcentry
                0x000000000040704c       0x9c 0x4 /usr/local/popcorn/aarch64//lib/libstack-transform.a(unwind.o)
                0x000000000040704c                bootstrap_first_frame_funcentry
 .text.pop_frame
                0x00000000004070e8      0x25c 0x4 /usr/local/popcorn/aarch64//lib/libstack-transform.a(unwind.o)
                0x00000000004070e8                pop_frame
 .text.pop_frame_funcentry
                0x0000000000407344      0x198 0x4 /usr/local/popcorn/aarch64//lib/libstack-transform.a(unwind.o)
                0x0000000000407344                pop_frame_funcentry
 .text.get_register_save_loc
                0x00000000004074dc       0x84 0x4 /usr/local/popcorn/aarch64//lib/libstack-transform.a(unwind.o)
                0x00000000004074dc                get_register_save_loc
 .text.free_activation
                0x0000000000407560        0x4 0x4 /usr/local/popcorn/aarch64//lib/libstack-transform.a(unwind.o)
                0x0000000000407560                free_activation
 .text          0x0000000000407564        0x0 0x4 /usr/local/popcorn/aarch64//lib/libstack-transform.a(util.o)
 .text.arch_name
                0x0000000000407564       0x30 0x4 /usr/local/popcorn/aarch64//lib/libstack-transform.a(util.o)
                0x0000000000407564                arch_name
 .text.get_regops
                0x0000000000407594       0x28 0x4 /usr/local/popcorn/aarch64//lib/libstack-transform.a(util.o)
                0x0000000000407594                get_regops
 .text.get_properties
                0x00000000004075bc       0x28 0x4 /usr/local/popcorn/aarch64//lib/libstack-transform.a(util.o)
                0x00000000004075bc                get_properties
 .text.get_section
                0x00000000004075e4       0xc0 0x4 /usr/local/popcorn/aarch64//lib/libstack-transform.a(util.o)
                0x00000000004075e4                get_section
 .text.get_num_entries
                0x00000000004076a4       0x64 0x4 /usr/local/popcorn/aarch64//lib/libstack-transform.a(util.o)
                0x00000000004076a4                get_num_entries
 .text.get_section_data
                0x0000000000407708       0x3c 0x4 /usr/local/popcorn/aarch64//lib/libstack-transform.a(util.o)
                0x0000000000407708                get_section_data
 .text.get_site_by_addr
                0x0000000000407744       0xa4 0x4 /usr/local/popcorn/aarch64//lib/libstack-transform.a(util.o)
                0x0000000000407744                get_site_by_addr
 .text.get_site_by_id
                0x00000000004077e8       0x90 0x4 /usr/local/popcorn/aarch64//lib/libstack-transform.a(util.o)
                0x00000000004077e8                get_site_by_id
 .text.get_unwind_offset_by_addr
                0x0000000000407878       0xb4 0x4 /usr/local/popcorn/aarch64//lib/libstack-transform.a(util.o)
                0x0000000000407878                get_unwind_offset_by_addr
 .text.get_function_address
                0x000000000040792c       0x88 0x4 /usr/local/popcorn/aarch64//lib/libstack-transform.a(util.o)
                0x000000000040792c                get_function_address
 .text          0x00000000004079b4        0x0 0x4 /usr/local/popcorn/aarch64//lib/libstack-transform.a(properties.o)
 .text.align_sp_aarch64
                0x00000000004079b4       0x2c 0x4 /usr/local/popcorn/aarch64//lib/libstack-transform.a(properties.o)
 .text.is_callee_saved_aarch64
                0x00000000004079e0       0x30 0x4 /usr/local/popcorn/aarch64//lib/libstack-transform.a(properties.o)
 .text.callee_reg_size_aarch64
                0x0000000000407a10       0x58 0x4 /usr/local/popcorn/aarch64//lib/libstack-transform.a(properties.o)
 .text          0x0000000000407a68        0x0 0x4 /usr/local/popcorn/aarch64//lib/libstack-transform.a(regs.o)
 .text.regset_default_aarch64
                0x0000000000407a68       0x2c 0x4 /usr/local/popcorn/aarch64//lib/libstack-transform.a(regs.o)
 .text.regset_init_aarch64
                0x0000000000407a94       0x40 0x4 /usr/local/popcorn/aarch64//lib/libstack-transform.a(regs.o)
 .text.regset_free_aarch64
                0x0000000000407ad4        0x4 0x4 /usr/local/popcorn/aarch64//lib/libstack-transform.a(regs.o)
 .text.regset_clone_aarch64
                0x0000000000407ad8       0x14 0x4 /usr/local/popcorn/aarch64//lib/libstack-transform.a(regs.o)
 .text.regset_copyin_aarch64
                0x0000000000407aec       0x10 0x4 /usr/local/popcorn/aarch64//lib/libstack-transform.a(regs.o)
 .text.regset_copyout_aarch64
                0x0000000000407afc       0x14 0x4 /usr/local/popcorn/aarch64//lib/libstack-transform.a(regs.o)
 .text.pc_aarch64
                0x0000000000407b10        0x8 0x4 /usr/local/popcorn/aarch64//lib/libstack-transform.a(regs.o)
 .text.sp_aarch64
                0x0000000000407b18        0x8 0x4 /usr/local/popcorn/aarch64//lib/libstack-transform.a(regs.o)
 .text.fbp_aarch64
                0x0000000000407b20        0x8 0x4 /usr/local/popcorn/aarch64//lib/libstack-transform.a(regs.o)
 .text.ra_reg_aarch64
                0x0000000000407b28        0x8 0x4 /usr/local/popcorn/aarch64//lib/libstack-transform.a(regs.o)
 .text.set_pc_aarch64
                0x0000000000407b30        0x8 0x4 /usr/local/popcorn/aarch64//lib/libstack-transform.a(regs.o)
 .text.set_sp_aarch64
                0x0000000000407b38        0x8 0x4 /usr/local/popcorn/aarch64//lib/libstack-transform.a(regs.o)
 .text.set_fbp_aarch64
                0x0000000000407b40        0x8 0x4 /usr/local/popcorn/aarch64//lib/libstack-transform.a(regs.o)
 .text.set_ra_reg_aarch64
                0x0000000000407b48        0x8 0x4 /usr/local/popcorn/aarch64//lib/libstack-transform.a(regs.o)
 .text.setup_fbp_aarch64
                0x0000000000407b50        0xc 0x4 /usr/local/popcorn/aarch64//lib/libstack-transform.a(regs.o)
 .text.reg_size_aarch64
                0x0000000000407b5c       0x54 0x4 /usr/local/popcorn/aarch64//lib/libstack-transform.a(regs.o)
 .text.reg_aarch64
                0x0000000000407bb0      0x344 0x4 /usr/local/popcorn/aarch64//lib/libstack-transform.a(regs.o)
 .text          0x0000000000407ef4        0x0 0x4 /usr/local/popcorn/aarch64//lib/libstack-transform.a(properties.o)
 .text.align_sp_x86_64
                0x0000000000407ef4       0x14 0x4 /usr/local/popcorn/aarch64//lib/libstack-transform.a(properties.o)
 .text.is_callee_saved_x86_64
                0x0000000000407f08       0x2c 0x4 /usr/local/popcorn/aarch64//lib/libstack-transform.a(properties.o)
 .text.callee_reg_size_x86_64
                0x0000000000407f34       0x54 0x4 /usr/local/popcorn/aarch64//lib/libstack-transform.a(properties.o)
 .text          0x0000000000407f88        0x0 0x4 /usr/local/popcorn/aarch64//lib/libstack-transform.a(regs.o)
 .text.regset_default_x86_64
                0x0000000000407f88       0x2c 0x4 /usr/local/popcorn/aarch64//lib/libstack-transform.a(regs.o)
 .text.regset_init_x86_64
                0x0000000000407fb4       0x40 0x4 /usr/local/popcorn/aarch64//lib/libstack-transform.a(regs.o)
 .text.regset_free_x86_64
                0x0000000000407ff4        0x4 0x4 /usr/local/popcorn/aarch64//lib/libstack-transform.a(regs.o)
 .text.regset_clone_x86_64
                0x0000000000407ff8       0x14 0x4 /usr/local/popcorn/aarch64//lib/libstack-transform.a(regs.o)
 .text.regset_copyin_x86_64
                0x000000000040800c       0x10 0x4 /usr/local/popcorn/aarch64//lib/libstack-transform.a(regs.o)
 .text.regset_copyout_x86_64
                0x000000000040801c       0x14 0x4 /usr/local/popcorn/aarch64//lib/libstack-transform.a(regs.o)
 .text.pc_x86_64
                0x0000000000408030        0x8 0x4 /usr/local/popcorn/aarch64//lib/libstack-transform.a(regs.o)
 .text.sp_x86_64
                0x0000000000408038        0x8 0x4 /usr/local/popcorn/aarch64//lib/libstack-transform.a(regs.o)
 .text.fbp_x86_64
                0x0000000000408040        0x8 0x4 /usr/local/popcorn/aarch64//lib/libstack-transform.a(regs.o)
 .text.ra_reg_x86_64
                0x0000000000408048       0x2c 0x4 /usr/local/popcorn/aarch64//lib/libstack-transform.a(regs.o)
 .text.set_pc_x86_64
                0x0000000000408074        0x8 0x4 /usr/local/popcorn/aarch64//lib/libstack-transform.a(regs.o)
 .text.set_sp_x86_64
                0x000000000040807c        0x8 0x4 /usr/local/popcorn/aarch64//lib/libstack-transform.a(regs.o)
 .text.set_fbp_x86_64
                0x0000000000408084        0x8 0x4 /usr/local/popcorn/aarch64//lib/libstack-transform.a(regs.o)
 .text.set_ra_reg_x86_64
                0x000000000040808c       0x2c 0x4 /usr/local/popcorn/aarch64//lib/libstack-transform.a(regs.o)
 .text.setup_fbp_x86_64
                0x00000000004080b8        0xc 0x4 /usr/local/popcorn/aarch64//lib/libstack-transform.a(regs.o)
 .text.reg_size_x86_64
                0x00000000004080c4       0x50 0x4 /usr/local/popcorn/aarch64//lib/libstack-transform.a(regs.o)
 .text.reg_x86_64
                0x0000000000408114      0x1d0 0x4 /usr/local/popcorn/aarch64//lib/libstack-transform.a(regs.o)
 .text          0x00000000004082e4        0x0 0x4 /usr/local/popcorn/aarch64//lib/libstack-transform.a(data.o)
 .text.put_val  0x00000000004082e4      0x258 0x4 /usr/local/popcorn/aarch64//lib/libstack-transform.a(data.o)
                0x00000000004082e4                put_val
 .text.get_dest_loc
                0x000000000040853c       0xdc 0x4 /usr/local/popcorn/aarch64//lib/libstack-transform.a(data.o)
 .text.put_val_arch
                0x0000000000408618      0x2dc 0x4 /usr/local/popcorn/aarch64//lib/libstack-transform.a(data.o)
                0x0000000000408618                put_val_arch
 .text.put_val_data
                0x00000000004088f4      0x118 0x4 /usr/local/popcorn/aarch64//lib/libstack-transform.a(data.o)
                0x00000000004088f4                put_val_data
 .text.points_to_stack
                0x0000000000408a0c      0x138 0x4 /usr/local/popcorn/aarch64//lib/libstack-transform.a(data.o)
                0x0000000000408a0c                points_to_stack
 .text.points_to_data
                0x0000000000408b44      0x1a0 0x4 /usr/local/popcorn/aarch64//lib/libstack-transform.a(data.o)
                0x0000000000408b44                points_to_data
 .text.set_return_address
                0x0000000000408ce4       0x24 0x4 /usr/local/popcorn/aarch64//lib/libstack-transform.a(data.o)
                0x0000000000408ce4                set_return_address
 .text.set_return_address_funcentry
                0x0000000000408d08       0x44 0x4 /usr/local/popcorn/aarch64//lib/libstack-transform.a(data.o)
                0x0000000000408d08                set_return_address_funcentry
 .text.get_savedfbp_loc
                0x0000000000408d4c       0x24 0x4 /usr/local/popcorn/aarch64//lib/libstack-transform.a(data.o)
                0x0000000000408d4c                get_savedfbp_loc
 .text          0x0000000000408d70        0x0 0x1 /usr/local/popcorn/aarch64//lib/libelf.a(begin.o)
 .text.elf_begin
                0x0000000000408d70     0x10d4 0x4 /usr/local/popcorn/aarch64//lib/libelf.a(begin.o)
                0x0000000000408d70                elf_begin
 .text.elf_memory
                0x0000000000409e44      0x3b0 0x4 /usr/local/popcorn/aarch64//lib/libelf.a(begin.o)
                0x0000000000409e44                elf_memory
 .text.gelf_getclass
                0x000000000040a1f4       0x34 0x4 /usr/local/popcorn/aarch64//lib/libelf.a(begin.o)
                0x000000000040a1f4                gelf_getclass
 .text          0x000000000040a228        0x0 0x1 /usr/local/popcorn/aarch64//lib/libelf.a(end.o)
 .text.elf_end  0x000000000040a228      0x1d0 0x4 /usr/local/popcorn/aarch64//lib/libelf.a(end.o)
                0x000000000040a228                elf_end
 .text          0x000000000040a3f8        0x0 0x1 /usr/local/popcorn/aarch64//lib/libelf.a(getdata.o)
 .text.elf_getdata
                0x000000000040a3f8      0x2e0 0x4 /usr/local/popcorn/aarch64//lib/libelf.a(getdata.o)
                0x000000000040a3f8                elf_getdata
 .text          0x000000000040a6d8        0x0 0x1 /usr/local/popcorn/aarch64//lib/libelf.a(getident.o)
 .text.elf_getident
                0x000000000040a6d8       0x94 0x4 /usr/local/popcorn/aarch64//lib/libelf.a(getident.o)
                0x000000000040a6d8                elf_getident
 .text          0x000000000040a76c        0x0 0x1 /usr/local/popcorn/aarch64//lib/libelf.a(nextscn.o)
 .text.elf_nextscn
                0x000000000040a76c       0xbc 0x4 /usr/local/popcorn/aarch64//lib/libelf.a(nextscn.o)
                0x000000000040a76c                elf_nextscn
 .text          0x000000000040a828        0x0 0x1 /usr/local/popcorn/aarch64//lib/libelf.a(strptr.o)
 .text.elf_strptr
                0x000000000040a828      0x1a4 0x4 /usr/local/popcorn/aarch64//lib/libelf.a(strptr.o)
                0x000000000040a828                elf_strptr
 .text          0x000000000040a9cc        0x0 0x1 /usr/local/popcorn/aarch64//lib/libelf.a(version.o)
 .text.elf_version
                0x000000000040a9cc       0x80 0x4 /usr/local/popcorn/aarch64//lib/libelf.a(version.o)
                0x000000000040a9cc                elf_version
 .text          0x000000000040aa4c        0x0 0x1 /usr/local/popcorn/aarch64//lib/libelf.a(32.getehdr.o)
 .text._elf_getehdr
                0x000000000040aa4c       0x9c 0x4 /usr/local/popcorn/aarch64//lib/libelf.a(32.getehdr.o)
                0x000000000040aa4c                _elf_getehdr
 .text.elf32_getehdr
                0x000000000040aae8       0x9c 0x4 /usr/local/popcorn/aarch64//lib/libelf.a(32.getehdr.o)
                0x000000000040aae8                elf32_getehdr
 .text.elf64_getehdr
                0x000000000040ab84       0x9c 0x4 /usr/local/popcorn/aarch64//lib/libelf.a(32.getehdr.o)
                0x000000000040ab84                elf64_getehdr
 .text          0x000000000040ac20        0x0 0x1 /usr/local/popcorn/aarch64//lib/libelf.a(32.xlatetof.o)
 .text.addr_32L__tom
                0x000000000040ac20      0x208 0x4 /usr/local/popcorn/aarch64//lib/libelf.a(32.xlatetof.o)
 .text.addr_32L__tof
                0x000000000040ae28      0x1d8 0x4 /usr/local/popcorn/aarch64//lib/libelf.a(32.xlatetof.o)
 .text.addr_32M__tom
                0x000000000040b000      0x208 0x4 /usr/local/popcorn/aarch64//lib/libelf.a(32.xlatetof.o)
 .text.addr_32M__tof
                0x000000000040b208      0x1e0 0x4 /usr/local/popcorn/aarch64//lib/libelf.a(32.xlatetof.o)
 .text.half_32L__tom
                0x000000000040b3e8      0x2d0 0x4 /usr/local/popcorn/aarch64//lib/libelf.a(32.xlatetof.o)
 .text.half_32L__tof
                0x000000000040b6b8      0x290 0x4 /usr/local/popcorn/aarch64//lib/libelf.a(32.xlatetof.o)
 .text.half_32M__tom
                0x000000000040b948      0x2d4 0x4 /usr/local/popcorn/aarch64//lib/libelf.a(32.xlatetof.o)
 .text.half_32M__tof
                0x000000000040bc1c      0x294 0x4 /usr/local/popcorn/aarch64//lib/libelf.a(32.xlatetof.o)
 .text.off_32L__tom
                0x000000000040beb0      0x208 0x4 /usr/local/popcorn/aarch64//lib/libelf.a(32.xlatetof.o)
 .text.off_32L__tof
                0x000000000040c0b8      0x1d8 0x4 /usr/local/popcorn/aarch64//lib/libelf.a(32.xlatetof.o)
 .text.off_32M__tom
                0x000000000040c290      0x208 0x4 /usr/local/popcorn/aarch64//lib/libelf.a(32.xlatetof.o)
 .text.off_32M__tof
                0x000000000040c498      0x1e0 0x4 /usr/local/popcorn/aarch64//lib/libelf.a(32.xlatetof.o)
 .text.sword_32L__tom
                0x000000000040c678      0x22c 0x4 /usr/local/popcorn/aarch64//lib/libelf.a(32.xlatetof.o)
 .text.sword_32L__tof
                0x000000000040c8a4      0x1d8 0x4 /usr/local/popcorn/aarch64//lib/libelf.a(32.xlatetof.o)
 .text.sword_32M__tom
                0x000000000040ca7c      0x224 0x4 /usr/local/popcorn/aarch64//lib/libelf.a(32.xlatetof.o)
 .text.sword_32M__tof
                0x000000000040cca0      0x1e0 0x4 /usr/local/popcorn/aarch64//lib/libelf.a(32.xlatetof.o)
 .text.word_32L__tom
                0x000000000040ce80      0x208 0x4 /usr/local/popcorn/aarch64//lib/libelf.a(32.xlatetof.o)
 .text.word_32L__tof
                0x000000000040d088      0x1d8 0x4 /usr/local/popcorn/aarch64//lib/libelf.a(32.xlatetof.o)
 .text.word_32M__tom
                0x000000000040d260      0x208 0x4 /usr/local/popcorn/aarch64//lib/libelf.a(32.xlatetof.o)
 .text.word_32M__tof
                0x000000000040d468      0x1e0 0x4 /usr/local/popcorn/aarch64//lib/libelf.a(32.xlatetof.o)
 .text.dyn_32L11_tom
                0x000000000040d648       0x74 0x4 /usr/local/popcorn/aarch64//lib/libelf.a(32.xlatetof.o)
 .text.dyn_32L11_tof
                0x000000000040d6bc      0x400 0x4 /usr/local/popcorn/aarch64//lib/libelf.a(32.xlatetof.o)
 .text.dyn_32M11_tom
                0x000000000040dabc       0x74 0x4 /usr/local/popcorn/aarch64//lib/libelf.a(32.xlatetof.o)
 .text.dyn_32M11_tof
                0x000000000040db30      0x400 0x4 /usr/local/popcorn/aarch64//lib/libelf.a(32.xlatetof.o)
 .text.phdr_32L11_tom
                0x000000000040df30     0x21f4 0x4 /usr/local/popcorn/aarch64//lib/libelf.a(32.xlatetof.o)
 .text.phdr_32L11_tof
                0x0000000000410124     0x1904 0x4 /usr/local/popcorn/aarch64//lib/libelf.a(32.xlatetof.o)
 .text.phdr_32M11_tom
                0x0000000000411a28     0x21f0 0x4 /usr/local/popcorn/aarch64//lib/libelf.a(32.xlatetof.o)
 .text.phdr_32M11_tof
                0x0000000000413c18     0x18f4 0x4 /usr/local/popcorn/aarch64//lib/libelf.a(32.xlatetof.o)
 .text.rela_32L11_tom
                0x000000000041550c       0xa8 0x4 /usr/local/popcorn/aarch64//lib/libelf.a(32.xlatetof.o)
 .text.rela_32L11_tof
                0x00000000004155b4       0xa8 0x4 /usr/local/popcorn/aarch64//lib/libelf.a(32.xlatetof.o)
 .text.rela_32M11_tom
                0x000000000041565c       0xa8 0x4 /usr/local/popcorn/aarch64//lib/libelf.a(32.xlatetof.o)
 .text.rela_32M11_tof
                0x0000000000415704       0xa8 0x4 /usr/local/popcorn/aarch64//lib/libelf.a(32.xlatetof.o)
 .text.rel_32L11_tom
                0x00000000004157ac      0x408 0x4 /usr/local/popcorn/aarch64//lib/libelf.a(32.xlatetof.o)
 .text.rel_32L11_tof
                0x0000000000415bb4      0x3c4 0x4 /usr/local/popcorn/aarch64//lib/libelf.a(32.xlatetof.o)
 .text.rel_32M11_tom
                0x0000000000415f78      0x408 0x4 /usr/local/popcorn/aarch64//lib/libelf.a(32.xlatetof.o)
 .text.rel_32M11_tof
                0x0000000000416380      0x3c4 0x4 /usr/local/popcorn/aarch64//lib/libelf.a(32.xlatetof.o)
 .text.shdr_32L11_tom
                0x0000000000416744      0x1a4 0x4 /usr/local/popcorn/aarch64//lib/libelf.a(32.xlatetof.o)
 .text.shdr_32L11_tof
                0x00000000004168e8      0x1a4 0x4 /usr/local/popcorn/aarch64//lib/libelf.a(32.xlatetof.o)
 .text.shdr_32M11_tom
                0x0000000000416a8c      0x1a4 0x4 /usr/local/popcorn/aarch64//lib/libelf.a(32.xlatetof.o)
 .text.shdr_32M11_tof
                0x0000000000416c30      0x1a4 0x4 /usr/local/popcorn/aarch64//lib/libelf.a(32.xlatetof.o)
 .text.sym_32L11_tom
                0x0000000000416dd4       0xbc 0x4 /usr/local/popcorn/aarch64//lib/libelf.a(32.xlatetof.o)
 .text.sym_32L11_tof
                0x0000000000416e90       0xb8 0x4 /usr/local/popcorn/aarch64//lib/libelf.a(32.xlatetof.o)
 .text.sym_32M11_tom
                0x0000000000416f48       0xbc 0x4 /usr/local/popcorn/aarch64//lib/libelf.a(32.xlatetof.o)
 .text.sym_32M11_tof
                0x0000000000417004       0xb8 0x4 /usr/local/popcorn/aarch64//lib/libelf.a(32.xlatetof.o)
 .text.byte_copy
                0x00000000004170bc      0x648 0x4 /usr/local/popcorn/aarch64//lib/libelf.a(32.xlatetof.o)
 .text.ehdr_32L11_tom
                0x0000000000417704      0x2d4 0x4 /usr/local/popcorn/aarch64//lib/libelf.a(32.xlatetof.o)
 .text.ehdr_32M11_tom
                0x00000000004179d8      0x2d4 0x4 /usr/local/popcorn/aarch64//lib/libelf.a(32.xlatetof.o)
 .text.ehdr_32M11_tof
                0x0000000000417cac      0x2b4 0x4 /usr/local/popcorn/aarch64//lib/libelf.a(32.xlatetof.o)
 .text.ehdr_32L11_tof
                0x0000000000417f60      0x2b4 0x4 /usr/local/popcorn/aarch64//lib/libelf.a(32.xlatetof.o)
 .text._elf32_xltsize
                0x0000000000418214       0xc0 0x4 /usr/local/popcorn/aarch64//lib/libelf.a(32.xlatetof.o)
                0x0000000000418214                _elf32_xltsize
 .text.elf32_xlatetom
                0x00000000004182d4      0x170 0x4 /usr/local/popcorn/aarch64//lib/libelf.a(32.xlatetof.o)
                0x00000000004182d4                elf32_xlatetom
 .text.elf32_xlatetof
                0x0000000000418444      0x174 0x4 /usr/local/popcorn/aarch64//lib/libelf.a(32.xlatetof.o)
                0x0000000000418444                elf32_xlatetof
 .text          0x00000000004185b8        0x0 0x1 /usr/local/popcorn/aarch64//lib/libelf.a(cook.o)
 .text._elf_item
                0x00000000004185b8      0x1d0 0x4 /usr/local/popcorn/aarch64//lib/libelf.a(cook.o)
 .text._elf_scn_type
                0x0000000000418788       0xc8 0x4 /usr/local/popcorn/aarch64//lib/libelf.a(cook.o)
                0x0000000000418788                _elf_scn_type
 .text._elf_xlatetom
                0x0000000000418850       0x4c 0x4 /usr/local/popcorn/aarch64//lib/libelf.a(cook.o)
                0x0000000000418850                _elf_xlatetom
 .text._elf_cook
                0x000000000041889c      0x628 0x4 /usr/local/popcorn/aarch64//lib/libelf.a(cook.o)
                0x000000000041889c                _elf_cook
 .text          0x0000000000418ec4        0x0 0x1 /usr/local/popcorn/aarch64//lib/libelf.a(data.o)
 .text          0x0000000000418ec4        0x0 0x1 /usr/local/popcorn/aarch64//lib/libelf.a(input.o)
 .text._elf_read
                0x0000000000418ec4      0x160 0x4 /usr/local/popcorn/aarch64//lib/libelf.a(input.o)
                0x0000000000418ec4                _elf_read
 .text._elf_mmap
                0x0000000000419024        0x8 0x4 /usr/local/popcorn/aarch64//lib/libelf.a(input.o)
                0x0000000000419024                _elf_mmap
 .text          0x000000000041902c        0x0 0x1 /usr/local/popcorn/aarch64//lib/libelf.a(x.elfext.o)
 .text.elf_getphdrnum
                0x000000000041902c       0x74 0x4 /usr/local/popcorn/aarch64//lib/libelf.a(x.elfext.o)
                0x000000000041902c                elf_getphdrnum
 .text.elf_getshdrnum
                0x00000000004190a0       0x84 0x4 /usr/local/popcorn/aarch64//lib/libelf.a(x.elfext.o)
                0x00000000004190a0                elf_getshdrnum
 .text.elf_getshdrstrndx
                0x0000000000419124      0x118 0x4 /usr/local/popcorn/aarch64//lib/libelf.a(x.elfext.o)
                0x0000000000419124                elf_getshdrstrndx
 .text.elf_getphnum
                0x000000000041923c       0x70 0x4 /usr/local/popcorn/aarch64//lib/libelf.a(x.elfext.o)
                0x000000000041923c                elf_getphnum
 .text.elf_getshnum
                0x00000000004192ac       0x80 0x4 /usr/local/popcorn/aarch64//lib/libelf.a(x.elfext.o)
                0x00000000004192ac                elf_getshnum
 .text.elf_getshstrndx
                0x000000000041932c      0x114 0x4 /usr/local/popcorn/aarch64//lib/libelf.a(x.elfext.o)
                0x000000000041932c                elf_getshstrndx
 .text.elfx_update_shstrndx
                0x0000000000419440      0x118 0x4 /usr/local/popcorn/aarch64//lib/libelf.a(x.elfext.o)
                0x0000000000419440                elfx_update_shstrndx
 .text          0x0000000000419558        0x0 0x1 /usr/local/popcorn/aarch64//lib/libelf.a(64.xlatetof.o)
 .text.half_64L__tom
                0x0000000000419558      0x2d0 0x4 /usr/local/popcorn/aarch64//lib/libelf.a(64.xlatetof.o)
 .text.half_64L__tof
                0x0000000000419828      0x290 0x4 /usr/local/popcorn/aarch64//lib/libelf.a(64.xlatetof.o)
 .text.half_64M__tom
                0x0000000000419ab8      0x2d4 0x4 /usr/local/popcorn/aarch64//lib/libelf.a(64.xlatetof.o)
 .text.half_64M__tof
                0x0000000000419d8c      0x294 0x4 /usr/local/popcorn/aarch64//lib/libelf.a(64.xlatetof.o)
 .text.sword_64L__tom
                0x000000000041a020      0x22c 0x4 /usr/local/popcorn/aarch64//lib/libelf.a(64.xlatetof.o)
 .text.sword_64L__tof
                0x000000000041a24c      0x1d8 0x4 /usr/local/popcorn/aarch64//lib/libelf.a(64.xlatetof.o)
 .text.sword_64M__tom
                0x000000000041a424      0x224 0x4 /usr/local/popcorn/aarch64//lib/libelf.a(64.xlatetof.o)
 .text.sword_64M__tof
                0x000000000041a648      0x1e0 0x4 /usr/local/popcorn/aarch64//lib/libelf.a(64.xlatetof.o)
 .text.word_64L__tom
                0x000000000041a828      0x208 0x4 /usr/local/popcorn/aarch64//lib/libelf.a(64.xlatetof.o)
 .text.word_64L__tof
                0x000000000041aa30      0x1d8 0x4 /usr/local/popcorn/aarch64//lib/libelf.a(64.xlatetof.o)
 .text.word_64M__tom
                0x000000000041ac08      0x208 0x4 /usr/local/popcorn/aarch64//lib/libelf.a(64.xlatetof.o)
 .text.word_64M__tof
                0x000000000041ae10      0x1e0 0x4 /usr/local/popcorn/aarch64//lib/libelf.a(64.xlatetof.o)
 .text.elf64_xlate
                0x000000000041aff0      0x178 0x4 /usr/local/popcorn/aarch64//lib/libelf.a(64.xlatetof.o)
 .text.xword_64M__tof
                0x000000000041b168       0x58 0x4 /usr/local/popcorn/aarch64//lib/libelf.a(64.xlatetof.o)
 .text.sym_64M11_tof
                0x000000000041b1c0       0xbc 0x4 /usr/local/popcorn/aarch64//lib/libelf.a(64.xlatetof.o)
 .text.shdr_64M11_tof
                0x000000000041b27c      0x128 0x4 /usr/local/popcorn/aarch64//lib/libelf.a(64.xlatetof.o)
 .text.rel_64M11_tof
                0x000000000041b3a4       0x68 0x4 /usr/local/popcorn/aarch64//lib/libelf.a(64.xlatetof.o)
 .text.phdr_64M11_tof
                0x000000000041b40c       0xf8 0x4 /usr/local/popcorn/aarch64//lib/libelf.a(64.xlatetof.o)
 .text.off_64M__tof
                0x000000000041b504       0x58 0x4 /usr/local/popcorn/aarch64//lib/libelf.a(64.xlatetof.o)
 .text.dyn_64M11_tof
                0x000000000041b55c       0x68 0x4 /usr/local/popcorn/aarch64//lib/libelf.a(64.xlatetof.o)
 .text.addr_64M__tof
                0x000000000041b5c4       0x58 0x4 /usr/local/popcorn/aarch64//lib/libelf.a(64.xlatetof.o)
 .text.xword_64M__tom
                0x000000000041b61c       0x58 0x4 /usr/local/popcorn/aarch64//lib/libelf.a(64.xlatetof.o)
 .text.sym_64M11_tom
                0x000000000041b674       0xc0 0x4 /usr/local/popcorn/aarch64//lib/libelf.a(64.xlatetof.o)
 .text.shdr_64M11_tom
                0x000000000041b734      0x128 0x4 /usr/local/popcorn/aarch64//lib/libelf.a(64.xlatetof.o)
 .text.rel_64M11_tom
                0x000000000041b85c       0x68 0x4 /usr/local/popcorn/aarch64//lib/libelf.a(64.xlatetof.o)
 .text.phdr_64M11_tom
                0x000000000041b8c4       0xf8 0x4 /usr/local/popcorn/aarch64//lib/libelf.a(64.xlatetof.o)
 .text.off_64M__tom
                0x000000000041b9bc       0x58 0x4 /usr/local/popcorn/aarch64//lib/libelf.a(64.xlatetof.o)
 .text.dyn_64M11_tom
                0x000000000041ba14       0x68 0x4 /usr/local/popcorn/aarch64//lib/libelf.a(64.xlatetof.o)
 .text.addr_64M__tom
                0x000000000041ba7c       0x58 0x4 /usr/local/popcorn/aarch64//lib/libelf.a(64.xlatetof.o)
 .text.sxword_64M__tof
                0x000000000041bad4       0x58 0x4 /usr/local/popcorn/aarch64//lib/libelf.a(64.xlatetof.o)
 .text.rela_64M11_tof
                0x000000000041bb2c       0x84 0x4 /usr/local/popcorn/aarch64//lib/libelf.a(64.xlatetof.o)
 .text.sxword_64M__tom
                0x000000000041bbb0       0x58 0x4 /usr/local/popcorn/aarch64//lib/libelf.a(64.xlatetof.o)
 .text.rela_64M11_tom
                0x000000000041bc08       0x84 0x4 /usr/local/popcorn/aarch64//lib/libelf.a(64.xlatetof.o)
 .text.xword_64L__tof
                0x000000000041bc8c       0x58 0x4 /usr/local/popcorn/aarch64//lib/libelf.a(64.xlatetof.o)
 .text.sym_64L11_tof
                0x000000000041bce4       0xbc 0x4 /usr/local/popcorn/aarch64//lib/libelf.a(64.xlatetof.o)
 .text.shdr_64L11_tof
                0x000000000041bda0      0x128 0x4 /usr/local/popcorn/aarch64//lib/libelf.a(64.xlatetof.o)
 .text.rel_64L11_tof
                0x000000000041bec8       0x68 0x4 /usr/local/popcorn/aarch64//lib/libelf.a(64.xlatetof.o)
 .text.phdr_64L11_tof
                0x000000000041bf30       0xf8 0x4 /usr/local/popcorn/aarch64//lib/libelf.a(64.xlatetof.o)
 .text.off_64L__tof
                0x000000000041c028       0x58 0x4 /usr/local/popcorn/aarch64//lib/libelf.a(64.xlatetof.o)
 .text.dyn_64L11_tof
                0x000000000041c080       0x68 0x4 /usr/local/popcorn/aarch64//lib/libelf.a(64.xlatetof.o)
 .text.addr_64L__tof
                0x000000000041c0e8       0x58 0x4 /usr/local/popcorn/aarch64//lib/libelf.a(64.xlatetof.o)
 .text.xword_64L__tom
                0x000000000041c140       0x58 0x4 /usr/local/popcorn/aarch64//lib/libelf.a(64.xlatetof.o)
 .text.sym_64L11_tom
                0x000000000041c198       0xc0 0x4 /usr/local/popcorn/aarch64//lib/libelf.a(64.xlatetof.o)
 .text.shdr_64L11_tom
                0x000000000041c258      0x128 0x4 /usr/local/popcorn/aarch64//lib/libelf.a(64.xlatetof.o)
 .text.rel_64L11_tom
                0x000000000041c380       0x68 0x4 /usr/local/popcorn/aarch64//lib/libelf.a(64.xlatetof.o)
 .text.phdr_64L11_tom
                0x000000000041c3e8       0xf8 0x4 /usr/local/popcorn/aarch64//lib/libelf.a(64.xlatetof.o)
 .text.off_64L__tom
                0x000000000041c4e0       0x58 0x4 /usr/local/popcorn/aarch64//lib/libelf.a(64.xlatetof.o)
 .text.dyn_64L11_tom
                0x000000000041c538       0x68 0x4 /usr/local/popcorn/aarch64//lib/libelf.a(64.xlatetof.o)
 .text.addr_64L__tom
                0x000000000041c5a0       0x58 0x4 /usr/local/popcorn/aarch64//lib/libelf.a(64.xlatetof.o)
 .text.sxword_64L__tof
                0x000000000041c5f8       0x58 0x4 /usr/local/popcorn/aarch64//lib/libelf.a(64.xlatetof.o)
 .text.rela_64L11_tof
                0x000000000041c650       0x84 0x4 /usr/local/popcorn/aarch64//lib/libelf.a(64.xlatetof.o)
 .text.sxword_64L__tom
                0x000000000041c6d4       0x58 0x4 /usr/local/popcorn/aarch64//lib/libelf.a(64.xlatetof.o)
 .text.rela_64L11_tom
                0x000000000041c72c       0x84 0x4 /usr/local/popcorn/aarch64//lib/libelf.a(64.xlatetof.o)
 .text.byte_copy
                0x000000000041c7b0      0x648 0x4 /usr/local/popcorn/aarch64//lib/libelf.a(64.xlatetof.o)
 .text.ehdr_64L11_tom
                0x000000000041cdf8      0x294 0x4 /usr/local/popcorn/aarch64//lib/libelf.a(64.xlatetof.o)
 .text.ehdr_64M11_tom
                0x000000000041d08c      0x294 0x4 /usr/local/popcorn/aarch64//lib/libelf.a(64.xlatetof.o)
 .text.ehdr_64M11_tof
                0x000000000041d320      0x274 0x4 /usr/local/popcorn/aarch64//lib/libelf.a(64.xlatetof.o)
 .text.ehdr_64L11_tof
                0x000000000041d594      0x274 0x4 /usr/local/popcorn/aarch64//lib/libelf.a(64.xlatetof.o)
 .text._elf64_xltsize
                0x000000000041d808       0xc0 0x4 /usr/local/popcorn/aarch64//lib/libelf.a(64.xlatetof.o)
                0x000000000041d808                _elf64_xltsize
 .text.elf64_xlatetom
                0x000000000041d8c8      0x170 0x4 /usr/local/popcorn/aarch64//lib/libelf.a(64.xlatetof.o)
                0x000000000041d8c8                elf64_xlatetom
 .text.elf64_xlatetof
                0x000000000041da38      0x174 0x4 /usr/local/popcorn/aarch64//lib/libelf.a(64.xlatetof.o)
                0x000000000041da38                elf64_xlatetof
 .text.gelf_xlatetom
                0x000000000041dbac       0x70 0x4 /usr/local/popcorn/aarch64//lib/libelf.a(64.xlatetof.o)
                0x000000000041dbac                gelf_xlatetom
 .text.gelf_xlatetof
                0x000000000041dc1c       0x70 0x4 /usr/local/popcorn/aarch64//lib/libelf.a(64.xlatetof.o)
                0x000000000041dc1c                gelf_xlatetof
 .text          0x000000000041dc8c        0x0 0x1 /usr/local/popcorn/aarch64//lib/libelf.a(gelfshdr.o)
 .text.gelf_getshdr
                0x000000000041dc8c      0x128 0x4 /usr/local/popcorn/aarch64//lib/libelf.a(gelfshdr.o)
                0x000000000041dc8c                gelf_getshdr
 .text.gelf_update_shdr
                0x000000000041ddb4      0x108 0x4 /usr/local/popcorn/aarch64//lib/libelf.a(gelfshdr.o)
                0x000000000041ddb4                gelf_update_shdr
 .text          0x000000000041debc        0x0 0x1 /usr/local/popcorn/aarch64//lib/libelf.a(swap64.o)
 .text._elf_load_u64L
                0x000000000041debc       0x48 0x4 /usr/local/popcorn/aarch64//lib/libelf.a(swap64.o)
                0x000000000041debc                _elf_load_u64L
 .text._elf_load_u64M
                0x000000000041df04       0x48 0x4 /usr/local/popcorn/aarch64//lib/libelf.a(swap64.o)
                0x000000000041df04                _elf_load_u64M
 .text._elf_load_i64L
                0x000000000041df4c       0x48 0x4 /usr/local/popcorn/aarch64//lib/libelf.a(swap64.o)
                0x000000000041df4c                _elf_load_i64L
 .text._elf_load_i64M
                0x000000000041df94       0x48 0x4 /usr/local/popcorn/aarch64//lib/libelf.a(swap64.o)
                0x000000000041df94                _elf_load_i64M
 .text._elf_store_u64L
                0x000000000041dfdc       0x40 0x4 /usr/local/popcorn/aarch64//lib/libelf.a(swap64.o)
                0x000000000041dfdc                _elf_store_u64L
 .text._elf_store_u64M
                0x000000000041e01c       0x40 0x4 /usr/local/popcorn/aarch64//lib/libelf.a(swap64.o)
                0x000000000041e01c                _elf_store_u64M
 .text._elf_store_i64L
                0x000000000041e05c       0x40 0x4 /usr/local/popcorn/aarch64//lib/libelf.a(swap64.o)
                0x000000000041e05c                _elf_store_i64L
 .text._elf_store_i64M
                0x000000000041e09c       0x40 0x4 /usr/local/popcorn/aarch64//lib/libelf.a(swap64.o)
                0x000000000041e09c                _elf_store_i64M
 .text          0x000000000041e0dc        0x0 0x1 /usr/local/popcorn/aarch64//lib/libelf.a(verdef_32_tof.o)
 .text._elf_verdef_32L11_tof
                0x000000000041e0dc      0x204 0x4 /usr/local/popcorn/aarch64//lib/libelf.a(verdef_32_tof.o)
                0x000000000041e0dc                _elf_verdef_32L11_tof
 .text._elf_verdef_32M11_tof
                0x000000000041e2e0      0x204 0x4 /usr/local/popcorn/aarch64//lib/libelf.a(verdef_32_tof.o)
                0x000000000041e2e0                _elf_verdef_32M11_tof
 .text._elf_verneed_32L11_tof
                0x000000000041e4e4      0x220 0x4 /usr/local/popcorn/aarch64//lib/libelf.a(verdef_32_tof.o)
                0x000000000041e4e4                _elf_verneed_32L11_tof
 .text._elf_verneed_32M11_tof
                0x000000000041e704      0x220 0x4 /usr/local/popcorn/aarch64//lib/libelf.a(verdef_32_tof.o)
                0x000000000041e704                _elf_verneed_32M11_tof
 .text          0x000000000041e924        0x0 0x1 /usr/local/popcorn/aarch64//lib/libelf.a(verdef_32_tom.o)
 .text._elf_verdef_32L11_tom
                0x000000000041e924      0x20c 0x4 /usr/local/popcorn/aarch64//lib/libelf.a(verdef_32_tom.o)
                0x000000000041e924                _elf_verdef_32L11_tom
 .text._elf_verdef_32M11_tom
                0x000000000041eb30      0x20c 0x4 /usr/local/popcorn/aarch64//lib/libelf.a(verdef_32_tom.o)
                0x000000000041eb30                _elf_verdef_32M11_tom
 .text._elf_verneed_32L11_tom
                0x000000000041ed3c      0x23c 0x4 /usr/local/popcorn/aarch64//lib/libelf.a(verdef_32_tom.o)
                0x000000000041ed3c                _elf_verneed_32L11_tom
 .text._elf_verneed_32M11_tom
                0x000000000041ef78      0x23c 0x4 /usr/local/popcorn/aarch64//lib/libelf.a(verdef_32_tom.o)
                0x000000000041ef78                _elf_verneed_32M11_tom
 .text          0x000000000041f1b4        0x0 0x1 /usr/local/popcorn/aarch64//lib/libelf.a(verdef_64_tof.o)
 .text._elf_verdef_64L11_tof
                0x000000000041f1b4      0x204 0x4 /usr/local/popcorn/aarch64//lib/libelf.a(verdef_64_tof.o)
                0x000000000041f1b4                _elf_verdef_64L11_tof
 .text._elf_verdef_64M11_tof
                0x000000000041f3b8      0x204 0x4 /usr/local/popcorn/aarch64//lib/libelf.a(verdef_64_tof.o)
                0x000000000041f3b8                _elf_verdef_64M11_tof
 .text._elf_verneed_64L11_tof
                0x000000000041f5bc      0x220 0x4 /usr/local/popcorn/aarch64//lib/libelf.a(verdef_64_tof.o)
                0x000000000041f5bc                _elf_verneed_64L11_tof
 .text._elf_verneed_64M11_tof
                0x000000000041f7dc      0x220 0x4 /usr/local/popcorn/aarch64//lib/libelf.a(verdef_64_tof.o)
                0x000000000041f7dc                _elf_verneed_64M11_tof
 .text          0x000000000041f9fc        0x0 0x1 /usr/local/popcorn/aarch64//lib/libelf.a(verdef_64_tom.o)
 .text._elf_verdef_64L11_tom
                0x000000000041f9fc      0x20c 0x4 /usr/local/popcorn/aarch64//lib/libelf.a(verdef_64_tom.o)
                0x000000000041f9fc                _elf_verdef_64L11_tom
 .text._elf_verdef_64M11_tom
                0x000000000041fc08      0x20c 0x4 /usr/local/popcorn/aarch64//lib/libelf.a(verdef_64_tom.o)
                0x000000000041fc08                _elf_verdef_64M11_tom
 .text._elf_verneed_64L11_tom
                0x000000000041fe14      0x23c 0x4 /usr/local/popcorn/aarch64//lib/libelf.a(verdef_64_tom.o)
                0x000000000041fe14                _elf_verneed_64L11_tom
 .text._elf_verneed_64M11_tom
                0x0000000000420050      0x23c 0x4 /usr/local/popcorn/aarch64//lib/libelf.a(verdef_64_tom.o)
                0x0000000000420050                _elf_verneed_64M11_tom
 .text          0x000000000042028c        0x0 0x1 /usr/local/popcorn/aarch64//lib/libelf.a(getscn.o)
 .text.elf_getscn
                0x000000000042028c       0xa0 0x4 /usr/local/popcorn/aarch64//lib/libelf.a(getscn.o)
                0x000000000042028c                elf_getscn
 .text          0x000000000042032c        0x0 0x1 /usr/local/popcorn/aarch64//lib/libelf.a(newscn.o)
 .text._elf_update_shnum
                0x000000000042032c       0x88 0x4 /usr/local/popcorn/aarch64//lib/libelf.a(newscn.o)
                0x000000000042032c                _elf_update_shnum
 .text._elf_first_scn
                0x00000000004203b4       0xf4 0x4 /usr/local/popcorn/aarch64//lib/libelf.a(newscn.o)
                0x00000000004203b4                _elf_first_scn
 .text.elf_newscn
                0x00000000004204a8      0x260 0x4 /usr/local/popcorn/aarch64//lib/libelf.a(newscn.o)
                0x00000000004204a8                elf_newscn
 .text          0x0000000000420708        0x0 0x1 /usr/local/popcorn/aarch64//lib/libelf.a(32.fsize.o)
 .text.elf32_fsize
                0x0000000000420708       0x68 0x4 /usr/local/popcorn/aarch64//lib/libelf.a(32.fsize.o)
                0x0000000000420708                elf32_fsize
 .text.elf64_fsize
                0x0000000000420770       0x68 0x4 /usr/local/popcorn/aarch64//lib/libelf.a(32.fsize.o)
                0x0000000000420770                elf64_fsize
 .text.gelf_fsize
                0x00000000004207d8       0xb4 0x4 /usr/local/popcorn/aarch64//lib/libelf.a(32.fsize.o)
                0x00000000004207d8                gelf_fsize
 .text.gelf_msize
                0x000000000042088c       0xa4 0x4 /usr/local/popcorn/aarch64//lib/libelf.a(32.fsize.o)
                0x000000000042088c                gelf_msize
 .text          0x0000000000420930        0x0 0x4 /usr/local/popcorn/aarch64//lib/libc.a(getenv.o)
 .text.getenv   0x0000000000420930       0xb0 0x4 /usr/local/popcorn/aarch64//lib/libc.a(getenv.o)
                0x0000000000420930                getenv
 .text          0x00000000004209e0        0x0 0x4 /usr/local/popcorn/aarch64//lib/libc.a(assert.o)
 .text.__assert_fail
                0x00000000004209e0       0x4c 0x4 /usr/local/popcorn/aarch64//lib/libc.a(assert.o)
                0x00000000004209e0                __assert_fail
 .text          0x0000000000420a2c        0x0 0x4 /usr/local/popcorn/aarch64//lib/libc.a(open.o)
 .text.open     0x0000000000420a2c      0x104 0x4 /usr/local/popcorn/aarch64//lib/libc.a(open.o)
                0x0000000000420a2c                open
                0x0000000000420a2c                open64
 .text          0x0000000000420b30        0x0 0x4 /usr/local/popcorn/aarch64//lib/libc.a(calloc.o)
 .text.calloc   0x0000000000420b30      0x110 0x4 /usr/local/popcorn/aarch64//lib/libc.a(calloc.o)
                0x0000000000420b30                calloc
 .text          0x0000000000420c40        0x0 0x4 /usr/local/popcorn/aarch64//lib/libc.a(getrlimit.o)
 .text.getrlimit
                0x0000000000420c40       0xe0 0x4 /usr/local/popcorn/aarch64//lib/libc.a(getrlimit.o)
                0x0000000000420c40                getrlimit
                0x0000000000420c40                getrlimit64
 .text          0x0000000000420d20        0x0 0x4 /usr/local/popcorn/aarch64//lib/libc.a(syscall.o)
 .text.syscall  0x0000000000420d20      0x180 0x4 /usr/local/popcorn/aarch64//lib/libc.a(syscall.o)
                0x0000000000420d20                syscall
 .text          0x0000000000420ea0        0x0 0x4 /usr/local/popcorn/aarch64//lib/libc.a(getline.o)
 .text.getline  0x0000000000420ea0       0x10 0x4 /usr/local/popcorn/aarch64//lib/libc.a(getline.o)
                0x0000000000420ea0                getline
 .text          0x0000000000420eb0        0x0 0x4 /usr/local/popcorn/aarch64//lib/libc.a(snprintf.o)
 .text.snprintf
                0x0000000000420eb0       0x74 0x4 /usr/local/popcorn/aarch64//lib/libc.a(snprintf.o)
                0x0000000000420eb0                snprintf
 .text          0x0000000000420f24        0x0 0x4 /usr/local/popcorn/aarch64//lib/libc.a(sscanf.o)
 .text.sscanf   0x0000000000420f24       0x74 0x4 /usr/local/popcorn/aarch64//lib/libc.a(sscanf.o)
                0x0000000000420f24                __isoc99_sscanf
                0x0000000000420f24                sscanf
 .text          0x0000000000420f98        0x0 0x4 /usr/local/popcorn/aarch64//lib/libc.a(stderr.o)
 .text          0x0000000000420f98        0x0 0x4 /usr/local/popcorn/aarch64//lib/libc.a(vsnprintf.o)
 .text.vsnprintf
                0x0000000000420f98       0xe0 0x4 /usr/local/popcorn/aarch64//lib/libc.a(vsnprintf.o)
                0x0000000000420f98                vsnprintf
 .text.sn_write
                0x0000000000421078       0x50 0x4 /usr/local/popcorn/aarch64//lib/libc.a(vsnprintf.o)
 .text          0x00000000004210c8        0x0 0x4 /usr/local/popcorn/aarch64//lib/libc.a(vsscanf.o)
 .text.vsscanf  0x00000000004210c8       0x80 0x4 /usr/local/popcorn/aarch64//lib/libc.a(vsscanf.o)
                0x00000000004210c8                __isoc99_vsscanf
                0x00000000004210c8                vsscanf
 .text.do_read  0x0000000000421148        0x4 0x4 /usr/local/popcorn/aarch64//lib/libc.a(vsscanf.o)
 .text          0x000000000042114c        0x0 0x4 /usr/local/popcorn/aarch64//lib/libc.a(strtol.o)
 .text.strtoull
                0x000000000042114c        0x8 0x4 /usr/local/popcorn/aarch64//lib/libc.a(strtol.o)
                0x000000000042114c                __strtoull_internal
                0x000000000042114c                strtoull
 .text.strtox   0x0000000000421154       0xa4 0x4 /usr/local/popcorn/aarch64//lib/libc.a(strtol.o)
 .text.strtoll  0x00000000004211f8        0x8 0x4 /usr/local/popcorn/aarch64//lib/libc.a(strtol.o)
                0x00000000004211f8                __strtoll_internal
                0x00000000004211f8                strtoll
 .text.strtoul  0x0000000000421200        0x8 0x4 /usr/local/popcorn/aarch64//lib/libc.a(strtol.o)
                0x0000000000421200                __strtoul_internal
                0x0000000000421200                strtoul
 .text.strtol   0x0000000000421208        0x8 0x4 /usr/local/popcorn/aarch64//lib/libc.a(strtol.o)
                0x0000000000421208                __strtol_internal
                0x0000000000421208                strtol
 .text.strtoimax
                0x0000000000421210        0x8 0x4 /usr/local/popcorn/aarch64//lib/libc.a(strtol.o)
                0x0000000000421210                __strtoimax_internal
                0x0000000000421210                strtoimax
 .text.strtoumax
                0x0000000000421218        0x8 0x4 /usr/local/popcorn/aarch64//lib/libc.a(strtol.o)
                0x0000000000421218                __strtoumax_internal
                0x0000000000421218                strtoumax
 .text          0x0000000000421220        0x0 0x4 /usr/local/popcorn/aarch64//lib/libc.a(memcmp.o)
 .text.memcmp   0x0000000000421220       0x30 0x4 /usr/local/popcorn/aarch64//lib/libc.a(memcmp.o)
                0x0000000000421220                memcmp
 .text          0x0000000000421250        0x0 0x4 /usr/local/popcorn/aarch64//lib/libc.a(strcmp.o)
 .text.strcmp   0x0000000000421250       0x38 0x4 /usr/local/popcorn/aarch64//lib/libc.a(strcmp.o)
                0x0000000000421250                strcmp
 .text          0x0000000000421288        0x0 0x4 /usr/local/popcorn/aarch64//lib/libc.a(strncmp.o)
 .text.strncmp  0x0000000000421288       0x5c 0x4 /usr/local/popcorn/aarch64//lib/libc.a(strncmp.o)
                0x0000000000421288                strncmp
 .text          0x00000000004212e4        0x0 0x4 /usr/local/popcorn/aarch64//lib/libc.a(pthread_attr_get.o)
 .text.pthread_attr_getdetachstate
                0x00000000004212e4       0x10 0x4 /usr/local/popcorn/aarch64//lib/libc.a(pthread_attr_get.o)
                0x00000000004212e4                pthread_attr_getdetachstate
 .text.pthread_attr_getguardsize
                0x00000000004212f4       0x20 0x4 /usr/local/popcorn/aarch64//lib/libc.a(pthread_attr_get.o)
                0x00000000004212f4                pthread_attr_getguardsize
 .text.pthread_attr_getinheritsched
                0x0000000000421314       0x10 0x4 /usr/local/popcorn/aarch64//lib/libc.a(pthread_attr_get.o)
                0x0000000000421314                pthread_attr_getinheritsched
 .text.pthread_attr_getschedparam
                0x0000000000421324       0x10 0x4 /usr/local/popcorn/aarch64//lib/libc.a(pthread_attr_get.o)
                0x0000000000421324                pthread_attr_getschedparam
 .text.pthread_attr_getschedpolicy
                0x0000000000421334       0x10 0x4 /usr/local/popcorn/aarch64//lib/libc.a(pthread_attr_get.o)
                0x0000000000421334                pthread_attr_getschedpolicy
 .text.pthread_attr_getscope
                0x0000000000421344        0xc 0x4 /usr/local/popcorn/aarch64//lib/libc.a(pthread_attr_get.o)
                0x0000000000421344                pthread_attr_getscope
 .text.pthread_attr_getstack
                0x0000000000421350       0x30 0x4 /usr/local/popcorn/aarch64//lib/libc.a(pthread_attr_get.o)
                0x0000000000421350                pthread_attr_getstack
 .text.pthread_attr_getstacksize
                0x0000000000421380       0x14 0x4 /usr/local/popcorn/aarch64//lib/libc.a(pthread_attr_get.o)
                0x0000000000421380                pthread_attr_getstacksize
 .text.pthread_barrierattr_getpshared
                0x0000000000421394       0x18 0x4 /usr/local/popcorn/aarch64//lib/libc.a(pthread_attr_get.o)
                0x0000000000421394                pthread_barrierattr_getpshared
 .text.pthread_condattr_getclock
                0x00000000004213ac       0x14 0x4 /usr/local/popcorn/aarch64//lib/libc.a(pthread_attr_get.o)
                0x00000000004213ac                pthread_condattr_getclock
 .text.pthread_condattr_getpshared
                0x00000000004213c0       0x14 0x4 /usr/local/popcorn/aarch64//lib/libc.a(pthread_attr_get.o)
                0x00000000004213c0                pthread_condattr_getpshared
 .text.pthread_mutexattr_getprotocol
                0x00000000004213d4        0xc 0x4 /usr/local/popcorn/aarch64//lib/libc.a(pthread_attr_get.o)
                0x00000000004213d4                pthread_mutexattr_getprotocol
 .text.pthread_mutexattr_getpshared
                0x00000000004213e0       0x14 0x4 /usr/local/popcorn/aarch64//lib/libc.a(pthread_attr_get.o)
                0x00000000004213e0                pthread_mutexattr_getpshared
 .text.pthread_mutexattr_getrobust
                0x00000000004213f4       0x14 0x4 /usr/local/popcorn/aarch64//lib/libc.a(pthread_attr_get.o)
                0x00000000004213f4                pthread_mutexattr_getrobust
 .text.pthread_mutexattr_gettype
                0x0000000000421408       0x14 0x4 /usr/local/popcorn/aarch64//lib/libc.a(pthread_attr_get.o)
                0x0000000000421408                pthread_mutexattr_gettype
 .text.pthread_rwlockattr_getpshared
                0x000000000042141c       0x10 0x4 /usr/local/popcorn/aarch64//lib/libc.a(pthread_attr_get.o)
                0x000000000042141c                pthread_rwlockattr_getpshared
 .text          0x000000000042142c        0x0 0x4 /usr/local/popcorn/aarch64//lib/libc.a(pthread_getattr_np.o)
 .text.pthread_getattr_np
                0x000000000042142c      0x114 0x4 /usr/local/popcorn/aarch64//lib/libc.a(pthread_getattr_np.o)
                0x000000000042142c                pthread_getattr_np
 .text          0x0000000000421540        0x0 0x4 /usr/local/popcorn/aarch64//lib/libc.a(pthread_getspecific.o)
 .text.__pthread_getspecific
                0x0000000000421540       0x10 0x4 /usr/local/popcorn/aarch64//lib/libc.a(pthread_getspecific.o)
                0x0000000000421540                pthread_getspecific
                0x0000000000421540                tss_get
 .text          0x0000000000421550        0x0 0x4 /usr/local/popcorn/aarch64//lib/libc.a(pthread_key_create.o)
 .text.__pthread_key_create
                0x0000000000421550       0x9c 0x4 /usr/local/popcorn/aarch64//lib/libc.a(pthread_key_create.o)
                0x0000000000421550                __pthread_key_create
                0x0000000000421550                pthread_key_create
 .text.nodtor   0x00000000004215ec        0x4 0x4 /usr/local/popcorn/aarch64//lib/libc.a(pthread_key_create.o)
 .text.__pthread_key_delete
                0x00000000004215f0       0x14 0x4 /usr/local/popcorn/aarch64//lib/libc.a(pthread_key_create.o)
                0x00000000004215f0                __pthread_key_delete
                0x00000000004215f0                pthread_key_delete
 .text.__pthread_tsd_run_dtors
                0x0000000000421604       0x80 0x4 /usr/local/popcorn/aarch64//lib/libc.a(pthread_key_create.o)
                0x0000000000421604                __pthread_tsd_run_dtors
 .text          0x0000000000421684        0x0 0x4 /usr/local/popcorn/aarch64//lib/libc.a(pthread_migrate.o)
 .text.pthread_migrate_args
                0x0000000000421684        0xc 0x4 /usr/local/popcorn/aarch64//lib/libc.a(pthread_migrate.o)
                0x0000000000421684                pthread_migrate_args
 .text          0x0000000000421690        0x0 0x4 /usr/local/popcorn/aarch64//lib/libc.a(pthread_self.o)
 .text.__pthread_self_internal
                0x0000000000421690        0x8 0x4 /usr/local/popcorn/aarch64//lib/libc.a(pthread_self.o)
                0x0000000000421690                pthread_self
                0x0000000000421690                thrd_current
 .text          0x0000000000421698        0x0 0x4 /usr/local/popcorn/aarch64//lib/libc.a(pthread_setspecific.o)
 .text.pthread_setspecific
                0x0000000000421698       0x2c 0x4 /usr/local/popcorn/aarch64//lib/libc.a(pthread_setspecific.o)
                0x0000000000421698                pthread_setspecific
 .text          0x00000000004216c4        0x0 0x4 /usr/local/popcorn/aarch64//lib/libc.a(close.o)
 .text.dummy    0x00000000004216c4        0x4 0x4 /usr/local/popcorn/aarch64//lib/libc.a(close.o)
 .text.close    0x00000000004216c8       0x44 0x4 /usr/local/popcorn/aarch64//lib/libc.a(close.o)
                0x00000000004216c8                close
 .text          0x000000000042170c        0x0 0x4 /usr/local/popcorn/aarch64//lib/libc.a(getpid.o)
 .text.getpid   0x000000000042170c        0xc 0x4 /usr/local/popcorn/aarch64//lib/libc.a(getpid.o)
                0x000000000042170c                getpid
 .text          0x0000000000421718        0x0 0x4 /usr/local/popcorn/aarch64//lib/libc.a(lseek.o)
 .text.lseek    0x0000000000421718       0x14 0x4 /usr/local/popcorn/aarch64//lib/libc.a(lseek.o)
                0x0000000000421718                lseek
                0x0000000000421718                lseek64
 .text          0x000000000042172c        0x0 0x4 /usr/local/popcorn/aarch64//lib/libc.a(read.o)
 .text.read     0x000000000042172c       0x38 0x4 /usr/local/popcorn/aarch64//lib/libc.a(read.o)
                0x000000000042172c                read
 .text          0x0000000000421764        0x0 0x4 /usr/local/popcorn/aarch64//lib/libc.a(abort.o)
 .text.abort    0x0000000000421764       0x1c 0x4 /usr/local/popcorn/aarch64//lib/libc.a(abort.o)
                0x0000000000421764                abort
 .text          0x0000000000421780        0x0 0x4 /usr/local/popcorn/aarch64//lib/libc.a(intscan.o)
 .text.__intscan
                0x0000000000421780      0x5a4 0x4 /usr/local/popcorn/aarch64//lib/libc.a(intscan.o)
                0x0000000000421780                __intscan
 .text          0x0000000000421d24        0x0 0x4 /usr/local/popcorn/aarch64//lib/libc.a(shgetc.o)
 .text.__shlim  0x0000000000421d24       0x24 0x4 /usr/local/popcorn/aarch64//lib/libc.a(shgetc.o)
                0x0000000000421d24                __shlim
 .text.__shgetc
                0x0000000000421d48       0xb4 0x4 /usr/local/popcorn/aarch64//lib/libc.a(shgetc.o)
                0x0000000000421d48                __shgetc
 .text          0x0000000000421dfc        0x0 0x4 /usr/local/popcorn/aarch64//lib/libc.a(raise.o)
 .text.raise    0x0000000000421dfc       0x58 0x4 /usr/local/popcorn/aarch64//lib/libc.a(raise.o)
                0x0000000000421dfc                raise
 .text          0x0000000000421e54        0x0 0x4 /usr/local/popcorn/aarch64//lib/libc.a(__string_read.o)
 .text.__string_read
                0x0000000000421e54       0x84 0x4 /usr/local/popcorn/aarch64//lib/libc.a(__string_read.o)
                0x0000000000421e54                __string_read
 .text          0x0000000000421ed8        0x0 0x4 /usr/local/popcorn/aarch64//lib/libc.a(__uflow.o)
 .text.__uflow  0x0000000000421ed8       0x54 0x4 /usr/local/popcorn/aarch64//lib/libc.a(__uflow.o)
                0x0000000000421ed8                __uflow
 .text          0x0000000000421f2c        0x0 0x4 /usr/local/popcorn/aarch64//lib/libc.a(getdelim.o)
 .text.getdelim
                0x0000000000421f2c      0x214 0x4 /usr/local/popcorn/aarch64//lib/libc.a(getdelim.o)
                0x0000000000421f2c                __getdelim
                0x0000000000421f2c                getdelim
 .text          0x0000000000422140        0x0 0x4 /usr/local/popcorn/aarch64//lib/libc.a(vfscanf.o)
 .text.vfscanf  0x0000000000422140      0xbbc 0x4 /usr/local/popcorn/aarch64//lib/libc.a(vfscanf.o)
                0x0000000000422140                __isoc99_vfscanf
                0x0000000000422140                vfscanf
 .text          0x0000000000422cfc        0x0 0x4 /usr/local/popcorn/aarch64//lib/libc.a(floatscan.o)
 .text.__floatscan
                0x0000000000422cfc     0x156c 0x4 /usr/local/popcorn/aarch64//lib/libc.a(floatscan.o)
                0x0000000000422cfc                __floatscan
 .text.scanexp  0x0000000000424268      0x204 0x4 /usr/local/popcorn/aarch64//lib/libc.a(floatscan.o)
 .text          0x000000000042446c        0x0 0x4 /usr/local/popcorn/aarch64//lib/libc.a(copysignl.o)
 .text.copysignl
                0x000000000042446c       0x2c 0x4 /usr/local/popcorn/aarch64//lib/libc.a(copysignl.o)
                0x000000000042446c                copysignl
 .text          0x0000000000424498        0x0 0x4 /usr/local/popcorn/aarch64//lib/libc.a(fabs.o)
 .text.fabs     0x00000000004244a0        0x8 0x10 /usr/local/popcorn/aarch64//lib/libc.a(fabs.o)
                0x00000000004244a0                fabs
 .text          0x00000000004244a8        0x0 0x4 /usr/local/popcorn/aarch64//lib/libc.a(fmodl.o)
 .text.fmodl    0x00000000004244a8      0x254 0x4 /usr/local/popcorn/aarch64//lib/libc.a(fmodl.o)
                0x00000000004244a8                fmodl
 .text          0x00000000004246fc        0x0 0x4 /usr/local/popcorn/aarch64//lib/libc.a(scalbn.o)
 .text.scalbn   0x00000000004246fc       0x88 0x4 /usr/local/popcorn/aarch64//lib/libc.a(scalbn.o)
                0x00000000004246fc                scalbn
 .text          0x0000000000424784        0x0 0x4 /usr/local/popcorn/aarch64//lib/libc.a(scalbnl.o)
 .text.scalbnl  0x0000000000424784       0xd4 0x4 /usr/local/popcorn/aarch64//lib/libc.a(scalbnl.o)
                0x0000000000424784                scalbnl
 .text          0x0000000000424858        0x0 0x4 /usr/local/popcorn/aarch64//lib/libc.a(mbrtowc.o)
 .text.mbrtowc  0x0000000000424858      0x11c 0x4 /usr/local/popcorn/aarch64//lib/libc.a(mbrtowc.o)
                0x0000000000424858                mbrtowc
 .text          0x0000000000424974        0x0 0x4 /usr/local/popcorn/aarch64//lib/libc.a(mbsinit.o)
 .text.mbsinit  0x0000000000424974       0x1c 0x4 /usr/local/popcorn/aarch64//lib/libc.a(mbsinit.o)
                0x0000000000424974                mbsinit
 .text          0x0000000000424990        0x0 0x4 /usr/local/popcorn/aarch64//lib/libc.a(block.o)
 .text.__block_all_sigs
                0x0000000000424990       0x24 0x4 /usr/local/popcorn/aarch64//lib/libc.a(block.o)
                0x0000000000424990                __block_all_sigs
 .text.__block_app_sigs
                0x00000000004249b4       0x24 0x4 /usr/local/popcorn/aarch64//lib/libc.a(block.o)
                0x00000000004249b4                __block_app_sigs
 .text.__restore_sigs
                0x00000000004249d8       0x20 0x4 /usr/local/popcorn/aarch64//lib/libc.a(block.o)
                0x00000000004249d8                __restore_sigs
 .text          0x00000000004249f8        0x0 0x4 /usr/local/popcorn/aarch64//lib/libc.a(__toread.o)
 .text.__toread
                0x00000000004249f8       0x84 0x4 /usr/local/popcorn/aarch64//lib/libc.a(__toread.o)
                0x00000000004249f8                __toread
 .text.__toread_needs_stdio_exit
                0x0000000000424a7c        0x4 0x4 /usr/local/popcorn/aarch64//lib/libc.a(__toread.o)
                0x0000000000424a7c                __toread_needs_stdio_exit
 .text          0x0000000000424a80        0x0 0x4 /usr/local/popcorn/aarch64//lib/libc.a(internal.o)
 .text          0x0000000000424a80      0xd2c 0x4 /usr/lib/gcc/aarch64-linux-gnu/4.9/libgcc.a(addtf3.o)
                0x0000000000424a80                __addtf3
 .text          0x00000000004257ac      0x8f4 0x4 /usr/lib/gcc/aarch64-linux-gnu/4.9/libgcc.a(divtf3.o)
                0x00000000004257ac                __divtf3
 .text          0x00000000004260a0      0x120 0x4 /usr/lib/gcc/aarch64-linux-gnu/4.9/libgcc.a(eqtf2.o)
                0x00000000004260a0                __eqtf2
                0x00000000004260a0                __netf2
 .text          0x00000000004261c0      0x144 0x4 /usr/lib/gcc/aarch64-linux-gnu/4.9/libgcc.a(getf2.o)
                0x00000000004261c0                __getf2
                0x00000000004261c0                __gttf2
 .text          0x0000000000426304      0x14c 0x4 /usr/lib/gcc/aarch64-linux-gnu/4.9/libgcc.a(letf2.o)
                0x0000000000426304                __letf2
                0x0000000000426304                __lttf2
 .text          0x0000000000426450      0x788 0x4 /usr/lib/gcc/aarch64-linux-gnu/4.9/libgcc.a(multf3.o)
                0x0000000000426450                __multf3
 .text          0x0000000000426bd8      0xd3c 0x4 /usr/lib/gcc/aarch64-linux-gnu/4.9/libgcc.a(subtf3.o)
                0x0000000000426bd8                __subtf3
 .text          0x0000000000427914       0xcc 0x4 /usr/lib/gcc/aarch64-linux-gnu/4.9/libgcc.a(unordtf2.o)
                0x0000000000427914                __unordtf2
 .text          0x00000000004279e0      0x118 0x4 /usr/lib/gcc/aarch64-linux-gnu/4.9/libgcc.a(fixtfsi.o)
                0x00000000004279e0                __fixtfsi
 .text          0x0000000000427af8       0xf0 0x4 /usr/lib/gcc/aarch64-linux-gnu/4.9/libgcc.a(fixunstfsi.o)
                0x0000000000427af8                __fixunstfsi
 .text          0x0000000000427be8       0x80 0x4 /usr/lib/gcc/aarch64-linux-gnu/4.9/libgcc.a(floatsitf.o)
                0x0000000000427be8                __floatsitf
 .text          0x0000000000427c68       0x70 0x4 /usr/lib/gcc/aarch64-linux-gnu/4.9/libgcc.a(floatunsitf.o)
                0x0000000000427c68                __floatunsitf
 .text          0x0000000000427cd8       0xe8 0x4 /usr/lib/gcc/aarch64-linux-gnu/4.9/libgcc.a(extendsftf2.o)
                0x0000000000427cd8                __extendsftf2
 .text          0x0000000000427dc0      0x10c 0x4 /usr/lib/gcc/aarch64-linux-gnu/4.9/libgcc.a(extenddftf2.o)
                0x0000000000427dc0                __extenddftf2
 .text          0x0000000000427ecc      0x358 0x4 /usr/lib/gcc/aarch64-linux-gnu/4.9/libgcc.a(trunctfsf2.o)
                0x0000000000427ecc                __trunctfsf2
 .text          0x0000000000428224      0x358 0x4 /usr/lib/gcc/aarch64-linux-gnu/4.9/libgcc.a(trunctfdf2.o)
                0x0000000000428224                __trunctfdf2
 .text          0x000000000042857c       0x6c 0x4 /usr/lib/gcc/aarch64-linux-gnu/4.9/libgcc.a(sfp-exceptions.o)
                0x000000000042857c                __sfp_handle_exceptions

.rodata         0x00000000004285f0     0x2a74
 .rodata.conftest__str_conftest_v
                0x00000000004285f0        0xd 0x1 /tmp/conftest-dcbec8.o
                0x00000000004285f0                conftest__str_conftest_v
 .rodata.conftest__str_1_w_
                0x00000000004285fd        0x2 0x1 /tmp/conftest-dcbec8.o
                0x00000000004285fd                conftest__str_1_w_
 .rodata.conftest__str_2__lu_
                0x00000000004285ff        0x4 0x1 /tmp/conftest-dcbec8.o
                0x00000000004285ff                conftest__str_2__lu_
 .rodata.src_env___libc_start_main___init_libc_pfd_
                0x0000000000428604       0x18 0x4 /usr/local/popcorn/aarch64//lib/libc.a(__libc_start_main.o)
                0x0000000000428604                src_env___libc_start_main___init_libc_pfd_
 .rodata.src_env___libc_start_main__str__dev_null_
                0x000000000042861c        0xa 0x1 /usr/local/popcorn/aarch64//lib/libc.a(__libc_start_main.o)
                0x000000000042861c                src_env___libc_start_main__str__dev_null_
 .rodata.src_stdio_fopen__str_rwa_
                0x0000000000428626        0x4 0x1 /usr/local/popcorn/aarch64//lib/libc.a(fopen.o)
                0x0000000000428626                src_stdio_fopen__str_rwa_
 ** merge constants
                0x0000000000428630      0x110
 .rodata        0x0000000000428740       0x40 0x10 /usr/local/popcorn/aarch64//lib/libc.a(vfprintf.o)
 .rodata.printf_core
                0x0000000000428780      0x170 0x8 /usr/local/popcorn/aarch64//lib/libc.a(vfprintf.o)
 .rodata.pop_arg
                0x00000000004288f0       0x60 0x8 /usr/local/popcorn/aarch64//lib/libc.a(vfprintf.o)
 .rodata.src_stdio_vfprintf_c_states
                0x0000000000428950      0x1d0 0x1 /usr/local/popcorn/aarch64//lib/libc.a(vfprintf.o)
 .rodata.src_stdio_vfprintf__str______0X0x_
                0x0000000000428b20        0xa 0x1 /usr/local/popcorn/aarch64//lib/libc.a(vfprintf.o)
                0x0000000000428b20                src_stdio_vfprintf__str______0X0x_
 .rodata.src_stdio_vfprintf__str_1__null__
                0x0000000000428b2a        0x7 0x1 /usr/local/popcorn/aarch64//lib/libc.a(vfprintf.o)
                0x0000000000428b2a                src_stdio_vfprintf__str_1__null__
 .rodata.src_stdio_vfprintf_c_xdigits
                0x0000000000428b31       0x10 0x1 /usr/local/popcorn/aarch64//lib/libc.a(vfprintf.o)
 .rodata.src_stdio_vfprintf__str_2__0X_0X_0X_
                0x0000000000428b41       0x13 0x1 /usr/local/popcorn/aarch64//lib/libc.a(vfprintf.o)
                0x0000000000428b41                src_stdio_vfprintf__str_2__0X_0X_0X_
 .rodata.src_stdio_vfprintf__str_3_inf_
                0x0000000000428b54        0x4 0x1 /usr/local/popcorn/aarch64//lib/libc.a(vfprintf.o)
                0x0000000000428b54                src_stdio_vfprintf__str_3_inf_
 .rodata.src_stdio_vfprintf__str_4_INF_
                0x0000000000428b58        0x4 0x1 /usr/local/popcorn/aarch64//lib/libc.a(vfprintf.o)
                0x0000000000428b58                src_stdio_vfprintf__str_4_INF_
 .rodata.src_stdio_vfprintf__str_5_nan_
                0x0000000000428b5c        0x4 0x1 /usr/local/popcorn/aarch64//lib/libc.a(vfprintf.o)
                0x0000000000428b5c                src_stdio_vfprintf__str_5_nan_
 .rodata.src_stdio_vfprintf__str_6_NAN_
                0x0000000000428b60        0x4 0x1 /usr/local/popcorn/aarch64//lib/libc.a(vfprintf.o)
                0x0000000000428b60                src_stdio_vfprintf__str_6_NAN_
 .rodata.src_stdio_vfprintf__str_7___
                0x0000000000428b64        0x2 0x1 /usr/local/popcorn/aarch64//lib/libc.a(vfprintf.o)
                0x0000000000428b64                src_stdio_vfprintf__str_7___
 .rodata.src_errno_strerror_c_errid
                0x0000000000428b66       0x58 0x1 /usr/local/popcorn/aarch64//lib/libc.a(strerror.o)
 .rodata.src_errno_strerror_c_errmsg
                0x0000000000428bbe      0x70c 0x1 /usr/local/popcorn/aarch64//lib/libc.a(strerror.o)
 .rodata.src_stdio___fdopen__str_rwa_
                0x00000000004292ca        0x4 0x1 /usr/local/popcorn/aarch64//lib/libc.a(__fdopen.o)
                0x00000000004292ca                src_stdio___fdopen__str_rwa_
 .rodata.src_migrate__str_Cannot_ret
                0x00000000004292ce       0x2e 0x1 /usr/local/popcorn/aarch64//lib/libmigrate.a(migrate.o)
                0x00000000004292ce                src_migrate__str_Cannot_ret
 .rodata.src_migrate__str_1_Could_not_
                0x00000000004292fc       0x1a 0x1 /usr/local/popcorn/aarch64//lib/libmigrate.a(migrate.o)
                0x00000000004292fc                src_migrate__str_1_Could_not_
 .rodata.src_migrate__str_2_0_____Unsu
                0x0000000000429316       0x21 0x1 /usr/local/popcorn/aarch64//lib/libmigrate.a(migrate.o)
                0x0000000000429316                src_migrate__str_2_0_____Unsu
 .rodata.src_migrate__str_3_src_migrat
                0x0000000000429337        0xe 0x1 /usr/local/popcorn/aarch64//lib/libmigrate.a(migrate.o)
                0x0000000000429337                src_migrate__str_3_src_migrat
 .rodata.src_migrate___func_____migrate_shim_internal___migrate_
                0x0000000000429345       0x18 0x1 /usr/local/popcorn/aarch64//lib/libmigrate.a(migrate.o)
                0x0000000000429345                src_migrate___func_____migrate_shim_internal___migrate_
 .rodata.src_migrate__str_4_0_____Coul
                0x000000000042935d       0x19 0x1 /usr/local/popcorn/aarch64//lib/libmigrate.a(migrate.o)
                0x000000000042935d                src_migrate__str_4_0_____Coul
 .rodata.src_userspace__str_ST_AARCH64
                0x0000000000429376        0xf 0x1 /usr/local/popcorn/aarch64//lib/libstack-transform.a(userspace.o)
                0x0000000000429376                src_userspace__str_ST_AARCH64
 .rodata.src_userspace__str_1__s_aarch64
                0x0000000000429385        0xb 0x1 /usr/local/popcorn/aarch64//lib/libstack-transform.a(userspace.o)
                0x0000000000429385                src_userspace__str_1__s_aarch64
 .rodata.src_userspace__str_2_ST_X86_64_
                0x0000000000429390        0xe 0x1 /usr/local/popcorn/aarch64//lib/libstack-transform.a(userspace.o)
                0x0000000000429390                src_userspace__str_2_ST_X86_64_
 .rodata.src_userspace__str_3__s_x86_64_
                0x000000000042939e        0xa 0x1 /usr/local/popcorn/aarch64//lib/libstack-transform.a(userspace.o)
                0x000000000042939e                src_userspace__str_3__s_x86_64_
 .rodata.src_userspace__str_4__proc__d_m
                0x00000000004293a8        0xe 0x1 /usr/local/popcorn/aarch64//lib/libstack-transform.a(userspace.o)
                0x00000000004293a8                src_userspace__str_4__proc__d_m
 .rodata.src_userspace__str_5_r_
                0x00000000004293b6        0x2 0x1 /usr/local/popcorn/aarch64//lib/libstack-transform.a(userspace.o)
                0x00000000004293b6                src_userspace__str_5_r_
 .rodata.src_userspace__str_6__lx__lx__s
                0x00000000004293b8       0x19 0x1 /usr/local/popcorn/aarch64//lib/libstack-transform.a(userspace.o)
                0x00000000004293b8                src_userspace__str_6__lx__lx(short)
 .rodata.src_userspace__str_7__stack__
                0x00000000004293d1        0x8 0x1 /usr/local/popcorn/aarch64//lib/libstack-transform.a(userspace.o)
                0x00000000004293d1                src_userspace__str_7__stack__
 .rodata.src_init__str__stack_tra
                0x00000000004293d9       0x1f 0x1 /usr/local/popcorn/aarch64//lib/libstack-transform.a(init.o)
                0x00000000004293d9                src_init__str__stack_tra
 .rodata.src_init__str_1__stack_tra
                0x00000000004293f8       0x18 0x1 /usr/local/popcorn/aarch64//lib/libstack-transform.a(init.o)
                0x00000000004293f8                src_init__str_1__stack_tra
 .rodata.src_init__str_2__stack_tra
                0x0000000000429410       0x14 0x1 /usr/local/popcorn/aarch64//lib/libstack-transform.a(init.o)
                0x0000000000429410                src_init__str_2__stack_tra
 .rodata.src_init__str_3__stack_tra
                0x0000000000429424       0x16 0x1 /usr/local/popcorn/aarch64//lib/libstack-transform.a(init.o)
                0x0000000000429424                src_init__str_3__stack_tra
 .rodata.src_init__str_4__stack_tra
                0x000000000042943a       0x16 0x1 /usr/local/popcorn/aarch64//lib/libstack-transform.a(init.o)
                0x000000000042943a                src_init__str_4__stack_tra
 .rodata.src_init__str_5__stack_tra
                0x0000000000429450       0x1c 0x1 /usr/local/popcorn/aarch64//lib/libstack-transform.a(init.o)
                0x0000000000429450                src_init__str_5__stack_tra
 .rodata.src_rewrite__str__src_rewri
                0x000000000042946c       0x42 0x1 /usr/local/popcorn/aarch64//lib/libstack-transform.a(rewrite.o)
                0x000000000042946c                src_rewrite__str__src_rewri
 .rodata.src_rewrite__str_1__src_rewri
                0x00000000004294ae       0x68 0x1 /usr/local/popcorn/aarch64//lib/libstack-transform.a(rewrite.o)
                0x00000000004294ae                src_rewrite__str_1__src_rewri
 .rodata.src_rewrite__str_2__src_rewri
                0x0000000000429516       0x54 0x1 /usr/local/popcorn/aarch64//lib/libstack-transform.a(rewrite.o)
                0x0000000000429516                src_rewrite__str_2__src_rewri
 .rodata.src_rewrite__str_3__src_rewri
                0x000000000042956a       0x61 0x1 /usr/local/popcorn/aarch64//lib/libstack-transform.a(rewrite.o)
                0x000000000042956a                src_rewrite__str_3__src_rewri
 .rodata.src_util__str_x86_64_
                0x00000000004295cb        0x7 0x1 /usr/local/popcorn/aarch64//lib/libstack-transform.a(util.o)
                0x00000000004295cb                src_util__str_x86_64_
 .rodata.src_util__str_1_aarch64_
                0x00000000004295d2        0x8 0x1 /usr/local/popcorn/aarch64//lib/libstack-transform.a(util.o)
                0x00000000004295d2                src_util__str_1_aarch64_
 .rodata.src_util__str_2_unknown_un
                0x00000000004295da       0x21 0x1 /usr/local/popcorn/aarch64//lib/libstack-transform.a(util.o)
                0x00000000004295da                src_util__str_2_unknown_un
 .rodata.src_arch_aarch64_properties_c_callee_saved_aarch64
                0x00000000004295fc       0x28 0x2 /usr/local/popcorn/aarch64//lib/libstack-transform.a(properties.o)
 .rodata.src_arch_aarch64_properties_c_callee_saved_size_aarch64
                0x0000000000429624       0x28 0x2 /usr/local/popcorn/aarch64//lib/libstack-transform.a(properties.o)
 .rodata.properties_aarch64
                0x0000000000429650       0x48 0x8 /usr/local/popcorn/aarch64//lib/libstack-transform.a(properties.o)
                0x0000000000429650                properties_aarch64
 .rodata.src_arch_aarch64_properties__str__src_arch_
                0x0000000000429698       0x5a 0x1 /usr/local/popcorn/aarch64//lib/libstack-transform.a(properties.o)
                0x0000000000429698                src_arch_aarch64_properties__str__src_arch_
 .rodata.src_arch_aarch64_properties__str_1__src_arch_
                0x00000000004296f2       0x51 0x1 /usr/local/popcorn/aarch64//lib/libstack-transform.a(properties.o)
                0x00000000004296f2                src_arch_aarch64_properties__str_1__src_arch_
 .rodata.reg_aarch64
                0x0000000000429748      0x300 0x8 /usr/local/popcorn/aarch64//lib/libstack-transform.a(regs.o)
 .rodata.regs_aarch64
                0x0000000000429a48       0xa0 0x8 /usr/local/popcorn/aarch64//lib/libstack-transform.a(regs.o)
                0x0000000000429a48                regs_aarch64
 .rodata.src_arch_aarch64_regs__str__src_arch_
                0x0000000000429ae8       0x4c 0x1 /usr/local/popcorn/aarch64//lib/libstack-transform.a(regs.o)
                0x0000000000429ae8                src_arch_aarch64_regs__str__src_arch_
 .rodata.src_arch_aarch64_regs__str_1__src_arch_
                0x0000000000429b34       0x4c 0x1 /usr/local/popcorn/aarch64//lib/libstack-transform.a(regs.o)
                0x0000000000429b34                src_arch_aarch64_regs__str_1__src_arch_
 .rodata.src_arch_x86_64_properties_c_callee_saved_x86_64
                0x0000000000429b80        0xe 0x2 /usr/local/popcorn/aarch64//lib/libstack-transform.a(properties.o)
 .rodata.src_arch_x86_64_properties_c_callee_saved_size_x86_64
                0x0000000000429b8e        0xe 0x2 /usr/local/popcorn/aarch64//lib/libstack-transform.a(properties.o)
 .rodata.properties_x86_64
                0x0000000000429ba0       0x48 0x8 /usr/local/popcorn/aarch64//lib/libstack-transform.a(properties.o)
                0x0000000000429ba0                properties_x86_64
 .rodata.src_arch_x86_64_properties__str__src_arch_
                0x0000000000429be8       0x4f 0x1 /usr/local/popcorn/aarch64//lib/libstack-transform.a(properties.o)
                0x0000000000429be8                src_arch_x86_64_properties__str__src_arch_
 .rodata.reg_x86_64
                0x0000000000429c38      0x108 0x8 /usr/local/popcorn/aarch64//lib/libstack-transform.a(regs.o)
 .rodata.regs_x86_64
                0x0000000000429d40       0xa0 0x8 /usr/local/popcorn/aarch64//lib/libstack-transform.a(regs.o)
                0x0000000000429d40                regs_x86_64
 .rodata.src_arch_x86_64_regs__str__src_arch_
                0x0000000000429de0       0x4b 0x1 /usr/local/popcorn/aarch64//lib/libstack-transform.a(regs.o)
                0x0000000000429de0                src_arch_x86_64_regs__str__src_arch_
 .rodata.src_arch_x86_64_regs__str_1__src_arch_
                0x0000000000429e2b       0x4b 0x1 /usr/local/popcorn/aarch64//lib/libstack-transform.a(regs.o)
                0x0000000000429e2b                src_arch_x86_64_regs__str_1__src_arch_
 .rodata.src_arch_x86_64_regs__str_2__src_arch_
                0x0000000000429e76       0x4a 0x1 /usr/local/popcorn/aarch64//lib/libstack-transform.a(regs.o)
                0x0000000000429e76                src_arch_x86_64_regs__str_2__src_arch_
 .rodata.src_arch_x86_64_regs__str_3__src_arch_
                0x0000000000429ec0       0x4a 0x1 /usr/local/popcorn/aarch64//lib/libstack-transform.a(regs.o)
                0x0000000000429ec0                src_arch_x86_64_regs__str_3__src_arch_
 .rodata.put_val_arch
                0x0000000000429f10       0x50 0x8 /usr/local/popcorn/aarch64//lib/libstack-transform.a(data.o)
 .rodata.points_to_stack
                0x0000000000429f60       0x28 0x8 /usr/local/popcorn/aarch64//lib/libstack-transform.a(data.o)
 .rodata.src_data__str__src_data_
                0x0000000000429f88       0x38 0x1 /usr/local/popcorn/aarch64//lib/libstack-transform.a(data.o)
                0x0000000000429f88                src_data__str__src_data_
 .rodata.src_data__str_1__src_data_
                0x0000000000429fc0       0x50 0x1 /usr/local/popcorn/aarch64//lib/libstack-transform.a(data.o)
                0x0000000000429fc0                src_data__str_1__src_data_
 .rodata.src_data__str_2__src_data_
                0x000000000042a010       0x3d 0x1 /usr/local/popcorn/aarch64//lib/libstack-transform.a(data.o)
                0x000000000042a010                src_data__str_2__src_data_
 .rodata.src_data__str_3__src_data_
                0x000000000042a04d       0x30 0x1 /usr/local/popcorn/aarch64//lib/libstack-transform.a(data.o)
                0x000000000042a04d                src_data__str_3__src_data_
 .rodata.src_data__str_4__src_data_
                0x000000000042a07d       0x49 0x1 /usr/local/popcorn/aarch64//lib/libstack-transform.a(data.o)
                0x000000000042a07d                src_data__str_4__src_data_
 .rodata.src_data__str_5__src_data_
                0x000000000042a0c6       0x3f 0x1 /usr/local/popcorn/aarch64//lib/libstack-transform.a(data.o)
                0x000000000042a0c6                src_data__str_5__src_data_
 .rodata.src_data__str_6__src_data_
                0x000000000042a105       0x3d 0x1 /usr/local/popcorn/aarch64//lib/libstack-transform.a(data.o)
                0x000000000042a105                src_data__str_6__src_data_
 .rodata.src_data__str_7__src_data_
                0x000000000042a142       0x3f 0x1 /usr/local/popcorn/aarch64//lib/libstack-transform.a(data.o)
                0x000000000042a142                src_data__str_7__src_data_
 .rodata.src_data__str_8__src_data_
                0x000000000042a181       0x4b 0x1 /usr/local/popcorn/aarch64//lib/libstack-transform.a(data.o)
                0x000000000042a181                src_data__str_8__src_data_
 .rodata.src_data__str_9__src_data_
                0x000000000042a1cc       0x37 0x1 /usr/local/popcorn/aarch64//lib/libstack-transform.a(data.o)
                0x000000000042a1cc                src_data__str_9__src_data_
 ** merge strings
                0x000000000042a208       0x35
 .rodata.fmag   0x000000000042a240       0x10 0x10 /usr/local/popcorn/aarch64//lib/libelf.a(begin.o)
 .rodata.xlate32_11
                0x000000000042a250      0x220 0x10 /usr/local/popcorn/aarch64//lib/libelf.a(32.xlatetof.o)
 .rodata._elf_scn_init
                0x000000000042a470       0xa0 0x8 /usr/local/popcorn/aarch64//lib/libelf.a(cook.o)
                0x000000000042a470                _elf_scn_init
 .rodata._elf_data_init
                0x000000000042a510       0x58 0x8 /usr/local/popcorn/aarch64//lib/libelf.a(cook.o)
                0x000000000042a510                _elf_data_init
 .rodata.xlate64_11
                0x000000000042a570      0x220 0x10 /usr/local/popcorn/aarch64//lib/libelf.a(64.xlatetof.o)
 .rodata._elf_fmsize
                0x000000000042a790      0x220 0x10 /usr/local/popcorn/aarch64//lib/libelf.a(32.fsize.o)
                0x000000000042a790                _elf_fmsize
 .rodata.src_exit_assert__str_Assertion_
                0x000000000042a9b0       0x23 0x1 /usr/local/popcorn/aarch64//lib/libc.a(assert.o)
                0x000000000042a9b0                src_exit_assert__str_Assertion_
 .rodata.stderr
                0x000000000042a9d8        0x8 0x8 /usr/local/popcorn/aarch64//lib/libc.a(stderr.o)
                0x000000000042a9d8                stderr
 .rodata.src_stdio_vsnprintf_vsnprintf_f_
                0x000000000042a9e0       0xe0 0x8 /usr/local/popcorn/aarch64//lib/libc.a(vsnprintf.o)
                0x000000000042a9e0                src_stdio_vsnprintf_vsnprintf_f_
 .rodata.src_internal_intscan_c_table
                0x000000000042aac0      0x101 0x1 /usr/local/popcorn/aarch64//lib/libc.a(intscan.o)
 .rodata.src_internal_intscan__str__________
                0x000000000042abc1        0x9 0x1 /usr/local/popcorn/aarch64//lib/libc.a(intscan.o)
                0x000000000042abc1                src_internal_intscan__str__________
 .rodata.vfscanf
                0x000000000042abd0      0x338 0x8 /usr/local/popcorn/aarch64//lib/libc.a(vfscanf.o)
 ** merge constants
                0x000000000042af08       0x18
 ** merge constants
                0x000000000042af20        0x4
 .rodata.src_internal_floatscan__str_infinity_
                0x000000000042af24        0x9 0x1 /usr/local/popcorn/aarch64//lib/libc.a(floatscan.o)
                0x000000000042af24                src_internal_floatscan__str_infinity_
 .rodata.src_internal_floatscan_c_decfloat_p10s
                0x000000000042af30       0x20 0x4 /usr/local/popcorn/aarch64//lib/libc.a(floatscan.o)
 .rodata.src_internal_floatscan_switch_table_
                0x000000000042af50        0xc 0x4 /usr/local/popcorn/aarch64//lib/libc.a(floatscan.o)
                0x000000000042af50                src_internal_floatscan_switch_table_
 .rodata.src_internal_floatscan_switch_table_2_
                0x000000000042af5c        0xc 0x4 /usr/local/popcorn/aarch64//lib/libc.a(floatscan.o)
                0x000000000042af5c                src_internal_floatscan_switch_table_2_
 .rodata.src_signal_block_c_all_mask
                0x000000000042af68        0x8 0x8 /usr/local/popcorn/aarch64//lib/libc.a(block.o)
 .rodata.src_signal_block_c_app_mask
                0x000000000042af70        0x8 0x8 /usr/local/popcorn/aarch64//lib/libc.a(block.o)
 .rodata.__fsmu8
                0x000000000042af78       0xcc 0x4 /usr/local/popcorn/aarch64//lib/libc.a(internal.o)
                0x000000000042af78                __fsmu8
 .rodata        0x000000000042b044       0x10 0x4 /usr/lib/gcc/aarch64-linux-gnu/4.9/libgcc.a(divtf3.o)
 .rodata        0x000000000042b054       0x10 0x4 /usr/lib/gcc/aarch64-linux-gnu/4.9/libgcc.a(multf3.o)

.llvm_stackmaps
                0x000000000042b068      0x668
 .llvm_stackmaps
                0x000000000042b068      0x290 0x8 /tmp/conftest-dcbec8.o
 .llvm_stackmaps
                0x000000000042b2f8       0x48 0x8 /usr/local/popcorn/aarch64//lib/libc.a(__libc_start_main.o)
 .llvm_stackmaps
                0x000000000042b340      0x390 0x8 /usr/local/popcorn/aarch64//lib/libmigrate.a(migrate.o)

.eh_frame       0x000000000042b6d0       0x60
 ** eh_frame    0x000000000042b6d0       0x60

.eh_frame_hdr   0x000000000042b730       0x1c
 ** eh_frame_hdr
                0x000000000042b730       0x1c

.data.rel.ro    0x000000000043ffc0       0x30
 .data.rel.ro   0x000000000043ffc0       0x10 0x8 /usr/local/popcorn/aarch64//lib/crt1.o
 .data.rel.ro   0x000000000043ffd0       0x10 0x8 /usr/local/popcorn/aarch64//lib/libc.a(__libc_start_main.o)
 .data.rel.ro   0x000000000043ffe0       0x10 0x8 /usr/local/popcorn/aarch64//lib/libc.a(exit.o)

.init_array     0x000000000043fff0       0x10
 .init_array    0x000000000043fff0        0x8 0x8 /usr/local/popcorn/aarch64//lib/libmigrate.a(migrate.o)
 .init_array    0x000000000043fff8        0x8 0x8 /usr/local/popcorn/aarch64//lib/libstack-transform.a(init.o)

.data           0x0000000000440000      0x178
 .data          0x0000000000440000        0x0 0x4 /tmp/conftest-dcbec8.o
 .data          0x0000000000440000        0x0 0x4 /usr/local/popcorn/aarch64//lib/crt1.o
 .data          0x0000000000440000        0x0 0x4 /usr/local/popcorn/aarch64//lib/libc.a(__libc_start_main.o)
 .data          0x0000000000440000        0x0 0x4 /usr/local/popcorn/aarch64//lib/libc.a(exit.o)
 .data          0x0000000000440000        0x0 0x4 /usr/local/popcorn/aarch64//lib/libc.a(libc.o)
 .data          0x0000000000440000        0x0 0x4 /usr/local/popcorn/aarch64//lib/libc.a(fclose.o)
 .data          0x0000000000440000        0x0 0x4 /usr/local/popcorn/aarch64//lib/libc.a(ferror.o)
 .data          0x0000000000440000        0x0 0x4 /usr/local/popcorn/aarch64//lib/libc.a(fflush.o)
 .data          0x0000000000440000        0x0 0x4 /usr/local/popcorn/aarch64//lib/libc.a(fopen.o)
 .data          0x0000000000440000        0x0 0x4 /usr/local/popcorn/aarch64//lib/libc.a(fprintf.o)
 .data          0x0000000000440000        0x0 0x4 /usr/local/popcorn/aarch64//lib/libc.a(vfprintf.o)
 .data          0x0000000000440000        0x0 0x4 /usr/local/popcorn/aarch64//lib/libc.a(memchr.o)
 .data          0x0000000000440000        0x0 0x4 /usr/local/popcorn/aarch64//lib/libc.a(memset.o)
 .data          0x0000000000440000        0x0 0x4 /usr/local/popcorn/aarch64//lib/libc.a(strchr.o)
 .data          0x0000000000440000        0x0 0x4 /usr/local/popcorn/aarch64//lib/libc.a(strchrnul.o)
 .data          0x0000000000440000        0x0 0x4 /usr/local/popcorn/aarch64//lib/libc.a(strlen.o)
 .data          0x0000000000440000        0x0 0x4 /usr/local/popcorn/aarch64//lib/libc.a(__lock.o)
 .data          0x0000000000440000        0x0 0x4 /usr/local/popcorn/aarch64//lib/libc.a(__syscall_cp.o)
 .data          0x0000000000440000        0x0 0x4 /usr/local/popcorn/aarch64//lib/libc.a(__wait.o)
 .data          0x0000000000440000        0x0 0x4 /usr/local/popcorn/aarch64//lib/libc.a(__environ.o)
 .data          0x0000000000440000        0x0 0x4 /usr/local/popcorn/aarch64//lib/libc.a(__init_tls.o)
 .data          0x0000000000440000        0x0 0x4 /usr/local/popcorn/aarch64//lib/libc.a(__errno_location.o)
 .data          0x0000000000440000        0x0 0x4 /usr/local/popcorn/aarch64//lib/libc.a(strerror.o)
 .data          0x0000000000440000        0x0 0x4 /usr/local/popcorn/aarch64//lib/libc.a(_Exit.o)
 .data          0x0000000000440000        0x0 0x4 /usr/local/popcorn/aarch64//lib/libc.a(syscall.o)
 .data          0x0000000000440000        0x0 0x4 /usr/local/popcorn/aarch64//lib/libc.a(syscall_ret.o)
 .data          0x0000000000440000        0x0 0x4 /usr/local/popcorn/aarch64//lib/libc.a(__lctrans.o)
 .data          0x0000000000440000        0x0 0x4 /usr/local/popcorn/aarch64//lib/libc.a(malloc.o)
 .data          0x0000000000440000        0x0 0x4 /usr/local/popcorn/aarch64//lib/libc.a(__fpclassifyl.o)
 .data          0x0000000000440000        0x0 0x4 /usr/local/popcorn/aarch64//lib/libc.a(__signbitl.o)
 .data          0x0000000000440000        0x0 0x4 /usr/local/popcorn/aarch64//lib/libc.a(frexpl.o)
 .data          0x0000000000440000        0x0 0x4 /usr/local/popcorn/aarch64//lib/libc.a(madvise.o)
 .data          0x0000000000440000        0x0 0x4 /usr/local/popcorn/aarch64//lib/libc.a(mmap.o)
 .data          0x0000000000440000        0x0 0x4 /usr/local/popcorn/aarch64//lib/libc.a(mremap.o)
 .data          0x0000000000440000        0x0 0x4 /usr/local/popcorn/aarch64//lib/libc.a(munmap.o)
 .data          0x0000000000440000        0x0 0x4 /usr/local/popcorn/aarch64//lib/libc.a(wctomb.o)
 .data          0x0000000000440000        0x0 0x4 /usr/local/popcorn/aarch64//lib/libc.a(sched_yield.o)
 .data          0x0000000000440000        0x0 0x4 /usr/local/popcorn/aarch64//lib/libc.a(__fdopen.o)
 .data          0x0000000000440000        0x0 0x4 /usr/local/popcorn/aarch64//lib/libc.a(__fmodeflags.o)
 .data          0x0000000000440000        0x0 0x4 /usr/local/popcorn/aarch64//lib/libc.a(__lockfile.o)
 .data          0x0000000000440000        0x0 0x4 /usr/local/popcorn/aarch64//lib/libc.a(__stdio_close.o)
 .data          0x0000000000440000        0x0 0x4 /usr/local/popcorn/aarch64//lib/libc.a(__stdio_read.o)
 .data          0x0000000000440000        0x0 0x4 /usr/local/popcorn/aarch64//lib/libc.a(__stdio_seek.o)
 .data          0x0000000000440000        0x0 0x4 /usr/local/popcorn/aarch64//lib/libc.a(__stdio_write.o)
 .data          0x0000000000440000        0x0 0x4 /usr/local/popcorn/aarch64//lib/libc.a(fwrite.o)
 .data          0x0000000000440000        0x0 0x4 /usr/local/popcorn/aarch64//lib/libc.a(memcpy.o)
 .data          0x0000000000440000        0x0 0x4 /usr/local/popcorn/aarch64//lib/libc.a(__set_thread_area.o)
 .data          0x0000000000440000        0x0 0x4 /usr/local/popcorn/aarch64//lib/libc.a(pthread_cleanup_push.o)
 .data          0x0000000000440000        0x0 0x4 /usr/local/popcorn/aarch64//lib/libc.a(__brk.o)
 .data          0x0000000000440000        0x0 0x4 /usr/local/popcorn/aarch64//lib/libc.a(wcrtomb.o)
 .data          0x0000000000440000        0x0 0x4 /usr/local/popcorn/aarch64//lib/libc.a(__towrite.o)
 .data          0x0000000000440000        0x0 0x4 /usr/local/popcorn/aarch64//lib/libc.a(__stdio_exit.o)
 .data          0x0000000000440000        0x0 0x4 /usr/local/popcorn/aarch64//lib/libmigrate.a(migrate.o)
 .data.origin_nid
                0x0000000000440000        0x4 0x4 /usr/local/popcorn/aarch64//lib/libmigrate.a(migrate.o)
                0x0000000000440000                origin_nid
 .data.archs    0x0000000000440004       0x80 0x4 /usr/local/popcorn/aarch64//lib/libmigrate.a(migrate.o)
                0x0000000000440004                archs
 .data          0x0000000000440084        0x0 0x4 /usr/local/popcorn/aarch64//lib/libstack-transform.a(userspace.o)
 .data          0x0000000000440084        0x0 0x4 /usr/local/popcorn/aarch64//lib/libstack-transform.a(init.o)
 .data          0x0000000000440084        0x0 0x4 /usr/local/popcorn/aarch64//lib/libstack-transform.a(rewrite.o)
 .data          0x0000000000440084        0x0 0x4 /usr/local/popcorn/aarch64//lib/libstack-transform.a(unwind.o)
 .data          0x0000000000440084        0x0 0x4 /usr/local/popcorn/aarch64//lib/libstack-transform.a(util.o)
 .data          0x0000000000440084        0x0 0x4 /usr/local/popcorn/aarch64//lib/libstack-transform.a(properties.o)
 .data          0x0000000000440084        0x0 0x4 /usr/local/popcorn/aarch64//lib/libstack-transform.a(regs.o)
 .data          0x0000000000440084        0x0 0x4 /usr/local/popcorn/aarch64//lib/libstack-transform.a(properties.o)
 .data          0x0000000000440084        0x0 0x4 /usr/local/popcorn/aarch64//lib/libstack-transform.a(regs.o)
 .data          0x0000000000440084        0x0 0x4 /usr/local/popcorn/aarch64//lib/libstack-transform.a(data.o)
 .data          0x0000000000440084        0x0 0x1 /usr/local/popcorn/aarch64//lib/libelf.a(begin.o)
 .data          0x0000000000440084        0x0 0x1 /usr/local/popcorn/aarch64//lib/libelf.a(end.o)
 .data          0x0000000000440084        0x0 0x1 /usr/local/popcorn/aarch64//lib/libelf.a(getdata.o)
 .data          0x0000000000440084        0x0 0x1 /usr/local/popcorn/aarch64//lib/libelf.a(getident.o)
 .data          0x0000000000440084        0x0 0x1 /usr/local/popcorn/aarch64//lib/libelf.a(nextscn.o)
 .data          0x0000000000440084        0x0 0x1 /usr/local/popcorn/aarch64//lib/libelf.a(strptr.o)
 .data          0x0000000000440084        0x0 0x1 /usr/local/popcorn/aarch64//lib/libelf.a(version.o)
 .data          0x0000000000440084        0x0 0x1 /usr/local/popcorn/aarch64//lib/libelf.a(32.getehdr.o)
 .data          0x0000000000440084        0x0 0x1 /usr/local/popcorn/aarch64//lib/libelf.a(32.xlatetof.o)
 .data          0x0000000000440084        0x0 0x1 /usr/local/popcorn/aarch64//lib/libelf.a(cook.o)
 .data          0x0000000000440084        0x0 0x1 /usr/local/popcorn/aarch64//lib/libelf.a(data.o)
 .data._elf_sanity_checks
                0x0000000000440084        0x4 0x4 /usr/local/popcorn/aarch64//lib/libelf.a(data.o)
                0x0000000000440084                _elf_sanity_checks
 .data          0x0000000000440088        0x0 0x1 /usr/local/popcorn/aarch64//lib/libelf.a(input.o)
 .data          0x0000000000440088        0x0 0x1 /usr/local/popcorn/aarch64//lib/libelf.a(x.elfext.o)
 .data          0x0000000000440088        0x0 0x1 /usr/local/popcorn/aarch64//lib/libelf.a(64.xlatetof.o)
 .data          0x0000000000440088        0x0 0x1 /usr/local/popcorn/aarch64//lib/libelf.a(gelfshdr.o)
 .data          0x0000000000440088        0x0 0x1 /usr/local/popcorn/aarch64//lib/libelf.a(swap64.o)
 .data          0x0000000000440088        0x0 0x1 /usr/local/popcorn/aarch64//lib/libelf.a(verdef_32_tof.o)
 .data          0x0000000000440088        0x0 0x1 /usr/local/popcorn/aarch64//lib/libelf.a(verdef_32_tom.o)
 .data          0x0000000000440088        0x0 0x1 /usr/local/popcorn/aarch64//lib/libelf.a(verdef_64_tof.o)
 .data          0x0000000000440088        0x0 0x1 /usr/local/popcorn/aarch64//lib/libelf.a(verdef_64_tom.o)
 .data          0x0000000000440088        0x0 0x1 /usr/local/popcorn/aarch64//lib/libelf.a(getscn.o)
 .data          0x0000000000440088        0x0 0x1 /usr/local/popcorn/aarch64//lib/libelf.a(newscn.o)
 .data          0x0000000000440088        0x0 0x1 /usr/local/popcorn/aarch64//lib/libelf.a(32.fsize.o)
 .data          0x0000000000440088        0x0 0x4 /usr/local/popcorn/aarch64//lib/libc.a(getenv.o)
 .data          0x0000000000440088        0x0 0x4 /usr/local/popcorn/aarch64//lib/libc.a(assert.o)
 .data          0x0000000000440088        0x0 0x4 /usr/local/popcorn/aarch64//lib/libc.a(open.o)
 .data          0x0000000000440088        0x0 0x4 /usr/local/popcorn/aarch64//lib/libc.a(calloc.o)
 .data          0x0000000000440088        0x0 0x4 /usr/local/popcorn/aarch64//lib/libc.a(getrlimit.o)
 .data          0x0000000000440088        0x0 0x4 /usr/local/popcorn/aarch64//lib/libc.a(syscall.o)
 .data          0x0000000000440088        0x0 0x4 /usr/local/popcorn/aarch64//lib/libc.a(getline.o)
 .data          0x0000000000440088        0x0 0x4 /usr/local/popcorn/aarch64//lib/libc.a(snprintf.o)
 .data          0x0000000000440088        0x0 0x4 /usr/local/popcorn/aarch64//lib/libc.a(sscanf.o)
 .data          0x0000000000440088        0x0 0x4 /usr/local/popcorn/aarch64//lib/libc.a(stderr.o)
 .data.src_stdio_stderr_c_f
                0x0000000000440088       0xe0 0x8 /usr/local/popcorn/aarch64//lib/libc.a(stderr.o)
 .data.__stderr_used
                0x0000000000440168        0x8 0x8 /usr/local/popcorn/aarch64//lib/libc.a(stderr.o)
                0x0000000000440168                __stderr_used
 .data          0x0000000000440170        0x0 0x4 /usr/local/popcorn/aarch64//lib/libc.a(vsnprintf.o)
 .data          0x0000000000440170        0x0 0x4 /usr/local/popcorn/aarch64//lib/libc.a(vsscanf.o)
 .data          0x0000000000440170        0x0 0x4 /usr/local/popcorn/aarch64//lib/libc.a(strtol.o)
 .data          0x0000000000440170        0x0 0x4 /usr/local/popcorn/aarch64//lib/libc.a(memcmp.o)
 .data          0x0000000000440170        0x0 0x4 /usr/local/popcorn/aarch64//lib/libc.a(strcmp.o)
 .data          0x0000000000440170        0x0 0x4 /usr/local/popcorn/aarch64//lib/libc.a(strncmp.o)
 .data          0x0000000000440170        0x0 0x4 /usr/local/popcorn/aarch64//lib/libc.a(pthread_attr_get.o)
 .data          0x0000000000440170        0x0 0x4 /usr/local/popcorn/aarch64//lib/libc.a(pthread_getattr_np.o)
 .data          0x0000000000440170        0x0 0x4 /usr/local/popcorn/aarch64//lib/libc.a(pthread_getspecific.o)
 .data          0x0000000000440170        0x0 0x4 /usr/local/popcorn/aarch64//lib/libc.a(pthread_key_create.o)
 .data.__pthread_tsd_size
                0x0000000000440170        0x8 0x8 /usr/local/popcorn/aarch64//lib/libc.a(pthread_key_create.o)
                0x0000000000440170                __pthread_tsd_size
 .data          0x0000000000440178        0x0 0x4 /usr/local/popcorn/aarch64//lib/libc.a(pthread_migrate.o)
 .data          0x0000000000440178        0x0 0x4 /usr/local/popcorn/aarch64//lib/libc.a(pthread_self.o)
 .data          0x0000000000440178        0x0 0x4 /usr/local/popcorn/aarch64//lib/libc.a(pthread_setspecific.o)
 .data          0x0000000000440178        0x0 0x4 /usr/local/popcorn/aarch64//lib/libc.a(close.o)
 .data          0x0000000000440178        0x0 0x4 /usr/local/popcorn/aarch64//lib/libc.a(getpid.o)
 .data          0x0000000000440178        0x0 0x4 /usr/local/popcorn/aarch64//lib/libc.a(lseek.o)
 .data          0x0000000000440178        0x0 0x4 /usr/local/popcorn/aarch64//lib/libc.a(read.o)
 .data          0x0000000000440178        0x0 0x4 /usr/local/popcorn/aarch64//lib/libc.a(abort.o)
 .data          0x0000000000440178        0x0 0x4 /usr/local/popcorn/aarch64//lib/libc.a(intscan.o)
 .data          0x0000000000440178        0x0 0x4 /usr/local/popcorn/aarch64//lib/libc.a(shgetc.o)
 .data          0x0000000000440178        0x0 0x4 /usr/local/popcorn/aarch64//lib/libc.a(raise.o)
 .data          0x0000000000440178        0x0 0x4 /usr/local/popcorn/aarch64//lib/libc.a(__string_read.o)
 .data          0x0000000000440178        0x0 0x4 /usr/local/popcorn/aarch64//lib/libc.a(__uflow.o)
 .data          0x0000000000440178        0x0 0x4 /usr/local/popcorn/aarch64//lib/libc.a(getdelim.o)
 .data          0x0000000000440178        0x0 0x4 /usr/local/popcorn/aarch64//lib/libc.a(vfscanf.o)
 .data          0x0000000000440178        0x0 0x4 /usr/local/popcorn/aarch64//lib/libc.a(floatscan.o)
 .data          0x0000000000440178        0x0 0x4 /usr/local/popcorn/aarch64//lib/libc.a(copysignl.o)
 .data          0x0000000000440178        0x0 0x4 /usr/local/popcorn/aarch64//lib/libc.a(fabs.o)
 .data          0x0000000000440178        0x0 0x4 /usr/local/popcorn/aarch64//lib/libc.a(fmodl.o)
 .data          0x0000000000440178        0x0 0x4 /usr/local/popcorn/aarch64//lib/libc.a(scalbn.o)
 .data          0x0000000000440178        0x0 0x4 /usr/local/popcorn/aarch64//lib/libc.a(scalbnl.o)
 .data          0x0000000000440178        0x0 0x4 /usr/local/popcorn/aarch64//lib/libc.a(mbrtowc.o)
 .data          0x0000000000440178        0x0 0x4 /usr/local/popcorn/aarch64//lib/libc.a(mbsinit.o)
 .data          0x0000000000440178        0x0 0x4 /usr/local/popcorn/aarch64//lib/libc.a(block.o)
 .data          0x0000000000440178        0x0 0x4 /usr/local/popcorn/aarch64//lib/libc.a(__toread.o)
 .data          0x0000000000440178        0x0 0x4 /usr/local/popcorn/aarch64//lib/libc.a(internal.o)
 .data          0x0000000000440178        0x0 0x1 /usr/lib/gcc/aarch64-linux-gnu/4.9/libgcc.a(addtf3.o)
 .data          0x0000000000440178        0x0 0x1 /usr/lib/gcc/aarch64-linux-gnu/4.9/libgcc.a(divtf3.o)
 .data          0x0000000000440178        0x0 0x1 /usr/lib/gcc/aarch64-linux-gnu/4.9/libgcc.a(eqtf2.o)
 .data          0x0000000000440178        0x0 0x1 /usr/lib/gcc/aarch64-linux-gnu/4.9/libgcc.a(getf2.o)
 .data          0x0000000000440178        0x0 0x1 /usr/lib/gcc/aarch64-linux-gnu/4.9/libgcc.a(letf2.o)
 .data          0x0000000000440178        0x0 0x1 /usr/lib/gcc/aarch64-linux-gnu/4.9/libgcc.a(multf3.o)
 .data          0x0000000000440178        0x0 0x1 /usr/lib/gcc/aarch64-linux-gnu/4.9/libgcc.a(subtf3.o)
 .data          0x0000000000440178        0x0 0x1 /usr/lib/gcc/aarch64-linux-gnu/4.9/libgcc.a(unordtf2.o)
 .data          0x0000000000440178        0x0 0x1 /usr/lib/gcc/aarch64-linux-gnu/4.9/libgcc.a(fixtfsi.o)
 .data          0x0000000000440178        0x0 0x1 /usr/lib/gcc/aarch64-linux-gnu/4.9/libgcc.a(fixunstfsi.o)
 .data          0x0000000000440178        0x0 0x1 /usr/lib/gcc/aarch64-linux-gnu/4.9/libgcc.a(floatsitf.o)
 .data          0x0000000000440178        0x0 0x1 /usr/lib/gcc/aarch64-linux-gnu/4.9/libgcc.a(floatunsitf.o)
 .data          0x0000000000440178        0x0 0x1 /usr/lib/gcc/aarch64-linux-gnu/4.9/libgcc.a(extendsftf2.o)
 .data          0x0000000000440178        0x0 0x1 /usr/lib/gcc/aarch64-linux-gnu/4.9/libgcc.a(extenddftf2.o)
 .data          0x0000000000440178        0x0 0x1 /usr/lib/gcc/aarch64-linux-gnu/4.9/libgcc.a(trunctfsf2.o)
 .data          0x0000000000440178        0x0 0x1 /usr/lib/gcc/aarch64-linux-gnu/4.9/libgcc.a(trunctfdf2.o)
 .data          0x0000000000440178        0x0 0x1 /usr/lib/gcc/aarch64-linux-gnu/4.9/libgcc.a(sfp-exceptions.o)

.bss            0x0000000000440178     0x114c
 .bss           0x0000000000440178        0x0 0x4 /tmp/conftest-dcbec8.o
 .bss           0x0000000000440178        0x0 0x4 /usr/local/popcorn/aarch64//lib/crt1.o
 .bss           0x0000000000440178        0x0 0x4 /usr/local/popcorn/aarch64//lib/libc.a(__libc_start_main.o)
 .bss.__popcorn_stack_base
                0x0000000000440178        0x8 0x8 /usr/local/popcorn/aarch64//lib/libc.a(__libc_start_main.o)
                0x0000000000440178                __popcorn_stack_base
 .bss           0x0000000000440180        0x0 0x4 /usr/local/popcorn/aarch64//lib/libc.a(exit.o)
 .bss           0x0000000000440180        0x0 0x4 /usr/local/popcorn/aarch64//lib/libc.a(libc.o)
 .bss.__progname
                0x0000000000440180        0x8 0x8 /usr/local/popcorn/aarch64//lib/libc.a(libc.o)
                0x0000000000440180                __progname
                0x0000000000440180                program_invocation_short_name
 .bss.__progname_full
                0x0000000000440188        0x8 0x8 /usr/local/popcorn/aarch64//lib/libc.a(libc.o)
                0x0000000000440188                __progname_full
                0x0000000000440188                program_invocation_name
 .bss.__libc    0x0000000000440190       0x68 0x8 /usr/local/popcorn/aarch64//lib/libc.a(libc.o)
                0x0000000000440190                __libc
 .bss.__hwcap   0x00000000004401f8        0x8 0x8 /usr/local/popcorn/aarch64//lib/libc.a(libc.o)
                0x00000000004401f8                __hwcap
 .bss.__sysinfo
                0x0000000000440200        0x8 0x8 /usr/local/popcorn/aarch64//lib/libc.a(libc.o)
                0x0000000000440200                __sysinfo
 .bss           0x0000000000440208        0x0 0x4 /usr/local/popcorn/aarch64//lib/libc.a(fclose.o)
 .bss           0x0000000000440208        0x0 0x4 /usr/local/popcorn/aarch64//lib/libc.a(ferror.o)
 .bss           0x0000000000440208        0x0 0x4 /usr/local/popcorn/aarch64//lib/libc.a(fflush.o)
 .bss.src_stdio_fflush_c_dummy
                0x0000000000440208        0x8 0x8 /usr/local/popcorn/aarch64//lib/libc.a(fflush.o)
                0x0000000000440208                __stdout_used
 .bss           0x0000000000440210        0x0 0x4 /usr/local/popcorn/aarch64//lib/libc.a(fopen.o)
 .bss           0x0000000000440210        0x0 0x4 /usr/local/popcorn/aarch64//lib/libc.a(fprintf.o)
 .bss           0x0000000000440210        0x0 0x4 /usr/local/popcorn/aarch64//lib/libc.a(vfprintf.o)
 .bss           0x0000000000440210        0x0 0x4 /usr/local/popcorn/aarch64//lib/libc.a(memchr.o)
 .bss           0x0000000000440210        0x0 0x4 /usr/local/popcorn/aarch64//lib/libc.a(memset.o)
 .bss           0x0000000000440210        0x0 0x4 /usr/local/popcorn/aarch64//lib/libc.a(strchr.o)
 .bss           0x0000000000440210        0x0 0x4 /usr/local/popcorn/aarch64//lib/libc.a(strchrnul.o)
 .bss           0x0000000000440210        0x0 0x4 /usr/local/popcorn/aarch64//lib/libc.a(strlen.o)
 .bss           0x0000000000440210        0x0 0x4 /usr/local/popcorn/aarch64//lib/libc.a(__lock.o)
 .bss           0x0000000000440210        0x0 0x4 /usr/local/popcorn/aarch64//lib/libc.a(__syscall_cp.o)
 .bss           0x0000000000440210        0x0 0x4 /usr/local/popcorn/aarch64//lib/libc.a(__wait.o)
 .bss           0x0000000000440210        0x0 0x4 /usr/local/popcorn/aarch64//lib/libc.a(__environ.o)
 .bss.__environ
                0x0000000000440210        0x8 0x8 /usr/local/popcorn/aarch64//lib/libc.a(__environ.o)
                0x0000000000440210                ___environ
                0x0000000000440210                __environ
                0x0000000000440210                _environ
                0x0000000000440210                environ
 .bss           0x0000000000440218        0x0 0x4 /usr/local/popcorn/aarch64//lib/libc.a(__init_tls.o)
 .bss.__static_tls
                0x0000000000440218       0x20 0x8 /usr/local/popcorn/aarch64//lib/libc.a(__init_tls.o)
                0x0000000000440218                __static_tls
 .bss.src_env___init_tls_c_builtin_tls
                0x0000000000440238      0x1e0 0x8 /usr/local/popcorn/aarch64//lib/libc.a(__init_tls.o)
 .bss           0x0000000000440418        0x0 0x4 /usr/local/popcorn/aarch64//lib/libc.a(__errno_location.o)
 .bss           0x0000000000440418        0x0 0x4 /usr/local/popcorn/aarch64//lib/libc.a(strerror.o)
 .bss           0x0000000000440418        0x0 0x4 /usr/local/popcorn/aarch64//lib/libc.a(_Exit.o)
 .bss           0x0000000000440418        0x0 0x4 /usr/local/popcorn/aarch64//lib/libc.a(syscall.o)
 .bss           0x0000000000440418        0x0 0x4 /usr/local/popcorn/aarch64//lib/libc.a(syscall_ret.o)
 .bss           0x0000000000440418        0x0 0x4 /usr/local/popcorn/aarch64//lib/libc.a(__lctrans.o)
 .bss           0x0000000000440418        0x0 0x4 /usr/local/popcorn/aarch64//lib/libc.a(malloc.o)
 .bss.src_malloc_malloc_c_mal
                0x0000000000440418      0x630 0x8 /usr/local/popcorn/aarch64//lib/libc.a(malloc.o)
 .bss.src_malloc_malloc_c_expand_heap_init
                0x0000000000440a48        0x1 0x1 /usr/local/popcorn/aarch64//lib/libc.a(malloc.o)
 .bss           0x0000000000440a4c        0x0 0x4 /usr/local/popcorn/aarch64//lib/libc.a(__fpclassifyl.o)
 .bss           0x0000000000440a4c        0x0 0x4 /usr/local/popcorn/aarch64//lib/libc.a(__signbitl.o)
 .bss           0x0000000000440a4c        0x0 0x4 /usr/local/popcorn/aarch64//lib/libc.a(frexpl.o)
 .bss           0x0000000000440a4c        0x0 0x4 /usr/local/popcorn/aarch64//lib/libc.a(madvise.o)
 .bss           0x0000000000440a4c        0x0 0x4 /usr/local/popcorn/aarch64//lib/libc.a(mmap.o)
 .bss           0x0000000000440a4c        0x0 0x4 /usr/local/popcorn/aarch64//lib/libc.a(mremap.o)
 .bss           0x0000000000440a4c        0x0 0x4 /usr/local/popcorn/aarch64//lib/libc.a(munmap.o)
 .bss           0x0000000000440a4c        0x0 0x4 /usr/local/popcorn/aarch64//lib/libc.a(wctomb.o)
 .bss           0x0000000000440a4c        0x0 0x4 /usr/local/popcorn/aarch64//lib/libc.a(sched_yield.o)
 .bss           0x0000000000440a4c        0x0 0x4 /usr/local/popcorn/aarch64//lib/libc.a(__fdopen.o)
 .bss           0x0000000000440a4c        0x0 0x4 /usr/local/popcorn/aarch64//lib/libc.a(__fmodeflags.o)
 .bss           0x0000000000440a4c        0x0 0x4 /usr/local/popcorn/aarch64//lib/libc.a(__lockfile.o)
 .bss           0x0000000000440a4c        0x0 0x4 /usr/local/popcorn/aarch64//lib/libc.a(__stdio_close.o)
 .bss           0x0000000000440a4c        0x0 0x4 /usr/local/popcorn/aarch64//lib/libc.a(__stdio_read.o)
 .bss           0x0000000000440a4c        0x0 0x4 /usr/local/popcorn/aarch64//lib/libc.a(__stdio_seek.o)
 .bss           0x0000000000440a4c        0x0 0x4 /usr/local/popcorn/aarch64//lib/libc.a(__stdio_write.o)
 .bss           0x0000000000440a4c        0x0 0x4 /usr/local/popcorn/aarch64//lib/libc.a(fwrite.o)
 .bss           0x0000000000440a4c        0x0 0x4 /usr/local/popcorn/aarch64//lib/libc.a(memcpy.o)
 .bss           0x0000000000440a4c        0x0 0x4 /usr/local/popcorn/aarch64//lib/libc.a(__set_thread_area.o)
 .bss           0x0000000000440a4c        0x0 0x4 /usr/local/popcorn/aarch64//lib/libc.a(pthread_cleanup_push.o)
 .bss           0x0000000000440a4c        0x0 0x4 /usr/local/popcorn/aarch64//lib/libc.a(__brk.o)
 .bss           0x0000000000440a4c        0x0 0x4 /usr/local/popcorn/aarch64//lib/libc.a(wcrtomb.o)
 .bss           0x0000000000440a4c        0x0 0x4 /usr/local/popcorn/aarch64//lib/libc.a(__towrite.o)
 .bss           0x0000000000440a4c        0x0 0x4 /usr/local/popcorn/aarch64//lib/libc.a(__stdio_exit.o)
 .bss.src_stdio___stdio_exit_c_dummy_file
                0x0000000000440a50        0x8 0x8 /usr/local/popcorn/aarch64//lib/libc.a(__stdio_exit.o)
                0x0000000000440a50                __stdin_used
 .bss           0x0000000000440a58        0x0 0x4 /usr/local/popcorn/aarch64//lib/libmigrate.a(migrate.o)
 .bss.migrate_callback
                0x0000000000440a58        0x8 0x8 /usr/local/popcorn/aarch64//lib/libmigrate.a(migrate.o)
                0x0000000000440a58                migrate_callback
 .bss.migrate_callback_data
                0x0000000000440a60        0x8 0x8 /usr/local/popcorn/aarch64//lib/libmigrate.a(migrate.o)
                0x0000000000440a60                migrate_callback_data
 .bss           0x0000000000440a68        0x0 0x4 /usr/local/popcorn/aarch64//lib/libstack-transform.a(userspace.o)
 .bss.aarch64_fn
                0x0000000000440a68        0x8 0x8 /usr/local/popcorn/aarch64//lib/libstack-transform.a(userspace.o)
                0x0000000000440a68                aarch64_fn
 .bss.x86_64_fn
                0x0000000000440a70        0x8 0x8 /usr/local/popcorn/aarch64//lib/libstack-transform.a(userspace.o)
                0x0000000000440a70                x86_64_fn
 .bss.src_userspace_c_aarch64_handle
                0x0000000000440a78        0x8 0x8 /usr/local/popcorn/aarch64//lib/libstack-transform.a(userspace.o)
 .bss.src_userspace_c_alloc_aarch64_fn
                0x0000000000440a80        0x1 0x1 /usr/local/popcorn/aarch64//lib/libstack-transform.a(userspace.o)
 .bss.src_userspace_c_x86_64_handle
                0x0000000000440a88        0x8 0x8 /usr/local/popcorn/aarch64//lib/libstack-transform.a(userspace.o)
 .bss.src_userspace_c_alloc_x86_64_fn
                0x0000000000440a90        0x1 0x1 /usr/local/popcorn/aarch64//lib/libstack-transform.a(userspace.o)
 .bss.src_userspace_c_stack_bounds_key
                0x0000000000440a94        0x4 0x4 /usr/local/popcorn/aarch64//lib/libstack-transform.a(userspace.o)
 .bss           0x0000000000440a98        0x0 0x4 /usr/local/popcorn/aarch64//lib/libstack-transform.a(init.o)
 .bss           0x0000000000440a98        0x0 0x4 /usr/local/popcorn/aarch64//lib/libstack-transform.a(rewrite.o)
 .bss           0x0000000000440a98        0x0 0x4 /usr/local/popcorn/aarch64//lib/libstack-transform.a(unwind.o)
 .bss           0x0000000000440a98        0x0 0x4 /usr/local/popcorn/aarch64//lib/libstack-transform.a(util.o)
 .bss           0x0000000000440a98        0x0 0x4 /usr/local/popcorn/aarch64//lib/libstack-transform.a(properties.o)
 .bss           0x0000000000440a98        0x0 0x4 /usr/local/popcorn/aarch64//lib/libstack-transform.a(regs.o)
 .bss           0x0000000000440a98        0x0 0x4 /usr/local/popcorn/aarch64//lib/libstack-transform.a(properties.o)
 .bss           0x0000000000440a98        0x0 0x4 /usr/local/popcorn/aarch64//lib/libstack-transform.a(regs.o)
 .bss           0x0000000000440a98        0x0 0x4 /usr/local/popcorn/aarch64//lib/libstack-transform.a(data.o)
 .bss           0x0000000000440a98        0x0 0x1 /usr/local/popcorn/aarch64//lib/libelf.a(begin.o)
 .bss           0x0000000000440a98        0x0 0x1 /usr/local/popcorn/aarch64//lib/libelf.a(end.o)
 .bss           0x0000000000440a98        0x0 0x1 /usr/local/popcorn/aarch64//lib/libelf.a(getdata.o)
 .bss           0x0000000000440a98        0x0 0x1 /usr/local/popcorn/aarch64//lib/libelf.a(getident.o)
 .bss           0x0000000000440a98        0x0 0x1 /usr/local/popcorn/aarch64//lib/libelf.a(nextscn.o)
 .bss           0x0000000000440a98        0x0 0x1 /usr/local/popcorn/aarch64//lib/libelf.a(strptr.o)
 .bss           0x0000000000440a98        0x0 0x1 /usr/local/popcorn/aarch64//lib/libelf.a(version.o)
 .bss           0x0000000000440a98        0x0 0x1 /usr/local/popcorn/aarch64//lib/libelf.a(32.getehdr.o)
 .bss           0x0000000000440a98        0x0 0x1 /usr/local/popcorn/aarch64//lib/libelf.a(32.xlatetof.o)
 .bss           0x0000000000440a98        0x0 0x1 /usr/local/popcorn/aarch64//lib/libelf.a(cook.o)
 .bss           0x0000000000440a98        0x0 0x1 /usr/local/popcorn/aarch64//lib/libelf.a(data.o)
 .bss._elf_version
                0x0000000000440a98        0x4 0x4 /usr/local/popcorn/aarch64//lib/libelf.a(data.o)
                0x0000000000440a98                _elf_version
 .bss._elf_fill
                0x0000000000440a9c        0x4 0x4 /usr/local/popcorn/aarch64//lib/libelf.a(data.o)
                0x0000000000440a9c                _elf_fill
 .bss._elf_errno
                0x0000000000440aa0        0x4 0x4 /usr/local/popcorn/aarch64//lib/libelf.a(data.o)
                0x0000000000440aa0                _elf_errno
 .bss           0x0000000000440aa4        0x0 0x1 /usr/local/popcorn/aarch64//lib/libelf.a(input.o)
 .bss           0x0000000000440aa4        0x0 0x1 /usr/local/popcorn/aarch64//lib/libelf.a(x.elfext.o)
 .bss           0x0000000000440aa4        0x0 0x1 /usr/local/popcorn/aarch64//lib/libelf.a(64.xlatetof.o)
 .bss           0x0000000000440aa4        0x0 0x1 /usr/local/popcorn/aarch64//lib/libelf.a(gelfshdr.o)
 .bss           0x0000000000440aa4        0x0 0x1 /usr/local/popcorn/aarch64//lib/libelf.a(swap64.o)
 .bss           0x0000000000440aa4        0x0 0x1 /usr/local/popcorn/aarch64//lib/libelf.a(verdef_32_tof.o)
 .bss           0x0000000000440aa4        0x0 0x1 /usr/local/popcorn/aarch64//lib/libelf.a(verdef_32_tom.o)
 .bss           0x0000000000440aa4        0x0 0x1 /usr/local/popcorn/aarch64//lib/libelf.a(verdef_64_tof.o)
 .bss           0x0000000000440aa4        0x0 0x1 /usr/local/popcorn/aarch64//lib/libelf.a(verdef_64_tom.o)
 .bss           0x0000000000440aa4        0x0 0x1 /usr/local/popcorn/aarch64//lib/libelf.a(getscn.o)
 .bss           0x0000000000440aa4        0x0 0x1 /usr/local/popcorn/aarch64//lib/libelf.a(newscn.o)
 .bss           0x0000000000440aa4        0x0 0x1 /usr/local/popcorn/aarch64//lib/libelf.a(32.fsize.o)
 .bss           0x0000000000440aa4        0x0 0x4 /usr/local/popcorn/aarch64//lib/libc.a(getenv.o)
 .bss           0x0000000000440aa4        0x0 0x4 /usr/local/popcorn/aarch64//lib/libc.a(assert.o)
 .bss           0x0000000000440aa4        0x0 0x4 /usr/local/popcorn/aarch64//lib/libc.a(open.o)
 .bss           0x0000000000440aa4        0x0 0x4 /usr/local/popcorn/aarch64//lib/libc.a(calloc.o)
 .bss           0x0000000000440aa4        0x0 0x4 /usr/local/popcorn/aarch64//lib/libc.a(getrlimit.o)
 .bss           0x0000000000440aa4        0x0 0x4 /usr/local/popcorn/aarch64//lib/libc.a(syscall.o)
 .bss           0x0000000000440aa4        0x0 0x4 /usr/local/popcorn/aarch64//lib/libc.a(getline.o)
 .bss           0x0000000000440aa4        0x0 0x4 /usr/local/popcorn/aarch64//lib/libc.a(snprintf.o)
 .bss           0x0000000000440aa4        0x0 0x4 /usr/local/popcorn/aarch64//lib/libc.a(sscanf.o)
 .bss           0x0000000000440aa4        0x0 0x4 /usr/local/popcorn/aarch64//lib/libc.a(stderr.o)
 .bss.src_stdio_stderr_c_buf
                0x0000000000440aa4        0x8 0x1 /usr/local/popcorn/aarch64//lib/libc.a(stderr.o)
 .bss           0x0000000000440aac        0x0 0x4 /usr/local/popcorn/aarch64//lib/libc.a(vsnprintf.o)
 .bss           0x0000000000440aac        0x0 0x4 /usr/local/popcorn/aarch64//lib/libc.a(vsscanf.o)
 .bss           0x0000000000440aac        0x0 0x4 /usr/local/popcorn/aarch64//lib/libc.a(strtol.o)
 .bss           0x0000000000440aac        0x0 0x4 /usr/local/popcorn/aarch64//lib/libc.a(memcmp.o)
 .bss           0x0000000000440aac        0x0 0x4 /usr/local/popcorn/aarch64//lib/libc.a(strcmp.o)
 .bss           0x0000000000440aac        0x0 0x4 /usr/local/popcorn/aarch64//lib/libc.a(strncmp.o)
 .bss           0x0000000000440aac        0x0 0x4 /usr/local/popcorn/aarch64//lib/libc.a(pthread_attr_get.o)
 .bss           0x0000000000440aac        0x0 0x4 /usr/local/popcorn/aarch64//lib/libc.a(pthread_getattr_np.o)
 .bss           0x0000000000440aac        0x0 0x4 /usr/local/popcorn/aarch64//lib/libc.a(pthread_getspecific.o)
 .bss           0x0000000000440aac        0x0 0x4 /usr/local/popcorn/aarch64//lib/libc.a(pthread_key_create.o)
 .bss.__pthread_tsd_main
                0x0000000000440ab0      0x400 0x8 /usr/local/popcorn/aarch64//lib/libc.a(pthread_key_create.o)
                0x0000000000440ab0                __pthread_tsd_main
 .bss.src_thread_pthread_key_create_c_keys
                0x0000000000440eb0      0x400 0x8 /usr/local/popcorn/aarch64//lib/libc.a(pthread_key_create.o)
 .bss           0x00000000004412b0        0x0 0x4 /usr/local/popcorn/aarch64//lib/libc.a(pthread_migrate.o)
 .bss           0x00000000004412b0        0x0 0x4 /usr/local/popcorn/aarch64//lib/libc.a(pthread_self.o)
 .bss           0x00000000004412b0        0x0 0x4 /usr/local/popcorn/aarch64//lib/libc.a(pthread_setspecific.o)
 .bss           0x00000000004412b0        0x0 0x4 /usr/local/popcorn/aarch64//lib/libc.a(close.o)
 .bss           0x00000000004412b0        0x0 0x4 /usr/local/popcorn/aarch64//lib/libc.a(getpid.o)
 .bss           0x00000000004412b0        0x0 0x4 /usr/local/popcorn/aarch64//lib/libc.a(lseek.o)
 .bss           0x00000000004412b0        0x0 0x4 /usr/local/popcorn/aarch64//lib/libc.a(read.o)
 .bss           0x00000000004412b0        0x0 0x4 /usr/local/popcorn/aarch64//lib/libc.a(abort.o)
 .bss           0x00000000004412b0        0x0 0x4 /usr/local/popcorn/aarch64//lib/libc.a(intscan.o)
 .bss           0x00000000004412b0        0x0 0x4 /usr/local/popcorn/aarch64//lib/libc.a(shgetc.o)
 .bss           0x00000000004412b0        0x0 0x4 /usr/local/popcorn/aarch64//lib/libc.a(raise.o)
 .bss           0x00000000004412b0        0x0 0x4 /usr/local/popcorn/aarch64//lib/libc.a(__string_read.o)
 .bss           0x00000000004412b0        0x0 0x4 /usr/local/popcorn/aarch64//lib/libc.a(__uflow.o)
 .bss           0x00000000004412b0        0x0 0x4 /usr/local/popcorn/aarch64//lib/libc.a(getdelim.o)
 .bss           0x00000000004412b0        0x0 0x4 /usr/local/popcorn/aarch64//lib/libc.a(vfscanf.o)
 .bss           0x00000000004412b0        0x0 0x4 /usr/local/popcorn/aarch64//lib/libc.a(floatscan.o)
 .bss           0x00000000004412b0        0x0 0x4 /usr/local/popcorn/aarch64//lib/libc.a(copysignl.o)
 .bss           0x00000000004412b0        0x0 0x4 /usr/local/popcorn/aarch64//lib/libc.a(fabs.o)
 .bss           0x00000000004412b0        0x0 0x4 /usr/local/popcorn/aarch64//lib/libc.a(fmodl.o)
 .bss           0x00000000004412b0        0x0 0x4 /usr/local/popcorn/aarch64//lib/libc.a(scalbn.o)
 .bss           0x00000000004412b0        0x0 0x4 /usr/local/popcorn/aarch64//lib/libc.a(scalbnl.o)
 .bss           0x00000000004412b0        0x0 0x4 /usr/local/popcorn/aarch64//lib/libc.a(mbrtowc.o)
 .bss.src_multibyte_mbrtowc_c_mbrtowc_internal_state
                0x00000000004412b0        0x4 0x4 /usr/local/popcorn/aarch64//lib/libc.a(mbrtowc.o)
 .bss           0x00000000004412b4        0x0 0x4 /usr/local/popcorn/aarch64//lib/libc.a(mbsinit.o)
 .bss           0x00000000004412b4        0x0 0x4 /usr/local/popcorn/aarch64//lib/libc.a(block.o)
 .bss           0x00000000004412b4        0x0 0x4 /usr/local/popcorn/aarch64//lib/libc.a(__toread.o)
 .bss           0x00000000004412b4        0x0 0x4 /usr/local/popcorn/aarch64//lib/libc.a(internal.o)
 .bss           0x00000000004412b4        0x0 0x1 /usr/lib/gcc/aarch64-linux-gnu/4.9/libgcc.a(addtf3.o)
 .bss           0x00000000004412b4        0x0 0x1 /usr/lib/gcc/aarch64-linux-gnu/4.9/libgcc.a(divtf3.o)
 .bss           0x00000000004412b4        0x0 0x1 /usr/lib/gcc/aarch64-linux-gnu/4.9/libgcc.a(eqtf2.o)
 .bss           0x00000000004412b4        0x0 0x1 /usr/lib/gcc/aarch64-linux-gnu/4.9/libgcc.a(getf2.o)
 .bss           0x00000000004412b4        0x0 0x1 /usr/lib/gcc/aarch64-linux-gnu/4.9/libgcc.a(letf2.o)
 .bss           0x00000000004412b4        0x0 0x1 /usr/lib/gcc/aarch64-linux-gnu/4.9/libgcc.a(multf3.o)
 .bss           0x00000000004412b4        0x0 0x1 /usr/lib/gcc/aarch64-linux-gnu/4.9/libgcc.a(subtf3.o)
 .bss           0x00000000004412b4        0x0 0x1 /usr/lib/gcc/aarch64-linux-gnu/4.9/libgcc.a(unordtf2.o)
 .bss           0x00000000004412b4        0x0 0x1 /usr/lib/gcc/aarch64-linux-gnu/4.9/libgcc.a(fixtfsi.o)
 .bss           0x00000000004412b4        0x0 0x1 /usr/lib/gcc/aarch64-linux-gnu/4.9/libgcc.a(fixunstfsi.o)
 .bss           0x00000000004412b4        0x0 0x1 /usr/lib/gcc/aarch64-linux-gnu/4.9/libgcc.a(floatsitf.o)
 .bss           0x00000000004412b4        0x0 0x1 /usr/lib/gcc/aarch64-linux-gnu/4.9/libgcc.a(floatunsitf.o)
 .bss           0x00000000004412b4        0x0 0x1 /usr/lib/gcc/aarch64-linux-gnu/4.9/libgcc.a(extendsftf2.o)
 .bss           0x00000000004412b4        0x0 0x1 /usr/lib/gcc/aarch64-linux-gnu/4.9/libgcc.a(extenddftf2.o)
 .bss           0x00000000004412b4        0x0 0x1 /usr/lib/gcc/aarch64-linux-gnu/4.9/libgcc.a(trunctfsf2.o)
 .bss           0x00000000004412b4        0x0 0x1 /usr/lib/gcc/aarch64-linux-gnu/4.9/libgcc.a(trunctfdf2.o)
 .bss           0x00000000004412b4        0x0 0x1 /usr/lib/gcc/aarch64-linux-gnu/4.9/libgcc.a(sfp-exceptions.o)
 ** common      0x00000000004412b4       0x10

.comment        0x0000000000000000       0x70
 ** merge strings
                0x0000000000000000       0x70

.stack_transform.unwind
                0x0000000000000000       0xc0
 .stack_transform.unwind
                0x0000000000000000       0x20 0x4 /tmp/conftest-dcbec8.o
 .stack_transform.unwind
                0x0000000000000020       0x28 0x4 /usr/local/popcorn/aarch64//lib/libc.a(__libc_start_main.o)
 .stack_transform.unwind
                0x0000000000000048       0x78 0x4 /usr/local/popcorn/aarch64//lib/libmigrate.a(migrate.o)

.stack_transform.unwind_arange
                0x0000000000000000       0xc0
 .stack_transform.unwind_arange
                0x0000000000000000       0x20 0x8 /tmp/conftest-dcbec8.o
 .stack_transform.unwind_arange
                0x0000000000000020       0x10 0x8 /usr/local/popcorn/aarch64//lib/libc.a(__libc_start_main.o)
 .stack_transform.unwind_arange
                0x0000000000000030       0x90 0x8 /usr/local/popcorn/aarch64//lib/libmigrate.a(migrate.o)

.debug_str      0x0000000000000000     0x33e0
 ** merge strings
                0x0000000000000000     0x33e0

.debug_loc      0x0000000000000000    0x104d1
 .debug_loc     0x0000000000000000       0x36 0x1 /usr/local/popcorn/aarch64//lib/crt1.o
 .debug_loc     0x0000000000000036      0x1e9 0x1 /usr/local/popcorn/aarch64//lib/libc.a(__libc_start_main.o)
 .debug_loc     0x000000000000021f       0x59 0x1 /usr/local/popcorn/aarch64//lib/libc.a(exit.o)
 .debug_loc     0x0000000000000278        0x0 0x1 /usr/local/popcorn/aarch64//lib/libc.a(libc.o)
 .debug_loc     0x0000000000000278       0x8f 0x1 /usr/local/popcorn/aarch64//lib/libc.a(fclose.o)
 .debug_loc     0x0000000000000307       0x59 0x1 /usr/local/popcorn/aarch64//lib/libc.a(ferror.o)
 .debug_loc     0x0000000000000360       0xd8 0x1 /usr/local/popcorn/aarch64//lib/libc.a(fflush.o)
 .debug_loc     0x0000000000000438       0xd5 0x1 /usr/local/popcorn/aarch64//lib/libc.a(fopen.o)
 .debug_loc     0x000000000000050d       0x23 0x1 /usr/local/popcorn/aarch64//lib/libc.a(fprintf.o)
 .debug_loc     0x0000000000000530     0x4be6 0x1 /usr/local/popcorn/aarch64//lib/libc.a(vfprintf.o)
 .debug_loc     0x0000000000005116      0x16a 0x1 /usr/local/popcorn/aarch64//lib/libc.a(memchr.o)
 .debug_loc     0x0000000000005280      0x14a 0x1 /usr/local/popcorn/aarch64//lib/libc.a(memset.o)
 .debug_loc     0x00000000000053ca       0x7c 0x1 /usr/local/popcorn/aarch64//lib/libc.a(strchr.o)
 .debug_loc     0x0000000000005446       0xeb 0x1 /usr/local/popcorn/aarch64//lib/libc.a(strchrnul.o)
 .debug_loc     0x0000000000005531       0x92 0x1 /usr/local/popcorn/aarch64//lib/libc.a(strlen.o)
 .debug_loc     0x00000000000055c3       0x36 0x1 /usr/local/popcorn/aarch64//lib/libc.a(__lock.o)
 .debug_loc     0x00000000000055f9        0x0 0x1 /usr/local/popcorn/aarch64//lib/libc.a(__syscall_cp.o)
 .debug_loc     0x00000000000055f9      0x137 0x1 /usr/local/popcorn/aarch64//lib/libc.a(__wait.o)
 .debug_loc     0x0000000000005730        0x0 0x1 /usr/local/popcorn/aarch64//lib/libc.a(__environ.o)
 .debug_loc     0x0000000000005730      0x21f 0x1 /usr/local/popcorn/aarch64//lib/libc.a(__init_tls.o)
 .debug_loc     0x000000000000594f        0x0 0x1 /usr/local/popcorn/aarch64//lib/libc.a(__errno_location.o)
 .debug_loc     0x000000000000594f       0x83 0x1 /usr/local/popcorn/aarch64//lib/libc.a(strerror.o)
 .debug_loc     0x00000000000059d2       0x23 0x1 /usr/local/popcorn/aarch64//lib/libc.a(_Exit.o)
 .debug_loc     0x00000000000059f5       0x23 0x1 /usr/local/popcorn/aarch64//lib/libc.a(syscall_ret.o)
 .debug_loc     0x0000000000005a18       0x23 0x1 /usr/local/popcorn/aarch64//lib/libc.a(__lctrans.o)
 .debug_loc     0x0000000000005a3b      0xfbe 0x1 /usr/local/popcorn/aarch64//lib/libc.a(malloc.o)
 .debug_loc     0x00000000000069f9        0x0 0x1 /usr/local/popcorn/aarch64//lib/libc.a(__fpclassifyl.o)
 .debug_loc     0x00000000000069f9        0x0 0x1 /usr/local/popcorn/aarch64//lib/libc.a(__signbitl.o)
 .debug_loc     0x00000000000069f9      0x132 0x1 /usr/local/popcorn/aarch64//lib/libc.a(frexpl.o)
 .debug_loc     0x0000000000006b2b       0x69 0x1 /usr/local/popcorn/aarch64//lib/libc.a(madvise.o)
 .debug_loc     0x0000000000006b94      0x24b 0x1 /usr/local/popcorn/aarch64//lib/libc.a(mmap.o)
 .debug_loc     0x0000000000006ddf       0x8f 0x1 /usr/local/popcorn/aarch64//lib/libc.a(mremap.o)
 .debug_loc     0x0000000000006e6e       0xb5 0x1 /usr/local/popcorn/aarch64//lib/libc.a(munmap.o)
 .debug_loc     0x0000000000006f23       0x23 0x1 /usr/local/popcorn/aarch64//lib/libc.a(wctomb.o)
 .debug_loc     0x0000000000006f46       0x23 0x1 /usr/local/popcorn/aarch64//lib/libc.a(sched_yield.o)
 .debug_loc     0x0000000000006f69      0x207 0x1 /usr/local/popcorn/aarch64//lib/libc.a(__fdopen.o)
 .debug_loc     0x0000000000007170       0x6c 0x1 /usr/local/popcorn/aarch64//lib/libc.a(__fmodeflags.o)
 .debug_loc     0x00000000000071dc       0xfb 0x1 /usr/local/popcorn/aarch64//lib/libc.a(__lockfile.o)
 .debug_loc     0x00000000000072d7       0x46 0x1 /usr/local/popcorn/aarch64//lib/libc.a(__stdio_close.o)
 .debug_loc     0x000000000000731d      0x111 0x1 /usr/local/popcorn/aarch64//lib/libc.a(__stdio_read.o)
 .debug_loc     0x000000000000742e       0x46 0x1 /usr/local/popcorn/aarch64//lib/libc.a(__stdio_seek.o)
 .debug_loc     0x0000000000007474      0x1b7 0x1 /usr/local/popcorn/aarch64//lib/libc.a(__stdio_write.o)
 .debug_loc     0x000000000000762b      0x26b 0x1 /usr/local/popcorn/aarch64//lib/libc.a(fwrite.o)
 .debug_loc     0x0000000000007896      0x4c1 0x1 /usr/local/popcorn/aarch64//lib/libc.a(memcpy.o)
 .debug_loc     0x0000000000007d57       0x6c 0x1 /usr/local/popcorn/aarch64//lib/libc.a(pthread_cleanup_push.o)
 .debug_loc     0x0000000000007dc3       0x23 0x1 /usr/local/popcorn/aarch64//lib/libc.a(__brk.o)
 .debug_loc     0x0000000000007de6       0x23 0x1 /usr/local/popcorn/aarch64//lib/libc.a(wcrtomb.o)
 .debug_loc     0x0000000000007e09        0x0 0x1 /usr/local/popcorn/aarch64//lib/libc.a(__towrite.o)
 .debug_loc     0x0000000000007e09       0x36 0x1 /usr/local/popcorn/aarch64//lib/libc.a(__stdio_exit.o)
 .debug_loc     0x0000000000007e3f      0x4c4 0x1 /usr/local/popcorn/aarch64//lib/libmigrate.a(migrate.o)
 .debug_loc     0x0000000000008303      0x75f 0x1 /usr/local/popcorn/aarch64//lib/libstack-transform.a(userspace.o)
 .debug_loc     0x0000000000008a62       0xb2 0x1 /usr/local/popcorn/aarch64//lib/libstack-transform.a(init.o)
 .debug_loc     0x0000000000008b14      0xc86 0x1 /usr/local/popcorn/aarch64//lib/libstack-transform.a(rewrite.o)
 .debug_loc     0x000000000000979a      0x779 0x1 /usr/local/popcorn/aarch64//lib/libstack-transform.a(unwind.o)
 .debug_loc     0x0000000000009f13      0x82b 0x1 /usr/local/popcorn/aarch64//lib/libstack-transform.a(util.o)
 .debug_loc     0x000000000000a73e       0x23 0x1 /usr/local/popcorn/aarch64//lib/libstack-transform.a(properties.o)
 .debug_loc     0x000000000000a761      0x6a0 0x1 /usr/local/popcorn/aarch64//lib/libstack-transform.a(regs.o)
 .debug_loc     0x000000000000ae01       0x59 0x1 /usr/local/popcorn/aarch64//lib/libstack-transform.a(properties.o)
 .debug_loc     0x000000000000ae5a      0x499 0x1 /usr/local/popcorn/aarch64//lib/libstack-transform.a(regs.o)
 .debug_loc     0x000000000000b2f3      0xa0d 0x1 /usr/local/popcorn/aarch64//lib/libstack-transform.a(data.o)
 .debug_loc     0x000000000000bd00       0x59 0x1 /usr/local/popcorn/aarch64//lib/libc.a(getenv.o)
 .debug_loc     0x000000000000bd59      0x124 0x1 /usr/local/popcorn/aarch64//lib/libc.a(assert.o)
 .debug_loc     0x000000000000be7d       0xb5 0x1 /usr/local/popcorn/aarch64//lib/libc.a(open.o)
 .debug_loc     0x000000000000bf32      0x15d 0x1 /usr/local/popcorn/aarch64//lib/libc.a(calloc.o)
 .debug_loc     0x000000000000c08f       0xea 0x1 /usr/local/popcorn/aarch64//lib/libc.a(getrlimit.o)
 .debug_loc     0x000000000000c179      0x2e2 0x1 /usr/local/popcorn/aarch64//lib/libc.a(syscall.o)
 .debug_loc     0x000000000000c45b       0x49 0x1 /usr/local/popcorn/aarch64//lib/libc.a(getline.o)
 .debug_loc     0x000000000000c4a4       0x23 0x1 /usr/local/popcorn/aarch64//lib/libc.a(snprintf.o)
 .debug_loc     0x000000000000c4c7       0x23 0x1 /usr/local/popcorn/aarch64//lib/libc.a(sscanf.o)
 .debug_loc     0x000000000000c4ea        0x0 0x1 /usr/local/popcorn/aarch64//lib/libc.a(stderr.o)
 .debug_loc     0x000000000000c4ea      0x281 0x1 /usr/local/popcorn/aarch64//lib/libc.a(vsnprintf.o)
 .debug_loc     0x000000000000c76b       0xdb 0x1 /usr/local/popcorn/aarch64//lib/libc.a(vsscanf.o)
 .debug_loc     0x000000000000c846      0x144 0x1 /usr/local/popcorn/aarch64//lib/libc.a(strtol.o)
 .debug_loc     0x000000000000c98a       0xe8 0x1 /usr/local/popcorn/aarch64//lib/libc.a(memcmp.o)
 .debug_loc     0x000000000000ca72       0x23 0x1 /usr/local/popcorn/aarch64//lib/libc.a(strcmp.o)
 .debug_loc     0x000000000000ca95       0x9f 0x1 /usr/local/popcorn/aarch64//lib/libc.a(strncmp.o)
 .debug_loc     0x000000000000cb34       0x36 0x1 /usr/local/popcorn/aarch64//lib/libc.a(pthread_attr_get.o)
 .debug_loc     0x000000000000cb6a       0xc5 0x1 /usr/local/popcorn/aarch64//lib/libc.a(pthread_getattr_np.o)
 .debug_loc     0x000000000000cc2f       0x46 0x1 /usr/local/popcorn/aarch64//lib/libc.a(pthread_getspecific.o)
 .debug_loc     0x000000000000cc75      0x1e9 0x1 /usr/local/popcorn/aarch64//lib/libc.a(pthread_key_create.o)
 .debug_loc     0x000000000000ce5e        0x0 0x1 /usr/local/popcorn/aarch64//lib/libc.a(pthread_migrate.o)
 .debug_loc     0x000000000000ce5e        0x0 0x1 /usr/local/popcorn/aarch64//lib/libc.a(pthread_self.o)
 .debug_loc     0x000000000000ce5e       0x23 0x1 /usr/local/popcorn/aarch64//lib/libc.a(pthread_setspecific.o)
 .debug_loc     0x000000000000ce81       0x46 0x1 /usr/local/popcorn/aarch64//lib/libc.a(close.o)
 .debug_loc     0x000000000000cec7        0x0 0x1 /usr/local/popcorn/aarch64//lib/libc.a(getpid.o)
 .debug_loc     0x000000000000cec7       0x46 0x1 /usr/local/popcorn/aarch64//lib/libc.a(lseek.o)
 .debug_loc     0x000000000000cf0d       0xb5 0x1 /usr/local/popcorn/aarch64//lib/libc.a(read.o)
 .debug_loc     0x000000000000cfc2        0x0 0x1 /usr/local/popcorn/aarch64//lib/libc.a(abort.o)
 .debug_loc     0x000000000000cfc2      0x3bd 0x1 /usr/local/popcorn/aarch64//lib/libc.a(intscan.o)
 .debug_loc     0x000000000000d37f       0x6c 0x1 /usr/local/popcorn/aarch64//lib/libc.a(shgetc.o)
 .debug_loc     0x000000000000d3eb       0x9f 0x1 /usr/local/popcorn/aarch64//lib/libc.a(raise.o)
 .debug_loc     0x000000000000d48a      0x144 0x1 /usr/local/popcorn/aarch64//lib/libc.a(__string_read.o)
 .debug_loc     0x000000000000d5ce       0x6e 0x1 /usr/local/popcorn/aarch64//lib/libc.a(__uflow.o)
 .debug_loc     0x000000000000d63c      0x306 0x1 /usr/local/popcorn/aarch64//lib/libc.a(getdelim.o)
 .debug_loc     0x000000000000d942      0xd1a 0x1 /usr/local/popcorn/aarch64//lib/libc.a(vfscanf.o)
 .debug_loc     0x000000000000e65c     0x1317 0x1 /usr/local/popcorn/aarch64//lib/libc.a(floatscan.o)
 .debug_loc     0x000000000000f973       0x48 0x1 /usr/local/popcorn/aarch64//lib/libc.a(copysignl.o)
 .debug_loc     0x000000000000f9bb      0x561 0x1 /usr/local/popcorn/aarch64//lib/libc.a(fmodl.o)
 .debug_loc     0x000000000000ff1c      0x1b2 0x1 /usr/local/popcorn/aarch64//lib/libc.a(scalbn.o)
 .debug_loc     0x00000000000100ce       0xf2 0x1 /usr/local/popcorn/aarch64//lib/libc.a(scalbnl.o)
 .debug_loc     0x00000000000101c0      0x1dd 0x1 /usr/local/popcorn/aarch64//lib/libc.a(mbrtowc.o)
 .debug_loc     0x000000000001039d       0x23 0x1 /usr/local/popcorn/aarch64//lib/libc.a(mbsinit.o)
 .debug_loc     0x00000000000103c0       0xdb 0x1 /usr/local/popcorn/aarch64//lib/libc.a(block.o)
 .debug_loc     0x000000000001049b       0x36 0x1 /usr/local/popcorn/aarch64//lib/libc.a(__toread.o)
 .debug_loc     0x00000000000104d1        0x0 0x1 /usr/local/popcorn/aarch64//lib/libc.a(internal.o)

.debug_abbrev   0x0000000000000000     0x63c7
 .debug_abbrev  0x0000000000000000       0x62 0x1 /usr/local/popcorn/aarch64//lib/crt1.o
 .debug_abbrev  0x0000000000000062      0x1c6 0x1 /usr/local/popcorn/aarch64//lib/libc.a(__libc_start_main.o)
 .debug_abbrev  0x0000000000000228       0x8a 0x1 /usr/local/popcorn/aarch64//lib/libc.a(exit.o)
 .debug_abbrev  0x00000000000002b2       0x9e 0x1 /usr/local/popcorn/aarch64//lib/libc.a(libc.o)
 .debug_abbrev  0x0000000000000350       0xdf 0x1 /usr/local/popcorn/aarch64//lib/libc.a(fclose.o)
 .debug_abbrev  0x000000000000042f       0xc7 0x1 /usr/local/popcorn/aarch64//lib/libc.a(ferror.o)
 .debug_abbrev  0x00000000000004f6       0xfe 0x1 /usr/local/popcorn/aarch64//lib/libc.a(fflush.o)
 .debug_abbrev  0x00000000000005f4      0x110 0x1 /usr/local/popcorn/aarch64//lib/libc.a(fopen.o)
 .debug_abbrev  0x0000000000000704       0xd4 0x1 /usr/local/popcorn/aarch64//lib/libc.a(fprintf.o)
 .debug_abbrev  0x00000000000007d8      0x2c0 0x1 /usr/local/popcorn/aarch64//lib/libc.a(vfprintf.o)
 .debug_abbrev  0x0000000000000a98       0x88 0x1 /usr/local/popcorn/aarch64//lib/libc.a(memchr.o)
 .debug_abbrev  0x0000000000000b20       0x8f 0x1 /usr/local/popcorn/aarch64//lib/libc.a(memset.o)
 .debug_abbrev  0x0000000000000baf       0x68 0x1 /usr/local/popcorn/aarch64//lib/libc.a(strchr.o)
 .debug_abbrev  0x0000000000000c17       0x7a 0x1 /usr/local/popcorn/aarch64//lib/libc.a(strchrnul.o)
 .debug_abbrev  0x0000000000000c91       0x87 0x1 /usr/local/popcorn/aarch64//lib/libc.a(strlen.o)
 .debug_abbrev  0x0000000000000d18       0xe0 0x1 /usr/local/popcorn/aarch64//lib/libc.a(__lock.o)
 .debug_abbrev  0x0000000000000df8       0x70 0x1 /usr/local/popcorn/aarch64//lib/libc.a(__syscall_cp.o)
 .debug_abbrev  0x0000000000000e68       0xd8 0x1 /usr/local/popcorn/aarch64//lib/libc.a(__wait.o)
 .debug_abbrev  0x0000000000000f40       0x36 0x1 /usr/local/popcorn/aarch64//lib/libc.a(__environ.o)
 .debug_abbrev  0x0000000000000f76      0x1ee 0x1 /usr/local/popcorn/aarch64//lib/libc.a(__init_tls.o)
 .debug_abbrev  0x0000000000001164      0x135 0x1 /usr/local/popcorn/aarch64//lib/libc.a(__errno_location.o)
 .debug_abbrev  0x0000000000001299      0x176 0x1 /usr/local/popcorn/aarch64//lib/libc.a(strerror.o)
 .debug_abbrev  0x000000000000140f       0x8f 0x1 /usr/local/popcorn/aarch64//lib/libc.a(_Exit.o)
 .debug_abbrev  0x000000000000149e       0x28 0x1 /usr/local/popcorn/aarch64//lib/libc.a(syscall.o)
 .debug_abbrev  0x00000000000014c6       0x4b 0x1 /usr/local/popcorn/aarch64//lib/libc.a(syscall_ret.o)
 .debug_abbrev  0x0000000000001511      0x158 0x1 /usr/local/popcorn/aarch64//lib/libc.a(__lctrans.o)
 .debug_abbrev  0x0000000000001669      0x26a 0x1 /usr/local/popcorn/aarch64//lib/libc.a(malloc.o)
 .debug_abbrev  0x00000000000018d3       0x9b 0x1 /usr/local/popcorn/aarch64//lib/libc.a(__fpclassifyl.o)
 .debug_abbrev  0x000000000000196e       0x8e 0x1 /usr/local/popcorn/aarch64//lib/libc.a(__signbitl.o)
 .debug_abbrev  0x00000000000019fc       0xa2 0x1 /usr/local/popcorn/aarch64//lib/libc.a(frexpl.o)
 .debug_abbrev  0x0000000000001a9e       0xc4 0x1 /usr/local/popcorn/aarch64//lib/libc.a(madvise.o)
 .debug_abbrev  0x0000000000001b62       0xcb 0x1 /usr/local/popcorn/aarch64//lib/libc.a(mmap.o)
 .debug_abbrev  0x0000000000001c2d       0xe5 0x1 /usr/local/popcorn/aarch64//lib/libc.a(mremap.o)
 .debug_abbrev  0x0000000000001d12       0xcb 0x1 /usr/local/popcorn/aarch64//lib/libc.a(munmap.o)
 .debug_abbrev  0x0000000000001ddd       0x6e 0x1 /usr/local/popcorn/aarch64//lib/libc.a(wctomb.o)
 .debug_abbrev  0x0000000000001e4b       0x94 0x1 /usr/local/popcorn/aarch64//lib/libc.a(sched_yield.o)
 .debug_abbrev  0x0000000000001edf      0x129 0x1 /usr/local/popcorn/aarch64//lib/libc.a(__fdopen.o)
 .debug_abbrev  0x0000000000002008       0x68 0x1 /usr/local/popcorn/aarch64//lib/libc.a(__fmodeflags.o)
 .debug_abbrev  0x0000000000002070      0x1d3 0x1 /usr/local/popcorn/aarch64//lib/libc.a(__lockfile.o)
 .debug_abbrev  0x0000000000002243      0x12a 0x1 /usr/local/popcorn/aarch64//lib/libc.a(__stdio_close.o)
 .debug_abbrev  0x000000000000236d      0x142 0x1 /usr/local/popcorn/aarch64//lib/libc.a(__stdio_read.o)
 .debug_abbrev  0x00000000000024af      0x112 0x1 /usr/local/popcorn/aarch64//lib/libc.a(__stdio_seek.o)
 .debug_abbrev  0x00000000000025c1      0x140 0x1 /usr/local/popcorn/aarch64//lib/libc.a(__stdio_write.o)
 .debug_abbrev  0x0000000000002701       0xe2 0x1 /usr/local/popcorn/aarch64//lib/libc.a(fwrite.o)
 .debug_abbrev  0x00000000000027e3       0x95 0x1 /usr/local/popcorn/aarch64//lib/libc.a(memcpy.o)
 .debug_abbrev  0x0000000000002878       0x28 0x1 /usr/local/popcorn/aarch64//lib/libc.a(__set_thread_area.o)
 .debug_abbrev  0x00000000000028a0       0xa4 0x1 /usr/local/popcorn/aarch64//lib/libc.a(pthread_cleanup_push.o)
 .debug_abbrev  0x0000000000002944       0xb0 0x1 /usr/local/popcorn/aarch64//lib/libc.a(__brk.o)
 .debug_abbrev  0x00000000000029f4       0x9e 0x1 /usr/local/popcorn/aarch64//lib/libc.a(wcrtomb.o)
 .debug_abbrev  0x0000000000002a92       0xc1 0x1 /usr/local/popcorn/aarch64//lib/libc.a(__towrite.o)
 .debug_abbrev  0x0000000000002b53       0xdb 0x1 /usr/local/popcorn/aarch64//lib/libc.a(__stdio_exit.o)
 .debug_abbrev  0x0000000000002c2e      0x1cc 0x1 /usr/local/popcorn/aarch64//lib/libmigrate.a(migrate.o)
 .debug_abbrev  0x0000000000002dfa      0x28e 0x1 /usr/local/popcorn/aarch64//lib/libstack-transform.a(userspace.o)
 .debug_abbrev  0x0000000000003088      0x166 0x1 /usr/local/popcorn/aarch64//lib/libstack-transform.a(init.o)
 .debug_abbrev  0x00000000000031ee      0x24f 0x1 /usr/local/popcorn/aarch64//lib/libstack-transform.a(rewrite.o)
 .debug_abbrev  0x000000000000343d      0x1f0 0x1 /usr/local/popcorn/aarch64//lib/libstack-transform.a(unwind.o)
 .debug_abbrev  0x000000000000362d      0x173 0x1 /usr/local/popcorn/aarch64//lib/libstack-transform.a(util.o)
 .debug_abbrev  0x00000000000037a0       0xdd 0x1 /usr/local/popcorn/aarch64//lib/libstack-transform.a(properties.o)
 .debug_abbrev  0x000000000000387d      0x131 0x1 /usr/local/popcorn/aarch64//lib/libstack-transform.a(regs.o)
 .debug_abbrev  0x00000000000039ae       0xec 0x1 /usr/local/popcorn/aarch64//lib/libstack-transform.a(properties.o)
 .debug_abbrev  0x0000000000003a9a      0x131 0x1 /usr/local/popcorn/aarch64//lib/libstack-transform.a(regs.o)
 .debug_abbrev  0x0000000000003bcb      0x224 0x1 /usr/local/popcorn/aarch64//lib/libstack-transform.a(data.o)
 .debug_abbrev  0x0000000000003def       0x82 0x1 /usr/local/popcorn/aarch64//lib/libc.a(getenv.o)
 .debug_abbrev  0x0000000000003e71       0x57 0x1 /usr/local/popcorn/aarch64//lib/libc.a(assert.o)
 .debug_abbrev  0x0000000000003ec8      0x100 0x1 /usr/local/popcorn/aarch64//lib/libc.a(open.o)
 .debug_abbrev  0x0000000000003fc8       0x73 0x1 /usr/local/popcorn/aarch64//lib/libc.a(calloc.o)
 .debug_abbrev  0x000000000000403b      0x10c 0x1 /usr/local/popcorn/aarch64//lib/libc.a(getrlimit.o)
 .debug_abbrev  0x0000000000004147       0xdc 0x1 /usr/local/popcorn/aarch64//lib/libc.a(syscall.o)
 .debug_abbrev  0x0000000000004223       0x8b 0x1 /usr/local/popcorn/aarch64//lib/libc.a(getline.o)
 .debug_abbrev  0x00000000000042ae       0xbe 0x1 /usr/local/popcorn/aarch64//lib/libc.a(snprintf.o)
 .debug_abbrev  0x000000000000436c       0xbe 0x1 /usr/local/popcorn/aarch64//lib/libc.a(sscanf.o)
 .debug_abbrev  0x000000000000442a       0xb9 0x1 /usr/local/popcorn/aarch64//lib/libc.a(stderr.o)
 .debug_abbrev  0x00000000000044e3      0x105 0x1 /usr/local/popcorn/aarch64//lib/libc.a(vsnprintf.o)
 .debug_abbrev  0x00000000000045e8      0x105 0x1 /usr/local/popcorn/aarch64//lib/libc.a(vsscanf.o)
 .debug_abbrev  0x00000000000046ed      0x146 0x1 /usr/local/popcorn/aarch64//lib/libc.a(strtol.o)
 .debug_abbrev  0x0000000000004833       0x7a 0x1 /usr/local/popcorn/aarch64//lib/libc.a(memcmp.o)
 .debug_abbrev  0x00000000000048ad       0x68 0x1 /usr/local/popcorn/aarch64//lib/libc.a(strcmp.o)
 .debug_abbrev  0x0000000000004915       0x89 0x1 /usr/local/popcorn/aarch64//lib/libc.a(strncmp.o)
 .debug_abbrev  0x000000000000499e      0x109 0x1 /usr/local/popcorn/aarch64//lib/libc.a(pthread_attr_get.o)
 .debug_abbrev  0x0000000000004aa7      0x125 0x1 /usr/local/popcorn/aarch64//lib/libc.a(pthread_getattr_np.o)
 .debug_abbrev  0x0000000000004bcc      0x142 0x1 /usr/local/popcorn/aarch64//lib/libc.a(pthread_getspecific.o)
 .debug_abbrev  0x0000000000004d0e      0x1e3 0x1 /usr/local/popcorn/aarch64//lib/libc.a(pthread_key_create.o)
 .debug_abbrev  0x0000000000004ef1      0x133 0x1 /usr/local/popcorn/aarch64//lib/libc.a(pthread_migrate.o)
 .debug_abbrev  0x0000000000005024      0x131 0x1 /usr/local/popcorn/aarch64//lib/libc.a(pthread_self.o)
 .debug_abbrev  0x0000000000005155      0x149 0x1 /usr/local/popcorn/aarch64//lib/libc.a(pthread_setspecific.o)
 .debug_abbrev  0x000000000000529e       0x81 0x1 /usr/local/popcorn/aarch64//lib/libc.a(close.o)
 .debug_abbrev  0x000000000000531f       0xa1 0x1 /usr/local/popcorn/aarch64//lib/libc.a(getpid.o)
 .debug_abbrev  0x00000000000053c0       0xbf 0x1 /usr/local/popcorn/aarch64//lib/libc.a(lseek.o)
 .debug_abbrev  0x000000000000547f       0x5d 0x1 /usr/local/popcorn/aarch64//lib/libc.a(read.o)
 .debug_abbrev  0x00000000000054dc       0x2f 0x1 /usr/local/popcorn/aarch64//lib/libc.a(abort.o)
 .debug_abbrev  0x000000000000550b      0x117 0x1 /usr/local/popcorn/aarch64//lib/libc.a(intscan.o)
 .debug_abbrev  0x0000000000005622       0xe1 0x1 /usr/local/popcorn/aarch64//lib/libc.a(shgetc.o)
 .debug_abbrev  0x0000000000005703       0xf6 0x1 /usr/local/popcorn/aarch64//lib/libc.a(raise.o)
 .debug_abbrev  0x00000000000057f9       0xba 0x1 /usr/local/popcorn/aarch64//lib/libc.a(__string_read.o)
 .debug_abbrev  0x00000000000058b3       0xba 0x1 /usr/local/popcorn/aarch64//lib/libc.a(__uflow.o)
 .debug_abbrev  0x000000000000596d       0xc1 0x1 /usr/local/popcorn/aarch64//lib/libc.a(getdelim.o)
 .debug_abbrev  0x0000000000005a2e      0x1c6 0x1 /usr/local/popcorn/aarch64//lib/libc.a(vfscanf.o)
 .debug_abbrev  0x0000000000005bf4      0x1f1 0x1 /usr/local/popcorn/aarch64//lib/libc.a(floatscan.o)
 .debug_abbrev  0x0000000000005de5       0xac 0x1 /usr/local/popcorn/aarch64//lib/libc.a(copysignl.o)
 .debug_abbrev  0x0000000000005e91       0x28 0x1 /usr/local/popcorn/aarch64//lib/libc.a(fabs.o)
 .debug_abbrev  0x0000000000005eb9       0xc5 0x1 /usr/local/popcorn/aarch64//lib/libc.a(fmodl.o)
 .debug_abbrev  0x0000000000005f7e       0x81 0x1 /usr/local/popcorn/aarch64//lib/libc.a(scalbn.o)
 .debug_abbrev  0x0000000000005fff       0x8e 0x1 /usr/local/popcorn/aarch64//lib/libc.a(scalbnl.o)
 .debug_abbrev  0x000000000000608d       0xcb 0x1 /usr/local/popcorn/aarch64//lib/libc.a(mbrtowc.o)
 .debug_abbrev  0x0000000000006158       0x82 0x1 /usr/local/popcorn/aarch64//lib/libc.a(mbsinit.o)
 .debug_abbrev  0x00000000000061da       0xce 0x1 /usr/local/popcorn/aarch64//lib/libc.a(block.o)
 .debug_abbrev  0x00000000000062a8       0xc1 0x1 /usr/local/popcorn/aarch64//lib/libc.a(__toread.o)
 .debug_abbrev  0x0000000000006369       0x5e 0x1 /usr/local/popcorn/aarch64//lib/libc.a(internal.o)

.debug_info     0x0000000000000000    0x15f57
 .debug_info    0x0000000000000000       0x8b 0x1 /usr/local/popcorn/aarch64//lib/crt1.o
 .debug_info    0x000000000000008b      0x3c0 0x1 /usr/local/popcorn/aarch64//lib/libc.a(__libc_start_main.o)
 .debug_info    0x000000000000044b       0x9a 0x1 /usr/local/popcorn/aarch64//lib/libc.a(exit.o)
 .debug_info    0x00000000000004e5      0x196 0x1 /usr/local/popcorn/aarch64//lib/libc.a(libc.o)
 .debug_info    0x000000000000067b      0x2f5 0x1 /usr/local/popcorn/aarch64//lib/libc.a(fclose.o)
 .debug_info    0x0000000000000970      0x2ce 0x1 /usr/local/popcorn/aarch64//lib/libc.a(ferror.o)
 .debug_info    0x0000000000000c3e      0x334 0x1 /usr/local/popcorn/aarch64//lib/libc.a(fflush.o)
 .debug_info    0x0000000000000f72      0x401 0x1 /usr/local/popcorn/aarch64//lib/libc.a(fopen.o)
 .debug_info    0x0000000000001373      0x10e 0x1 /usr/local/popcorn/aarch64//lib/libc.a(fprintf.o)
 .debug_info    0x0000000000001481     0x1107 0x1 /usr/local/popcorn/aarch64//lib/libc.a(vfprintf.o)
 .debug_info    0x0000000000002588       0xf3 0x1 /usr/local/popcorn/aarch64//lib/libc.a(memchr.o)
 .debug_info    0x000000000000267b      0x114 0x1 /usr/local/popcorn/aarch64//lib/libc.a(memset.o)
 .debug_info    0x000000000000278f       0x9b 0x1 /usr/local/popcorn/aarch64//lib/libc.a(strchr.o)
 .debug_info    0x000000000000282a       0xcd 0x1 /usr/local/popcorn/aarch64//lib/libc.a(strchrnul.o)
 .debug_info    0x00000000000028f7       0xac 0x1 /usr/local/popcorn/aarch64//lib/libc.a(strlen.o)
 .debug_info    0x00000000000029a3      0x137 0x1 /usr/local/popcorn/aarch64//lib/libc.a(__lock.o)
 .debug_info    0x0000000000002ada      0x127 0x1 /usr/local/popcorn/aarch64//lib/libc.a(__syscall_cp.o)
 .debug_info    0x0000000000002c01      0x144 0x1 /usr/local/popcorn/aarch64//lib/libc.a(__wait.o)
 .debug_info    0x0000000000002d45       0x45 0x1 /usr/local/popcorn/aarch64//lib/libc.a(__environ.o)
 .debug_info    0x0000000000002d8a      0x7fc 0x1 /usr/local/popcorn/aarch64//lib/libc.a(__init_tls.o)
 .debug_info    0x0000000000003586      0x421 0x1 /usr/local/popcorn/aarch64//lib/libc.a(__errno_location.o)
 .debug_info    0x00000000000039a7      0x511 0x1 /usr/local/popcorn/aarch64//lib/libc.a(strerror.o)
 .debug_info    0x0000000000003eb8       0xcb 0x1 /usr/local/popcorn/aarch64//lib/libc.a(_Exit.o)
 .debug_info    0x0000000000003f83       0xb2 0x1 /usr/local/popcorn/aarch64//lib/libc.a(syscall.o)
 .debug_info    0x0000000000004035       0x62 0x1 /usr/local/popcorn/aarch64//lib/libc.a(syscall_ret.o)
 .debug_info    0x0000000000004097      0x4e3 0x1 /usr/local/popcorn/aarch64//lib/libc.a(__lctrans.o)
 .debug_info    0x000000000000457a      0xf1d 0x1 /usr/local/popcorn/aarch64//lib/libc.a(malloc.o)
 .debug_info    0x0000000000005497      0x12f 0x1 /usr/local/popcorn/aarch64//lib/libc.a(__fpclassifyl.o)
 .debug_info    0x00000000000055c6      0x124 0x1 /usr/local/popcorn/aarch64//lib/libc.a(__signbitl.o)
 .debug_info    0x00000000000056ea      0x145 0x1 /usr/local/popcorn/aarch64//lib/libc.a(frexpl.o)
 .debug_info    0x000000000000582f      0x121 0x1 /usr/local/popcorn/aarch64//lib/libc.a(madvise.o)
 .debug_info    0x0000000000005950      0x1b2 0x1 /usr/local/popcorn/aarch64//lib/libc.a(mmap.o)
 .debug_info    0x0000000000005b02      0x1cc 0x1 /usr/local/popcorn/aarch64//lib/libc.a(mremap.o)
 .debug_info    0x0000000000005cce      0x113 0x1 /usr/local/popcorn/aarch64//lib/libc.a(munmap.o)
 .debug_info    0x0000000000005de1       0x86 0x1 /usr/local/popcorn/aarch64//lib/libc.a(wctomb.o)
 .debug_info    0x0000000000005e67       0xac 0x1 /usr/local/popcorn/aarch64//lib/libc.a(sched_yield.o)
 .debug_info    0x0000000000005f13      0x507 0x1 /usr/local/popcorn/aarch64//lib/libc.a(__fdopen.o)
 .debug_info    0x000000000000641a       0x7b 0x1 /usr/local/popcorn/aarch64//lib/libc.a(__fmodeflags.o)
 .debug_info    0x0000000000006495      0x743 0x1 /usr/local/popcorn/aarch64//lib/libc.a(__lockfile.o)
 .debug_info    0x0000000000006bd8      0x33d 0x1 /usr/local/popcorn/aarch64//lib/libc.a(__stdio_close.o)
 .debug_info    0x0000000000006f15      0x3b8 0x1 /usr/local/popcorn/aarch64//lib/libc.a(__stdio_read.o)
 .debug_info    0x00000000000072cd      0x367 0x1 /usr/local/popcorn/aarch64//lib/libc.a(__stdio_seek.o)
 .debug_info    0x0000000000007634      0x3e2 0x1 /usr/local/popcorn/aarch64//lib/libc.a(__stdio_write.o)
 .debug_info    0x0000000000007a16      0x372 0x1 /usr/local/popcorn/aarch64//lib/libc.a(fwrite.o)
 .debug_info    0x0000000000007d88      0x112 0x1 /usr/local/popcorn/aarch64//lib/libc.a(memcpy.o)
 .debug_info    0x0000000000007e9a       0xc4 0x1 /usr/local/popcorn/aarch64//lib/libc.a(__set_thread_area.o)
 .debug_info    0x0000000000007f5e      0x105 0x1 /usr/local/popcorn/aarch64//lib/libc.a(pthread_cleanup_push.o)
 .debug_info    0x0000000000008063       0xcf 0x1 /usr/local/popcorn/aarch64//lib/libc.a(__brk.o)
 .debug_info    0x0000000000008132       0xdd 0x1 /usr/local/popcorn/aarch64//lib/libc.a(wcrtomb.o)
 .debug_info    0x000000000000820f      0x2c7 0x1 /usr/local/popcorn/aarch64//lib/libc.a(__towrite.o)
 .debug_info    0x00000000000084d6      0x2eb 0x1 /usr/local/popcorn/aarch64//lib/libc.a(__stdio_exit.o)
 .debug_info    0x00000000000087c1      0x6a9 0x1 /usr/local/popcorn/aarch64//lib/libmigrate.a(migrate.o)
 .debug_info    0x0000000000008e6a      0xedb 0x1 /usr/local/popcorn/aarch64//lib/libstack-transform.a(userspace.o)
 .debug_info    0x0000000000009d45      0x8c0 0x1 /usr/local/popcorn/aarch64//lib/libstack-transform.a(init.o)
 .debug_info    0x000000000000a605      0xfe2 0x1 /usr/local/popcorn/aarch64//lib/libstack-transform.a(rewrite.o)
 .debug_info    0x000000000000b5e7      0xd76 0x1 /usr/local/popcorn/aarch64//lib/libstack-transform.a(unwind.o)
 .debug_info    0x000000000000c35d      0xc6a 0x1 /usr/local/popcorn/aarch64//lib/libstack-transform.a(util.o)
 .debug_info    0x000000000000cfc7      0x1fd 0x1 /usr/local/popcorn/aarch64//lib/libstack-transform.a(properties.o)
 .debug_info    0x000000000000d1c4      0x69d 0x1 /usr/local/popcorn/aarch64//lib/libstack-transform.a(regs.o)
 .debug_info    0x000000000000d861      0x217 0x1 /usr/local/popcorn/aarch64//lib/libstack-transform.a(properties.o)
 .debug_info    0x000000000000da78      0x7cb 0x1 /usr/local/popcorn/aarch64//lib/libstack-transform.a(regs.o)
 .debug_info    0x000000000000e243      0xec9 0x1 /usr/local/popcorn/aarch64//lib/libstack-transform.a(data.o)
 .debug_info    0x000000000000f10c       0x9d 0x1 /usr/local/popcorn/aarch64//lib/libc.a(getenv.o)
 .debug_info    0x000000000000f1a9       0x95 0x1 /usr/local/popcorn/aarch64//lib/libc.a(assert.o)
 .debug_info    0x000000000000f23e      0x1c0 0x1 /usr/local/popcorn/aarch64//lib/libc.a(open.o)
 .debug_info    0x000000000000f3fe       0x99 0x1 /usr/local/popcorn/aarch64//lib/libc.a(calloc.o)
 .debug_info    0x000000000000f497      0x212 0x1 /usr/local/popcorn/aarch64//lib/libc.a(getrlimit.o)
 .debug_info    0x000000000000f6a9      0x25f 0x1 /usr/local/popcorn/aarch64//lib/libc.a(syscall.o)
 .debug_info    0x000000000000f908       0xcd 0x1 /usr/local/popcorn/aarch64//lib/libc.a(getline.o)
 .debug_info    0x000000000000f9d5      0x11c 0x1 /usr/local/popcorn/aarch64//lib/libc.a(snprintf.o)
 .debug_info    0x000000000000faf1       0xf3 0x1 /usr/local/popcorn/aarch64//lib/libc.a(sscanf.o)
 .debug_info    0x000000000000fbe4      0x2f0 0x1 /usr/local/popcorn/aarch64//lib/libc.a(stderr.o)
 .debug_info    0x000000000000fed4      0x3c3 0x1 /usr/local/popcorn/aarch64//lib/libc.a(vsnprintf.o)
 .debug_info    0x0000000000010297      0x37e 0x1 /usr/local/popcorn/aarch64//lib/libc.a(vsscanf.o)
 .debug_info    0x0000000000010615      0x559 0x1 /usr/local/popcorn/aarch64//lib/libc.a(strtol.o)
 .debug_info    0x0000000000010b6e       0xc0 0x1 /usr/local/popcorn/aarch64//lib/libc.a(memcmp.o)
 .debug_info    0x0000000000010c2e       0x85 0x1 /usr/local/popcorn/aarch64//lib/libc.a(strcmp.o)
 .debug_info    0x0000000000010cb3       0xca 0x1 /usr/local/popcorn/aarch64//lib/libc.a(strncmp.o)
 .debug_info    0x0000000000010d7d      0x59c 0x1 /usr/local/popcorn/aarch64//lib/libc.a(pthread_attr_get.o)
 .debug_info    0x0000000000011319      0x444 0x1 /usr/local/popcorn/aarch64//lib/libc.a(pthread_getattr_np.o)
 .debug_info    0x000000000001175d      0x44b 0x1 /usr/local/popcorn/aarch64//lib/libc.a(pthread_getspecific.o)
 .debug_info    0x0000000000011ba8      0x603 0x1 /usr/local/popcorn/aarch64//lib/libc.a(pthread_key_create.o)
 .debug_info    0x00000000000121ab      0x427 0x1 /usr/local/popcorn/aarch64//lib/libc.a(pthread_migrate.o)
 .debug_info    0x00000000000125d2      0x428 0x1 /usr/local/popcorn/aarch64//lib/libc.a(pthread_self.o)
 .debug_info    0x00000000000129fa      0x45c 0x1 /usr/local/popcorn/aarch64//lib/libc.a(pthread_setspecific.o)
 .debug_info    0x0000000000012e56       0x98 0x1 /usr/local/popcorn/aarch64//lib/libc.a(close.o)
 .debug_info    0x0000000000012eee       0xb6 0x1 /usr/local/popcorn/aarch64//lib/libc.a(getpid.o)
 .debug_info    0x0000000000012fa4      0x115 0x1 /usr/local/popcorn/aarch64//lib/libc.a(lseek.o)
 .debug_info    0x00000000000130b9       0x9e 0x1 /usr/local/popcorn/aarch64//lib/libc.a(read.o)
 .debug_info    0x0000000000013157       0x40 0x1 /usr/local/popcorn/aarch64//lib/libc.a(abort.o)
 .debug_info    0x0000000000013197      0x380 0x1 /usr/local/popcorn/aarch64//lib/libc.a(intscan.o)
 .debug_info    0x0000000000013517      0x2f3 0x1 /usr/local/popcorn/aarch64//lib/libc.a(shgetc.o)
 .debug_info    0x000000000001380a      0x197 0x1 /usr/local/popcorn/aarch64//lib/libc.a(raise.o)
 .debug_info    0x00000000000139a1      0x2ff 0x1 /usr/local/popcorn/aarch64//lib/libc.a(__string_read.o)
 .debug_info    0x0000000000013ca0      0x2c3 0x1 /usr/local/popcorn/aarch64//lib/libc.a(__uflow.o)
 .debug_info    0x0000000000013f63      0x35f 0x1 /usr/local/popcorn/aarch64//lib/libc.a(getdelim.o)
 .debug_info    0x00000000000142c2      0x670 0x1 /usr/local/popcorn/aarch64//lib/libc.a(vfscanf.o)
 .debug_info    0x0000000000014932      0x894 0x1 /usr/local/popcorn/aarch64//lib/libc.a(floatscan.o)
 .debug_info    0x00000000000151c6      0x13b 0x1 /usr/local/popcorn/aarch64//lib/libc.a(copysignl.o)
 .debug_info    0x0000000000015301       0xab 0x1 /usr/local/popcorn/aarch64//lib/libc.a(fabs.o)
 .debug_info    0x00000000000153ac      0x25a 0x1 /usr/local/popcorn/aarch64//lib/libc.a(fmodl.o)
 .debug_info    0x0000000000015606       0xc9 0x1 /usr/local/popcorn/aarch64//lib/libc.a(scalbn.o)
 .debug_info    0x00000000000156cf      0x142 0x1 /usr/local/popcorn/aarch64//lib/libc.a(scalbnl.o)
 .debug_info    0x0000000000015811      0x17c 0x1 /usr/local/popcorn/aarch64//lib/libc.a(mbrtowc.o)
 .debug_info    0x000000000001598d       0xa1 0x1 /usr/local/popcorn/aarch64//lib/libc.a(mbsinit.o)
 .debug_info    0x0000000000015a2e      0x202 0x1 /usr/local/popcorn/aarch64//lib/libc.a(block.o)
 .debug_info    0x0000000000015c30      0x2c9 0x1 /usr/local/popcorn/aarch64//lib/libc.a(__toread.o)
 .debug_info    0x0000000000015ef9       0x5e 0x1 /usr/local/popcorn/aarch64//lib/libc.a(internal.o)

.debug_ranges   0x0000000000000000     0x3360
 .debug_ranges  0x0000000000000000        0x0 0x1 /usr/local/popcorn/aarch64//lib/crt1.o
 .debug_ranges  0x0000000000000000       0xb0 0x1 /usr/local/popcorn/aarch64//lib/libc.a(__libc_start_main.o)
 .debug_ranges  0x00000000000000b0       0x30 0x1 /usr/local/popcorn/aarch64//lib/libc.a(exit.o)
 .debug_ranges  0x00000000000000e0        0x0 0x1 /usr/local/popcorn/aarch64//lib/libc.a(libc.o)
 .debug_ranges  0x00000000000000e0       0x30 0x1 /usr/local/popcorn/aarch64//lib/libc.a(fclose.o)
 .debug_ranges  0x0000000000000110        0x0 0x1 /usr/local/popcorn/aarch64//lib/libc.a(ferror.o)
 .debug_ranges  0x0000000000000110       0x60 0x1 /usr/local/popcorn/aarch64//lib/libc.a(fflush.o)
 .debug_ranges  0x0000000000000170        0x0 0x1 /usr/local/popcorn/aarch64//lib/libc.a(fopen.o)
 .debug_ranges  0x0000000000000170        0x0 0x1 /usr/local/popcorn/aarch64//lib/libc.a(fprintf.o)
 .debug_ranges  0x0000000000000170      0xa90 0x1 /usr/local/popcorn/aarch64//lib/libc.a(vfprintf.o)
 .debug_ranges  0x0000000000000c00        0x0 0x1 /usr/local/popcorn/aarch64//lib/libc.a(memchr.o)
 .debug_ranges  0x0000000000000c00        0x0 0x1 /usr/local/popcorn/aarch64//lib/libc.a(memset.o)
 .debug_ranges  0x0000000000000c00        0x0 0x1 /usr/local/popcorn/aarch64//lib/libc.a(strchr.o)
 .debug_ranges  0x0000000000000c00        0x0 0x1 /usr/local/popcorn/aarch64//lib/libc.a(strchrnul.o)
 .debug_ranges  0x0000000000000c00        0x0 0x1 /usr/local/popcorn/aarch64//lib/libc.a(strlen.o)
 .debug_ranges  0x0000000000000c00       0x60 0x1 /usr/local/popcorn/aarch64//lib/libc.a(__lock.o)
 .debug_ranges  0x0000000000000c60       0x30 0x1 /usr/local/popcorn/aarch64//lib/libc.a(__syscall_cp.o)
 .debug_ranges  0x0000000000000c90        0x0 0x1 /usr/local/popcorn/aarch64//lib/libc.a(__wait.o)
 .debug_ranges  0x0000000000000c90        0x0 0x1 /usr/local/popcorn/aarch64//lib/libc.a(__environ.o)
 .debug_ranges  0x0000000000000c90       0x30 0x1 /usr/local/popcorn/aarch64//lib/libc.a(__init_tls.o)
 .debug_ranges  0x0000000000000cc0        0x0 0x1 /usr/local/popcorn/aarch64//lib/libc.a(__errno_location.o)
 .debug_ranges  0x0000000000000cc0       0x30 0x1 /usr/local/popcorn/aarch64//lib/libc.a(strerror.o)
 .debug_ranges  0x0000000000000cf0        0x0 0x1 /usr/local/popcorn/aarch64//lib/libc.a(_Exit.o)
 .debug_ranges  0x0000000000000cf0        0x0 0x1 /usr/local/popcorn/aarch64//lib/libc.a(syscall_ret.o)
 .debug_ranges  0x0000000000000cf0       0x40 0x1 /usr/local/popcorn/aarch64//lib/libc.a(__lctrans.o)
 .debug_ranges  0x0000000000000d30      0x9c0 0x1 /usr/local/popcorn/aarch64//lib/libc.a(malloc.o)
 .debug_ranges  0x00000000000016f0        0x0 0x1 /usr/local/popcorn/aarch64//lib/libc.a(__fpclassifyl.o)
 .debug_ranges  0x00000000000016f0        0x0 0x1 /usr/local/popcorn/aarch64//lib/libc.a(__signbitl.o)
 .debug_ranges  0x00000000000016f0        0x0 0x1 /usr/local/popcorn/aarch64//lib/libc.a(frexpl.o)
 .debug_ranges  0x00000000000016f0        0x0 0x1 /usr/local/popcorn/aarch64//lib/libc.a(madvise.o)
 .debug_ranges  0x00000000000016f0       0x30 0x1 /usr/local/popcorn/aarch64//lib/libc.a(mmap.o)
 .debug_ranges  0x0000000000001720        0x0 0x1 /usr/local/popcorn/aarch64//lib/libc.a(mremap.o)
 .debug_ranges  0x0000000000001720       0x30 0x1 /usr/local/popcorn/aarch64//lib/libc.a(munmap.o)
 .debug_ranges  0x0000000000001750        0x0 0x1 /usr/local/popcorn/aarch64//lib/libc.a(wctomb.o)
 .debug_ranges  0x0000000000001750        0x0 0x1 /usr/local/popcorn/aarch64//lib/libc.a(sched_yield.o)
 .debug_ranges  0x0000000000001750       0x30 0x1 /usr/local/popcorn/aarch64//lib/libc.a(__fdopen.o)
 .debug_ranges  0x0000000000001780        0x0 0x1 /usr/local/popcorn/aarch64//lib/libc.a(__fmodeflags.o)
 .debug_ranges  0x0000000000001780       0x90 0x1 /usr/local/popcorn/aarch64//lib/libc.a(__lockfile.o)
 .debug_ranges  0x0000000000001810       0x30 0x1 /usr/local/popcorn/aarch64//lib/libc.a(__stdio_close.o)
 .debug_ranges  0x0000000000001840       0x30 0x1 /usr/local/popcorn/aarch64//lib/libc.a(__stdio_read.o)
 .debug_ranges  0x0000000000001870        0x0 0x1 /usr/local/popcorn/aarch64//lib/libc.a(__stdio_seek.o)
 .debug_ranges  0x0000000000001870       0x60 0x1 /usr/local/popcorn/aarch64//lib/libc.a(__stdio_write.o)
 .debug_ranges  0x00000000000018d0       0x30 0x1 /usr/local/popcorn/aarch64//lib/libc.a(fwrite.o)
 .debug_ranges  0x0000000000001900        0x0 0x1 /usr/local/popcorn/aarch64//lib/libc.a(memcpy.o)
 .debug_ranges  0x0000000000001900       0x40 0x1 /usr/local/popcorn/aarch64//lib/libc.a(pthread_cleanup_push.o)
 .debug_ranges  0x0000000000001940        0x0 0x1 /usr/local/popcorn/aarch64//lib/libc.a(__brk.o)
 .debug_ranges  0x0000000000001940        0x0 0x1 /usr/local/popcorn/aarch64//lib/libc.a(wcrtomb.o)
 .debug_ranges  0x0000000000001940       0x30 0x1 /usr/local/popcorn/aarch64//lib/libc.a(__towrite.o)
 .debug_ranges  0x0000000000001970       0x30 0x1 /usr/local/popcorn/aarch64//lib/libc.a(__stdio_exit.o)
 .debug_ranges  0x00000000000019a0       0xe0 0x1 /usr/local/popcorn/aarch64//lib/libmigrate.a(migrate.o)
 .debug_ranges  0x0000000000001a80      0x150 0x1 /usr/local/popcorn/aarch64//lib/libstack-transform.a(userspace.o)
 .debug_ranges  0x0000000000001bd0       0x50 0x1 /usr/local/popcorn/aarch64//lib/libstack-transform.a(init.o)
 .debug_ranges  0x0000000000001c20      0x4b0 0x1 /usr/local/popcorn/aarch64//lib/libstack-transform.a(rewrite.o)
 .debug_ranges  0x00000000000020d0      0x160 0x1 /usr/local/popcorn/aarch64//lib/libstack-transform.a(unwind.o)
 .debug_ranges  0x0000000000002230       0xf0 0x1 /usr/local/popcorn/aarch64//lib/libstack-transform.a(util.o)
 .debug_ranges  0x0000000000002320       0x40 0x1 /usr/local/popcorn/aarch64//lib/libstack-transform.a(properties.o)
 .debug_ranges  0x0000000000002360      0x120 0x1 /usr/local/popcorn/aarch64//lib/libstack-transform.a(regs.o)
 .debug_ranges  0x0000000000002480       0x40 0x1 /usr/local/popcorn/aarch64//lib/libstack-transform.a(properties.o)
 .debug_ranges  0x00000000000024c0      0x120 0x1 /usr/local/popcorn/aarch64//lib/libstack-transform.a(regs.o)
 .debug_ranges  0x00000000000025e0      0x370 0x1 /usr/local/popcorn/aarch64//lib/libstack-transform.a(data.o)
 .debug_ranges  0x0000000000002950        0x0 0x1 /usr/local/popcorn/aarch64//lib/libc.a(getenv.o)
 .debug_ranges  0x0000000000002950        0x0 0x1 /usr/local/popcorn/aarch64//lib/libc.a(assert.o)
 .debug_ranges  0x0000000000002950       0x30 0x1 /usr/local/popcorn/aarch64//lib/libc.a(open.o)
 .debug_ranges  0x0000000000002980        0x0 0x1 /usr/local/popcorn/aarch64//lib/libc.a(calloc.o)
 .debug_ranges  0x0000000000002980        0x0 0x1 /usr/local/popcorn/aarch64//lib/libc.a(getrlimit.o)
 .debug_ranges  0x0000000000002980        0x0 0x1 /usr/local/popcorn/aarch64//lib/libc.a(syscall.o)
 .debug_ranges  0x0000000000002980        0x0 0x1 /usr/local/popcorn/aarch64//lib/libc.a(getline.o)
 .debug_ranges  0x0000000000002980        0x0 0x1 /usr/local/popcorn/aarch64//lib/libc.a(snprintf.o)
 .debug_ranges  0x0000000000002980        0x0 0x1 /usr/local/popcorn/aarch64//lib/libc.a(sscanf.o)
 .debug_ranges  0x0000000000002980        0x0 0x1 /usr/local/popcorn/aarch64//lib/libc.a(stderr.o)
 .debug_ranges  0x0000000000002980       0x30 0x1 /usr/local/popcorn/aarch64//lib/libc.a(vsnprintf.o)
 .debug_ranges  0x00000000000029b0       0x30 0x1 /usr/local/popcorn/aarch64//lib/libc.a(vsscanf.o)
 .debug_ranges  0x00000000000029e0       0x80 0x1 /usr/local/popcorn/aarch64//lib/libc.a(strtol.o)
 .debug_ranges  0x0000000000002a60        0x0 0x1 /usr/local/popcorn/aarch64//lib/libc.a(memcmp.o)
 .debug_ranges  0x0000000000002a60        0x0 0x1 /usr/local/popcorn/aarch64//lib/libc.a(strcmp.o)
 .debug_ranges  0x0000000000002a60        0x0 0x1 /usr/local/popcorn/aarch64//lib/libc.a(strncmp.o)
 .debug_ranges  0x0000000000002a60      0x110 0x1 /usr/local/popcorn/aarch64//lib/libc.a(pthread_attr_get.o)
 .debug_ranges  0x0000000000002b70        0x0 0x1 /usr/local/popcorn/aarch64//lib/libc.a(pthread_getattr_np.o)
 .debug_ranges  0x0000000000002b70        0x0 0x1 /usr/local/popcorn/aarch64//lib/libc.a(pthread_getspecific.o)
 .debug_ranges  0x0000000000002b70       0xb0 0x1 /usr/local/popcorn/aarch64//lib/libc.a(pthread_key_create.o)
 .debug_ranges  0x0000000000002c20        0x0 0x1 /usr/local/popcorn/aarch64//lib/libc.a(pthread_migrate.o)
 .debug_ranges  0x0000000000002c20        0x0 0x1 /usr/local/popcorn/aarch64//lib/libc.a(pthread_self.o)
 .debug_ranges  0x0000000000002c20        0x0 0x1 /usr/local/popcorn/aarch64//lib/libc.a(pthread_setspecific.o)
 .debug_ranges  0x0000000000002c20       0x30 0x1 /usr/local/popcorn/aarch64//lib/libc.a(close.o)
 .debug_ranges  0x0000000000002c50        0x0 0x1 /usr/local/popcorn/aarch64//lib/libc.a(getpid.o)
 .debug_ranges  0x0000000000002c50        0x0 0x1 /usr/local/popcorn/aarch64//lib/libc.a(lseek.o)
 .debug_ranges  0x0000000000002c50        0x0 0x1 /usr/local/popcorn/aarch64//lib/libc.a(read.o)
 .debug_ranges  0x0000000000002c50        0x0 0x1 /usr/local/popcorn/aarch64//lib/libc.a(abort.o)
 .debug_ranges  0x0000000000002c50       0x30 0x1 /usr/local/popcorn/aarch64//lib/libc.a(intscan.o)
 .debug_ranges  0x0000000000002c80       0x30 0x1 /usr/local/popcorn/aarch64//lib/libc.a(shgetc.o)
 .debug_ranges  0x0000000000002cb0        0x0 0x1 /usr/local/popcorn/aarch64//lib/libc.a(raise.o)
 .debug_ranges  0x0000000000002cb0        0x0 0x1 /usr/local/popcorn/aarch64//lib/libc.a(__string_read.o)
 .debug_ranges  0x0000000000002cb0        0x0 0x1 /usr/local/popcorn/aarch64//lib/libc.a(__uflow.o)
 .debug_ranges  0x0000000000002cb0        0x0 0x1 /usr/local/popcorn/aarch64//lib/libc.a(getdelim.o)
 .debug_ranges  0x0000000000002cb0       0xa0 0x1 /usr/local/popcorn/aarch64//lib/libc.a(vfscanf.o)
 .debug_ranges  0x0000000000002d50      0x5a0 0x1 /usr/local/popcorn/aarch64//lib/libc.a(floatscan.o)
 .debug_ranges  0x00000000000032f0        0x0 0x1 /usr/local/popcorn/aarch64//lib/libc.a(copysignl.o)
 .debug_ranges  0x00000000000032f0        0x0 0x1 /usr/local/popcorn/aarch64//lib/libc.a(fmodl.o)
 .debug_ranges  0x00000000000032f0        0x0 0x1 /usr/local/popcorn/aarch64//lib/libc.a(scalbn.o)
 .debug_ranges  0x00000000000032f0        0x0 0x1 /usr/local/popcorn/aarch64//lib/libc.a(scalbnl.o)
 .debug_ranges  0x00000000000032f0        0x0 0x1 /usr/local/popcorn/aarch64//lib/libc.a(mbrtowc.o)
 .debug_ranges  0x00000000000032f0        0x0 0x1 /usr/local/popcorn/aarch64//lib/libc.a(mbsinit.o)
 .debug_ranges  0x00000000000032f0       0x40 0x1 /usr/local/popcorn/aarch64//lib/libc.a(block.o)
 .debug_ranges  0x0000000000003330       0x30 0x1 /usr/local/popcorn/aarch64//lib/libc.a(__toread.o)
 .debug_ranges  0x0000000000003360        0x0 0x1 /usr/local/popcorn/aarch64//lib/libc.a(internal.o)

.debug_pubnames
                0x0000000000000000     0x222f
 .debug_pubnames
                0x0000000000000000       0x1f 0x1 /usr/local/popcorn/aarch64//lib/crt1.o
 .debug_pubnames
                0x000000000000001f       0x90 0x1 /usr/local/popcorn/aarch64//lib/libc.a(__libc_start_main.o)
 .debug_pubnames
                0x00000000000000af       0x25 0x1 /usr/local/popcorn/aarch64//lib/libc.a(exit.o)
 .debug_pubnames
                0x00000000000000d4       0x5a 0x1 /usr/local/popcorn/aarch64//lib/libc.a(libc.o)
 .debug_pubnames
                0x000000000000012e       0x27 0x1 /usr/local/popcorn/aarch64//lib/libc.a(fclose.o)
 .debug_pubnames
                0x0000000000000155       0x1d 0x1 /usr/local/popcorn/aarch64//lib/libc.a(ferror.o)
 .debug_pubnames
                0x0000000000000172       0x3d 0x1 /usr/local/popcorn/aarch64//lib/libc.a(fflush.o)
 .debug_pubnames
                0x00000000000001af       0x3a 0x1 /usr/local/popcorn/aarch64//lib/libc.a(fopen.o)
 .debug_pubnames
                0x00000000000001e9       0x1e 0x1 /usr/local/popcorn/aarch64//lib/libc.a(fprintf.o)
 .debug_pubnames
                0x0000000000000207       0xb9 0x1 /usr/local/popcorn/aarch64//lib/libc.a(vfprintf.o)
 .debug_pubnames
                0x00000000000002c0       0x1d 0x1 /usr/local/popcorn/aarch64//lib/libc.a(memchr.o)
 .debug_pubnames
                0x00000000000002dd       0x1d 0x1 /usr/local/popcorn/aarch64//lib/libc.a(memset.o)
 .debug_pubnames
                0x00000000000002fa       0x1d 0x1 /usr/local/popcorn/aarch64//lib/libc.a(strchr.o)
 .debug_pubnames
                0x0000000000000317       0x22 0x1 /usr/local/popcorn/aarch64//lib/libc.a(strchrnul.o)
 .debug_pubnames
                0x0000000000000339       0x1d 0x1 /usr/local/popcorn/aarch64//lib/libc.a(strlen.o)
 .debug_pubnames
                0x0000000000000356       0x4c 0x1 /usr/local/popcorn/aarch64//lib/libc.a(__lock.o)
 .debug_pubnames
                0x00000000000003a2       0x2c 0x1 /usr/local/popcorn/aarch64//lib/libc.a(__syscall_cp.o)
 .debug_pubnames
                0x00000000000003ce       0x3f 0x1 /usr/local/popcorn/aarch64//lib/libc.a(__wait.o)
 .debug_pubnames
                0x000000000000040d       0x20 0x1 /usr/local/popcorn/aarch64//lib/libc.a(__environ.o)
 .debug_pubnames
                0x000000000000042d       0x89 0x1 /usr/local/popcorn/aarch64//lib/libc.a(__init_tls.o)
 .debug_pubnames
                0x00000000000004b6       0x3a 0x1 /usr/local/popcorn/aarch64//lib/libc.a(__errno_location.o)
 .debug_pubnames
                0x00000000000004f0       0x58 0x1 /usr/local/popcorn/aarch64//lib/libc.a(strerror.o)
 .debug_pubnames
                0x0000000000000548       0x2b 0x1 /usr/local/popcorn/aarch64//lib/libc.a(_Exit.o)
 .debug_pubnames
                0x0000000000000573       0x24 0x1 /usr/local/popcorn/aarch64//lib/libc.a(syscall_ret.o)
 .debug_pubnames
                0x0000000000000597       0x4f 0x1 /usr/local/popcorn/aarch64//lib/libc.a(__lctrans.o)
 .debug_pubnames
                0x00000000000005e6      0x14f 0x1 /usr/local/popcorn/aarch64//lib/libc.a(malloc.o)
 .debug_pubnames
                0x0000000000000735       0x24 0x1 /usr/local/popcorn/aarch64//lib/libc.a(__fpclassifyl.o)
 .debug_pubnames
                0x0000000000000759       0x21 0x1 /usr/local/popcorn/aarch64//lib/libc.a(__signbitl.o)
 .debug_pubnames
                0x000000000000077a       0x1d 0x1 /usr/local/popcorn/aarch64//lib/libc.a(frexpl.o)
 .debug_pubnames
                0x0000000000000797       0x2f 0x1 /usr/local/popcorn/aarch64//lib/libc.a(madvise.o)
 .debug_pubnames
                0x00000000000007c6       0x36 0x1 /usr/local/popcorn/aarch64//lib/libc.a(mmap.o)
 .debug_pubnames
                0x00000000000007fc       0x2e 0x1 /usr/local/popcorn/aarch64//lib/libc.a(mremap.o)
 .debug_pubnames
                0x000000000000082a       0x38 0x1 /usr/local/popcorn/aarch64//lib/libc.a(munmap.o)
 .debug_pubnames
                0x0000000000000862       0x1d 0x1 /usr/local/popcorn/aarch64//lib/libc.a(wctomb.o)
 .debug_pubnames
                0x000000000000087f       0x31 0x1 /usr/local/popcorn/aarch64//lib/libc.a(sched_yield.o)
 .debug_pubnames
                0x00000000000008b0       0x3d 0x1 /usr/local/popcorn/aarch64//lib/libc.a(__fdopen.o)
 .debug_pubnames
                0x00000000000008ed       0x23 0x1 /usr/local/popcorn/aarch64//lib/libc.a(__fmodeflags.o)
 .debug_pubnames
                0x0000000000000910       0x66 0x1 /usr/local/popcorn/aarch64//lib/libc.a(__lockfile.o)
 .debug_pubnames
                0x0000000000000976       0x3d 0x1 /usr/local/popcorn/aarch64//lib/libc.a(__stdio_close.o)
 .debug_pubnames
                0x00000000000009b3       0x2f 0x1 /usr/local/popcorn/aarch64//lib/libc.a(__stdio_read.o)
 .debug_pubnames
                0x00000000000009e2       0x32 0x1 /usr/local/popcorn/aarch64//lib/libc.a(__stdio_seek.o)
 .debug_pubnames
                0x0000000000000a14       0x30 0x1 /usr/local/popcorn/aarch64//lib/libc.a(__stdio_write.o)
 .debug_pubnames
                0x0000000000000a44       0x2b 0x1 /usr/local/popcorn/aarch64//lib/libc.a(fwrite.o)
 .debug_pubnames
                0x0000000000000a6f       0x1d 0x1 /usr/local/popcorn/aarch64//lib/libc.a(memcpy.o)
 .debug_pubnames
                0x0000000000000a8c       0x4f 0x1 /usr/local/popcorn/aarch64//lib/libc.a(pthread_cleanup_push.o)
 .debug_pubnames
                0x0000000000000adb       0x2b 0x1 /usr/local/popcorn/aarch64//lib/libc.a(__brk.o)
 .debug_pubnames
                0x0000000000000b06       0x1e 0x1 /usr/local/popcorn/aarch64//lib/libc.a(wcrtomb.o)
 .debug_pubnames
                0x0000000000000b24       0x3f 0x1 /usr/local/popcorn/aarch64//lib/libc.a(__towrite.o)
 .debug_pubnames
                0x0000000000000b63       0x41 0x1 /usr/local/popcorn/aarch64//lib/libc.a(__stdio_exit.o)
 .debug_pubnames
                0x0000000000000ba4      0x13c 0x1 /usr/local/popcorn/aarch64//lib/libmigrate.a(migrate.o)
 .debug_pubnames
                0x0000000000000ce0      0x187 0x1 /usr/local/popcorn/aarch64//lib/libstack-transform.a(userspace.o)
 .debug_pubnames
                0x0000000000000e67       0x49 0x1 /usr/local/popcorn/aarch64//lib/libstack-transform.a(init.o)
 .debug_pubnames
                0x0000000000000eb0      0x158 0x1 /usr/local/popcorn/aarch64//lib/libstack-transform.a(rewrite.o)
 .debug_pubnames
                0x0000000000001008      0x128 0x1 /usr/local/popcorn/aarch64//lib/libstack-transform.a(unwind.o)
 .debug_pubnames
                0x0000000000001130       0xda 0x1 /usr/local/popcorn/aarch64//lib/libstack-transform.a(util.o)
 .debug_pubnames
                0x000000000000120a       0xad 0x1 /usr/local/popcorn/aarch64//lib/libstack-transform.a(properties.o)
 .debug_pubnames
                0x00000000000012b7      0x189 0x1 /usr/local/popcorn/aarch64//lib/libstack-transform.a(regs.o)
 .debug_pubnames
                0x0000000000001440       0xa7 0x1 /usr/local/popcorn/aarch64//lib/libstack-transform.a(properties.o)
 .debug_pubnames
                0x00000000000014e7      0x177 0x1 /usr/local/popcorn/aarch64//lib/libstack-transform.a(regs.o)
 .debug_pubnames
                0x000000000000165e      0x12c 0x1 /usr/local/popcorn/aarch64//lib/libstack-transform.a(data.o)
 .debug_pubnames
                0x000000000000178a       0x1d 0x1 /usr/local/popcorn/aarch64//lib/libc.a(getenv.o)
 .debug_pubnames
                0x00000000000017a7       0x24 0x1 /usr/local/popcorn/aarch64//lib/libc.a(assert.o)
 .debug_pubnames
                0x00000000000017cb       0x2a 0x1 /usr/local/popcorn/aarch64//lib/libc.a(open.o)
 .debug_pubnames
                0x00000000000017f5       0x1d 0x1 /usr/local/popcorn/aarch64//lib/libc.a(calloc.o)
 .debug_pubnames
                0x0000000000001812       0x3e 0x1 /usr/local/popcorn/aarch64//lib/libc.a(getrlimit.o)
 .debug_pubnames
                0x0000000000001850       0x2d 0x1 /usr/local/popcorn/aarch64//lib/libc.a(syscall.o)
 .debug_pubnames
                0x000000000000187d       0x1e 0x1 /usr/local/popcorn/aarch64//lib/libc.a(getline.o)
 .debug_pubnames
                0x000000000000189b       0x1f 0x1 /usr/local/popcorn/aarch64//lib/libc.a(snprintf.o)
 .debug_pubnames
                0x00000000000018ba       0x1d 0x1 /usr/local/popcorn/aarch64//lib/libc.a(sscanf.o)
 .debug_pubnames
                0x00000000000018d7       0x3d 0x1 /usr/local/popcorn/aarch64//lib/libc.a(stderr.o)
 .debug_pubnames
                0x0000000000001914       0x2d 0x1 /usr/local/popcorn/aarch64//lib/libc.a(vsnprintf.o)
 .debug_pubnames
                0x0000000000001941       0x2a 0x1 /usr/local/popcorn/aarch64//lib/libc.a(vsscanf.o)
 .debug_pubnames
                0x000000000000196b       0x69 0x1 /usr/local/popcorn/aarch64//lib/libc.a(strtol.o)
 .debug_pubnames
                0x00000000000019d4       0x1d 0x1 /usr/local/popcorn/aarch64//lib/libc.a(memcmp.o)
 .debug_pubnames
                0x00000000000019f1       0x1d 0x1 /usr/local/popcorn/aarch64//lib/libc.a(strcmp.o)
 .debug_pubnames
                0x0000000000001a0e       0x1e 0x1 /usr/local/popcorn/aarch64//lib/libc.a(strncmp.o)
 .debug_pubnames
                0x0000000000001a2c      0x206 0x1 /usr/local/popcorn/aarch64//lib/libc.a(pthread_attr_get.o)
 .debug_pubnames
                0x0000000000001c32       0x29 0x1 /usr/local/popcorn/aarch64//lib/libc.a(pthread_getattr_np.o)
 .debug_pubnames
                0x0000000000001c5b       0x3f 0x1 /usr/local/popcorn/aarch64//lib/libc.a(pthread_getspecific.o)
 .debug_pubnames
                0x0000000000001c9a       0xc1 0x1 /usr/local/popcorn/aarch64//lib/libc.a(pthread_key_create.o)
 .debug_pubnames
                0x0000000000001d5b       0x3e 0x1 /usr/local/popcorn/aarch64//lib/libc.a(pthread_migrate.o)
 .debug_pubnames
                0x0000000000001d99       0x41 0x1 /usr/local/popcorn/aarch64//lib/libc.a(pthread_self.o)
 .debug_pubnames
                0x0000000000001dda       0x3d 0x1 /usr/local/popcorn/aarch64//lib/libc.a(pthread_setspecific.o)
 .debug_pubnames
                0x0000000000001e17       0x26 0x1 /usr/local/popcorn/aarch64//lib/libc.a(close.o)
 .debug_pubnames
                0x0000000000001e3d       0x2c 0x1 /usr/local/popcorn/aarch64//lib/libc.a(getpid.o)
 .debug_pubnames
                0x0000000000001e69       0x2b 0x1 /usr/local/popcorn/aarch64//lib/libc.a(lseek.o)
 .debug_pubnames
                0x0000000000001e94       0x1b 0x1 /usr/local/popcorn/aarch64//lib/libc.a(read.o)
 .debug_pubnames
                0x0000000000001eaf       0x1c 0x1 /usr/local/popcorn/aarch64//lib/libc.a(abort.o)
 .debug_pubnames
                0x0000000000001ecb       0x38 0x1 /usr/local/popcorn/aarch64//lib/libc.a(intscan.o)
 .debug_pubnames
                0x0000000000001f03       0x2b 0x1 /usr/local/popcorn/aarch64//lib/libc.a(shgetc.o)
 .debug_pubnames
                0x0000000000001f2e       0x3a 0x1 /usr/local/popcorn/aarch64//lib/libc.a(raise.o)
 .debug_pubnames
                0x0000000000001f68       0x24 0x1 /usr/local/popcorn/aarch64//lib/libc.a(__string_read.o)
 .debug_pubnames
                0x0000000000001f8c       0x1e 0x1 /usr/local/popcorn/aarch64//lib/libc.a(__uflow.o)
 .debug_pubnames
                0x0000000000001faa       0x1f 0x1 /usr/local/popcorn/aarch64//lib/libc.a(getdelim.o)
 .debug_pubnames
                0x0000000000001fc9       0x44 0x1 /usr/local/popcorn/aarch64//lib/libc.a(vfscanf.o)
 .debug_pubnames
                0x000000000000200d       0x66 0x1 /usr/local/popcorn/aarch64//lib/libc.a(floatscan.o)
 .debug_pubnames
                0x0000000000002073       0x20 0x1 /usr/local/popcorn/aarch64//lib/libc.a(copysignl.o)
 .debug_pubnames
                0x0000000000002093       0x3f 0x1 /usr/local/popcorn/aarch64//lib/libc.a(fmodl.o)
 .debug_pubnames
                0x00000000000020d2       0x1d 0x1 /usr/local/popcorn/aarch64//lib/libc.a(scalbn.o)
 .debug_pubnames
                0x00000000000020ef       0x1e 0x1 /usr/local/popcorn/aarch64//lib/libc.a(scalbnl.o)
 .debug_pubnames
                0x000000000000210d       0x31 0x1 /usr/local/popcorn/aarch64//lib/libc.a(mbrtowc.o)
 .debug_pubnames
                0x000000000000213e       0x1e 0x1 /usr/local/popcorn/aarch64//lib/libc.a(mbsinit.o)
 .debug_pubnames
                0x000000000000215c       0x78 0x1 /usr/local/popcorn/aarch64//lib/libc.a(block.o)
 .debug_pubnames
                0x00000000000021d4       0x3d 0x1 /usr/local/popcorn/aarch64//lib/libc.a(__toread.o)
 .debug_pubnames
                0x0000000000002211       0x1e 0x1 /usr/local/popcorn/aarch64//lib/libc.a(internal.o)

.debug_pubtypes
                0x0000000000000000     0x4231
 .debug_pubtypes
                0x0000000000000000       0x30 0x1 /usr/local/popcorn/aarch64//lib/crt1.o
 .debug_pubtypes
                0x0000000000000030       0x74 0x1 /usr/local/popcorn/aarch64//lib/libc.a(__libc_start_main.o)
 .debug_pubtypes
                0x00000000000000a4       0x3e 0x1 /usr/local/popcorn/aarch64//lib/libc.a(exit.o)
 .debug_pubtypes
                0x00000000000000e2       0x6c 0x1 /usr/local/popcorn/aarch64//lib/libc.a(libc.o)
 .debug_pubtypes
                0x000000000000014e       0xae 0x1 /usr/local/popcorn/aarch64//lib/libc.a(fclose.o)
 .debug_pubtypes
                0x00000000000001fc       0xae 0x1 /usr/local/popcorn/aarch64//lib/libc.a(ferror.o)
 .debug_pubtypes
                0x00000000000002aa       0xae 0x1 /usr/local/popcorn/aarch64//lib/libc.a(fflush.o)
 .debug_pubtypes
                0x0000000000000358       0xae 0x1 /usr/local/popcorn/aarch64//lib/libc.a(fopen.o)
 .debug_pubtypes
                0x0000000000000406       0x5c 0x1 /usr/local/popcorn/aarch64//lib/libc.a(fprintf.o)
 .debug_pubtypes
                0x0000000000000462      0x17f 0x1 /usr/local/popcorn/aarch64//lib/libc.a(vfprintf.o)
 .debug_pubtypes
                0x00000000000005e1       0x5b 0x1 /usr/local/popcorn/aarch64//lib/libc.a(memchr.o)
 .debug_pubtypes
                0x000000000000063c       0x86 0x1 /usr/local/popcorn/aarch64//lib/libc.a(memset.o)
 .debug_pubtypes
                0x00000000000006c2       0x35 0x1 /usr/local/popcorn/aarch64//lib/libc.a(strchr.o)
 .debug_pubtypes
                0x00000000000006f7       0x64 0x1 /usr/local/popcorn/aarch64//lib/libc.a(strchrnul.o)
 .debug_pubtypes
                0x000000000000075b       0x4a 0x1 /usr/local/popcorn/aarch64//lib/libc.a(strlen.o)
 .debug_pubtypes
                0x00000000000007a5       0x1a 0x1 /usr/local/popcorn/aarch64//lib/libc.a(__lock.o)
 .debug_pubtypes
                0x00000000000007bf       0x31 0x1 /usr/local/popcorn/aarch64//lib/libc.a(__syscall_cp.o)
 .debug_pubtypes
                0x00000000000007f0       0x1a 0x1 /usr/local/popcorn/aarch64//lib/libc.a(__wait.o)
 .debug_pubtypes
                0x000000000000080a       0x1b 0x1 /usr/local/popcorn/aarch64//lib/libc.a(__environ.o)
 .debug_pubtypes
                0x0000000000000825      0x173 0x1 /usr/local/popcorn/aarch64//lib/libc.a(__init_tls.o)
 .debug_pubtypes
                0x0000000000000998       0xc8 0x1 /usr/local/popcorn/aarch64//lib/libc.a(__errno_location.o)
 .debug_pubtypes
                0x0000000000000a60       0xd9 0x1 /usr/local/popcorn/aarch64//lib/libc.a(strerror.o)
 .debug_pubtypes
                0x0000000000000b39       0x27 0x1 /usr/local/popcorn/aarch64//lib/libc.a(_Exit.o)
 .debug_pubtypes
                0x0000000000000b60       0x35 0x1 /usr/local/popcorn/aarch64//lib/libc.a(syscall_ret.o)
 .debug_pubtypes
                0x0000000000000b95       0xd9 0x1 /usr/local/popcorn/aarch64//lib/libc.a(__lctrans.o)
 .debug_pubtypes
                0x0000000000000c6e       0x82 0x1 /usr/local/popcorn/aarch64//lib/libc.a(malloc.o)
 .debug_pubtypes
                0x0000000000000cf0       0x97 0x1 /usr/local/popcorn/aarch64//lib/libc.a(__fpclassifyl.o)
 .debug_pubtypes
                0x0000000000000d87       0x97 0x1 /usr/local/popcorn/aarch64//lib/libc.a(__signbitl.o)
 .debug_pubtypes
                0x0000000000000e1e       0x97 0x1 /usr/local/popcorn/aarch64//lib/libc.a(frexpl.o)
 .debug_pubtypes
                0x0000000000000eb5       0x48 0x1 /usr/local/popcorn/aarch64//lib/libc.a(madvise.o)
 .debug_pubtypes
                0x0000000000000efd       0x52 0x1 /usr/local/popcorn/aarch64//lib/libc.a(mmap.o)
 .debug_pubtypes
                0x0000000000000f4f       0x78 0x1 /usr/local/popcorn/aarch64//lib/libc.a(mremap.o)
 .debug_pubtypes
                0x0000000000000fc7       0x48 0x1 /usr/local/popcorn/aarch64//lib/libc.a(munmap.o)
 .debug_pubtypes
                0x000000000000100f       0x40 0x1 /usr/local/popcorn/aarch64//lib/libc.a(wctomb.o)
 .debug_pubtypes
                0x000000000000104f       0x27 0x1 /usr/local/popcorn/aarch64//lib/libc.a(sched_yield.o)
 .debug_pubtypes
                0x0000000000001076       0xcd 0x1 /usr/local/popcorn/aarch64//lib/libc.a(__fdopen.o)
 .debug_pubtypes
                0x0000000000001143       0x23 0x1 /usr/local/popcorn/aarch64//lib/libc.a(__fmodeflags.o)
 .debug_pubtypes
                0x0000000000001166      0x113 0x1 /usr/local/popcorn/aarch64//lib/libc.a(__lockfile.o)
 .debug_pubtypes
                0x0000000000001279       0xae 0x1 /usr/local/popcorn/aarch64//lib/libc.a(__stdio_close.o)
 .debug_pubtypes
                0x0000000000001327       0xcf 0x1 /usr/local/popcorn/aarch64//lib/libc.a(__stdio_read.o)
 .debug_pubtypes
                0x00000000000013f6       0xae 0x1 /usr/local/popcorn/aarch64//lib/libc.a(__stdio_seek.o)
 .debug_pubtypes
                0x00000000000014a4       0xcf 0x1 /usr/local/popcorn/aarch64//lib/libc.a(__stdio_write.o)
 .debug_pubtypes
                0x0000000000001573       0xae 0x1 /usr/local/popcorn/aarch64//lib/libc.a(fwrite.o)
 .debug_pubtypes
                0x0000000000001621       0x71 0x1 /usr/local/popcorn/aarch64//lib/libc.a(memcpy.o)
 .debug_pubtypes
                0x0000000000001692       0x25 0x1 /usr/local/popcorn/aarch64//lib/libc.a(pthread_cleanup_push.o)
 .debug_pubtypes
                0x00000000000016b7       0x43 0x1 /usr/local/popcorn/aarch64//lib/libc.a(__brk.o)
 .debug_pubtypes
                0x00000000000016fa       0x77 0x1 /usr/local/popcorn/aarch64//lib/libc.a(wcrtomb.o)
 .debug_pubtypes
                0x0000000000001771       0xae 0x1 /usr/local/popcorn/aarch64//lib/libc.a(__towrite.o)
 .debug_pubtypes
                0x000000000000181f       0xae 0x1 /usr/local/popcorn/aarch64//lib/libc.a(__stdio_exit.o)
 .debug_pubtypes
                0x00000000000018cd       0xd7 0x1 /usr/local/popcorn/aarch64//lib/libmigrate.a(migrate.o)
 .debug_pubtypes
                0x00000000000019a4      0x260 0x1 /usr/local/popcorn/aarch64//lib/libstack-transform.a(userspace.o)
 .debug_pubtypes
                0x0000000000001c04      0x1ef 0x1 /usr/local/popcorn/aarch64//lib/libstack-transform.a(init.o)
 .debug_pubtypes
                0x0000000000001df3      0x20c 0x1 /usr/local/popcorn/aarch64//lib/libstack-transform.a(rewrite.o)
 .debug_pubtypes
                0x0000000000001fff      0x20c 0x1 /usr/local/popcorn/aarch64//lib/libstack-transform.a(unwind.o)
 .debug_pubtypes
                0x000000000000220b      0x22e 0x1 /usr/local/popcorn/aarch64//lib/libstack-transform.a(util.o)
 .debug_pubtypes
                0x0000000000002439       0x82 0x1 /usr/local/popcorn/aarch64//lib/libstack-transform.a(properties.o)
 .debug_pubtypes
                0x00000000000024bb       0xd7 0x1 /usr/local/popcorn/aarch64//lib/libstack-transform.a(regs.o)
 .debug_pubtypes
                0x0000000000002592       0x8f 0x1 /usr/local/popcorn/aarch64//lib/libstack-transform.a(properties.o)
 .debug_pubtypes
                0x0000000000002621      0x103 0x1 /usr/local/popcorn/aarch64//lib/libstack-transform.a(regs.o)
 .debug_pubtypes
                0x0000000000002724      0x22c 0x1 /usr/local/popcorn/aarch64//lib/libstack-transform.a(data.o)
 .debug_pubtypes
                0x0000000000002950       0x44 0x1 /usr/local/popcorn/aarch64//lib/libc.a(getenv.o)
 .debug_pubtypes
                0x0000000000002994       0x23 0x1 /usr/local/popcorn/aarch64//lib/libc.a(assert.o)
 .debug_pubtypes
                0x00000000000029b7       0x7c 0x1 /usr/local/popcorn/aarch64//lib/libc.a(open.o)
 .debug_pubtypes
                0x0000000000002a33       0x33 0x1 /usr/local/popcorn/aarch64//lib/libc.a(calloc.o)
 .debug_pubtypes
                0x0000000000002a66       0x6e 0x1 /usr/local/popcorn/aarch64//lib/libc.a(getrlimit.o)
 .debug_pubtypes
                0x0000000000002ad4       0x69 0x1 /usr/local/popcorn/aarch64//lib/libc.a(syscall.o)
 .debug_pubtypes
                0x0000000000002b3d       0x5e 0x1 /usr/local/popcorn/aarch64//lib/libc.a(getline.o)
 .debug_pubtypes
                0x0000000000002b9b       0x74 0x1 /usr/local/popcorn/aarch64//lib/libc.a(snprintf.o)
 .debug_pubtypes
                0x0000000000002c0f       0x53 0x1 /usr/local/popcorn/aarch64//lib/libc.a(sscanf.o)
 .debug_pubtypes
                0x0000000000002c62       0xae 0x1 /usr/local/popcorn/aarch64//lib/libc.a(stderr.o)
 .debug_pubtypes
                0x0000000000002d10       0xde 0x1 /usr/local/popcorn/aarch64//lib/libc.a(vsnprintf.o)
 .debug_pubtypes
                0x0000000000002dee       0xde 0x1 /usr/local/popcorn/aarch64//lib/libc.a(vsscanf.o)
 .debug_pubtypes
                0x0000000000002ecc       0xf6 0x1 /usr/local/popcorn/aarch64//lib/libc.a(strtol.o)
 .debug_pubtypes
                0x0000000000002fc2       0x4d 0x1 /usr/local/popcorn/aarch64//lib/libc.a(memcmp.o)
 .debug_pubtypes
                0x000000000000300f       0x35 0x1 /usr/local/popcorn/aarch64//lib/libc.a(strcmp.o)
 .debug_pubtypes
                0x0000000000003044       0x56 0x1 /usr/local/popcorn/aarch64//lib/libc.a(strncmp.o)
 .debug_pubtypes
                0x000000000000309a      0x104 0x1 /usr/local/popcorn/aarch64//lib/libc.a(pthread_attr_get.o)
 .debug_pubtypes
                0x000000000000319e       0xd6 0x1 /usr/local/popcorn/aarch64//lib/libc.a(pthread_getattr_np.o)
 .debug_pubtypes
                0x0000000000003274       0xeb 0x1 /usr/local/popcorn/aarch64//lib/libc.a(pthread_getspecific.o)
 .debug_pubtypes
                0x000000000000335f       0xf9 0x1 /usr/local/popcorn/aarch64//lib/libc.a(pthread_key_create.o)
 .debug_pubtypes
                0x0000000000003458       0xc8 0x1 /usr/local/popcorn/aarch64//lib/libc.a(pthread_migrate.o)
 .debug_pubtypes
                0x0000000000003520       0xd6 0x1 /usr/local/popcorn/aarch64//lib/libc.a(pthread_self.o)
 .debug_pubtypes
                0x00000000000035f6       0xeb 0x1 /usr/local/popcorn/aarch64//lib/libc.a(pthread_setspecific.o)
 .debug_pubtypes
                0x00000000000036e1       0x27 0x1 /usr/local/popcorn/aarch64//lib/libc.a(close.o)
 .debug_pubtypes
                0x0000000000003708       0x31 0x1 /usr/local/popcorn/aarch64//lib/libc.a(getpid.o)
 .debug_pubtypes
                0x0000000000003739       0x31 0x1 /usr/local/popcorn/aarch64//lib/libc.a(lseek.o)
 .debug_pubtypes
                0x000000000000376a       0x54 0x1 /usr/local/popcorn/aarch64//lib/libc.a(read.o)
 .debug_pubtypes
                0x00000000000037be       0xc9 0x1 /usr/local/popcorn/aarch64//lib/libc.a(intscan.o)
 .debug_pubtypes
                0x0000000000003887       0xae 0x1 /usr/local/popcorn/aarch64//lib/libc.a(shgetc.o)
 .debug_pubtypes
                0x0000000000003935       0x59 0x1 /usr/local/popcorn/aarch64//lib/libc.a(raise.o)
 .debug_pubtypes
                0x000000000000398e       0xae 0x1 /usr/local/popcorn/aarch64//lib/libc.a(__string_read.o)
 .debug_pubtypes
                0x0000000000003a3c       0xae 0x1 /usr/local/popcorn/aarch64//lib/libc.a(__uflow.o)
 .debug_pubtypes
                0x0000000000003aea       0xba 0x1 /usr/local/popcorn/aarch64//lib/libc.a(getdelim.o)
 .debug_pubtypes
                0x0000000000003ba4      0x168 0x1 /usr/local/popcorn/aarch64//lib/libc.a(vfscanf.o)
 .debug_pubtypes
                0x0000000000003d0c       0xea 0x1 /usr/local/popcorn/aarch64//lib/libc.a(floatscan.o)
 .debug_pubtypes
                0x0000000000003df6       0x8f 0x1 /usr/local/popcorn/aarch64//lib/libc.a(copysignl.o)
 .debug_pubtypes
                0x0000000000003e85       0xc7 0x1 /usr/local/popcorn/aarch64//lib/libc.a(fmodl.o)
 .debug_pubtypes
                0x0000000000003f4c       0x55 0x1 /usr/local/popcorn/aarch64//lib/libc.a(scalbn.o)
 .debug_pubtypes
                0x0000000000003fa1       0x97 0x1 /usr/local/popcorn/aarch64//lib/libc.a(scalbnl.o)
 .debug_pubtypes
                0x0000000000004038       0x9d 0x1 /usr/local/popcorn/aarch64//lib/libc.a(mbrtowc.o)
 .debug_pubtypes
                0x00000000000040d5       0x49 0x1 /usr/local/popcorn/aarch64//lib/libc.a(mbsinit.o)
 .debug_pubtypes
                0x000000000000411e       0x35 0x1 /usr/local/popcorn/aarch64//lib/libc.a(block.o)
 .debug_pubtypes
                0x0000000000004153       0xae 0x1 /usr/local/popcorn/aarch64//lib/libc.a(__toread.o)
 .debug_pubtypes
                0x0000000000004201       0x30 0x1 /usr/local/popcorn/aarch64//lib/libc.a(internal.o)

.debug_frame    0x0000000000000000     0x2848
 .debug_frame   0x0000000000000000       0x38 0x8 /usr/local/popcorn/aarch64//lib/crt1.o
 .debug_frame   0x0000000000000038       0x78 0x8 /usr/local/popcorn/aarch64//lib/libc.a(__libc_start_main.o)
 .debug_frame   0x00000000000000b0       0x58 0x8 /usr/local/popcorn/aarch64//lib/libc.a(exit.o)
 .debug_frame   0x0000000000000108       0x58 0x8 /usr/local/popcorn/aarch64//lib/libc.a(fclose.o)
 .debug_frame   0x0000000000000160       0x40 0x8 /usr/local/popcorn/aarch64//lib/libc.a(ferror.o)
 .debug_frame   0x00000000000001a0       0x68 0x8 /usr/local/popcorn/aarch64//lib/libc.a(fflush.o)
 .debug_frame   0x0000000000000208       0x40 0x8 /usr/local/popcorn/aarch64//lib/libc.a(fopen.o)
 .debug_frame   0x0000000000000248       0x40 0x8 /usr/local/popcorn/aarch64//lib/libc.a(fprintf.o)
 .debug_frame   0x0000000000000288       0xd0 0x8 /usr/local/popcorn/aarch64//lib/libc.a(vfprintf.o)
 .debug_frame   0x0000000000000358       0x30 0x8 /usr/local/popcorn/aarch64//lib/libc.a(memchr.o)
 .debug_frame   0x0000000000000388       0x30 0x8 /usr/local/popcorn/aarch64//lib/libc.a(memset.o)
 .debug_frame   0x00000000000003b8       0x40 0x8 /usr/local/popcorn/aarch64//lib/libc.a(strchr.o)
 .debug_frame   0x00000000000003f8       0x40 0x8 /usr/local/popcorn/aarch64//lib/libc.a(strchrnul.o)
 .debug_frame   0x0000000000000438       0x30 0x8 /usr/local/popcorn/aarch64//lib/libc.a(strlen.o)
 .debug_frame   0x0000000000000468       0x58 0x8 /usr/local/popcorn/aarch64//lib/libc.a(__lock.o)
 .debug_frame   0x00000000000004c0       0x48 0x8 /usr/local/popcorn/aarch64//lib/libc.a(__syscall_cp.o)
 .debug_frame   0x0000000000000508       0x40 0x8 /usr/local/popcorn/aarch64//lib/libc.a(__wait.o)
 .debug_frame   0x0000000000000548       0x68 0x8 /usr/local/popcorn/aarch64//lib/libc.a(__init_tls.o)
 .debug_frame   0x00000000000005b0       0x30 0x8 /usr/local/popcorn/aarch64//lib/libc.a(__errno_location.o)
 .debug_frame   0x00000000000005e0       0x48 0x8 /usr/local/popcorn/aarch64//lib/libc.a(strerror.o)
 .debug_frame   0x0000000000000628       0x30 0x8 /usr/local/popcorn/aarch64//lib/libc.a(_Exit.o)
 .debug_frame   0x0000000000000658       0x40 0x8 /usr/local/popcorn/aarch64//lib/libc.a(syscall_ret.o)
 .debug_frame   0x0000000000000698       0x60 0x8 /usr/local/popcorn/aarch64//lib/libc.a(__lctrans.o)
 .debug_frame   0x00000000000006f8      0x138 0x8 /usr/local/popcorn/aarch64//lib/libc.a(malloc.o)
 .debug_frame   0x0000000000000830       0x38 0x8 /usr/local/popcorn/aarch64//lib/libc.a(__fpclassifyl.o)
 .debug_frame   0x0000000000000868       0x38 0x8 /usr/local/popcorn/aarch64//lib/libc.a(__signbitl.o)
 .debug_frame   0x00000000000008a0       0x40 0x8 /usr/local/popcorn/aarch64//lib/libc.a(frexpl.o)
 .debug_frame   0x00000000000008e0       0x38 0x8 /usr/local/popcorn/aarch64//lib/libc.a(madvise.o)
 .debug_frame   0x0000000000000918       0x60 0x8 /usr/local/popcorn/aarch64//lib/libc.a(mmap.o)
 .debug_frame   0x0000000000000978       0x38 0x8 /usr/local/popcorn/aarch64//lib/libc.a(mremap.o)
 .debug_frame   0x00000000000009b0       0x58 0x8 /usr/local/popcorn/aarch64//lib/libc.a(munmap.o)
 .debug_frame   0x0000000000000a08       0x38 0x8 /usr/local/popcorn/aarch64//lib/libc.a(wctomb.o)
 .debug_frame   0x0000000000000a40       0x38 0x8 /usr/local/popcorn/aarch64//lib/libc.a(sched_yield.o)
 .debug_frame   0x0000000000000a78       0x40 0x8 /usr/local/popcorn/aarch64//lib/libc.a(__fdopen.o)
 .debug_frame   0x0000000000000ab8       0x40 0x8 /usr/local/popcorn/aarch64//lib/libc.a(__fmodeflags.o)
 .debug_frame   0x0000000000000af8       0x58 0x8 /usr/local/popcorn/aarch64//lib/libc.a(__lockfile.o)
 .debug_frame   0x0000000000000b50       0x50 0x8 /usr/local/popcorn/aarch64//lib/libc.a(__stdio_close.o)
 .debug_frame   0x0000000000000ba0       0x58 0x8 /usr/local/popcorn/aarch64//lib/libc.a(__stdio_read.o)
 .debug_frame   0x0000000000000bf8       0x30 0x8 /usr/local/popcorn/aarch64//lib/libc.a(__stdio_seek.o)
 .debug_frame   0x0000000000000c28       0x60 0x8 /usr/local/popcorn/aarch64//lib/libc.a(__stdio_write.o)
 .debug_frame   0x0000000000000c88       0x78 0x8 /usr/local/popcorn/aarch64//lib/libc.a(fwrite.o)
 .debug_frame   0x0000000000000d00       0x30 0x8 /usr/local/popcorn/aarch64//lib/libc.a(memcpy.o)
 .debug_frame   0x0000000000000d30       0x70 0x8 /usr/local/popcorn/aarch64//lib/libc.a(pthread_cleanup_push.o)
 .debug_frame   0x0000000000000da0       0x30 0x8 /usr/local/popcorn/aarch64//lib/libc.a(__brk.o)
 .debug_frame   0x0000000000000dd0       0x38 0x8 /usr/local/popcorn/aarch64//lib/libc.a(wcrtomb.o)
 .debug_frame   0x0000000000000e08       0x48 0x8 /usr/local/popcorn/aarch64//lib/libc.a(__towrite.o)
 .debug_frame   0x0000000000000e50       0x68 0x8 /usr/local/popcorn/aarch64//lib/libc.a(__stdio_exit.o)
 .debug_frame   0x0000000000000eb8      0x170 0x8 /usr/local/popcorn/aarch64//lib/libmigrate.a(migrate.o)
 .debug_frame   0x0000000000001028      0x110 0x8 /usr/local/popcorn/aarch64//lib/libstack-transform.a(userspace.o)
 .debug_frame   0x0000000000001138       0x98 0x8 /usr/local/popcorn/aarch64//lib/libstack-transform.a(init.o)
 .debug_frame   0x00000000000011d0       0xa8 0x8 /usr/local/popcorn/aarch64//lib/libstack-transform.a(rewrite.o)
 .debug_frame   0x0000000000001278      0x150 0x8 /usr/local/popcorn/aarch64//lib/libstack-transform.a(unwind.o)
 .debug_frame   0x00000000000013c8      0x130 0x8 /usr/local/popcorn/aarch64//lib/libstack-transform.a(util.o)
 .debug_frame   0x00000000000014f8       0x70 0x8 /usr/local/popcorn/aarch64//lib/libstack-transform.a(properties.o)
 .debug_frame   0x0000000000001568      0x1e0 0x8 /usr/local/popcorn/aarch64//lib/libstack-transform.a(regs.o)
 .debug_frame   0x0000000000001748       0x68 0x8 /usr/local/popcorn/aarch64//lib/libstack-transform.a(properties.o)
 .debug_frame   0x00000000000017b0      0x1f0 0x8 /usr/local/popcorn/aarch64//lib/libstack-transform.a(regs.o)
 .debug_frame   0x00000000000019a0      0x168 0x8 /usr/local/popcorn/aarch64//lib/libstack-transform.a(data.o)
 .debug_frame   0x0000000000001b08       0x40 0x8 /usr/local/popcorn/aarch64//lib/libc.a(getenv.o)
 .debug_frame   0x0000000000001b48       0x38 0x8 /usr/local/popcorn/aarch64//lib/libc.a(assert.o)
 .debug_frame   0x0000000000001b80       0x40 0x8 /usr/local/popcorn/aarch64//lib/libc.a(open.o)
 .debug_frame   0x0000000000001bc0       0x40 0x8 /usr/local/popcorn/aarch64//lib/libc.a(calloc.o)
 .debug_frame   0x0000000000001c00       0x40 0x8 /usr/local/popcorn/aarch64//lib/libc.a(getrlimit.o)
 .debug_frame   0x0000000000001c40       0x38 0x8 /usr/local/popcorn/aarch64//lib/libc.a(syscall.o)
 .debug_frame   0x0000000000001c78       0x30 0x8 /usr/local/popcorn/aarch64//lib/libc.a(getline.o)
 .debug_frame   0x0000000000001ca8       0x40 0x8 /usr/local/popcorn/aarch64//lib/libc.a(snprintf.o)
 .debug_frame   0x0000000000001ce8       0x40 0x8 /usr/local/popcorn/aarch64//lib/libc.a(sscanf.o)
 .debug_frame   0x0000000000001d28       0x70 0x8 /usr/local/popcorn/aarch64//lib/libc.a(vsnprintf.o)
 .debug_frame   0x0000000000001d98       0x58 0x8 /usr/local/popcorn/aarch64//lib/libc.a(vsscanf.o)
 .debug_frame   0x0000000000001df0       0xd8 0x8 /usr/local/popcorn/aarch64//lib/libc.a(strtol.o)
 .debug_frame   0x0000000000001ec8       0x30 0x8 /usr/local/popcorn/aarch64//lib/libc.a(memcmp.o)
 .debug_frame   0x0000000000001ef8       0x30 0x8 /usr/local/popcorn/aarch64//lib/libc.a(strcmp.o)
 .debug_frame   0x0000000000001f28       0x30 0x8 /usr/local/popcorn/aarch64//lib/libc.a(strncmp.o)
 .debug_frame   0x0000000000001f58      0x198 0x8 /usr/local/popcorn/aarch64//lib/libc.a(pthread_attr_get.o)
 .debug_frame   0x00000000000020f0       0x48 0x8 /usr/local/popcorn/aarch64//lib/libc.a(pthread_getattr_np.o)
 .debug_frame   0x0000000000002138       0x30 0x8 /usr/local/popcorn/aarch64//lib/libc.a(pthread_getspecific.o)
 .debug_frame   0x0000000000002168       0x90 0x8 /usr/local/popcorn/aarch64//lib/libc.a(pthread_key_create.o)
 .debug_frame   0x00000000000021f8       0x30 0x8 /usr/local/popcorn/aarch64//lib/libc.a(pthread_migrate.o)
 .debug_frame   0x0000000000002228       0x30 0x8 /usr/local/popcorn/aarch64//lib/libc.a(pthread_self.o)
 .debug_frame   0x0000000000002258       0x30 0x8 /usr/local/popcorn/aarch64//lib/libc.a(pthread_setspecific.o)
 .debug_frame   0x0000000000002288       0x50 0x8 /usr/local/popcorn/aarch64//lib/libc.a(close.o)
 .debug_frame   0x00000000000022d8       0x30 0x8 /usr/local/popcorn/aarch64//lib/libc.a(getpid.o)
 .debug_frame   0x0000000000002308       0x30 0x8 /usr/local/popcorn/aarch64//lib/libc.a(lseek.o)
 .debug_frame   0x0000000000002338       0x38 0x8 /usr/local/popcorn/aarch64//lib/libc.a(read.o)
 .debug_frame   0x0000000000002370       0x38 0x8 /usr/local/popcorn/aarch64//lib/libc.a(abort.o)
 .debug_frame   0x00000000000023a8       0x48 0x8 /usr/local/popcorn/aarch64//lib/libc.a(intscan.o)
 .debug_frame   0x00000000000023f0       0x58 0x8 /usr/local/popcorn/aarch64//lib/libc.a(shgetc.o)
 .debug_frame   0x0000000000002448       0x40 0x8 /usr/local/popcorn/aarch64//lib/libc.a(raise.o)
 .debug_frame   0x0000000000002488       0x48 0x8 /usr/local/popcorn/aarch64//lib/libc.a(__string_read.o)
 .debug_frame   0x00000000000024d0       0x40 0x8 /usr/local/popcorn/aarch64//lib/libc.a(__uflow.o)
 .debug_frame   0x0000000000002510       0x50 0x8 /usr/local/popcorn/aarch64//lib/libc.a(getdelim.o)
 .debug_frame   0x0000000000002560       0x50 0x8 /usr/local/popcorn/aarch64//lib/libc.a(vfscanf.o)
 .debug_frame   0x00000000000025b0       0x88 0x8 /usr/local/popcorn/aarch64//lib/libc.a(floatscan.o)
 .debug_frame   0x0000000000002638       0x38 0x8 /usr/local/popcorn/aarch64//lib/libc.a(copysignl.o)
 .debug_frame   0x0000000000002670       0x48 0x8 /usr/local/popcorn/aarch64//lib/libc.a(fmodl.o)
 .debug_frame   0x00000000000026b8       0x30 0x8 /usr/local/popcorn/aarch64//lib/libc.a(scalbn.o)
 .debug_frame   0x00000000000026e8       0x40 0x8 /usr/local/popcorn/aarch64//lib/libc.a(scalbnl.o)
 .debug_frame   0x0000000000002728       0x38 0x8 /usr/local/popcorn/aarch64//lib/libc.a(mbrtowc.o)
 .debug_frame   0x0000000000002760       0x30 0x8 /usr/local/popcorn/aarch64//lib/libc.a(mbsinit.o)
 .debug_frame   0x0000000000002790       0x60 0x8 /usr/local/popcorn/aarch64//lib/libc.a(block.o)
 .debug_frame   0x00000000000027f0       0x58 0x8 /usr/local/popcorn/aarch64//lib/libc.a(__toread.o)

.debug_line     0x0000000000000000     0xadff
 .debug_line    0x0000000000000000       0x4b 0x1 /usr/local/popcorn/aarch64//lib/crt1.o
 .debug_line    0x000000000000004b      0x201 0x1 /usr/local/popcorn/aarch64//lib/libc.a(__libc_start_main.o)
 .debug_line    0x000000000000024c       0x96 0x1 /usr/local/popcorn/aarch64//lib/libc.a(exit.o)
 .debug_line    0x00000000000002e2       0x6f 0x1 /usr/local/popcorn/aarch64//lib/libc.a(libc.o)
 .debug_line    0x0000000000000351       0xf5 0x1 /usr/local/popcorn/aarch64//lib/libc.a(fclose.o)
 .debug_line    0x0000000000000446       0xb5 0x1 /usr/local/popcorn/aarch64//lib/libc.a(ferror.o)
 .debug_line    0x00000000000004fb      0x149 0x1 /usr/local/popcorn/aarch64//lib/libc.a(fflush.o)
 .debug_line    0x0000000000000644       0xf4 0x1 /usr/local/popcorn/aarch64//lib/libc.a(fopen.o)
 .debug_line    0x0000000000000738       0x79 0x1 /usr/local/popcorn/aarch64//lib/libc.a(fprintf.o)
 .debug_line    0x00000000000007b1     0x114c 0x1 /usr/local/popcorn/aarch64//lib/libc.a(vfprintf.o)
 .debug_line    0x00000000000018fd       0xea 0x1 /usr/local/popcorn/aarch64//lib/libc.a(memchr.o)
 .debug_line    0x00000000000019e7      0x11b 0x1 /usr/local/popcorn/aarch64//lib/libc.a(memset.o)
 .debug_line    0x0000000000001b02       0x53 0x1 /usr/local/popcorn/aarch64//lib/libc.a(strchr.o)
 .debug_line    0x0000000000001b55       0xb8 0x1 /usr/local/popcorn/aarch64//lib/libc.a(strchrnul.o)
 .debug_line    0x0000000000001c0d       0x9f 0x1 /usr/local/popcorn/aarch64//lib/libc.a(strlen.o)
 .debug_line    0x0000000000001cac       0xd7 0x1 /usr/local/popcorn/aarch64//lib/libc.a(__lock.o)
 .debug_line    0x0000000000001d83       0x84 0x1 /usr/local/popcorn/aarch64//lib/libc.a(__syscall_cp.o)
 .debug_line    0x0000000000001e07       0xae 0x1 /usr/local/popcorn/aarch64//lib/libc.a(__wait.o)
 .debug_line    0x0000000000001eb5       0x34 0x1 /usr/local/popcorn/aarch64//lib/libc.a(__environ.o)
 .debug_line    0x0000000000001ee9      0x237 0x1 /usr/local/popcorn/aarch64//lib/libc.a(__init_tls.o)
 .debug_line    0x0000000000002120       0xe2 0x1 /usr/local/popcorn/aarch64//lib/libc.a(__errno_location.o)
 .debug_line    0x0000000000002202      0x12b 0x1 /usr/local/popcorn/aarch64//lib/libc.a(strerror.o)
 .debug_line    0x000000000000232d       0x7c 0x1 /usr/local/popcorn/aarch64//lib/libc.a(_Exit.o)
 .debug_line    0x00000000000023a9       0x44 0x1 /usr/local/popcorn/aarch64//lib/libc.a(syscall.o)
 .debug_line    0x00000000000023ed       0x61 0x1 /usr/local/popcorn/aarch64//lib/libc.a(syscall_ret.o)
 .debug_line    0x000000000000244e      0x11f 0x1 /usr/local/popcorn/aarch64//lib/libc.a(__lctrans.o)
 .debug_line    0x000000000000256d      0xa7b 0x1 /usr/local/popcorn/aarch64//lib/libc.a(malloc.o)
 .debug_line    0x0000000000002fe8       0xad 0x1 /usr/local/popcorn/aarch64//lib/libc.a(__fpclassifyl.o)
 .debug_line    0x0000000000003095       0x8a 0x1 /usr/local/popcorn/aarch64//lib/libc.a(__signbitl.o)
 .debug_line    0x000000000000311f       0xbd 0x1 /usr/local/popcorn/aarch64//lib/libc.a(frexpl.o)
 .debug_line    0x00000000000031dc       0xa8 0x1 /usr/local/popcorn/aarch64//lib/libc.a(madvise.o)
 .debug_line    0x0000000000003284       0xdd 0x1 /usr/local/popcorn/aarch64//lib/libc.a(mmap.o)
 .debug_line    0x0000000000003361       0xd1 0x1 /usr/local/popcorn/aarch64//lib/libc.a(mremap.o)
 .debug_line    0x0000000000003432       0xbb 0x1 /usr/local/popcorn/aarch64//lib/libc.a(munmap.o)
 .debug_line    0x00000000000034ed       0x76 0x1 /usr/local/popcorn/aarch64//lib/libc.a(wctomb.o)
 .debug_line    0x0000000000003563       0x86 0x1 /usr/local/popcorn/aarch64//lib/libc.a(sched_yield.o)
 .debug_line    0x00000000000035e9      0x196 0x1 /usr/local/popcorn/aarch64//lib/libc.a(__fdopen.o)
 .debug_line    0x000000000000377f       0xb3 0x1 /usr/local/popcorn/aarch64//lib/libc.a(__fmodeflags.o)
 .debug_line    0x0000000000003832      0x15e 0x1 /usr/local/popcorn/aarch64//lib/libc.a(__lockfile.o)
 .debug_line    0x0000000000003990       0xe5 0x1 /usr/local/popcorn/aarch64//lib/libc.a(__stdio_close.o)
 .debug_line    0x0000000000003a75      0x12d 0x1 /usr/local/popcorn/aarch64//lib/libc.a(__stdio_read.o)
 .debug_line    0x0000000000003ba2       0xc6 0x1 /usr/local/popcorn/aarch64//lib/libc.a(__stdio_seek.o)
 .debug_line    0x0000000000003c68      0x164 0x1 /usr/local/popcorn/aarch64//lib/libc.a(__stdio_write.o)
 .debug_line    0x0000000000003dcc      0x127 0x1 /usr/local/popcorn/aarch64//lib/libc.a(fwrite.o)
 .debug_line    0x0000000000003ef3      0x295 0x1 /usr/local/popcorn/aarch64//lib/libc.a(memcpy.o)
 .debug_line    0x0000000000004188       0x47 0x1 /usr/local/popcorn/aarch64//lib/libc.a(__set_thread_area.o)
 .debug_line    0x00000000000041cf       0xae 0x1 /usr/local/popcorn/aarch64//lib/libc.a(pthread_cleanup_push.o)
 .debug_line    0x000000000000427d       0x9c 0x1 /usr/local/popcorn/aarch64//lib/libc.a(__brk.o)
 .debug_line    0x0000000000004319       0xcb 0x1 /usr/local/popcorn/aarch64//lib/libc.a(wcrtomb.o)
 .debug_line    0x00000000000043e4       0xcf 0x1 /usr/local/popcorn/aarch64//lib/libc.a(__towrite.o)
 .debug_line    0x00000000000044b3       0xf7 0x1 /usr/local/popcorn/aarch64//lib/libc.a(__stdio_exit.o)
 .debug_line    0x00000000000045aa      0x331 0x1 /usr/local/popcorn/aarch64//lib/libmigrate.a(migrate.o)
 .debug_line    0x00000000000048db      0x4a0 0x1 /usr/local/popcorn/aarch64//lib/libstack-transform.a(userspace.o)
 .debug_line    0x0000000000004d7b      0x2c8 0x1 /usr/local/popcorn/aarch64//lib/libstack-transform.a(init.o)
 .debug_line    0x0000000000005043      0xa47 0x1 /usr/local/popcorn/aarch64//lib/libstack-transform.a(rewrite.o)
 .debug_line    0x0000000000005a8a      0x565 0x1 /usr/local/popcorn/aarch64//lib/libstack-transform.a(unwind.o)
 .debug_line    0x0000000000005fef      0x3f2 0x1 /usr/local/popcorn/aarch64//lib/libstack-transform.a(util.o)
 .debug_line    0x00000000000063e1       0xf6 0x1 /usr/local/popcorn/aarch64//lib/libstack-transform.a(properties.o)
 .debug_line    0x00000000000064d7      0x546 0x1 /usr/local/popcorn/aarch64//lib/libstack-transform.a(regs.o)
 .debug_line    0x0000000000006a1d       0xf6 0x1 /usr/local/popcorn/aarch64//lib/libstack-transform.a(properties.o)
 .debug_line    0x0000000000006b13      0x3fb 0x1 /usr/local/popcorn/aarch64//lib/libstack-transform.a(regs.o)
 .debug_line    0x0000000000006f0e      0x6cb 0x1 /usr/local/popcorn/aarch64//lib/libstack-transform.a(data.o)
 .debug_line    0x00000000000075d9       0xa4 0x1 /usr/local/popcorn/aarch64//lib/libc.a(getenv.o)
 .debug_line    0x000000000000767d       0x52 0x1 /usr/local/popcorn/aarch64//lib/libc.a(assert.o)
 .debug_line    0x00000000000076cf       0xd6 0x1 /usr/local/popcorn/aarch64//lib/libc.a(open.o)
 .debug_line    0x00000000000077a5       0xb6 0x1 /usr/local/popcorn/aarch64//lib/libc.a(calloc.o)
 .debug_line    0x000000000000785b      0x11a 0x1 /usr/local/popcorn/aarch64//lib/libc.a(getrlimit.o)
 .debug_line    0x0000000000007975      0x17c 0x1 /usr/local/popcorn/aarch64//lib/libc.a(syscall.o)
 .debug_line    0x0000000000007af1       0x6b 0x1 /usr/local/popcorn/aarch64//lib/libc.a(getline.o)
 .debug_line    0x0000000000007b5c       0x7a 0x1 /usr/local/popcorn/aarch64//lib/libc.a(snprintf.o)
 .debug_line    0x0000000000007bd6       0x78 0x1 /usr/local/popcorn/aarch64//lib/libc.a(sscanf.o)
 .debug_line    0x0000000000007c4e       0x74 0x1 /usr/local/popcorn/aarch64//lib/libc.a(stderr.o)
 .debug_line    0x0000000000007cc2       0xfd 0x1 /usr/local/popcorn/aarch64//lib/libc.a(vsnprintf.o)
 .debug_line    0x0000000000007dbf       0xb4 0x1 /usr/local/popcorn/aarch64//lib/libc.a(vsscanf.o)
 .debug_line    0x0000000000007e73      0x15a 0x1 /usr/local/popcorn/aarch64//lib/libc.a(strtol.o)
 .debug_line    0x0000000000007fcd       0x8f 0x1 /usr/local/popcorn/aarch64//lib/libc.a(memcmp.o)
 .debug_line    0x000000000000805c       0x66 0x1 /usr/local/popcorn/aarch64//lib/libc.a(strcmp.o)
 .debug_line    0x00000000000080c2       0x94 0x1 /usr/local/popcorn/aarch64//lib/libc.a(strncmp.o)
 .debug_line    0x0000000000008156      0x286 0x1 /usr/local/popcorn/aarch64//lib/libc.a(pthread_attr_get.o)
 .debug_line    0x00000000000083dc      0x140 0x1 /usr/local/popcorn/aarch64//lib/libc.a(pthread_getattr_np.o)
 .debug_line    0x000000000000851c       0xe9 0x1 /usr/local/popcorn/aarch64//lib/libc.a(pthread_getspecific.o)
 .debug_line    0x0000000000008605      0x1b7 0x1 /usr/local/popcorn/aarch64//lib/libc.a(pthread_key_create.o)
 .debug_line    0x00000000000087bc       0xe2 0x1 /usr/local/popcorn/aarch64//lib/libc.a(pthread_migrate.o)
 .debug_line    0x000000000000889e       0xd9 0x1 /usr/local/popcorn/aarch64//lib/libc.a(pthread_self.o)
 .debug_line    0x0000000000008977       0xf5 0x1 /usr/local/popcorn/aarch64//lib/libc.a(pthread_setspecific.o)
 .debug_line    0x0000000000008a6c       0x70 0x1 /usr/local/popcorn/aarch64//lib/libc.a(close.o)
 .debug_line    0x0000000000008adc       0x9d 0x1 /usr/local/popcorn/aarch64//lib/libc.a(getpid.o)
 .debug_line    0x0000000000008b79       0xa1 0x1 /usr/local/popcorn/aarch64//lib/libc.a(lseek.o)
 .debug_line    0x0000000000008c1a       0x6c 0x1 /usr/local/popcorn/aarch64//lib/libc.a(read.o)
 .debug_line    0x0000000000008c86       0x4c 0x1 /usr/local/popcorn/aarch64//lib/libc.a(abort.o)
 .debug_line    0x0000000000008cd2      0x352 0x1 /usr/local/popcorn/aarch64//lib/libc.a(intscan.o)
 .debug_line    0x0000000000009024      0x106 0x1 /usr/local/popcorn/aarch64//lib/libc.a(shgetc.o)
 .debug_line    0x000000000000912a       0xb9 0x1 /usr/local/popcorn/aarch64//lib/libc.a(raise.o)
 .debug_line    0x00000000000091e3       0xb3 0x1 /usr/local/popcorn/aarch64//lib/libc.a(__string_read.o)
 .debug_line    0x0000000000009296       0xa7 0x1 /usr/local/popcorn/aarch64//lib/libc.a(__uflow.o)
 .debug_line    0x000000000000933d      0x18a 0x1 /usr/local/popcorn/aarch64//lib/libc.a(getdelim.o)
 .debug_line    0x00000000000094c7      0x574 0x1 /usr/local/popcorn/aarch64//lib/libc.a(vfscanf.o)
 .debug_line    0x0000000000009a3b      0xca0 0x1 /usr/local/popcorn/aarch64//lib/libc.a(floatscan.o)
 .debug_line    0x000000000000a6db       0x98 0x1 /usr/local/popcorn/aarch64//lib/libc.a(copysignl.o)
 .debug_line    0x000000000000a773       0x3b 0x1 /usr/local/popcorn/aarch64//lib/libc.a(fabs.o)
 .debug_line    0x000000000000a7ae      0x178 0x1 /usr/local/popcorn/aarch64//lib/libc.a(fmodl.o)
 .debug_line    0x000000000000a926       0xaf 0x1 /usr/local/popcorn/aarch64//lib/libc.a(scalbn.o)
 .debug_line    0x000000000000a9d5       0xc4 0x1 /usr/local/popcorn/aarch64//lib/libc.a(scalbnl.o)
 .debug_line    0x000000000000aa99       0xdf 0x1 /usr/local/popcorn/aarch64//lib/libc.a(mbrtowc.o)
 .debug_line    0x000000000000ab78       0x78 0x1 /usr/local/popcorn/aarch64//lib/libc.a(mbsinit.o)
 .debug_line    0x000000000000abf0       0xd3 0x1 /usr/local/popcorn/aarch64//lib/libc.a(block.o)
 .debug_line    0x000000000000acc3       0xe1 0x1 /usr/local/popcorn/aarch64//lib/libc.a(__toread.o)
 .debug_line    0x000000000000ada4       0x5b 0x1 /usr/local/popcorn/aarch64//lib/libc.a(internal.o)

.debug_aranges  0x0000000000000000       0x90
 .debug_aranges
                0x0000000000000000       0x30 0x1 /usr/local/popcorn/aarch64//lib/libc.a(syscall.o)
 .debug_aranges
                0x0000000000000030       0x30 0x1 /usr/local/popcorn/aarch64//lib/libc.a(__set_thread_area.o)
 .debug_aranges
                0x0000000000000060       0x30 0x1 /usr/local/popcorn/aarch64//lib/libc.a(fabs.o)

.note.gnu.gold-version
                0x0000000000000000       0x1c
 ** note header
                0x0000000000000000       0x10
 ** fill        0x0000000000000010        0x9
 ** zero fill   0x0000000000000019        0x3

.symtab         0x0000000000000000     0xdc20
 ** symtab      0x0000000000000000     0xdc20

.strtab         0x0000000000000000     0x31b8
 ** string table
                0x0000000000000000     0x31b8

.shstrtab       0x0000000000000000      0x165
 ** string table
                0x0000000000000000      0x165
