Archive member included because of file (symbol)

/usr/local/popcorn/x86_64//lib/libc.a(__libc_start_main.o)
                              /usr/local/popcorn/x86_64//lib/crt1.o (__libc_start_main)
/usr/local/popcorn/x86_64//lib/libc.a(exit.o)
                              /usr/local/popcorn/x86_64//lib/libc.a(__libc_start_main.o) (exit)
/usr/local/popcorn/x86_64//lib/libc.a(libc.o)
                              /usr/local/popcorn/x86_64//lib/libc.a(__libc_start_main.o) (__hwcap)
/usr/local/popcorn/x86_64//lib/libc.a(fclose.o)
                              /tmp/conftest-dcbec8_x86_64.o (fclose)
/usr/local/popcorn/x86_64//lib/libc.a(ferror.o)
                              /tmp/conftest-dcbec8_x86_64.o (ferror)
/usr/local/popcorn/x86_64//lib/libc.a(fflush.o)
                              /usr/local/popcorn/x86_64//lib/libc.a(fclose.o) (fflush)
/usr/local/popcorn/x86_64//lib/libc.a(fopen.o)
                              /tmp/conftest-dcbec8_x86_64.o (fopen)
/usr/local/popcorn/x86_64//lib/libc.a(fprintf.o)
                              /tmp/conftest-dcbec8_x86_64.o (fprintf)
/usr/local/popcorn/x86_64//lib/libc.a(vfprintf.o)
                              /usr/local/popcorn/x86_64//lib/libc.a(fprintf.o) (vfprintf)
/usr/local/popcorn/x86_64//lib/libc.a(memchr.o)
                              /usr/local/popcorn/x86_64//lib/libc.a(vfprintf.o) (memchr)
/usr/local/popcorn/x86_64//lib/libc.a(memset.o)
                              /usr/local/popcorn/x86_64//lib/libc.a(__libc_start_main.o) (memset)
/usr/local/popcorn/x86_64//lib/libc.a(strchr.o)
                              /usr/local/popcorn/x86_64//lib/libc.a(fopen.o) (strchr)
/usr/local/popcorn/x86_64//lib/libc.a(strchrnul.o)
                              /usr/local/popcorn/x86_64//lib/libc.a(strchr.o) (__strchrnul)
/usr/local/popcorn/x86_64//lib/libc.a(strlen.o)
                              /usr/local/popcorn/x86_64//lib/libc.a(strchrnul.o) (strlen)
/usr/local/popcorn/x86_64//lib/libc.a(__lock.o)
                              /usr/local/popcorn/x86_64//lib/libc.a(fclose.o) (__lock)
/usr/local/popcorn/x86_64//lib/libc.a(__syscall_cp.o)
                              /usr/local/popcorn/x86_64//lib/libc.a(fopen.o) (__syscall_cp)
/usr/local/popcorn/x86_64//lib/libc.a(__wait.o)
                              /usr/local/popcorn/x86_64//lib/libc.a(__lock.o) (__wait)
/usr/local/popcorn/x86_64//lib/libc.a(__environ.o)
                              /usr/local/popcorn/x86_64//lib/libc.a(__libc_start_main.o) (__environ)
/usr/local/popcorn/x86_64//lib/libc.a(__init_tls.o)
                              /usr/local/popcorn/x86_64//lib/libc.a(__libc_start_main.o) (__init_tls)
/usr/local/popcorn/x86_64//lib/libc.a(__errno_location.o)
                              /usr/local/popcorn/x86_64//lib/libc.a(fopen.o) (__errno_location)
/usr/local/popcorn/x86_64//lib/libc.a(strerror.o)
                              /usr/local/popcorn/x86_64//lib/libc.a(vfprintf.o) (strerror)
/usr/local/popcorn/x86_64//lib/libc.a(_Exit.o)
                              /usr/local/popcorn/x86_64//lib/libc.a(exit.o) (_Exit)
/usr/local/popcorn/x86_64//lib/libc.a(syscall.o)
                              /usr/local/popcorn/x86_64//lib/libc.a(__syscall_cp.o) (__syscall)
/usr/local/popcorn/x86_64//lib/libc.a(syscall_ret.o)
                              /usr/local/popcorn/x86_64//lib/libc.a(fopen.o) (__syscall_ret)
/usr/local/popcorn/x86_64//lib/libc.a(__lctrans.o)
                              /usr/local/popcorn/x86_64//lib/libc.a(strerror.o) (__lctrans)
/usr/local/popcorn/x86_64//lib/libc.a(malloc.o)
                              /usr/local/popcorn/x86_64//lib/libc.a(fclose.o) (free)
/usr/local/popcorn/x86_64//lib/libc.a(__fpclassifyl.o)
                              /usr/local/popcorn/x86_64//lib/libc.a(vfprintf.o) (__fpclassifyl)
/usr/local/popcorn/x86_64//lib/libc.a(__signbitl.o)
                              /usr/local/popcorn/x86_64//lib/libc.a(vfprintf.o) (__signbitl)
/usr/local/popcorn/x86_64//lib/libc.a(frexpl.o)
                              /usr/local/popcorn/x86_64//lib/libc.a(vfprintf.o) (frexpl)
/usr/local/popcorn/x86_64//lib/libc.a(madvise.o)
                              /usr/local/popcorn/x86_64//lib/libc.a(malloc.o) (__madvise)
/usr/local/popcorn/x86_64//lib/libc.a(mmap.o)
                              /usr/local/popcorn/x86_64//lib/libc.a(malloc.o) (__mmap)
/usr/local/popcorn/x86_64//lib/libc.a(mremap.o)
                              /usr/local/popcorn/x86_64//lib/libc.a(malloc.o) (__mremap)
/usr/local/popcorn/x86_64//lib/libc.a(munmap.o)
                              /usr/local/popcorn/x86_64//lib/libc.a(malloc.o) (__munmap)
/usr/local/popcorn/x86_64//lib/libc.a(wctomb.o)
                              /usr/local/popcorn/x86_64//lib/libc.a(vfprintf.o) (wctomb)
/usr/local/popcorn/x86_64//lib/libc.a(sched_yield.o)
                              /usr/local/popcorn/x86_64//lib/libc.a(__wait.o) (sched_yield)
/usr/local/popcorn/x86_64//lib/libc.a(__fdopen.o)
                              /usr/local/popcorn/x86_64//lib/libc.a(fopen.o) (__fdopen)
/usr/local/popcorn/x86_64//lib/libc.a(__fmodeflags.o)
                              /usr/local/popcorn/x86_64//lib/libc.a(fopen.o) (__fmodeflags)
/usr/local/popcorn/x86_64//lib/libc.a(__lockfile.o)
                              /usr/local/popcorn/x86_64//lib/libc.a(fclose.o) (__lockfile)
/usr/local/popcorn/x86_64//lib/libc.a(__stdio_close.o)
                              /usr/local/popcorn/x86_64//lib/libc.a(__fdopen.o) (__stdio_close)
/usr/local/popcorn/x86_64//lib/libc.a(__stdio_read.o)
                              /usr/local/popcorn/x86_64//lib/libc.a(__fdopen.o) (__stdio_read)
/usr/local/popcorn/x86_64//lib/libc.a(__stdio_seek.o)
                              /usr/local/popcorn/x86_64//lib/libc.a(__fdopen.o) (__stdio_seek)
/usr/local/popcorn/x86_64//lib/libc.a(__stdio_write.o)
                              /usr/local/popcorn/x86_64//lib/libc.a(__fdopen.o) (__stdio_write)
/usr/local/popcorn/x86_64//lib/libc.a(fwrite.o)
                              /usr/local/popcorn/x86_64//lib/libc.a(vfprintf.o) (__fwritex)
/usr/local/popcorn/x86_64//lib/libc.a(memcpy.o)
                              /usr/local/popcorn/x86_64//lib/libc.a(__init_tls.o) (memcpy)
/usr/local/popcorn/x86_64//lib/libc.a(__set_thread_area.o)
                              /usr/local/popcorn/x86_64//lib/libc.a(__init_tls.o) (__set_thread_area)
/usr/local/popcorn/x86_64//lib/libc.a(pthread_cleanup_push.o)
                              /usr/local/popcorn/x86_64//lib/libc.a(__stdio_read.o) (_pthread_cleanup_pop)
/usr/local/popcorn/x86_64//lib/libc.a(__brk.o)
                              /usr/local/popcorn/x86_64//lib/libc.a(malloc.o) (__brk)
/usr/local/popcorn/x86_64//lib/libc.a(wcrtomb.o)
                              /usr/local/popcorn/x86_64//lib/libc.a(wctomb.o) (wcrtomb)
/usr/local/popcorn/x86_64//lib/libc.a(__towrite.o)
                              /usr/local/popcorn/x86_64//lib/libc.a(fwrite.o) (__towrite)
/usr/local/popcorn/x86_64//lib/libc.a(__stdio_exit.o)
                              /usr/local/popcorn/x86_64//lib/libc.a(__towrite.o) (__stdio_exit_needed)
/usr/local/popcorn/x86_64//lib/libmigrate.a(migrate.o)
                              /tmp/conftest-dcbec8_x86_64.o (__cyg_profile_func_enter)
/usr/local/popcorn/x86_64//lib/libstack-transform.a(userspace.o)
                              /usr/local/popcorn/x86_64//lib/libmigrate.a(migrate.o) (st_userspace_rewrite)
/usr/local/popcorn/x86_64//lib/libstack-transform.a(init.o)
                              /usr/local/popcorn/x86_64//lib/libstack-transform.a(userspace.o) (st_destroy)
/usr/local/popcorn/x86_64//lib/libstack-transform.a(rewrite.o)
                              /usr/local/popcorn/x86_64//lib/libstack-transform.a(userspace.o) (st_rewrite_stack)
/usr/local/popcorn/x86_64//lib/libstack-transform.a(unwind.o)
                              /usr/local/popcorn/x86_64//lib/libstack-transform.a(rewrite.o) (bootstrap_first_frame)
/usr/local/popcorn/x86_64//lib/libstack-transform.a(util.o)
                              /usr/local/popcorn/x86_64//lib/libstack-transform.a(rewrite.o) (get_function_address)
/usr/local/popcorn/x86_64//lib/libstack-transform.a(properties.o)
                              /usr/local/popcorn/x86_64//lib/libstack-transform.a(util.o) (properties_aarch64)
/usr/local/popcorn/x86_64//lib/libstack-transform.a(regs.o)
                              /usr/local/popcorn/x86_64//lib/libstack-transform.a(util.o) (regs_aarch64)
/usr/local/popcorn/x86_64//lib/libstack-transform.a(properties.o)
                              /usr/local/popcorn/x86_64//lib/libstack-transform.a(util.o) (properties_x86_64)
/usr/local/popcorn/x86_64//lib/libstack-transform.a(regs.o)
                              /usr/local/popcorn/x86_64//lib/libstack-transform.a(util.o) (regs_x86_64)
/usr/local/popcorn/x86_64//lib/libstack-transform.a(data.o)
                              /usr/local/popcorn/x86_64//lib/libstack-transform.a(rewrite.o) (get_savedfbp_loc)
/usr/local/popcorn/x86_64//lib/libelf.a(begin.o)
                              /usr/local/popcorn/x86_64//lib/libstack-transform.a(init.o) (elf_begin)
/usr/local/popcorn/x86_64//lib/libelf.a(end.o)
                              /usr/local/popcorn/x86_64//lib/libstack-transform.a(init.o) (elf_end)
/usr/local/popcorn/x86_64//lib/libelf.a(getdata.o)
                              /usr/local/popcorn/x86_64//lib/libstack-transform.a(util.o) (elf_getdata)
/usr/local/popcorn/x86_64//lib/libelf.a(getident.o)
                              /usr/local/popcorn/x86_64//lib/libstack-transform.a(init.o) (elf_getident)
/usr/local/popcorn/x86_64//lib/libelf.a(nextscn.o)
                              /usr/local/popcorn/x86_64//lib/libstack-transform.a(util.o) (elf_nextscn)
/usr/local/popcorn/x86_64//lib/libelf.a(strptr.o)
                              /usr/local/popcorn/x86_64//lib/libstack-transform.a(util.o) (elf_strptr)
/usr/local/popcorn/x86_64//lib/libelf.a(version.o)
                              /usr/local/popcorn/x86_64//lib/libstack-transform.a(userspace.o) (elf_version)
/usr/local/popcorn/x86_64//lib/libelf.a(32.getehdr.o)
                              /usr/local/popcorn/x86_64//lib/libstack-transform.a(init.o) (elf64_getehdr)
/usr/local/popcorn/x86_64//lib/libelf.a(32.xlatetof.o)
                              /usr/local/popcorn/x86_64//lib/libelf.a(getdata.o) (_elf32_xltsize)
/usr/local/popcorn/x86_64//lib/libelf.a(cook.o)
                              /usr/local/popcorn/x86_64//lib/libelf.a(getdata.o) (_elf_xlatetom)
/usr/local/popcorn/x86_64//lib/libelf.a(data.o)
                              /usr/local/popcorn/x86_64//lib/libelf.a(strptr.o) (_elf_sanity_checks)
/usr/local/popcorn/x86_64//lib/libelf.a(input.o)
                              /usr/local/popcorn/x86_64//lib/libelf.a(begin.o) (_elf_read)
/usr/local/popcorn/x86_64//lib/libelf.a(x.elfext.o)
                              /usr/local/popcorn/x86_64//lib/libstack-transform.a(util.o) (elf_getshdrstrndx)
/usr/local/popcorn/x86_64//lib/libelf.a(64.xlatetof.o)
                              /usr/local/popcorn/x86_64//lib/libelf.a(getdata.o) (_elf64_xltsize)
/usr/local/popcorn/x86_64//lib/libelf.a(gelfshdr.o)
                              /usr/local/popcorn/x86_64//lib/libstack-transform.a(util.o) (gelf_getshdr)
/usr/local/popcorn/x86_64//lib/libelf.a(swap64.o)
                              /usr/local/popcorn/x86_64//lib/libelf.a(64.xlatetof.o) (_elf_load_u64L)
/usr/local/popcorn/x86_64//lib/libelf.a(verdef_32_tof.o)
                              /usr/local/popcorn/x86_64//lib/libelf.a(32.xlatetof.o) (_elf_verdef_32L11_tof)
/usr/local/popcorn/x86_64//lib/libelf.a(verdef_32_tom.o)
                              /usr/local/popcorn/x86_64//lib/libelf.a(32.xlatetof.o) (_elf_verdef_32L11_tom)
/usr/local/popcorn/x86_64//lib/libelf.a(verdef_64_tof.o)
                              /usr/local/popcorn/x86_64//lib/libelf.a(64.xlatetof.o) (_elf_verdef_64L11_tof)
/usr/local/popcorn/x86_64//lib/libelf.a(verdef_64_tom.o)
                              /usr/local/popcorn/x86_64//lib/libelf.a(64.xlatetof.o) (_elf_verdef_64L11_tom)
/usr/local/popcorn/x86_64//lib/libelf.a(getscn.o)
                              /usr/local/popcorn/x86_64//lib/libelf.a(strptr.o) (elf_getscn)
/usr/local/popcorn/x86_64//lib/libelf.a(newscn.o)
                              /usr/local/popcorn/x86_64//lib/libelf.a(x.elfext.o) (_elf_first_scn)
/usr/local/popcorn/x86_64//lib/libelf.a(32.fsize.o)
                              /usr/local/popcorn/x86_64//lib/libelf.a(cook.o) (_elf_fmsize)
/usr/local/popcorn/x86_64//lib/libc.a(getenv.o)
                              /usr/local/popcorn/x86_64//lib/libstack-transform.a(userspace.o) (getenv)
/usr/local/popcorn/x86_64//lib/libc.a(assert.o)
                              /usr/local/popcorn/x86_64//lib/libmigrate.a(migrate.o) (__assert_fail)
/usr/local/popcorn/x86_64//lib/libc.a(open.o)
                              /usr/local/popcorn/x86_64//lib/libstack-transform.a(init.o) (open)
/usr/local/popcorn/x86_64//lib/libc.a(calloc.o)
                              /usr/local/popcorn/x86_64//lib/libstack-transform.a(regs.o) (calloc)
/usr/local/popcorn/x86_64//lib/libc.a(getrlimit.o)
                              /usr/local/popcorn/x86_64//lib/libstack-transform.a(userspace.o) (getrlimit)
/usr/local/popcorn/x86_64//lib/libc.a(syscall.o)
                              /usr/local/popcorn/x86_64//lib/libmigrate.a(migrate.o) (syscall)
/usr/local/popcorn/x86_64//lib/libc.a(getline.o)
                              /usr/local/popcorn/x86_64//lib/libstack-transform.a(userspace.o) (getline)
/usr/local/popcorn/x86_64//lib/libc.a(snprintf.o)
                              /usr/local/popcorn/x86_64//lib/libstack-transform.a(userspace.o) (snprintf)
/usr/local/popcorn/x86_64//lib/libc.a(sscanf.o)
                              /usr/local/popcorn/x86_64//lib/libstack-transform.a(userspace.o) (sscanf)
/usr/local/popcorn/x86_64//lib/libc.a(stderr.o)
                              /usr/local/popcorn/x86_64//lib/libmigrate.a(migrate.o) (stderr)
/usr/local/popcorn/x86_64//lib/libc.a(vsnprintf.o)
                              /usr/local/popcorn/x86_64//lib/libc.a(snprintf.o) (vsnprintf)
/usr/local/popcorn/x86_64//lib/libc.a(vsscanf.o)
                              /usr/local/popcorn/x86_64//lib/libc.a(sscanf.o) (vsscanf)
/usr/local/popcorn/x86_64//lib/libc.a(strtol.o)
                              /usr/local/popcorn/x86_64//lib/libelf.a(version.o) (strtol)
/usr/local/popcorn/x86_64//lib/libc.a(memcmp.o)
                              /usr/local/popcorn/x86_64//lib/libelf.a(begin.o) (memcmp)
/usr/local/popcorn/x86_64//lib/libc.a(memmove.o)
                              /usr/local/popcorn/x86_64//lib/libelf.a(32.xlatetof.o) (memmove)
/usr/local/popcorn/x86_64//lib/libc.a(strcmp.o)
                              /usr/local/popcorn/x86_64//lib/libstack-transform.a(util.o) (strcmp)
/usr/local/popcorn/x86_64//lib/libc.a(strncmp.o)
                              /usr/local/popcorn/x86_64//lib/libstack-transform.a(userspace.o) (strncmp)
/usr/local/popcorn/x86_64//lib/libc.a(pthread_attr_get.o)
                              /usr/local/popcorn/x86_64//lib/libstack-transform.a(userspace.o) (pthread_attr_getstack)
/usr/local/popcorn/x86_64//lib/libc.a(pthread_getattr_np.o)
                              /usr/local/popcorn/x86_64//lib/libstack-transform.a(userspace.o) (pthread_getattr_np)
/usr/local/popcorn/x86_64//lib/libc.a(pthread_getspecific.o)
                              /usr/local/popcorn/x86_64//lib/libstack-transform.a(userspace.o) (pthread_getspecific)
/usr/local/popcorn/x86_64//lib/libc.a(pthread_key_create.o)
                              /usr/local/popcorn/x86_64//lib/libstack-transform.a(userspace.o) (pthread_key_create)
/usr/local/popcorn/x86_64//lib/libc.a(pthread_migrate.o)
                              /usr/local/popcorn/x86_64//lib/libmigrate.a(migrate.o) (pthread_migrate_args)
/usr/local/popcorn/x86_64//lib/libc.a(pthread_self.o)
                              /usr/local/popcorn/x86_64//lib/libstack-transform.a(userspace.o) (pthread_self)
/usr/local/popcorn/x86_64//lib/libc.a(pthread_setspecific.o)
                              /usr/local/popcorn/x86_64//lib/libstack-transform.a(userspace.o) (pthread_setspecific)
/usr/local/popcorn/x86_64//lib/libc.a(close.o)
                              /usr/local/popcorn/x86_64//lib/libstack-transform.a(init.o) (close)
/usr/local/popcorn/x86_64//lib/libc.a(getpid.o)
                              /usr/local/popcorn/x86_64//lib/libstack-transform.a(userspace.o) (getpid)
/usr/local/popcorn/x86_64//lib/libc.a(lseek.o)
                              /usr/local/popcorn/x86_64//lib/libelf.a(begin.o) (lseek)
/usr/local/popcorn/x86_64//lib/libc.a(read.o)
                              /usr/local/popcorn/x86_64//lib/libelf.a(input.o) (read)
/usr/local/popcorn/x86_64//lib/libc.a(abort.o)
                              /usr/local/popcorn/x86_64//lib/libc.a(assert.o) (abort)
/usr/local/popcorn/x86_64//lib/libc.a(intscan.o)
                              /usr/local/popcorn/x86_64//lib/libc.a(strtol.o) (__intscan)
/usr/local/popcorn/x86_64//lib/libc.a(shgetc.o)
                              /usr/local/popcorn/x86_64//lib/libc.a(intscan.o) (__shgetc)
/usr/local/popcorn/x86_64//lib/libc.a(raise.o)
                              /usr/local/popcorn/x86_64//lib/libc.a(abort.o) (raise)
/usr/local/popcorn/x86_64//lib/libc.a(__string_read.o)
                              /usr/local/popcorn/x86_64//lib/libc.a(vsscanf.o) (__string_read)
/usr/local/popcorn/x86_64//lib/libc.a(__uflow.o)
                              /usr/local/popcorn/x86_64//lib/libc.a(shgetc.o) (__uflow)
/usr/local/popcorn/x86_64//lib/libc.a(getdelim.o)
                              /usr/local/popcorn/x86_64//lib/libc.a(getline.o) (getdelim)
/usr/local/popcorn/x86_64//lib/libc.a(vfscanf.o)
                              /usr/local/popcorn/x86_64//lib/libc.a(vsscanf.o) (vfscanf)
/usr/local/popcorn/x86_64//lib/libc.a(floatscan.o)
                              /usr/local/popcorn/x86_64//lib/libc.a(vfscanf.o) (__floatscan)
/usr/local/popcorn/x86_64//lib/libc.a(copysignl.o)
                              /usr/local/popcorn/x86_64//lib/libc.a(floatscan.o) (copysignl)
/usr/local/popcorn/x86_64//lib/libc.a(fabs.o)
                              /usr/local/popcorn/x86_64//lib/libc.a(floatscan.o) (fabs)
/usr/local/popcorn/x86_64//lib/libc.a(fmodl.o)
                              /usr/local/popcorn/x86_64//lib/libc.a(floatscan.o) (fmodl)
/usr/local/popcorn/x86_64//lib/libc.a(scalbn.o)
                              /usr/local/popcorn/x86_64//lib/libc.a(floatscan.o) (scalbn)
/usr/local/popcorn/x86_64//lib/libc.a(scalbnl.o)
                              /usr/local/popcorn/x86_64//lib/libc.a(floatscan.o) (scalbnl)
/usr/local/popcorn/x86_64//lib/libc.a(mbrtowc.o)
                              /usr/local/popcorn/x86_64//lib/libc.a(vfscanf.o) (mbrtowc)
/usr/local/popcorn/x86_64//lib/libc.a(mbsinit.o)
                              /usr/local/popcorn/x86_64//lib/libc.a(vfscanf.o) (mbsinit)
/usr/local/popcorn/x86_64//lib/libc.a(block.o)
                              /usr/local/popcorn/x86_64//lib/libc.a(raise.o) (__block_app_sigs)
/usr/local/popcorn/x86_64//lib/libc.a(__toread.o)
                              /usr/local/popcorn/x86_64//lib/libc.a(__uflow.o) (__toread)
/usr/local/popcorn/x86_64//lib/libc.a(internal.o)
                              /usr/local/popcorn/x86_64//lib/libc.a(mbrtowc.o) (__fsmu8)

Allocating common symbols
Common symbol       size              file

status              0x10              /usr/local/popcorn/x86_64//lib/libmigrate.a(migrate.o)

Discarded input sections

 .note.GNU-stack
                0x0000000000000000        0x0 0x1 /tmp/conftest-dcbec8_x86_64.o
 .note.GNU-stack
                0x0000000000000000        0x0 0x1 /usr/local/popcorn/x86_64//lib/crt1.o
 .note.GNU-stack
                0x0000000000000000        0x0 0x1 /usr/local/popcorn/x86_64//lib/libc.a(__libc_start_main.o)
 .note.GNU-stack
                0x0000000000000000        0x0 0x1 /usr/local/popcorn/x86_64//lib/libc.a(exit.o)
 .note.GNU-stack
                0x0000000000000000        0x0 0x1 /usr/local/popcorn/x86_64//lib/libc.a(libc.o)
 .note.GNU-stack
                0x0000000000000000        0x0 0x1 /usr/local/popcorn/x86_64//lib/libc.a(fclose.o)
 .note.GNU-stack
                0x0000000000000000        0x0 0x1 /usr/local/popcorn/x86_64//lib/libc.a(ferror.o)
 .note.GNU-stack
                0x0000000000000000        0x0 0x1 /usr/local/popcorn/x86_64//lib/libc.a(fflush.o)
 .note.GNU-stack
                0x0000000000000000        0x0 0x1 /usr/local/popcorn/x86_64//lib/libc.a(fopen.o)
 .note.GNU-stack
                0x0000000000000000        0x0 0x1 /usr/local/popcorn/x86_64//lib/libc.a(fprintf.o)
 .note.GNU-stack
                0x0000000000000000        0x0 0x1 /usr/local/popcorn/x86_64//lib/libc.a(vfprintf.o)
 .note.GNU-stack
                0x0000000000000000        0x0 0x1 /usr/local/popcorn/x86_64//lib/libc.a(memchr.o)
 .note.GNU-stack
                0x0000000000000000        0x0 0x1 /usr/local/popcorn/x86_64//lib/libc.a(memset.o)
 .note.GNU-stack
                0x0000000000000000        0x0 0x1 /usr/local/popcorn/x86_64//lib/libc.a(strchr.o)
 .note.GNU-stack
                0x0000000000000000        0x0 0x1 /usr/local/popcorn/x86_64//lib/libc.a(strchrnul.o)
 .note.GNU-stack
                0x0000000000000000        0x0 0x1 /usr/local/popcorn/x86_64//lib/libc.a(strlen.o)
 .note.GNU-stack
                0x0000000000000000        0x0 0x1 /usr/local/popcorn/x86_64//lib/libc.a(__lock.o)
 .note.GNU-stack
                0x0000000000000000        0x0 0x1 /usr/local/popcorn/x86_64//lib/libc.a(__syscall_cp.o)
 .note.GNU-stack
                0x0000000000000000        0x0 0x1 /usr/local/popcorn/x86_64//lib/libc.a(__wait.o)
 .note.GNU-stack
                0x0000000000000000        0x0 0x1 /usr/local/popcorn/x86_64//lib/libc.a(__environ.o)
 .note.GNU-stack
                0x0000000000000000        0x0 0x1 /usr/local/popcorn/x86_64//lib/libc.a(__init_tls.o)
 .note.GNU-stack
                0x0000000000000000        0x0 0x1 /usr/local/popcorn/x86_64//lib/libc.a(__errno_location.o)
 .note.GNU-stack
                0x0000000000000000        0x0 0x1 /usr/local/popcorn/x86_64//lib/libc.a(strerror.o)
 .note.GNU-stack
                0x0000000000000000        0x0 0x1 /usr/local/popcorn/x86_64//lib/libc.a(_Exit.o)
 .note.GNU-stack
                0x0000000000000000        0x0 0x1 /usr/local/popcorn/x86_64//lib/libc.a(syscall.o)
 .note.GNU-stack
                0x0000000000000000        0x0 0x1 /usr/local/popcorn/x86_64//lib/libc.a(syscall_ret.o)
 .note.GNU-stack
                0x0000000000000000        0x0 0x1 /usr/local/popcorn/x86_64//lib/libc.a(__lctrans.o)
 .note.GNU-stack
                0x0000000000000000        0x0 0x1 /usr/local/popcorn/x86_64//lib/libc.a(malloc.o)
 .note.GNU-stack
                0x0000000000000000        0x0 0x1 /usr/local/popcorn/x86_64//lib/libc.a(__fpclassifyl.o)
 .note.GNU-stack
                0x0000000000000000        0x0 0x1 /usr/local/popcorn/x86_64//lib/libc.a(__signbitl.o)
 .note.GNU-stack
                0x0000000000000000        0x0 0x1 /usr/local/popcorn/x86_64//lib/libc.a(frexpl.o)
 .note.GNU-stack
                0x0000000000000000        0x0 0x1 /usr/local/popcorn/x86_64//lib/libc.a(madvise.o)
 .note.GNU-stack
                0x0000000000000000        0x0 0x1 /usr/local/popcorn/x86_64//lib/libc.a(mmap.o)
 .note.GNU-stack
                0x0000000000000000        0x0 0x1 /usr/local/popcorn/x86_64//lib/libc.a(mremap.o)
 .note.GNU-stack
                0x0000000000000000        0x0 0x1 /usr/local/popcorn/x86_64//lib/libc.a(munmap.o)
 .note.GNU-stack
                0x0000000000000000        0x0 0x1 /usr/local/popcorn/x86_64//lib/libc.a(wctomb.o)
 .note.GNU-stack
                0x0000000000000000        0x0 0x1 /usr/local/popcorn/x86_64//lib/libc.a(sched_yield.o)
 .note.GNU-stack
                0x0000000000000000        0x0 0x1 /usr/local/popcorn/x86_64//lib/libc.a(__fdopen.o)
 .note.GNU-stack
                0x0000000000000000        0x0 0x1 /usr/local/popcorn/x86_64//lib/libc.a(__fmodeflags.o)
 .note.GNU-stack
                0x0000000000000000        0x0 0x1 /usr/local/popcorn/x86_64//lib/libc.a(__lockfile.o)
 .note.GNU-stack
                0x0000000000000000        0x0 0x1 /usr/local/popcorn/x86_64//lib/libc.a(__stdio_close.o)
 .note.GNU-stack
                0x0000000000000000        0x0 0x1 /usr/local/popcorn/x86_64//lib/libc.a(__stdio_read.o)
 .note.GNU-stack
                0x0000000000000000        0x0 0x1 /usr/local/popcorn/x86_64//lib/libc.a(__stdio_seek.o)
 .note.GNU-stack
                0x0000000000000000        0x0 0x1 /usr/local/popcorn/x86_64//lib/libc.a(__stdio_write.o)
 .note.GNU-stack
                0x0000000000000000        0x0 0x1 /usr/local/popcorn/x86_64//lib/libc.a(fwrite.o)
 .note.GNU-stack
                0x0000000000000000        0x0 0x1 /usr/local/popcorn/x86_64//lib/libc.a(memcpy.o)
 .note.GNU-stack
                0x0000000000000000        0x0 0x1 /usr/local/popcorn/x86_64//lib/libc.a(__set_thread_area.o)
 .note.GNU-stack
                0x0000000000000000        0x0 0x1 /usr/local/popcorn/x86_64//lib/libc.a(pthread_cleanup_push.o)
 .note.GNU-stack
                0x0000000000000000        0x0 0x1 /usr/local/popcorn/x86_64//lib/libc.a(__brk.o)
 .note.GNU-stack
                0x0000000000000000        0x0 0x1 /usr/local/popcorn/x86_64//lib/libc.a(wcrtomb.o)
 .note.GNU-stack
                0x0000000000000000        0x0 0x1 /usr/local/popcorn/x86_64//lib/libc.a(__towrite.o)
 .note.GNU-stack
                0x0000000000000000        0x0 0x1 /usr/local/popcorn/x86_64//lib/libc.a(__stdio_exit.o)
 .note.GNU-stack
                0x0000000000000000        0x0 0x1 /usr/local/popcorn/x86_64//lib/libmigrate.a(migrate.o)
 .note.GNU-stack
                0x0000000000000000        0x0 0x1 /usr/local/popcorn/x86_64//lib/libstack-transform.a(userspace.o)
 .note.GNU-stack
                0x0000000000000000        0x0 0x1 /usr/local/popcorn/x86_64//lib/libstack-transform.a(init.o)
 .note.GNU-stack
                0x0000000000000000        0x0 0x1 /usr/local/popcorn/x86_64//lib/libstack-transform.a(rewrite.o)
 .note.GNU-stack
                0x0000000000000000        0x0 0x1 /usr/local/popcorn/x86_64//lib/libstack-transform.a(unwind.o)
 .note.GNU-stack
                0x0000000000000000        0x0 0x1 /usr/local/popcorn/x86_64//lib/libstack-transform.a(util.o)
 .note.GNU-stack
                0x0000000000000000        0x0 0x1 /usr/local/popcorn/x86_64//lib/libstack-transform.a(properties.o)
 .note.GNU-stack
                0x0000000000000000        0x0 0x1 /usr/local/popcorn/x86_64//lib/libstack-transform.a(regs.o)
 .note.GNU-stack
                0x0000000000000000        0x0 0x1 /usr/local/popcorn/x86_64//lib/libstack-transform.a(properties.o)
 .note.GNU-stack
                0x0000000000000000        0x0 0x1 /usr/local/popcorn/x86_64//lib/libstack-transform.a(regs.o)
 .note.GNU-stack
                0x0000000000000000        0x0 0x1 /usr/local/popcorn/x86_64//lib/libstack-transform.a(data.o)
 .note.GNU-stack
                0x0000000000000000        0x0 0x1 /usr/local/popcorn/x86_64//lib/libelf.a(begin.o)
 .note.GNU-stack
                0x0000000000000000        0x0 0x1 /usr/local/popcorn/x86_64//lib/libelf.a(end.o)
 .note.GNU-stack
                0x0000000000000000        0x0 0x1 /usr/local/popcorn/x86_64//lib/libelf.a(getdata.o)
 .note.GNU-stack
                0x0000000000000000        0x0 0x1 /usr/local/popcorn/x86_64//lib/libelf.a(getident.o)
 .note.GNU-stack
                0x0000000000000000        0x0 0x1 /usr/local/popcorn/x86_64//lib/libelf.a(nextscn.o)
 .note.GNU-stack
                0x0000000000000000        0x0 0x1 /usr/local/popcorn/x86_64//lib/libelf.a(strptr.o)
 .note.GNU-stack
                0x0000000000000000        0x0 0x1 /usr/local/popcorn/x86_64//lib/libelf.a(version.o)
 .note.GNU-stack
                0x0000000000000000        0x0 0x1 /usr/local/popcorn/x86_64//lib/libelf.a(32.getehdr.o)
 .note.GNU-stack
                0x0000000000000000        0x0 0x1 /usr/local/popcorn/x86_64//lib/libelf.a(32.xlatetof.o)
 .note.GNU-stack
                0x0000000000000000        0x0 0x1 /usr/local/popcorn/x86_64//lib/libelf.a(cook.o)
 .note.GNU-stack
                0x0000000000000000        0x0 0x1 /usr/local/popcorn/x86_64//lib/libelf.a(data.o)
 .note.GNU-stack
                0x0000000000000000        0x0 0x1 /usr/local/popcorn/x86_64//lib/libelf.a(input.o)
 .note.GNU-stack
                0x0000000000000000        0x0 0x1 /usr/local/popcorn/x86_64//lib/libelf.a(x.elfext.o)
 .note.GNU-stack
                0x0000000000000000        0x0 0x1 /usr/local/popcorn/x86_64//lib/libelf.a(64.xlatetof.o)
 .note.GNU-stack
                0x0000000000000000        0x0 0x1 /usr/local/popcorn/x86_64//lib/libelf.a(gelfshdr.o)
 .note.GNU-stack
                0x0000000000000000        0x0 0x1 /usr/local/popcorn/x86_64//lib/libelf.a(swap64.o)
 .note.GNU-stack
                0x0000000000000000        0x0 0x1 /usr/local/popcorn/x86_64//lib/libelf.a(verdef_32_tof.o)
 .note.GNU-stack
                0x0000000000000000        0x0 0x1 /usr/local/popcorn/x86_64//lib/libelf.a(verdef_32_tom.o)
 .note.GNU-stack
                0x0000000000000000        0x0 0x1 /usr/local/popcorn/x86_64//lib/libelf.a(verdef_64_tof.o)
 .note.GNU-stack
                0x0000000000000000        0x0 0x1 /usr/local/popcorn/x86_64//lib/libelf.a(verdef_64_tom.o)
 .note.GNU-stack
                0x0000000000000000        0x0 0x1 /usr/local/popcorn/x86_64//lib/libelf.a(getscn.o)
 .note.GNU-stack
                0x0000000000000000        0x0 0x1 /usr/local/popcorn/x86_64//lib/libelf.a(newscn.o)
 .note.GNU-stack
                0x0000000000000000        0x0 0x1 /usr/local/popcorn/x86_64//lib/libelf.a(32.fsize.o)
 .note.GNU-stack
                0x0000000000000000        0x0 0x1 /usr/local/popcorn/x86_64//lib/libc.a(getenv.o)
 .note.GNU-stack
                0x0000000000000000        0x0 0x1 /usr/local/popcorn/x86_64//lib/libc.a(assert.o)
 .note.GNU-stack
                0x0000000000000000        0x0 0x1 /usr/local/popcorn/x86_64//lib/libc.a(open.o)
 .note.GNU-stack
                0x0000000000000000        0x0 0x1 /usr/local/popcorn/x86_64//lib/libc.a(calloc.o)
 .note.GNU-stack
                0x0000000000000000        0x0 0x1 /usr/local/popcorn/x86_64//lib/libc.a(getrlimit.o)
 .note.GNU-stack
                0x0000000000000000        0x0 0x1 /usr/local/popcorn/x86_64//lib/libc.a(syscall.o)
 .note.GNU-stack
                0x0000000000000000        0x0 0x1 /usr/local/popcorn/x86_64//lib/libc.a(getline.o)
 .note.GNU-stack
                0x0000000000000000        0x0 0x1 /usr/local/popcorn/x86_64//lib/libc.a(snprintf.o)
 .note.GNU-stack
                0x0000000000000000        0x0 0x1 /usr/local/popcorn/x86_64//lib/libc.a(sscanf.o)
 .note.GNU-stack
                0x0000000000000000        0x0 0x1 /usr/local/popcorn/x86_64//lib/libc.a(stderr.o)
 .note.GNU-stack
                0x0000000000000000        0x0 0x1 /usr/local/popcorn/x86_64//lib/libc.a(vsnprintf.o)
 .note.GNU-stack
                0x0000000000000000        0x0 0x1 /usr/local/popcorn/x86_64//lib/libc.a(vsscanf.o)
 .note.GNU-stack
                0x0000000000000000        0x0 0x1 /usr/local/popcorn/x86_64//lib/libc.a(strtol.o)
 .note.GNU-stack
                0x0000000000000000        0x0 0x1 /usr/local/popcorn/x86_64//lib/libc.a(memcmp.o)
 .note.GNU-stack
                0x0000000000000000        0x0 0x1 /usr/local/popcorn/x86_64//lib/libc.a(memmove.o)
 .note.GNU-stack
                0x0000000000000000        0x0 0x1 /usr/local/popcorn/x86_64//lib/libc.a(strcmp.o)
 .note.GNU-stack
                0x0000000000000000        0x0 0x1 /usr/local/popcorn/x86_64//lib/libc.a(strncmp.o)
 .note.GNU-stack
                0x0000000000000000        0x0 0x1 /usr/local/popcorn/x86_64//lib/libc.a(pthread_attr_get.o)
 .note.GNU-stack
                0x0000000000000000        0x0 0x1 /usr/local/popcorn/x86_64//lib/libc.a(pthread_getattr_np.o)
 .note.GNU-stack
                0x0000000000000000        0x0 0x1 /usr/local/popcorn/x86_64//lib/libc.a(pthread_getspecific.o)
 .note.GNU-stack
                0x0000000000000000        0x0 0x1 /usr/local/popcorn/x86_64//lib/libc.a(pthread_key_create.o)
 .note.GNU-stack
                0x0000000000000000        0x0 0x1 /usr/local/popcorn/x86_64//lib/libc.a(pthread_migrate.o)
 .note.GNU-stack
                0x0000000000000000        0x0 0x1 /usr/local/popcorn/x86_64//lib/libc.a(pthread_self.o)
 .note.GNU-stack
                0x0000000000000000        0x0 0x1 /usr/local/popcorn/x86_64//lib/libc.a(pthread_setspecific.o)
 .note.GNU-stack
                0x0000000000000000        0x0 0x1 /usr/local/popcorn/x86_64//lib/libc.a(close.o)
 .note.GNU-stack
                0x0000000000000000        0x0 0x1 /usr/local/popcorn/x86_64//lib/libc.a(getpid.o)
 .note.GNU-stack
                0x0000000000000000        0x0 0x1 /usr/local/popcorn/x86_64//lib/libc.a(lseek.o)
 .note.GNU-stack
                0x0000000000000000        0x0 0x1 /usr/local/popcorn/x86_64//lib/libc.a(read.o)
 .note.GNU-stack
                0x0000000000000000        0x0 0x1 /usr/local/popcorn/x86_64//lib/libc.a(abort.o)
 .note.GNU-stack
                0x0000000000000000        0x0 0x1 /usr/local/popcorn/x86_64//lib/libc.a(intscan.o)
 .note.GNU-stack
                0x0000000000000000        0x0 0x1 /usr/local/popcorn/x86_64//lib/libc.a(shgetc.o)
 .note.GNU-stack
                0x0000000000000000        0x0 0x1 /usr/local/popcorn/x86_64//lib/libc.a(raise.o)
 .note.GNU-stack
                0x0000000000000000        0x0 0x1 /usr/local/popcorn/x86_64//lib/libc.a(__string_read.o)
 .note.GNU-stack
                0x0000000000000000        0x0 0x1 /usr/local/popcorn/x86_64//lib/libc.a(__uflow.o)
 .note.GNU-stack
                0x0000000000000000        0x0 0x1 /usr/local/popcorn/x86_64//lib/libc.a(getdelim.o)
 .note.GNU-stack
                0x0000000000000000        0x0 0x1 /usr/local/popcorn/x86_64//lib/libc.a(vfscanf.o)
 .note.GNU-stack
                0x0000000000000000        0x0 0x1 /usr/local/popcorn/x86_64//lib/libc.a(floatscan.o)
 .note.GNU-stack
                0x0000000000000000        0x0 0x1 /usr/local/popcorn/x86_64//lib/libc.a(copysignl.o)
 .note.GNU-stack
                0x0000000000000000        0x0 0x1 /usr/local/popcorn/x86_64//lib/libc.a(fabs.o)
 .note.GNU-stack
                0x0000000000000000        0x0 0x1 /usr/local/popcorn/x86_64//lib/libc.a(fmodl.o)
 .note.GNU-stack
                0x0000000000000000        0x0 0x1 /usr/local/popcorn/x86_64//lib/libc.a(scalbn.o)
 .note.GNU-stack
                0x0000000000000000        0x0 0x1 /usr/local/popcorn/x86_64//lib/libc.a(scalbnl.o)
 .note.GNU-stack
                0x0000000000000000        0x0 0x1 /usr/local/popcorn/x86_64//lib/libc.a(mbrtowc.o)
 .note.GNU-stack
                0x0000000000000000        0x0 0x1 /usr/local/popcorn/x86_64//lib/libc.a(mbsinit.o)
 .note.GNU-stack
                0x0000000000000000        0x0 0x1 /usr/local/popcorn/x86_64//lib/libc.a(block.o)
 .note.GNU-stack
                0x0000000000000000        0x0 0x1 /usr/local/popcorn/x86_64//lib/libc.a(__toread.o)
 .note.GNU-stack
                0x0000000000000000        0x0 0x1 /usr/local/popcorn/x86_64//lib/libc.a(internal.o)

Memory map

 ** file header
                0x0000000000400000       0x40
 ** segment headers
                0x0000000000400040      0x150

.note.gnu.build-id
                0x0000000000400190       0x24
 ** note header
                0x0000000000400190       0x10
 ** zero fill   0x00000000004001a0       0x14

.text           0x00000000004001c0    0x2b23c
 .text.unlikely.elf_begin
                0x00000000004001c0        0x0 0x1 /usr/local/popcorn/x86_64//lib/libelf.a(begin.o)
 .text.unlikely.elf_memory
                0x00000000004001c0        0x0 0x1 /usr/local/popcorn/x86_64//lib/libelf.a(begin.o)
 .text.unlikely.gelf_getclass
                0x00000000004001c0        0x0 0x1 /usr/local/popcorn/x86_64//lib/libelf.a(begin.o)
 .text.unlikely.elf_end
                0x00000000004001c0        0x0 0x1 /usr/local/popcorn/x86_64//lib/libelf.a(end.o)
 .text.unlikely.elf_getdata
                0x00000000004001c0        0x0 0x1 /usr/local/popcorn/x86_64//lib/libelf.a(getdata.o)
 .text.unlikely.elf_getident
                0x00000000004001c0        0x0 0x1 /usr/local/popcorn/x86_64//lib/libelf.a(getident.o)
 .text.unlikely.elf_nextscn
                0x00000000004001c0        0x0 0x1 /usr/local/popcorn/x86_64//lib/libelf.a(nextscn.o)
 .text.unlikely.elf_strptr
                0x00000000004001c0        0x0 0x1 /usr/local/popcorn/x86_64//lib/libelf.a(strptr.o)
 .text.unlikely.elf_version
                0x00000000004001c0        0x0 0x1 /usr/local/popcorn/x86_64//lib/libelf.a(version.o)
 .text.unlikely._elf_getehdr
                0x00000000004001c0        0x0 0x1 /usr/local/popcorn/x86_64//lib/libelf.a(32.getehdr.o)
 .text.unlikely.elf32_getehdr
                0x00000000004001c0        0x0 0x1 /usr/local/popcorn/x86_64//lib/libelf.a(32.getehdr.o)
 .text.unlikely.elf64_getehdr
                0x00000000004001c0        0x0 0x1 /usr/local/popcorn/x86_64//lib/libelf.a(32.getehdr.o)
 .text.unlikely.addr_32L__tom
                0x00000000004001c0        0x0 0x1 /usr/local/popcorn/x86_64//lib/libelf.a(32.xlatetof.o)
 .text.unlikely.addr_32L__tof
                0x00000000004001c0        0x0 0x1 /usr/local/popcorn/x86_64//lib/libelf.a(32.xlatetof.o)
 .text.unlikely.addr_32M__tom
                0x00000000004001c0        0x0 0x1 /usr/local/popcorn/x86_64//lib/libelf.a(32.xlatetof.o)
 .text.unlikely.addr_32M__tof
                0x00000000004001c0        0x0 0x1 /usr/local/popcorn/x86_64//lib/libelf.a(32.xlatetof.o)
 .text.unlikely.half_32L__tom
                0x00000000004001c0        0x0 0x1 /usr/local/popcorn/x86_64//lib/libelf.a(32.xlatetof.o)
 .text.unlikely.half_32L__tof
                0x00000000004001c0        0x0 0x1 /usr/local/popcorn/x86_64//lib/libelf.a(32.xlatetof.o)
 .text.unlikely.half_32M__tom
                0x00000000004001c0        0x0 0x1 /usr/local/popcorn/x86_64//lib/libelf.a(32.xlatetof.o)
 .text.unlikely.half_32M__tof
                0x00000000004001c0        0x0 0x1 /usr/local/popcorn/x86_64//lib/libelf.a(32.xlatetof.o)
 .text.unlikely.off_32L__tom
                0x00000000004001c0        0x0 0x1 /usr/local/popcorn/x86_64//lib/libelf.a(32.xlatetof.o)
 .text.unlikely.off_32L__tof
                0x00000000004001c0        0x0 0x1 /usr/local/popcorn/x86_64//lib/libelf.a(32.xlatetof.o)
 .text.unlikely.off_32M__tom
                0x00000000004001c0        0x0 0x1 /usr/local/popcorn/x86_64//lib/libelf.a(32.xlatetof.o)
 .text.unlikely.off_32M__tof
                0x00000000004001c0        0x0 0x1 /usr/local/popcorn/x86_64//lib/libelf.a(32.xlatetof.o)
 .text.unlikely.sword_32L__tom
                0x00000000004001c0        0x0 0x1 /usr/local/popcorn/x86_64//lib/libelf.a(32.xlatetof.o)
 .text.unlikely.sword_32L__tof
                0x00000000004001c0        0x0 0x1 /usr/local/popcorn/x86_64//lib/libelf.a(32.xlatetof.o)
 .text.unlikely.sword_32M__tom
                0x00000000004001c0        0x0 0x1 /usr/local/popcorn/x86_64//lib/libelf.a(32.xlatetof.o)
 .text.unlikely.sword_32M__tof
                0x00000000004001c0        0x0 0x1 /usr/local/popcorn/x86_64//lib/libelf.a(32.xlatetof.o)
 .text.unlikely.word_32L__tom
                0x00000000004001c0        0x0 0x1 /usr/local/popcorn/x86_64//lib/libelf.a(32.xlatetof.o)
 .text.unlikely.word_32L__tof
                0x00000000004001c0        0x0 0x1 /usr/local/popcorn/x86_64//lib/libelf.a(32.xlatetof.o)
 .text.unlikely.word_32M__tom
                0x00000000004001c0        0x0 0x1 /usr/local/popcorn/x86_64//lib/libelf.a(32.xlatetof.o)
 .text.unlikely.word_32M__tof
                0x00000000004001c0        0x0 0x1 /usr/local/popcorn/x86_64//lib/libelf.a(32.xlatetof.o)
 .text.unlikely.dyn_32L11_tom
                0x00000000004001c0        0x0 0x1 /usr/local/popcorn/x86_64//lib/libelf.a(32.xlatetof.o)
 .text.unlikely.dyn_32L11_tof
                0x00000000004001c0        0x0 0x1 /usr/local/popcorn/x86_64//lib/libelf.a(32.xlatetof.o)
 .text.unlikely.dyn_32M11_tom
                0x00000000004001c0        0x0 0x1 /usr/local/popcorn/x86_64//lib/libelf.a(32.xlatetof.o)
 .text.unlikely.dyn_32M11_tof
                0x00000000004001c0        0x0 0x1 /usr/local/popcorn/x86_64//lib/libelf.a(32.xlatetof.o)
 .text.unlikely.phdr_32L11_tom
                0x00000000004001c0        0x0 0x1 /usr/local/popcorn/x86_64//lib/libelf.a(32.xlatetof.o)
 .text.unlikely.phdr_32L11_tof
                0x00000000004001c0        0x0 0x1 /usr/local/popcorn/x86_64//lib/libelf.a(32.xlatetof.o)
 .text.unlikely.phdr_32M11_tom
                0x00000000004001c0        0x0 0x1 /usr/local/popcorn/x86_64//lib/libelf.a(32.xlatetof.o)
 .text.unlikely.phdr_32M11_tof
                0x00000000004001c0        0x0 0x1 /usr/local/popcorn/x86_64//lib/libelf.a(32.xlatetof.o)
 .text.unlikely.rela_32L11_tom
                0x00000000004001c0        0x0 0x1 /usr/local/popcorn/x86_64//lib/libelf.a(32.xlatetof.o)
 .text.unlikely.rela_32L11_tof
                0x00000000004001c0        0x0 0x1 /usr/local/popcorn/x86_64//lib/libelf.a(32.xlatetof.o)
 .text.unlikely.rela_32M11_tom
                0x00000000004001c0        0x0 0x1 /usr/local/popcorn/x86_64//lib/libelf.a(32.xlatetof.o)
 .text.unlikely.rela_32M11_tof
                0x00000000004001c0        0x0 0x1 /usr/local/popcorn/x86_64//lib/libelf.a(32.xlatetof.o)
 .text.unlikely.rel_32L11_tom
                0x00000000004001c0        0x0 0x1 /usr/local/popcorn/x86_64//lib/libelf.a(32.xlatetof.o)
 .text.unlikely.rel_32L11_tof
                0x00000000004001c0        0x0 0x1 /usr/local/popcorn/x86_64//lib/libelf.a(32.xlatetof.o)
 .text.unlikely.rel_32M11_tom
                0x00000000004001c0        0x0 0x1 /usr/local/popcorn/x86_64//lib/libelf.a(32.xlatetof.o)
 .text.unlikely.rel_32M11_tof
                0x00000000004001c0        0x0 0x1 /usr/local/popcorn/x86_64//lib/libelf.a(32.xlatetof.o)
 .text.unlikely.shdr_32L11_tom
                0x00000000004001c0        0x0 0x1 /usr/local/popcorn/x86_64//lib/libelf.a(32.xlatetof.o)
 .text.unlikely.shdr_32L11_tof
                0x00000000004001c0        0x0 0x1 /usr/local/popcorn/x86_64//lib/libelf.a(32.xlatetof.o)
 .text.unlikely.shdr_32M11_tom
                0x00000000004001c0        0x0 0x1 /usr/local/popcorn/x86_64//lib/libelf.a(32.xlatetof.o)
 .text.unlikely.shdr_32M11_tof
                0x00000000004001c0        0x0 0x1 /usr/local/popcorn/x86_64//lib/libelf.a(32.xlatetof.o)
 .text.unlikely.sym_32L11_tom
                0x00000000004001c0        0x0 0x1 /usr/local/popcorn/x86_64//lib/libelf.a(32.xlatetof.o)
 .text.unlikely.sym_32L11_tof
                0x00000000004001c0        0x0 0x1 /usr/local/popcorn/x86_64//lib/libelf.a(32.xlatetof.o)
 .text.unlikely.sym_32M11_tom
                0x00000000004001c0        0x0 0x1 /usr/local/popcorn/x86_64//lib/libelf.a(32.xlatetof.o)
 .text.unlikely.sym_32M11_tof
                0x00000000004001c0        0x0 0x1 /usr/local/popcorn/x86_64//lib/libelf.a(32.xlatetof.o)
 .text.unlikely.ehdr_32M11_tom
                0x00000000004001c0        0x0 0x1 /usr/local/popcorn/x86_64//lib/libelf.a(32.xlatetof.o)
 .text.unlikely.byte_copy
                0x00000000004001c0        0x0 0x1 /usr/local/popcorn/x86_64//lib/libelf.a(32.xlatetof.o)
 .text.unlikely.ehdr_32L11_tom
                0x00000000004001c0        0x0 0x1 /usr/local/popcorn/x86_64//lib/libelf.a(32.xlatetof.o)
 .text.unlikely.ehdr_32M11_tof
                0x00000000004001c0        0x0 0x1 /usr/local/popcorn/x86_64//lib/libelf.a(32.xlatetof.o)
 .text.unlikely.ehdr_32L11_tof
                0x00000000004001c0        0x0 0x1 /usr/local/popcorn/x86_64//lib/libelf.a(32.xlatetof.o)
 .text.unlikely._elf32_xltsize
                0x00000000004001c0        0x0 0x1 /usr/local/popcorn/x86_64//lib/libelf.a(32.xlatetof.o)
 .text.unlikely.elf32_xlatetom
                0x00000000004001c0        0x0 0x1 /usr/local/popcorn/x86_64//lib/libelf.a(32.xlatetof.o)
 .text.unlikely.elf32_xlatetof
                0x00000000004001c0        0x0 0x1 /usr/local/popcorn/x86_64//lib/libelf.a(32.xlatetof.o)
 .text.unlikely._elf_item
                0x00000000004001c0        0x0 0x1 /usr/local/popcorn/x86_64//lib/libelf.a(cook.o)
 .text.unlikely._elf_scn_type
                0x00000000004001c0        0x0 0x1 /usr/local/popcorn/x86_64//lib/libelf.a(cook.o)
 .text.unlikely._elf_xlatetom
                0x00000000004001c0        0x0 0x1 /usr/local/popcorn/x86_64//lib/libelf.a(cook.o)
 .text.unlikely._elf_cook
                0x00000000004001c0        0x0 0x1 /usr/local/popcorn/x86_64//lib/libelf.a(cook.o)
 .text.unlikely._elf_read
                0x00000000004001c0        0x0 0x1 /usr/local/popcorn/x86_64//lib/libelf.a(input.o)
 .text.unlikely._elf_mmap
                0x00000000004001c0        0x0 0x1 /usr/local/popcorn/x86_64//lib/libelf.a(input.o)
 .text.unlikely.elf_getphdrnum
                0x00000000004001c0        0x0 0x1 /usr/local/popcorn/x86_64//lib/libelf.a(x.elfext.o)
 .text.unlikely.elf_getshdrnum
                0x00000000004001c0        0x0 0x1 /usr/local/popcorn/x86_64//lib/libelf.a(x.elfext.o)
 .text.unlikely.elf_getshdrstrndx
                0x00000000004001c0        0x0 0x1 /usr/local/popcorn/x86_64//lib/libelf.a(x.elfext.o)
 .text.unlikely.elf_getphnum
                0x00000000004001c0        0x0 0x1 /usr/local/popcorn/x86_64//lib/libelf.a(x.elfext.o)
 .text.unlikely.elf_getshnum
                0x00000000004001c0        0x0 0x1 /usr/local/popcorn/x86_64//lib/libelf.a(x.elfext.o)
 .text.unlikely.elf_getshstrndx
                0x00000000004001c0        0x0 0x1 /usr/local/popcorn/x86_64//lib/libelf.a(x.elfext.o)
 .text.unlikely.elfx_update_shstrndx
                0x00000000004001c0        0x0 0x1 /usr/local/popcorn/x86_64//lib/libelf.a(x.elfext.o)
 .text.unlikely.half_64L__tom
                0x00000000004001c0        0x0 0x1 /usr/local/popcorn/x86_64//lib/libelf.a(64.xlatetof.o)
 .text.unlikely.half_64L__tof
                0x00000000004001c0        0x0 0x1 /usr/local/popcorn/x86_64//lib/libelf.a(64.xlatetof.o)
 .text.unlikely.half_64M__tom
                0x00000000004001c0        0x0 0x1 /usr/local/popcorn/x86_64//lib/libelf.a(64.xlatetof.o)
 .text.unlikely.half_64M__tof
                0x00000000004001c0        0x0 0x1 /usr/local/popcorn/x86_64//lib/libelf.a(64.xlatetof.o)
 .text.unlikely.sword_64L__tom
                0x00000000004001c0        0x0 0x1 /usr/local/popcorn/x86_64//lib/libelf.a(64.xlatetof.o)
 .text.unlikely.sword_64L__tof
                0x00000000004001c0        0x0 0x1 /usr/local/popcorn/x86_64//lib/libelf.a(64.xlatetof.o)
 .text.unlikely.sword_64M__tom
                0x00000000004001c0        0x0 0x1 /usr/local/popcorn/x86_64//lib/libelf.a(64.xlatetof.o)
 .text.unlikely.sword_64M__tof
                0x00000000004001c0        0x0 0x1 /usr/local/popcorn/x86_64//lib/libelf.a(64.xlatetof.o)
 .text.unlikely.word_64L__tom
                0x00000000004001c0        0x0 0x1 /usr/local/popcorn/x86_64//lib/libelf.a(64.xlatetof.o)
 .text.unlikely.word_64L__tof
                0x00000000004001c0        0x0 0x1 /usr/local/popcorn/x86_64//lib/libelf.a(64.xlatetof.o)
 .text.unlikely.word_64M__tom
                0x00000000004001c0        0x0 0x1 /usr/local/popcorn/x86_64//lib/libelf.a(64.xlatetof.o)
 .text.unlikely.word_64M__tof
                0x00000000004001c0        0x0 0x1 /usr/local/popcorn/x86_64//lib/libelf.a(64.xlatetof.o)
 .text.unlikely.elf64_xlate
                0x00000000004001c0        0x0 0x1 /usr/local/popcorn/x86_64//lib/libelf.a(64.xlatetof.o)
 .text.unlikely.xword_64M__tof
                0x00000000004001c0        0x0 0x1 /usr/local/popcorn/x86_64//lib/libelf.a(64.xlatetof.o)
 .text.unlikely.sym_64M11_tof
                0x00000000004001c0        0x0 0x1 /usr/local/popcorn/x86_64//lib/libelf.a(64.xlatetof.o)
 .text.unlikely.shdr_64M11_tof
                0x00000000004001c0        0x0 0x1 /usr/local/popcorn/x86_64//lib/libelf.a(64.xlatetof.o)
 .text.unlikely.rel_64M11_tof
                0x00000000004001c0        0x0 0x1 /usr/local/popcorn/x86_64//lib/libelf.a(64.xlatetof.o)
 .text.unlikely.phdr_64M11_tof
                0x00000000004001c0        0x0 0x1 /usr/local/popcorn/x86_64//lib/libelf.a(64.xlatetof.o)
 .text.unlikely.off_64M__tof
                0x00000000004001c0        0x0 0x1 /usr/local/popcorn/x86_64//lib/libelf.a(64.xlatetof.o)
 .text.unlikely.dyn_64M11_tof
                0x00000000004001c0        0x0 0x1 /usr/local/popcorn/x86_64//lib/libelf.a(64.xlatetof.o)
 .text.unlikely.addr_64M__tof
                0x00000000004001c0        0x0 0x1 /usr/local/popcorn/x86_64//lib/libelf.a(64.xlatetof.o)
 .text.unlikely.xword_64M__tom
                0x00000000004001c0        0x0 0x1 /usr/local/popcorn/x86_64//lib/libelf.a(64.xlatetof.o)
 .text.unlikely.sym_64M11_tom
                0x00000000004001c0        0x0 0x1 /usr/local/popcorn/x86_64//lib/libelf.a(64.xlatetof.o)
 .text.unlikely.shdr_64M11_tom
                0x00000000004001c0        0x0 0x1 /usr/local/popcorn/x86_64//lib/libelf.a(64.xlatetof.o)
 .text.unlikely.rel_64M11_tom
                0x00000000004001c0        0x0 0x1 /usr/local/popcorn/x86_64//lib/libelf.a(64.xlatetof.o)
 .text.unlikely.phdr_64M11_tom
                0x00000000004001c0        0x0 0x1 /usr/local/popcorn/x86_64//lib/libelf.a(64.xlatetof.o)
 .text.unlikely.off_64M__tom
                0x00000000004001c0        0x0 0x1 /usr/local/popcorn/x86_64//lib/libelf.a(64.xlatetof.o)
 .text.unlikely.dyn_64M11_tom
                0x00000000004001c0        0x0 0x1 /usr/local/popcorn/x86_64//lib/libelf.a(64.xlatetof.o)
 .text.unlikely.addr_64M__tom
                0x00000000004001c0        0x0 0x1 /usr/local/popcorn/x86_64//lib/libelf.a(64.xlatetof.o)
 .text.unlikely.sxword_64M__tof
                0x00000000004001c0        0x0 0x1 /usr/local/popcorn/x86_64//lib/libelf.a(64.xlatetof.o)
 .text.unlikely.rela_64M11_tof
                0x00000000004001c0        0x0 0x1 /usr/local/popcorn/x86_64//lib/libelf.a(64.xlatetof.o)
 .text.unlikely.sxword_64M__tom
                0x00000000004001c0        0x0 0x1 /usr/local/popcorn/x86_64//lib/libelf.a(64.xlatetof.o)
 .text.unlikely.rela_64M11_tom
                0x00000000004001c0        0x0 0x1 /usr/local/popcorn/x86_64//lib/libelf.a(64.xlatetof.o)
 .text.unlikely.xword_64L__tof
                0x00000000004001c0        0x0 0x1 /usr/local/popcorn/x86_64//lib/libelf.a(64.xlatetof.o)
 .text.unlikely.sym_64L11_tof
                0x00000000004001c0        0x0 0x1 /usr/local/popcorn/x86_64//lib/libelf.a(64.xlatetof.o)
 .text.unlikely.shdr_64L11_tof
                0x00000000004001c0        0x0 0x1 /usr/local/popcorn/x86_64//lib/libelf.a(64.xlatetof.o)
 .text.unlikely.rel_64L11_tof
                0x00000000004001c0        0x0 0x1 /usr/local/popcorn/x86_64//lib/libelf.a(64.xlatetof.o)
 .text.unlikely.phdr_64L11_tof
                0x00000000004001c0        0x0 0x1 /usr/local/popcorn/x86_64//lib/libelf.a(64.xlatetof.o)
 .text.unlikely.off_64L__tof
                0x00000000004001c0        0x0 0x1 /usr/local/popcorn/x86_64//lib/libelf.a(64.xlatetof.o)
 .text.unlikely.dyn_64L11_tof
                0x00000000004001c0        0x0 0x1 /usr/local/popcorn/x86_64//lib/libelf.a(64.xlatetof.o)
 .text.unlikely.addr_64L__tof
                0x00000000004001c0        0x0 0x1 /usr/local/popcorn/x86_64//lib/libelf.a(64.xlatetof.o)
 .text.unlikely.xword_64L__tom
                0x00000000004001c0        0x0 0x1 /usr/local/popcorn/x86_64//lib/libelf.a(64.xlatetof.o)
 .text.unlikely.sym_64L11_tom
                0x00000000004001c0        0x0 0x1 /usr/local/popcorn/x86_64//lib/libelf.a(64.xlatetof.o)
 .text.unlikely.shdr_64L11_tom
                0x00000000004001c0        0x0 0x1 /usr/local/popcorn/x86_64//lib/libelf.a(64.xlatetof.o)
 .text.unlikely.rel_64L11_tom
                0x00000000004001c0        0x0 0x1 /usr/local/popcorn/x86_64//lib/libelf.a(64.xlatetof.o)
 .text.unlikely.phdr_64L11_tom
                0x00000000004001c0        0x0 0x1 /usr/local/popcorn/x86_64//lib/libelf.a(64.xlatetof.o)
 .text.unlikely.off_64L__tom
                0x00000000004001c0        0x0 0x1 /usr/local/popcorn/x86_64//lib/libelf.a(64.xlatetof.o)
 .text.unlikely.dyn_64L11_tom
                0x00000000004001c0        0x0 0x1 /usr/local/popcorn/x86_64//lib/libelf.a(64.xlatetof.o)
 .text.unlikely.addr_64L__tom
                0x00000000004001c0        0x0 0x1 /usr/local/popcorn/x86_64//lib/libelf.a(64.xlatetof.o)
 .text.unlikely.sxword_64L__tof
                0x00000000004001c0        0x0 0x1 /usr/local/popcorn/x86_64//lib/libelf.a(64.xlatetof.o)
 .text.unlikely.rela_64L11_tof
                0x00000000004001c0        0x0 0x1 /usr/local/popcorn/x86_64//lib/libelf.a(64.xlatetof.o)
 .text.unlikely.sxword_64L__tom
                0x00000000004001c0        0x0 0x1 /usr/local/popcorn/x86_64//lib/libelf.a(64.xlatetof.o)
 .text.unlikely.rela_64L11_tom
                0x00000000004001c0        0x0 0x1 /usr/local/popcorn/x86_64//lib/libelf.a(64.xlatetof.o)
 .text.unlikely.ehdr_64M11_tom
                0x00000000004001c0        0x0 0x1 /usr/local/popcorn/x86_64//lib/libelf.a(64.xlatetof.o)
 .text.unlikely.byte_copy
                0x00000000004001c0        0x0 0x1 /usr/local/popcorn/x86_64//lib/libelf.a(64.xlatetof.o)
 .text.unlikely.ehdr_64L11_tom
                0x00000000004001c0        0x0 0x1 /usr/local/popcorn/x86_64//lib/libelf.a(64.xlatetof.o)
 .text.unlikely.ehdr_64M11_tof
                0x00000000004001c0        0x0 0x1 /usr/local/popcorn/x86_64//lib/libelf.a(64.xlatetof.o)
 .text.unlikely.ehdr_64L11_tof
                0x00000000004001c0        0x0 0x1 /usr/local/popcorn/x86_64//lib/libelf.a(64.xlatetof.o)
 .text.unlikely._elf64_xltsize
                0x00000000004001c0        0x0 0x1 /usr/local/popcorn/x86_64//lib/libelf.a(64.xlatetof.o)
 .text.unlikely.elf64_xlatetom
                0x00000000004001c0        0x0 0x1 /usr/local/popcorn/x86_64//lib/libelf.a(64.xlatetof.o)
 .text.unlikely.elf64_xlatetof
                0x00000000004001c0        0x0 0x1 /usr/local/popcorn/x86_64//lib/libelf.a(64.xlatetof.o)
 .text.unlikely.gelf_xlatetom
                0x00000000004001c0        0x0 0x1 /usr/local/popcorn/x86_64//lib/libelf.a(64.xlatetof.o)
 .text.unlikely.gelf_xlatetof
                0x00000000004001c0        0x0 0x1 /usr/local/popcorn/x86_64//lib/libelf.a(64.xlatetof.o)
 .text.unlikely.gelf_getshdr
                0x00000000004001c0        0x0 0x1 /usr/local/popcorn/x86_64//lib/libelf.a(gelfshdr.o)
 .text.unlikely.gelf_update_shdr
                0x00000000004001c0        0x0 0x1 /usr/local/popcorn/x86_64//lib/libelf.a(gelfshdr.o)
 .text.unlikely._elf_load_u64L
                0x00000000004001c0        0x0 0x1 /usr/local/popcorn/x86_64//lib/libelf.a(swap64.o)
 .text.unlikely._elf_load_u64M
                0x00000000004001c0        0x0 0x1 /usr/local/popcorn/x86_64//lib/libelf.a(swap64.o)
 .text.unlikely._elf_load_i64L
                0x00000000004001c0        0x0 0x1 /usr/local/popcorn/x86_64//lib/libelf.a(swap64.o)
 .text.unlikely._elf_load_i64M
                0x00000000004001c0        0x0 0x1 /usr/local/popcorn/x86_64//lib/libelf.a(swap64.o)
 .text.unlikely._elf_store_u64L
                0x00000000004001c0        0x0 0x1 /usr/local/popcorn/x86_64//lib/libelf.a(swap64.o)
 .text.unlikely._elf_store_u64M
                0x00000000004001c0        0x0 0x1 /usr/local/popcorn/x86_64//lib/libelf.a(swap64.o)
 .text.unlikely._elf_store_i64L
                0x00000000004001c0        0x0 0x1 /usr/local/popcorn/x86_64//lib/libelf.a(swap64.o)
 .text.unlikely._elf_store_i64M
                0x00000000004001c0        0x0 0x1 /usr/local/popcorn/x86_64//lib/libelf.a(swap64.o)
 .text.unlikely._elf_verdef_32L11_tof
                0x00000000004001c0        0x0 0x1 /usr/local/popcorn/x86_64//lib/libelf.a(verdef_32_tof.o)
 .text.unlikely._elf_verdef_32M11_tof
                0x00000000004001c0        0x0 0x1 /usr/local/popcorn/x86_64//lib/libelf.a(verdef_32_tof.o)
 .text.unlikely._elf_verneed_32L11_tof
                0x00000000004001c0        0x0 0x1 /usr/local/popcorn/x86_64//lib/libelf.a(verdef_32_tof.o)
 .text.unlikely._elf_verneed_32M11_tof
                0x00000000004001c0        0x0 0x1 /usr/local/popcorn/x86_64//lib/libelf.a(verdef_32_tof.o)
 .text.unlikely._elf_verdef_32L11_tom
                0x00000000004001c0        0x0 0x1 /usr/local/popcorn/x86_64//lib/libelf.a(verdef_32_tom.o)
 .text.unlikely._elf_verdef_32M11_tom
                0x00000000004001c0        0x0 0x1 /usr/local/popcorn/x86_64//lib/libelf.a(verdef_32_tom.o)
 .text.unlikely._elf_verneed_32L11_tom
                0x00000000004001c0        0x0 0x1 /usr/local/popcorn/x86_64//lib/libelf.a(verdef_32_tom.o)
 .text.unlikely._elf_verneed_32M11_tom
                0x00000000004001c0        0x0 0x1 /usr/local/popcorn/x86_64//lib/libelf.a(verdef_32_tom.o)
 .text.unlikely._elf_verdef_64L11_tof
                0x00000000004001c0        0x0 0x1 /usr/local/popcorn/x86_64//lib/libelf.a(verdef_64_tof.o)
 .text.unlikely._elf_verdef_64M11_tof
                0x00000000004001c0        0x0 0x1 /usr/local/popcorn/x86_64//lib/libelf.a(verdef_64_tof.o)
 .text.unlikely._elf_verneed_64L11_tof
                0x00000000004001c0        0x0 0x1 /usr/local/popcorn/x86_64//lib/libelf.a(verdef_64_tof.o)
 .text.unlikely._elf_verneed_64M11_tof
                0x00000000004001c0        0x0 0x1 /usr/local/popcorn/x86_64//lib/libelf.a(verdef_64_tof.o)
 .text.unlikely._elf_verdef_64L11_tom
                0x00000000004001c0        0x0 0x1 /usr/local/popcorn/x86_64//lib/libelf.a(verdef_64_tom.o)
 .text.unlikely._elf_verdef_64M11_tom
                0x00000000004001c0        0x0 0x1 /usr/local/popcorn/x86_64//lib/libelf.a(verdef_64_tom.o)
 .text.unlikely._elf_verneed_64L11_tom
                0x00000000004001c0        0x0 0x1 /usr/local/popcorn/x86_64//lib/libelf.a(verdef_64_tom.o)
 .text.unlikely._elf_verneed_64M11_tom
                0x00000000004001c0        0x0 0x1 /usr/local/popcorn/x86_64//lib/libelf.a(verdef_64_tom.o)
 .text.unlikely.elf_getscn
                0x00000000004001c0        0x0 0x1 /usr/local/popcorn/x86_64//lib/libelf.a(getscn.o)
 .text.unlikely._elf_update_shnum
                0x00000000004001c0        0x0 0x1 /usr/local/popcorn/x86_64//lib/libelf.a(newscn.o)
 .text.unlikely._elf_first_scn
                0x00000000004001c0        0x0 0x1 /usr/local/popcorn/x86_64//lib/libelf.a(newscn.o)
 .text.unlikely.elf_newscn
                0x00000000004001c0        0x0 0x1 /usr/local/popcorn/x86_64//lib/libelf.a(newscn.o)
 .text.unlikely.elf32_fsize
                0x00000000004001c0        0x0 0x1 /usr/local/popcorn/x86_64//lib/libelf.a(32.fsize.o)
 .text.unlikely.elf64_fsize
                0x00000000004001c0        0x0 0x1 /usr/local/popcorn/x86_64//lib/libelf.a(32.fsize.o)
 .text.unlikely.gelf_fsize
                0x00000000004001c0        0x0 0x1 /usr/local/popcorn/x86_64//lib/libelf.a(32.fsize.o)
 .text.unlikely.gelf_msize
                0x00000000004001c0        0x0 0x1 /usr/local/popcorn/x86_64//lib/libelf.a(32.fsize.o)
 .text.exit     0x00000000004001c0       0x46 0x1 /usr/local/popcorn/x86_64//lib/libc.a(exit.o)
                0x00000000004001c0                exit
 .text          0x0000000000400208        0x0 0x4 /tmp/conftest-dcbec8_x86_64.o
 .text.main     0x0000000000400210       0xd7 0x10 /tmp/conftest-dcbec8_x86_64.o
                0x0000000000400210                main
 ** fill        0x00000000004002e7        0x9
 .text.ulongval
                0x00000000004002f0       0x31 0x10 /tmp/conftest-dcbec8_x86_64.o
 ** fill        0x0000000000400321        0x3
 .text          0x0000000000400324       0x2a 0x4 /usr/local/popcorn/x86_64//lib/crt1.o
                0x0000000000400324                _start
 ** fill        0x000000000040034e        0x2
 .text          0x0000000000400350        0x0 0x4 /usr/local/popcorn/x86_64//lib/libc.a(__libc_start_main.o)
 .text.dummy1   0x0000000000400350        0x1 0x1 /usr/local/popcorn/x86_64//lib/libc.a(__libc_start_main.o)
                0x0000000000400350                __init_ssp
 .text.__libc_start_main
                0x0000000000400351      0x1d2 0x1 /usr/local/popcorn/x86_64//lib/libc.a(__libc_start_main.o)
                0x0000000000400351                __libc_start_main
 .text.dummy    0x0000000000400523        0x1 0x1 /usr/local/popcorn/x86_64//lib/libc.a(__libc_start_main.o)
                0x0000000000400523                _init
 .text          0x0000000000400524        0x0 0x4 /usr/local/popcorn/x86_64//lib/libc.a(exit.o)
 .text.dummy    0x0000000000400524        0x1 0x1 /usr/local/popcorn/x86_64//lib/libc.a(exit.o)
                0x0000000000400524                __funcs_on_exit
                0x0000000000400524                _fini
 ** fill        0x0000000000400525        0x1
 .text          0x0000000000400528        0x0 0x4 /usr/local/popcorn/x86_64//lib/libc.a(libc.o)
 .text          0x0000000000400528        0x0 0x4 /usr/local/popcorn/x86_64//lib/libc.a(fclose.o)
 .text.dummy    0x0000000000400528        0x1 0x1 /usr/local/popcorn/x86_64//lib/libc.a(fclose.o)
                0x0000000000400528                __unlist_locked_file
 .text.fclose   0x0000000000400529       0xaf 0x1 /usr/local/popcorn/x86_64//lib/libc.a(fclose.o)
                0x0000000000400529                fclose
 .text          0x00000000004005d8        0x0 0x4 /usr/local/popcorn/x86_64//lib/libc.a(ferror.o)
 .text.ferror   0x00000000004005d8       0x43 0x1 /usr/local/popcorn/x86_64//lib/libc.a(ferror.o)
                0x00000000004005d8                _IO_ferror_unlocked
                0x00000000004005d8                ferror
                0x00000000004005d8                ferror_unlocked
 ** fill        0x000000000040061b        0x1
 .text          0x000000000040061c        0x0 0x4 /usr/local/popcorn/x86_64//lib/libc.a(fflush.o)
 .text.fflush   0x000000000040061c       0xce 0x1 /usr/local/popcorn/x86_64//lib/libc.a(fflush.o)
                0x000000000040061c                fflush
 .text.__fflush_unlocked
                0x00000000004006ea       0x50 0x1 /usr/local/popcorn/x86_64//lib/libc.a(fflush.o)
                0x00000000004006ea                fflush_unlocked
 ** fill        0x000000000040073a        0x2
 .text          0x000000000040073c        0x0 0x4 /usr/local/popcorn/x86_64//lib/libc.a(fopen.o)
 .text.fopen    0x000000000040073c       0xb5 0x1 /usr/local/popcorn/x86_64//lib/libc.a(fopen.o)
                0x000000000040073c                fopen
                0x000000000040073c                fopen64
 ** fill        0x00000000004007f1        0x3
 .text          0x00000000004007f4        0x0 0x4 /usr/local/popcorn/x86_64//lib/libc.a(fprintf.o)
 .text.fprintf  0x00000000004007f4       0x97 0x1 /usr/local/popcorn/x86_64//lib/libc.a(fprintf.o)
                0x00000000004007f4                fprintf
 ** fill        0x000000000040088b        0x1
 .text          0x000000000040088c        0x0 0x4 /usr/local/popcorn/x86_64//lib/libc.a(vfprintf.o)
 .text.vfprintf
                0x000000000040088c      0x188 0x1 /usr/local/popcorn/x86_64//lib/libc.a(vfprintf.o)
                0x000000000040088c                vfprintf
 .text.printf_core
                0x0000000000400a14     0x1c86 0x1 /usr/local/popcorn/x86_64//lib/libc.a(vfprintf.o)
 .text.pop_arg  0x000000000040269a      0x1bc 0x1 /usr/local/popcorn/x86_64//lib/libc.a(vfprintf.o)
 .text.pad      0x0000000000402856       0xc5 0x1 /usr/local/popcorn/x86_64//lib/libc.a(vfprintf.o)
 ** fill        0x000000000040291b        0x1
 .text          0x000000000040291c        0x0 0x4 /usr/local/popcorn/x86_64//lib/libc.a(memchr.o)
 .text.memchr   0x0000000000402920       0xe2 0x10 /usr/local/popcorn/x86_64//lib/libc.a(memchr.o)
                0x0000000000402920                memchr
 ** fill        0x0000000000402a02        0x2
 .text          0x0000000000402a04        0x0 0x4 /usr/local/popcorn/x86_64//lib/libc.a(memset.o)
 .text.memset   0x0000000000402a04       0xc4 0x1 /usr/local/popcorn/x86_64//lib/libc.a(memset.o)
                0x0000000000402a04                memset
 .text          0x0000000000402ac8        0x0 0x4 /usr/local/popcorn/x86_64//lib/libc.a(strchr.o)
 ** fill        0x0000000000402ac8        0x8
 .text.strchr   0x0000000000402ad0       0x16 0x10 /usr/local/popcorn/x86_64//lib/libc.a(strchr.o)
                0x0000000000402ad0                strchr
 ** fill        0x0000000000402ae6        0x2
 .text          0x0000000000402ae8        0x0 0x4 /usr/local/popcorn/x86_64//lib/libc.a(strchrnul.o)
 ** fill        0x0000000000402ae8        0x8
 .text.__strchrnul
                0x0000000000402af0       0xe3 0x10 /usr/local/popcorn/x86_64//lib/libc.a(strchrnul.o)
                0x0000000000402af0                __strchrnul
                0x0000000000402af0                strchrnul
 ** fill        0x0000000000402bd3        0x1
 .text          0x0000000000402bd4        0x0 0x4 /usr/local/popcorn/x86_64//lib/libc.a(strlen.o)
 ** fill        0x0000000000402bd4        0xc
 .text.strlen   0x0000000000402be0       0x6e 0x10 /usr/local/popcorn/x86_64//lib/libc.a(strlen.o)
                0x0000000000402be0                strlen
 ** fill        0x0000000000402c4e        0x2
 .text          0x0000000000402c50        0x0 0x4 /usr/local/popcorn/x86_64//lib/libc.a(__lock.o)
 .text.__lock   0x0000000000402c50       0x47 0x1 /usr/local/popcorn/x86_64//lib/libc.a(__lock.o)
                0x0000000000402c50                __lock
 .text.__unlock
                0x0000000000402c97        0xd 0x1 /usr/local/popcorn/x86_64//lib/libc.a(__lock.o)
                0x0000000000402c97                __unlock
 .text          0x0000000000402ca4        0x0 0x4 /usr/local/popcorn/x86_64//lib/libc.a(__syscall_cp.o)
 .text.sccp     0x0000000000402ca4       0x13 0x1 /usr/local/popcorn/x86_64//lib/libc.a(__syscall_cp.o)
                0x0000000000402ca4                __syscall_cp_c
 .text.__syscall_cp
                0x0000000000402cb7        0x5 0x1 /usr/local/popcorn/x86_64//lib/libc.a(__syscall_cp.o)
                0x0000000000402cb7                __syscall_cp
 .text          0x0000000000402cbc        0x0 0x4 /usr/local/popcorn/x86_64//lib/libc.a(__wait.o)
 .text.__wait   0x0000000000402cbc       0x5d 0x1 /usr/local/popcorn/x86_64//lib/libc.a(__wait.o)
                0x0000000000402cbc                __wait
 ** fill        0x0000000000402d19        0x3
 .text          0x0000000000402d1c        0x0 0x4 /usr/local/popcorn/x86_64//lib/libc.a(__environ.o)
 .text          0x0000000000402d1c        0x0 0x4 /usr/local/popcorn/x86_64//lib/libc.a(__init_tls.o)
 .text.__copy_tls
                0x0000000000402d1c       0x68 0x1 /usr/local/popcorn/x86_64//lib/libc.a(__init_tls.o)
                0x0000000000402d1c                __copy_tls
 .text.__init_tls
                0x0000000000402d84      0x152 0x1 /usr/local/popcorn/x86_64//lib/libc.a(__init_tls.o)
                0x0000000000402d84                __init_tls
 ** fill        0x0000000000402ed6        0x2
 .text          0x0000000000402ed8        0x0 0x4 /usr/local/popcorn/x86_64//lib/libc.a(__errno_location.o)
 .text.__errno_location
                0x0000000000402ed8        0xe 0x1 /usr/local/popcorn/x86_64//lib/libc.a(__errno_location.o)
                0x0000000000402ed8                __errno_location
 ** fill        0x0000000000402ee6        0x2
 .text          0x0000000000402ee8        0x0 0x4 /usr/local/popcorn/x86_64//lib/libc.a(strerror.o)
 .text.__strerror_l
                0x0000000000402ee8       0x49 0x1 /usr/local/popcorn/x86_64//lib/libc.a(strerror.o)
                0x0000000000402ee8                __strerror_l
                0x0000000000402ee8                strerror_l
 .text.strerror
                0x0000000000402f31       0x15 0x1 /usr/local/popcorn/x86_64//lib/libc.a(strerror.o)
                0x0000000000402f31                strerror
 ** fill        0x0000000000402f46        0x2
 .text          0x0000000000402f48        0x0 0x4 /usr/local/popcorn/x86_64//lib/libc.a(_Exit.o)
 .text._Exit    0x0000000000402f48       0x13 0x1 /usr/local/popcorn/x86_64//lib/libc.a(_Exit.o)
                0x0000000000402f48                _Exit
 ** fill        0x0000000000402f5b        0x1
 .text          0x0000000000402f5c        0x0 0x4 /usr/local/popcorn/x86_64//lib/libc.a(syscall.o)
 .text.__syscall
                0x0000000000402f5c       0x1a 0x1 /usr/local/popcorn/x86_64//lib/libc.a(syscall.o)
                0x0000000000402f5c                __syscall
 ** fill        0x0000000000402f76        0x2
 .text          0x0000000000402f78        0x0 0x4 /usr/local/popcorn/x86_64//lib/libc.a(syscall_ret.o)
 ** fill        0x0000000000402f78        0x8
 .text.__syscall_ret
                0x0000000000402f80       0x22 0x10 /usr/local/popcorn/x86_64//lib/libc.a(syscall_ret.o)
                0x0000000000402f80                __syscall_ret
 ** fill        0x0000000000402fa2        0x2
 .text          0x0000000000402fa4        0x0 0x4 /usr/local/popcorn/x86_64//lib/libc.a(__lctrans.o)
 .text.dummy    0x0000000000402fa4        0x4 0x1 /usr/local/popcorn/x86_64//lib/libc.a(__lctrans.o)
                0x0000000000402fa4                __lctrans_impl
 .text.__lctrans
                0x0000000000402fa8        0x5 0x1 /usr/local/popcorn/x86_64//lib/libc.a(__lctrans.o)
                0x0000000000402fa8                __lctrans
 .text.__lctrans_cur
                0x0000000000402fad       0x19 0x1 /usr/local/popcorn/x86_64//lib/libc.a(__lctrans.o)
                0x0000000000402fad                __lctrans_cur
 ** fill        0x0000000000402fc6        0x2
 .text          0x0000000000402fc8        0x0 0x4 /usr/local/popcorn/x86_64//lib/libc.a(malloc.o)
 ** fill        0x0000000000402fc8        0x8
 .text.malloc   0x0000000000402fd0      0x53d 0x10 /usr/local/popcorn/x86_64//lib/libc.a(malloc.o)
                0x0000000000402fd0                malloc
 ** fill        0x000000000040350d        0x3
 .text.alloc_rev
                0x0000000000403510       0xe4 0x10 /usr/local/popcorn/x86_64//lib/libc.a(malloc.o)
 ** fill        0x00000000004035f4        0xc
 .text.lock_bin
                0x0000000000403600       0x78 0x10 /usr/local/popcorn/x86_64//lib/libc.a(malloc.o)
 ** fill        0x0000000000403678        0x8
 .text.unbin    0x0000000000403680       0x4e 0x10 /usr/local/popcorn/x86_64//lib/libc.a(malloc.o)
 ** fill        0x00000000004036ce        0x2
 .text.realloc  0x00000000004036d0      0x376 0x10 /usr/local/popcorn/x86_64//lib/libc.a(malloc.o)
                0x00000000004036d0                realloc
 ** fill        0x0000000000403a46        0xa
 .text.free     0x0000000000403a50      0x4ea 0x10 /usr/local/popcorn/x86_64//lib/libc.a(malloc.o)
                0x0000000000403a50                free
 ** fill        0x0000000000403f3a        0x2
 .text          0x0000000000403f3c        0x0 0x4 /usr/local/popcorn/x86_64//lib/libc.a(__fpclassifyl.o)
 .text.__fpclassifyl
                0x0000000000403f3c       0x4e 0x1 /usr/local/popcorn/x86_64//lib/libc.a(__fpclassifyl.o)
                0x0000000000403f3c                __fpclassifyl
 ** fill        0x0000000000403f8a        0x2
 .text          0x0000000000403f8c        0x0 0x4 /usr/local/popcorn/x86_64//lib/libc.a(__signbitl.o)
 .text.__signbitl
                0x0000000000403f8c        0xa 0x1 /usr/local/popcorn/x86_64//lib/libc.a(__signbitl.o)
                0x0000000000403f8c                __signbitl
 ** fill        0x0000000000403f96        0x2
 .text          0x0000000000403f98        0x0 0x4 /usr/local/popcorn/x86_64//lib/libc.a(frexpl.o)
 .text.frexpl   0x0000000000403f98       0x80 0x1 /usr/local/popcorn/x86_64//lib/libc.a(frexpl.o)
                0x0000000000403f98                frexpl
 .text          0x0000000000404018        0x0 0x4 /usr/local/popcorn/x86_64//lib/libc.a(madvise.o)
 .text.__madvise
                0x0000000000404018       0x12 0x1 /usr/local/popcorn/x86_64//lib/libc.a(madvise.o)
                0x0000000000404018                __madvise
                0x0000000000404018                madvise
 ** fill        0x000000000040402a        0x2
 .text          0x000000000040402c        0x0 0x4 /usr/local/popcorn/x86_64//lib/libc.a(mmap.o)
 .text.dummy    0x000000000040402c        0x1 0x1 /usr/local/popcorn/x86_64//lib/libc.a(mmap.o)
                0x000000000040402c                __vm_wait
 .text.__mmap   0x000000000040402d       0x95 0x1 /usr/local/popcorn/x86_64//lib/libc.a(mmap.o)
                0x000000000040402d                __mmap
                0x000000000040402d                mmap
                0x000000000040402d                mmap64
 ** fill        0x00000000004040c2        0x2
 .text          0x00000000004040c4        0x0 0x4 /usr/local/popcorn/x86_64//lib/libc.a(mremap.o)
 .text.__mremap
                0x00000000004040c4       0xcf 0x1 /usr/local/popcorn/x86_64//lib/libc.a(mremap.o)
                0x00000000004040c4                __mremap
                0x00000000004040c4                mremap
 ** fill        0x0000000000404193        0x1
 .text          0x0000000000404194        0x0 0x4 /usr/local/popcorn/x86_64//lib/libc.a(munmap.o)
 .text.dummy    0x0000000000404194        0x1 0x1 /usr/local/popcorn/x86_64//lib/libc.a(munmap.o)
 .text.__munmap
                0x0000000000404195       0x2b 0x1 /usr/local/popcorn/x86_64//lib/libc.a(munmap.o)
                0x0000000000404195                __munmap
                0x0000000000404195                munmap
 .text          0x00000000004041c0        0x0 0x4 /usr/local/popcorn/x86_64//lib/libc.a(wctomb.o)
 .text.wctomb   0x00000000004041c0       0x11 0x1 /usr/local/popcorn/x86_64//lib/libc.a(wctomb.o)
                0x00000000004041c0                wctomb
 ** fill        0x00000000004041d1        0x3
 .text          0x00000000004041d4        0x0 0x4 /usr/local/popcorn/x86_64//lib/libc.a(sched_yield.o)
 .text.sched_yield
                0x00000000004041d4        0xf 0x1 /usr/local/popcorn/x86_64//lib/libc.a(sched_yield.o)
                0x00000000004041d4                sched_yield
 ** fill        0x00000000004041e3        0x1
 .text          0x00000000004041e4        0x0 0x4 /usr/local/popcorn/x86_64//lib/libc.a(__fdopen.o)
 .text.__fdopen
                0x00000000004041e4      0x1ac 0x1 /usr/local/popcorn/x86_64//lib/libc.a(__fdopen.o)
                0x00000000004041e4                __fdopen
                0x00000000004041e4                fdopen
 .text          0x0000000000404390        0x0 0x4 /usr/local/popcorn/x86_64//lib/libc.a(__fmodeflags.o)
 .text.__fmodeflags
                0x0000000000404390       0x8d 0x1 /usr/local/popcorn/x86_64//lib/libc.a(__fmodeflags.o)
                0x0000000000404390                __fmodeflags
 ** fill        0x000000000040441d        0x3
 .text          0x0000000000404420        0x0 0x4 /usr/local/popcorn/x86_64//lib/libc.a(__lockfile.o)
 .text.__lockfile
                0x0000000000404420       0x72 0x1 /usr/local/popcorn/x86_64//lib/libc.a(__lockfile.o)
                0x0000000000404420                __lockfile
 .text.__unlockfile
                0x0000000000404492        0xf 0x1 /usr/local/popcorn/x86_64//lib/libc.a(__lockfile.o)
                0x0000000000404492                __unlockfile
 ** fill        0x00000000004044a1        0x3
 .text          0x00000000004044a4        0x0 0x4 /usr/local/popcorn/x86_64//lib/libc.a(__stdio_close.o)
 .text.dummy    0x00000000004044a4        0x3 0x1 /usr/local/popcorn/x86_64//lib/libc.a(__stdio_close.o)
                0x00000000004044a4                __aio_close
 .text.__stdio_close
                0x00000000004044a7       0x1c 0x1 /usr/local/popcorn/x86_64//lib/libc.a(__stdio_close.o)
                0x00000000004044a7                __stdio_close
 ** fill        0x00000000004044c3        0x1
 .text          0x00000000004044c4        0x0 0x4 /usr/local/popcorn/x86_64//lib/libc.a(__stdio_read.o)
 .text.__stdio_read
                0x00000000004044c4       0xeb 0x1 /usr/local/popcorn/x86_64//lib/libc.a(__stdio_read.o)
                0x00000000004044c4                __stdio_read
 .text.cleanup  0x00000000004045af       0x10 0x1 /usr/local/popcorn/x86_64//lib/libc.a(__stdio_read.o)
 ** fill        0x00000000004045bf        0x1
 .text          0x00000000004045c0        0x0 0x4 /usr/local/popcorn/x86_64//lib/libc.a(__stdio_seek.o)
 .text.__stdio_seek
                0x00000000004045c0       0x16 0x1 /usr/local/popcorn/x86_64//lib/libc.a(__stdio_seek.o)
                0x00000000004045c0                __stdio_seek
 ** fill        0x00000000004045d6        0x2
 .text          0x00000000004045d8        0x0 0x4 /usr/local/popcorn/x86_64//lib/libc.a(__stdio_write.o)
 .text.__stdio_write
                0x00000000004045d8      0x138 0x1 /usr/local/popcorn/x86_64//lib/libc.a(__stdio_write.o)
                0x00000000004045d8                __stdio_write
 .text.cleanup  0x0000000000404710       0x10 0x1 /usr/local/popcorn/x86_64//lib/libc.a(__stdio_write.o)
 .text          0x0000000000404720        0x0 0x4 /usr/local/popcorn/x86_64//lib/libc.a(fwrite.o)
 .text.__fwritex
                0x0000000000404720       0xd2 0x1 /usr/local/popcorn/x86_64//lib/libc.a(fwrite.o)
                0x0000000000404720                __fwritex
 .text.fwrite   0x00000000004047f2       0x85 0x1 /usr/local/popcorn/x86_64//lib/libc.a(fwrite.o)
                0x00000000004047f2                fwrite
                0x00000000004047f2                fwrite_unlocked
 ** fill        0x0000000000404877        0x1
 .text          0x0000000000404878        0x0 0x4 /usr/local/popcorn/x86_64//lib/libc.a(memcpy.o)
 .text.memcpy   0x0000000000404878       0x32 0x1 /usr/local/popcorn/x86_64//lib/libc.a(memcpy.o)
                0x0000000000404878                __memcpy_fwd
                0x0000000000404878                memcpy
 ** fill        0x00000000004048aa        0x2
 .text          0x00000000004048ac        0x0 0x4 /usr/local/popcorn/x86_64//lib/libc.a(__set_thread_area.o)
 .text.__set_thread_area
                0x00000000004048ac       0x10 0x1 /usr/local/popcorn/x86_64//lib/libc.a(__set_thread_area.o)
                0x00000000004048ac                __set_thread_area
 .text          0x00000000004048bc        0x0 0x4 /usr/local/popcorn/x86_64//lib/libc.a(pthread_cleanup_push.o)
 .text.dummy    0x00000000004048bc        0x1 0x1 /usr/local/popcorn/x86_64//lib/libc.a(pthread_cleanup_push.o)
                0x00000000004048bc                __do_cleanup_pop
                0x00000000004048bc                __do_cleanup_push
 .text._pthread_cleanup_push
                0x00000000004048bd        0xc 0x1 /usr/local/popcorn/x86_64//lib/libc.a(pthread_cleanup_push.o)
                0x00000000004048bd                _pthread_cleanup_push
 .text._pthread_cleanup_pop
                0x00000000004048c9       0x2a 0x1 /usr/local/popcorn/x86_64//lib/libc.a(pthread_cleanup_push.o)
                0x00000000004048c9                _pthread_cleanup_pop
 ** fill        0x00000000004048f3        0x1
 .text          0x00000000004048f4        0x0 0x4 /usr/local/popcorn/x86_64//lib/libc.a(__brk.o)
 ** fill        0x00000000004048f4        0xc
 .text.__brk    0x0000000000404900        0x8 0x10 /usr/local/popcorn/x86_64//lib/libc.a(__brk.o)
                0x0000000000404900                __brk
 .text          0x0000000000404908        0x0 0x4 /usr/local/popcorn/x86_64//lib/libc.a(wcrtomb.o)
 .text.wcrtomb  0x0000000000404908       0xf6 0x1 /usr/local/popcorn/x86_64//lib/libc.a(wcrtomb.o)
                0x0000000000404908                wcrtomb
 ** fill        0x00000000004049fe        0x2
 .text          0x0000000000404a00        0x0 0x4 /usr/local/popcorn/x86_64//lib/libc.a(__towrite.o)
 .text.__towrite
                0x0000000000404a00       0x41 0x1 /usr/local/popcorn/x86_64//lib/libc.a(__towrite.o)
                0x0000000000404a00                __towrite
 .text.__towrite_needs_stdio_exit
                0x0000000000404a41        0x5 0x1 /usr/local/popcorn/x86_64//lib/libc.a(__towrite.o)
                0x0000000000404a41                __towrite_needs_stdio_exit
 ** fill        0x0000000000404a46        0x2
 .text          0x0000000000404a48        0x0 0x4 /usr/local/popcorn/x86_64//lib/libc.a(__stdio_exit.o)
 .text.__stdio_exit
                0x0000000000404a48       0x3e 0x1 /usr/local/popcorn/x86_64//lib/libc.a(__stdio_exit.o)
                0x0000000000404a48                __stdio_exit
                0x0000000000404a48                __stdio_exit_needed
 .text.close_file
                0x0000000000404a86       0x49 0x1 /usr/local/popcorn/x86_64//lib/libc.a(__stdio_exit.o)
 ** fill        0x0000000000404acf        0x1
 .text          0x0000000000404ad0        0x0 0x4 /usr/local/popcorn/x86_64//lib/libmigrate.a(migrate.o)
 .text.__init_nodes_info
                0x0000000000404ad0      0x137 0x10 /usr/local/popcorn/x86_64//lib/libmigrate.a(migrate.o)
 ** fill        0x0000000000404c07        0x9
 .text.current_nid
                0x0000000000404c10       0x29 0x10 /usr/local/popcorn/x86_64//lib/libmigrate.a(migrate.o)
                0x0000000000404c10                current_nid
 ** fill        0x0000000000404c39        0x7
 .text.current_arch
                0x0000000000404c40       0x1f 0x10 /usr/local/popcorn/x86_64//lib/libmigrate.a(migrate.o)
                0x0000000000404c40                current_arch
 ** fill        0x0000000000404c5f        0x1
 .text.check_migrate
                0x0000000000404c60       0x2c 0x10 /usr/local/popcorn/x86_64//lib/libmigrate.a(migrate.o)
                0x0000000000404c60                check_migrate
 ** fill        0x0000000000404c8c        0x4
 .text.do_migrate
                0x0000000000404c90       0x29 0x10 /usr/local/popcorn/x86_64//lib/libmigrate.a(migrate.o)
 ** fill        0x0000000000404cb9        0x7
 .text.__migrate_shim_internal
                0x0000000000404cc0      0x356 0x10 /usr/local/popcorn/x86_64//lib/libmigrate.a(migrate.o)
 ** fill        0x0000000000405016        0xa
 .text.migrate  0x0000000000405020        0xb 0x10 /usr/local/popcorn/x86_64//lib/libmigrate.a(migrate.o)
                0x0000000000405020                migrate
 ** fill        0x000000000040502b        0x5
 .text.register_migrate_callback
                0x0000000000405030        0xf 0x10 /usr/local/popcorn/x86_64//lib/libmigrate.a(migrate.o)
                0x0000000000405030                register_migrate_callback
 ** fill        0x000000000040503f        0x1
 .text.__cyg_profile_func_enter
                0x0000000000405040       0x24 0x10 /usr/local/popcorn/x86_64//lib/libmigrate.a(migrate.o)
                0x0000000000405040                __cyg_profile_func_enter
 ** fill        0x0000000000405064        0xc
 .text.__cyg_profile_func_exit
                0x0000000000405070       0x24 0x10 /usr/local/popcorn/x86_64//lib/libmigrate.a(migrate.o)
                0x0000000000405070                __cyg_profile_func_exit
 .text          0x0000000000405094        0x0 0x4 /usr/local/popcorn/x86_64//lib/libstack-transform.a(userspace.o)
 ** fill        0x0000000000405094        0xc
 .text.__st_userspace_ctor
                0x00000000004050a0      0x34d 0x10 /usr/local/popcorn/x86_64//lib/libstack-transform.a(userspace.o)
                0x00000000004050a0                __st_userspace_ctor
 ** fill        0x00000000004053ed        0x3
 .text.__st_userspace_dtor
                0x00000000004053f0       0x60 0x10 /usr/local/popcorn/x86_64//lib/libstack-transform.a(userspace.o)
                0x00000000004053f0                __st_userspace_dtor
 .text.get_stack_bounds
                0x0000000000405450       0xd4 0x10 /usr/local/popcorn/x86_64//lib/libstack-transform.a(userspace.o)
                0x0000000000405450                get_stack_bounds
 ** fill        0x0000000000405524        0xc
 .text.st_userspace_rewrite
                0x0000000000405530       0x36 0x10 /usr/local/popcorn/x86_64//lib/libstack-transform.a(userspace.o)
                0x0000000000405530                st_userspace_rewrite
 ** fill        0x0000000000405566        0xa
 .text.userspace_rewrite_internal
                0x0000000000405570      0x167 0x10 /usr/local/popcorn/x86_64//lib/libstack-transform.a(userspace.o)
 ** fill        0x00000000004056d7        0x9
 .text.st_userspace_rewrite_aarch64
                0x00000000004056e0       0x27 0x10 /usr/local/popcorn/x86_64//lib/libstack-transform.a(userspace.o)
                0x00000000004056e0                st_userspace_rewrite_aarch64
 ** fill        0x0000000000405707        0x9
 .text.st_userspace_rewrite_x86_64
                0x0000000000405710       0x26 0x10 /usr/local/popcorn/x86_64//lib/libstack-transform.a(userspace.o)
                0x0000000000405710                st_userspace_rewrite_x86_64
 ** fill        0x0000000000405736        0x2
 .text          0x0000000000405738        0x0 0x4 /usr/local/popcorn/x86_64//lib/libstack-transform.a(init.o)
 ** fill        0x0000000000405738        0x8
 .text.__st_ctor
                0x0000000000405740        0x5 0x10 /usr/local/popcorn/x86_64//lib/libstack-transform.a(init.o)
 ** fill        0x0000000000405745        0xb
 .text.__st_dtor
                0x0000000000405750        0x5 0x10 /usr/local/popcorn/x86_64//lib/libstack-transform.a(init.o)
                0x0000000000405750                __st_dtor
 ** fill        0x0000000000405755        0xb
 .text.st_init  0x0000000000405760      0x212 0x10 /usr/local/popcorn/x86_64//lib/libstack-transform.a(init.o)
                0x0000000000405760                st_init
 ** fill        0x0000000000405972        0xe
 .text.st_destroy
                0x0000000000405980       0x24 0x10 /usr/local/popcorn/x86_64//lib/libstack-transform.a(init.o)
                0x0000000000405980                st_destroy
 .text          0x00000000004059a4        0x0 0x4 /usr/local/popcorn/x86_64//lib/libstack-transform.a(rewrite.o)
 ** fill        0x00000000004059a4        0xc
 .text.st_rewrite_stack
                0x00000000004059b0      0xd75 0x10 /usr/local/popcorn/x86_64//lib/libstack-transform.a(rewrite.o)
                0x00000000004059b0                st_rewrite_stack
 ** fill        0x0000000000406725        0xb
 .text.st_rewrite_ondemand
                0x0000000000406730       0x26 0x10 /usr/local/popcorn/x86_64//lib/libstack-transform.a(rewrite.o)
                0x0000000000406730                st_rewrite_ondemand
 ** fill        0x0000000000406756        0xa
 .text.rewrite_val
                0x0000000000406760      0x222 0x10 /usr/local/popcorn/x86_64//lib/libstack-transform.a(rewrite.o)
 ** fill        0x0000000000406982        0x2
 .text          0x0000000000406984        0x0 0x4 /usr/local/popcorn/x86_64//lib/libstack-transform.a(unwind.o)
 ** fill        0x0000000000406984        0xc
 .text.first_frame
                0x0000000000406990        0x8 0x10 /usr/local/popcorn/x86_64//lib/libstack-transform.a(unwind.o)
                0x0000000000406990                first_frame
 ** fill        0x0000000000406998        0x8
 .text.calculate_cfa
                0x00000000004069a0       0x2d 0x10 /usr/local/popcorn/x86_64//lib/libstack-transform.a(unwind.o)
                0x00000000004069a0                calculate_cfa
 ** fill        0x00000000004069cd        0x3
 .text.bootstrap_first_frame
                0x00000000004069d0       0x77 0x10 /usr/local/popcorn/x86_64//lib/libstack-transform.a(unwind.o)
                0x00000000004069d0                bootstrap_first_frame
 ** fill        0x0000000000406a47        0x9
 .text.bootstrap_first_frame_funcentry
                0x0000000000406a50       0x74 0x10 /usr/local/popcorn/x86_64//lib/libstack-transform.a(unwind.o)
                0x0000000000406a50                bootstrap_first_frame_funcentry
 ** fill        0x0000000000406ac4        0xc
 .text.pop_frame
                0x0000000000406ad0      0x1f0 0x10 /usr/local/popcorn/x86_64//lib/libstack-transform.a(unwind.o)
                0x0000000000406ad0                pop_frame
 .text.pop_frame_funcentry
                0x0000000000406cc0      0x13b 0x10 /usr/local/popcorn/x86_64//lib/libstack-transform.a(unwind.o)
                0x0000000000406cc0                pop_frame_funcentry
 ** fill        0x0000000000406dfb        0x5
 .text.get_register_save_loc
                0x0000000000406e00       0x61 0x10 /usr/local/popcorn/x86_64//lib/libstack-transform.a(unwind.o)
                0x0000000000406e00                get_register_save_loc
 ** fill        0x0000000000406e61        0xf
 .text.free_activation
                0x0000000000406e70        0x1 0x10 /usr/local/popcorn/x86_64//lib/libstack-transform.a(unwind.o)
                0x0000000000406e70                free_activation
 ** fill        0x0000000000406e71        0x3
 .text          0x0000000000406e74        0x0 0x4 /usr/local/popcorn/x86_64//lib/libstack-transform.a(util.o)
 ** fill        0x0000000000406e74        0xc
 .text.arch_name
                0x0000000000406e80       0x21 0x10 /usr/local/popcorn/x86_64//lib/libstack-transform.a(util.o)
                0x0000000000406e80                arch_name
 ** fill        0x0000000000406ea1        0xf
 .text.get_regops
                0x0000000000406eb0       0x1e 0x10 /usr/local/popcorn/x86_64//lib/libstack-transform.a(util.o)
                0x0000000000406eb0                get_regops
 ** fill        0x0000000000406ece        0x2
 .text.get_properties
                0x0000000000406ed0       0x1e 0x10 /usr/local/popcorn/x86_64//lib/libstack-transform.a(util.o)
                0x0000000000406ed0                get_properties
 ** fill        0x0000000000406eee        0x2
 .text.get_section
                0x0000000000406ef0       0xae 0x10 /usr/local/popcorn/x86_64//lib/libstack-transform.a(util.o)
                0x0000000000406ef0                get_section
 ** fill        0x0000000000406f9e        0x2
 .text.get_num_entries
                0x0000000000406fa0       0x4f 0x10 /usr/local/popcorn/x86_64//lib/libstack-transform.a(util.o)
                0x0000000000406fa0                get_num_entries
 ** fill        0x0000000000406fef        0x1
 .text.get_section_data
                0x0000000000406ff0       0x26 0x10 /usr/local/popcorn/x86_64//lib/libstack-transform.a(util.o)
                0x0000000000406ff0                get_section_data
 ** fill        0x0000000000407016        0xa
 .text.get_site_by_addr
                0x0000000000407020       0x7a 0x10 /usr/local/popcorn/x86_64//lib/libstack-transform.a(util.o)
                0x0000000000407020                get_site_by_addr
 ** fill        0x000000000040709a        0x6
 .text.get_site_by_id
                0x00000000004070a0       0x70 0x10 /usr/local/popcorn/x86_64//lib/libstack-transform.a(util.o)
                0x00000000004070a0                get_site_by_id
 .text.get_unwind_offset_by_addr
                0x0000000000407110       0x8c 0x10 /usr/local/popcorn/x86_64//lib/libstack-transform.a(util.o)
                0x0000000000407110                get_unwind_offset_by_addr
 ** fill        0x000000000040719c        0x4
 .text.get_function_address
                0x00000000004071a0       0x80 0x10 /usr/local/popcorn/x86_64//lib/libstack-transform.a(util.o)
                0x00000000004071a0                get_function_address
 .text          0x0000000000407220        0x0 0x4 /usr/local/popcorn/x86_64//lib/libstack-transform.a(properties.o)
 .text.align_sp_aarch64
                0x0000000000407220       0x23 0x10 /usr/local/popcorn/x86_64//lib/libstack-transform.a(properties.o)
 ** fill        0x0000000000407243        0xd
 .text.is_callee_saved_aarch64
                0x0000000000407250       0x1f 0x10 /usr/local/popcorn/x86_64//lib/libstack-transform.a(properties.o)
 ** fill        0x000000000040726f        0x1
 .text.callee_reg_size_aarch64
                0x0000000000407270       0x41 0x10 /usr/local/popcorn/x86_64//lib/libstack-transform.a(properties.o)
 ** fill        0x00000000004072b1        0x3
 .text          0x00000000004072b4        0x0 0x4 /usr/local/popcorn/x86_64//lib/libstack-transform.a(regs.o)
 ** fill        0x00000000004072b4        0xc
 .text.regset_default_aarch64
                0x00000000004072c0       0x15 0x10 /usr/local/popcorn/x86_64//lib/libstack-transform.a(regs.o)
 ** fill        0x00000000004072d5        0xb
 .text.regset_init_aarch64
                0x00000000004072e0       0x33 0x10 /usr/local/popcorn/x86_64//lib/libstack-transform.a(regs.o)
 ** fill        0x0000000000407313        0xd
 .text.regset_free_aarch64
                0x0000000000407320        0x5 0x10 /usr/local/popcorn/x86_64//lib/libstack-transform.a(regs.o)
 ** fill        0x0000000000407325        0xb
 .text.regset_clone_aarch64
                0x0000000000407330       0x13 0x10 /usr/local/popcorn/x86_64//lib/libstack-transform.a(regs.o)
 ** fill        0x0000000000407343        0xd
 .text.regset_copyin_aarch64
                0x0000000000407350       0x11 0x10 /usr/local/popcorn/x86_64//lib/libstack-transform.a(regs.o)
 ** fill        0x0000000000407361        0xf
 .text.regset_copyout_aarch64
                0x0000000000407370       0x14 0x10 /usr/local/popcorn/x86_64//lib/libstack-transform.a(regs.o)
 ** fill        0x0000000000407384        0xc
 .text.pc_aarch64
                0x0000000000407390        0x5 0x10 /usr/local/popcorn/x86_64//lib/libstack-transform.a(regs.o)
 ** fill        0x0000000000407395        0xb
 .text.sp_aarch64
                0x00000000004073a0        0x5 0x10 /usr/local/popcorn/x86_64//lib/libstack-transform.a(regs.o)
 ** fill        0x00000000004073a5        0xb
 .text.fbp_aarch64
                0x00000000004073b0        0x8 0x10 /usr/local/popcorn/x86_64//lib/libstack-transform.a(regs.o)
 ** fill        0x00000000004073b8        0x8
 .text.ra_reg_aarch64
                0x00000000004073c0        0x8 0x10 /usr/local/popcorn/x86_64//lib/libstack-transform.a(regs.o)
 ** fill        0x00000000004073c8        0x8
 .text.set_pc_aarch64
                0x00000000004073d0        0x5 0x10 /usr/local/popcorn/x86_64//lib/libstack-transform.a(regs.o)
 ** fill        0x00000000004073d5        0xb
 .text.set_sp_aarch64
                0x00000000004073e0        0x5 0x10 /usr/local/popcorn/x86_64//lib/libstack-transform.a(regs.o)
 ** fill        0x00000000004073e5        0xb
 .text.set_fbp_aarch64
                0x00000000004073f0        0x8 0x10 /usr/local/popcorn/x86_64//lib/libstack-transform.a(regs.o)
 ** fill        0x00000000004073f8        0x8
 .text.set_ra_reg_aarch64
                0x0000000000407400        0x8 0x10 /usr/local/popcorn/x86_64//lib/libstack-transform.a(regs.o)
 ** fill        0x0000000000407408        0x8
 .text.setup_fbp_aarch64
                0x0000000000407410        0xc 0x10 /usr/local/popcorn/x86_64//lib/libstack-transform.a(regs.o)
 ** fill        0x000000000040741c        0x4
 .text.reg_size_aarch64
                0x0000000000407420       0x3c 0x10 /usr/local/popcorn/x86_64//lib/libstack-transform.a(regs.o)
 ** fill        0x000000000040745c        0x4
 .text.reg_aarch64
                0x0000000000407460      0x2da 0x10 /usr/local/popcorn/x86_64//lib/libstack-transform.a(regs.o)
 ** fill        0x000000000040773a        0x2
 .text          0x000000000040773c        0x0 0x4 /usr/local/popcorn/x86_64//lib/libstack-transform.a(properties.o)
 ** fill        0x000000000040773c        0x4
 .text.align_sp_x86_64
                0x0000000000407740        0xf 0x10 /usr/local/popcorn/x86_64//lib/libstack-transform.a(properties.o)
 ** fill        0x000000000040774f        0x1
 .text.is_callee_saved_x86_64
                0x0000000000407750       0x19 0x10 /usr/local/popcorn/x86_64//lib/libstack-transform.a(properties.o)
 ** fill        0x0000000000407769        0x7
 .text.callee_reg_size_x86_64
                0x0000000000407770       0x38 0x10 /usr/local/popcorn/x86_64//lib/libstack-transform.a(properties.o)
 .text          0x00000000004077a8        0x0 0x4 /usr/local/popcorn/x86_64//lib/libstack-transform.a(regs.o)
 ** fill        0x00000000004077a8        0x8
 .text.regset_default_x86_64
                0x00000000004077b0       0x15 0x10 /usr/local/popcorn/x86_64//lib/libstack-transform.a(regs.o)
 ** fill        0x00000000004077c5        0xb
 .text.regset_init_x86_64
                0x00000000004077d0       0x33 0x10 /usr/local/popcorn/x86_64//lib/libstack-transform.a(regs.o)
 ** fill        0x0000000000407803        0xd
 .text.regset_free_x86_64
                0x0000000000407810        0x5 0x10 /usr/local/popcorn/x86_64//lib/libstack-transform.a(regs.o)
 ** fill        0x0000000000407815        0xb
 .text.regset_clone_x86_64
                0x0000000000407820       0x13 0x10 /usr/local/popcorn/x86_64//lib/libstack-transform.a(regs.o)
 ** fill        0x0000000000407833        0xd
 .text.regset_copyin_x86_64
                0x0000000000407840       0x11 0x10 /usr/local/popcorn/x86_64//lib/libstack-transform.a(regs.o)
 ** fill        0x0000000000407851        0xf
 .text.regset_copyout_x86_64
                0x0000000000407860       0x14 0x10 /usr/local/popcorn/x86_64//lib/libstack-transform.a(regs.o)
 ** fill        0x0000000000407874        0xc
 .text.pc_x86_64
                0x0000000000407880        0x5 0x10 /usr/local/popcorn/x86_64//lib/libstack-transform.a(regs.o)
 ** fill        0x0000000000407885        0xb
 .text.sp_x86_64
                0x0000000000407890        0x5 0x10 /usr/local/popcorn/x86_64//lib/libstack-transform.a(regs.o)
 ** fill        0x0000000000407895        0xb
 .text.fbp_x86_64
                0x00000000004078a0        0x5 0x10 /usr/local/popcorn/x86_64//lib/libstack-transform.a(regs.o)
 ** fill        0x00000000004078a5        0xb
 .text.ra_reg_x86_64
                0x00000000004078b0       0x26 0x10 /usr/local/popcorn/x86_64//lib/libstack-transform.a(regs.o)
 ** fill        0x00000000004078d6        0xa
 .text.set_pc_x86_64
                0x00000000004078e0        0x5 0x10 /usr/local/popcorn/x86_64//lib/libstack-transform.a(regs.o)
 ** fill        0x00000000004078e5        0xb
 .text.set_sp_x86_64
                0x00000000004078f0        0x5 0x10 /usr/local/popcorn/x86_64//lib/libstack-transform.a(regs.o)
 ** fill        0x00000000004078f5        0xb
 .text.set_fbp_x86_64
                0x0000000000407900        0x5 0x10 /usr/local/popcorn/x86_64//lib/libstack-transform.a(regs.o)
 ** fill        0x0000000000407905        0xb
 .text.set_ra_reg_x86_64
                0x0000000000407910       0x26 0x10 /usr/local/popcorn/x86_64//lib/libstack-transform.a(regs.o)
 ** fill        0x0000000000407936        0xa
 .text.setup_fbp_x86_64
                0x0000000000407940        0x9 0x10 /usr/local/popcorn/x86_64//lib/libstack-transform.a(regs.o)
 ** fill        0x0000000000407949        0x7
 .text.reg_size_x86_64
                0x0000000000407950       0x33 0x10 /usr/local/popcorn/x86_64//lib/libstack-transform.a(regs.o)
 ** fill        0x0000000000407983        0xd
 .text.reg_x86_64
                0x0000000000407990      0x163 0x10 /usr/local/popcorn/x86_64//lib/libstack-transform.a(regs.o)
 ** fill        0x0000000000407af3        0x1
 .text          0x0000000000407af4        0x0 0x4 /usr/local/popcorn/x86_64//lib/libstack-transform.a(data.o)
 ** fill        0x0000000000407af4        0xc
 .text.put_val  0x0000000000407b00      0x20d 0x10 /usr/local/popcorn/x86_64//lib/libstack-transform.a(data.o)
                0x0000000000407b00                put_val
 ** fill        0x0000000000407d0d        0x3
 .text.get_dest_loc
                0x0000000000407d10       0xab 0x10 /usr/local/popcorn/x86_64//lib/libstack-transform.a(data.o)
 ** fill        0x0000000000407dbb        0x5
 .text.put_val_arch
                0x0000000000407dc0      0x26d 0x10 /usr/local/popcorn/x86_64//lib/libstack-transform.a(data.o)
                0x0000000000407dc0                put_val_arch
 ** fill        0x000000000040802d        0x3
 .text.put_val_data
                0x0000000000408030       0xeb 0x10 /usr/local/popcorn/x86_64//lib/libstack-transform.a(data.o)
                0x0000000000408030                put_val_data
 ** fill        0x000000000040811b        0x5
 .text.points_to_stack
                0x0000000000408120       0xf9 0x10 /usr/local/popcorn/x86_64//lib/libstack-transform.a(data.o)
                0x0000000000408120                points_to_stack
 ** fill        0x0000000000408219        0x7
 .text.points_to_data
                0x0000000000408220      0x157 0x10 /usr/local/popcorn/x86_64//lib/libstack-transform.a(data.o)
                0x0000000000408220                points_to_data
 ** fill        0x0000000000408377        0x9
 .text.set_return_address
                0x0000000000408380       0x1d 0x10 /usr/local/popcorn/x86_64//lib/libstack-transform.a(data.o)
                0x0000000000408380                set_return_address
 ** fill        0x000000000040839d        0x3
 .text.set_return_address_funcentry
                0x00000000004083a0       0x39 0x10 /usr/local/popcorn/x86_64//lib/libstack-transform.a(data.o)
                0x00000000004083a0                set_return_address_funcentry
 ** fill        0x00000000004083d9        0x7
 .text.get_savedfbp_loc
                0x00000000004083e0       0x19 0x10 /usr/local/popcorn/x86_64//lib/libstack-transform.a(data.o)
                0x00000000004083e0                get_savedfbp_loc
 .text          0x00000000004083f9        0x0 0x1 /usr/local/popcorn/x86_64//lib/libelf.a(begin.o)
 ** fill        0x00000000004083f9        0x7
 .text.elf_begin
                0x0000000000408400     0x1191 0x10 /usr/local/popcorn/x86_64//lib/libelf.a(begin.o)
                0x0000000000408400                elf_begin
 ** fill        0x0000000000409591        0xf
 .text.elf_memory
                0x00000000004095a0      0x388 0x10 /usr/local/popcorn/x86_64//lib/libelf.a(begin.o)
                0x00000000004095a0                elf_memory
 ** fill        0x0000000000409928        0x8
 .text.gelf_getclass
                0x0000000000409930       0x20 0x10 /usr/local/popcorn/x86_64//lib/libelf.a(begin.o)
                0x0000000000409930                gelf_getclass
 .text          0x0000000000409950        0x0 0x1 /usr/local/popcorn/x86_64//lib/libelf.a(end.o)
 .text.elf_end  0x0000000000409950      0x20d 0x10 /usr/local/popcorn/x86_64//lib/libelf.a(end.o)
                0x0000000000409950                elf_end
 .text          0x0000000000409b5d        0x0 0x1 /usr/local/popcorn/x86_64//lib/libelf.a(getdata.o)
 ** fill        0x0000000000409b5d        0x3
 .text.elf_getdata
                0x0000000000409b60      0x2c2 0x10 /usr/local/popcorn/x86_64//lib/libelf.a(getdata.o)
                0x0000000000409b60                elf_getdata
 .text          0x0000000000409e22        0x0 0x1 /usr/local/popcorn/x86_64//lib/libelf.a(getident.o)
 ** fill        0x0000000000409e22        0xe
 .text.elf_getident
                0x0000000000409e30       0x8c 0x10 /usr/local/popcorn/x86_64//lib/libelf.a(getident.o)
                0x0000000000409e30                elf_getident
 .text          0x0000000000409ebc        0x0 0x1 /usr/local/popcorn/x86_64//lib/libelf.a(nextscn.o)
 ** fill        0x0000000000409ebc        0x4
 .text.elf_nextscn
                0x0000000000409ec0       0xa0 0x10 /usr/local/popcorn/x86_64//lib/libelf.a(nextscn.o)
                0x0000000000409ec0                elf_nextscn
 .text          0x0000000000409f60        0x0 0x1 /usr/local/popcorn/x86_64//lib/libelf.a(strptr.o)
 .text.elf_strptr
                0x0000000000409f60      0x184 0x10 /usr/local/popcorn/x86_64//lib/libelf.a(strptr.o)
                0x0000000000409f60                elf_strptr
 .text          0x000000000040a0e4        0x0 0x1 /usr/local/popcorn/x86_64//lib/libelf.a(version.o)
 ** fill        0x000000000040a0e4        0xc
 .text.elf_version
                0x000000000040a0f0       0x57 0x10 /usr/local/popcorn/x86_64//lib/libelf.a(version.o)
                0x000000000040a0f0                elf_version
 .text          0x000000000040a147        0x0 0x1 /usr/local/popcorn/x86_64//lib/libelf.a(32.getehdr.o)
 ** fill        0x000000000040a147        0x9
 .text._elf_getehdr
                0x000000000040a150       0x68 0x10 /usr/local/popcorn/x86_64//lib/libelf.a(32.getehdr.o)
                0x000000000040a150                _elf_getehdr
 ** fill        0x000000000040a1b8        0x8
 .text.elf32_getehdr
                0x000000000040a1c0       0x68 0x10 /usr/local/popcorn/x86_64//lib/libelf.a(32.getehdr.o)
                0x000000000040a1c0                elf32_getehdr
 ** fill        0x000000000040a228        0x8
 .text.elf64_getehdr
                0x000000000040a230       0x68 0x10 /usr/local/popcorn/x86_64//lib/libelf.a(32.getehdr.o)
                0x000000000040a230                elf64_getehdr
 .text          0x000000000040a298        0x0 0x1 /usr/local/popcorn/x86_64//lib/libelf.a(32.xlatetof.o)
 ** fill        0x000000000040a298        0x8
 .text.addr_32L__tom
                0x000000000040a2a0      0x38a 0x10 /usr/local/popcorn/x86_64//lib/libelf.a(32.xlatetof.o)
 ** fill        0x000000000040a62a        0x6
 .text.addr_32L__tof
                0x000000000040a630      0x37a 0x10 /usr/local/popcorn/x86_64//lib/libelf.a(32.xlatetof.o)
 ** fill        0x000000000040a9aa        0x6
 .text.addr_32M__tom
                0x000000000040a9b0      0x37b 0x10 /usr/local/popcorn/x86_64//lib/libelf.a(32.xlatetof.o)
 ** fill        0x000000000040ad2b        0x5
 .text.addr_32M__tof
                0x000000000040ad30      0x37a 0x10 /usr/local/popcorn/x86_64//lib/libelf.a(32.xlatetof.o)
 ** fill        0x000000000040b0aa        0x6
 .text.half_32L__tom
                0x000000000040b0b0      0x2fa 0x10 /usr/local/popcorn/x86_64//lib/libelf.a(32.xlatetof.o)
 ** fill        0x000000000040b3aa        0x6
 .text.half_32L__tof
                0x000000000040b3b0      0x2b6 0x10 /usr/local/popcorn/x86_64//lib/libelf.a(32.xlatetof.o)
 ** fill        0x000000000040b666        0xa
 .text.half_32M__tom
                0x000000000040b670      0x2fa 0x10 /usr/local/popcorn/x86_64//lib/libelf.a(32.xlatetof.o)
 ** fill        0x000000000040b96a        0x6
 .text.half_32M__tof
                0x000000000040b970      0x2b6 0x10 /usr/local/popcorn/x86_64//lib/libelf.a(32.xlatetof.o)
 ** fill        0x000000000040bc26        0xa
 .text.off_32L__tom
                0x000000000040bc30      0x38a 0x10 /usr/local/popcorn/x86_64//lib/libelf.a(32.xlatetof.o)
 ** fill        0x000000000040bfba        0x6
 .text.off_32L__tof
                0x000000000040bfc0      0x37a 0x10 /usr/local/popcorn/x86_64//lib/libelf.a(32.xlatetof.o)
 ** fill        0x000000000040c33a        0x6
 .text.off_32M__tom
                0x000000000040c340      0x37b 0x10 /usr/local/popcorn/x86_64//lib/libelf.a(32.xlatetof.o)
 ** fill        0x000000000040c6bb        0x5
 .text.off_32M__tof
                0x000000000040c6c0      0x37a 0x10 /usr/local/popcorn/x86_64//lib/libelf.a(32.xlatetof.o)
 ** fill        0x000000000040ca3a        0x6
 .text.sword_32L__tom
                0x000000000040ca40      0x467 0x10 /usr/local/popcorn/x86_64//lib/libelf.a(32.xlatetof.o)
 ** fill        0x000000000040cea7        0x9
 .text.sword_32L__tof
                0x000000000040ceb0      0x37a 0x10 /usr/local/popcorn/x86_64//lib/libelf.a(32.xlatetof.o)
 ** fill        0x000000000040d22a        0x6
 .text.sword_32M__tom
                0x000000000040d230      0x467 0x10 /usr/local/popcorn/x86_64//lib/libelf.a(32.xlatetof.o)
 ** fill        0x000000000040d697        0x9
 .text.sword_32M__tof
                0x000000000040d6a0      0x37a 0x10 /usr/local/popcorn/x86_64//lib/libelf.a(32.xlatetof.o)
 ** fill        0x000000000040da1a        0x6
 .text.word_32L__tom
                0x000000000040da20      0x38a 0x10 /usr/local/popcorn/x86_64//lib/libelf.a(32.xlatetof.o)
 ** fill        0x000000000040ddaa        0x6
 .text.word_32L__tof
                0x000000000040ddb0      0x37a 0x10 /usr/local/popcorn/x86_64//lib/libelf.a(32.xlatetof.o)
 ** fill        0x000000000040e12a        0x6
 .text.word_32M__tom
                0x000000000040e130      0x37b 0x10 /usr/local/popcorn/x86_64//lib/libelf.a(32.xlatetof.o)
 ** fill        0x000000000040e4ab        0x5
 .text.word_32M__tof
                0x000000000040e4b0      0x37a 0x10 /usr/local/popcorn/x86_64//lib/libelf.a(32.xlatetof.o)
 ** fill        0x000000000040e82a        0x6
 .text.dyn_32L11_tom
                0x000000000040e830       0x80 0x10 /usr/local/popcorn/x86_64//lib/libelf.a(32.xlatetof.o)
 .text.dyn_32L11_tof
                0x000000000040e8b0      0x707 0x10 /usr/local/popcorn/x86_64//lib/libelf.a(32.xlatetof.o)
 ** fill        0x000000000040efb7        0x9
 .text.dyn_32M11_tom
                0x000000000040efc0       0x7f 0x10 /usr/local/popcorn/x86_64//lib/libelf.a(32.xlatetof.o)
 ** fill        0x000000000040f03f        0x1
 .text.dyn_32M11_tof
                0x000000000040f040      0x6f7 0x10 /usr/local/popcorn/x86_64//lib/libelf.a(32.xlatetof.o)
 ** fill        0x000000000040f737        0x9
 .text.phdr_32L11_tom
                0x000000000040f740     0x35c8 0x10 /usr/local/popcorn/x86_64//lib/libelf.a(32.xlatetof.o)
 ** fill        0x0000000000412d08        0x8
 .text.phdr_32L11_tof
                0x0000000000412d10     0x2865 0x10 /usr/local/popcorn/x86_64//lib/libelf.a(32.xlatetof.o)
 ** fill        0x0000000000415575        0xb
 .text.phdr_32M11_tom
                0x0000000000415580     0x3628 0x10 /usr/local/popcorn/x86_64//lib/libelf.a(32.xlatetof.o)
 ** fill        0x0000000000418ba8        0x8
 .text.phdr_32M11_tof
                0x0000000000418bb0     0x28bd 0x10 /usr/local/popcorn/x86_64//lib/libelf.a(32.xlatetof.o)
 ** fill        0x000000000041b46d        0x3
 .text.rela_32L11_tom
                0x000000000041b470       0xc0 0x10 /usr/local/popcorn/x86_64//lib/libelf.a(32.xlatetof.o)
 .text.rela_32L11_tof
                0x000000000041b530       0x9c 0x10 /usr/local/popcorn/x86_64//lib/libelf.a(32.xlatetof.o)
 ** fill        0x000000000041b5cc        0x4
 .text.rela_32M11_tom
                0x000000000041b5d0       0xbf 0x10 /usr/local/popcorn/x86_64//lib/libelf.a(32.xlatetof.o)
 ** fill        0x000000000041b68f        0x1
 .text.rela_32M11_tof
                0x000000000041b690       0x9c 0x10 /usr/local/popcorn/x86_64//lib/libelf.a(32.xlatetof.o)
 ** fill        0x000000000041b72c        0x4
 .text.rel_32L11_tom
                0x000000000041b730      0x7da 0x10 /usr/local/popcorn/x86_64//lib/libelf.a(32.xlatetof.o)
 ** fill        0x000000000041bf0a        0x6
 .text.rel_32L11_tof
                0x000000000041bf10      0x717 0x10 /usr/local/popcorn/x86_64//lib/libelf.a(32.xlatetof.o)
 ** fill        0x000000000041c627        0x9
 .text.rel_32M11_tom
                0x000000000041c630      0x7d9 0x10 /usr/local/popcorn/x86_64//lib/libelf.a(32.xlatetof.o)
 ** fill        0x000000000041ce09        0x7
 .text.rel_32M11_tof
                0x000000000041ce10      0x717 0x10 /usr/local/popcorn/x86_64//lib/libelf.a(32.xlatetof.o)
 ** fill        0x000000000041d527        0x9
 .text.shdr_32L11_tom
                0x000000000041d530      0x1ba 0x10 /usr/local/popcorn/x86_64//lib/libelf.a(32.xlatetof.o)
 ** fill        0x000000000041d6ea        0x6
 .text.shdr_32L11_tof
                0x000000000041d6f0      0x173 0x10 /usr/local/popcorn/x86_64//lib/libelf.a(32.xlatetof.o)
 ** fill        0x000000000041d863        0xd
 .text.shdr_32M11_tom
                0x000000000041d870      0x1ba 0x10 /usr/local/popcorn/x86_64//lib/libelf.a(32.xlatetof.o)
 ** fill        0x000000000041da2a        0x6
 .text.shdr_32M11_tof
                0x000000000041da30      0x173 0x10 /usr/local/popcorn/x86_64//lib/libelf.a(32.xlatetof.o)
 ** fill        0x000000000041dba3        0xd
 .text.sym_32L11_tom
                0x000000000041dbb0       0xcb 0x10 /usr/local/popcorn/x86_64//lib/libelf.a(32.xlatetof.o)
 ** fill        0x000000000041dc7b        0x5
 .text.sym_32L11_tof
                0x000000000041dc80       0xb0 0x10 /usr/local/popcorn/x86_64//lib/libelf.a(32.xlatetof.o)
 .text.sym_32M11_tom
                0x000000000041dd30       0xca 0x10 /usr/local/popcorn/x86_64//lib/libelf.a(32.xlatetof.o)
 ** fill        0x000000000041ddfa        0x6
 .text.sym_32M11_tof
                0x000000000041de00       0xb0 0x10 /usr/local/popcorn/x86_64//lib/libelf.a(32.xlatetof.o)
 .text.ehdr_32M11_tom
                0x000000000041deb0      0x1b5 0x10 /usr/local/popcorn/x86_64//lib/libelf.a(32.xlatetof.o)
 ** fill        0x000000000041e065        0xb
 .text.byte_copy
                0x000000000041e070       0x26 0x10 /usr/local/popcorn/x86_64//lib/libelf.a(32.xlatetof.o)
 ** fill        0x000000000041e096        0xa
 .text.ehdr_32L11_tom
                0x000000000041e0a0      0x1b5 0x10 /usr/local/popcorn/x86_64//lib/libelf.a(32.xlatetof.o)
 ** fill        0x000000000041e255        0xb
 .text.ehdr_32M11_tof
                0x000000000041e260      0x181 0x10 /usr/local/popcorn/x86_64//lib/libelf.a(32.xlatetof.o)
 ** fill        0x000000000041e3e1        0xf
 .text.ehdr_32L11_tof
                0x000000000041e3f0      0x181 0x10 /usr/local/popcorn/x86_64//lib/libelf.a(32.xlatetof.o)
 ** fill        0x000000000041e571        0xf
 .text._elf32_xltsize
                0x000000000041e580       0x8e 0x10 /usr/local/popcorn/x86_64//lib/libelf.a(32.xlatetof.o)
                0x000000000041e580                _elf32_xltsize
 ** fill        0x000000000041e60e        0x2
 .text.elf32_xlatetom
                0x000000000041e610      0x13d 0x10 /usr/local/popcorn/x86_64//lib/libelf.a(32.xlatetof.o)
                0x000000000041e610                elf32_xlatetom
 ** fill        0x000000000041e74d        0x3
 .text.elf32_xlatetof
                0x000000000041e750      0x13d 0x10 /usr/local/popcorn/x86_64//lib/libelf.a(32.xlatetof.o)
                0x000000000041e750                elf32_xlatetof
 .text          0x000000000041e88d        0x0 0x1 /usr/local/popcorn/x86_64//lib/libelf.a(cook.o)
 ** fill        0x000000000041e88d        0x3
 .text._elf_item
                0x000000000041e890      0x1de 0x10 /usr/local/popcorn/x86_64//lib/libelf.a(cook.o)
 ** fill        0x000000000041ea6e        0x2
 .text._elf_scn_type
                0x000000000041ea70       0x96 0x10 /usr/local/popcorn/x86_64//lib/libelf.a(cook.o)
                0x000000000041ea70                _elf_scn_type
 ** fill        0x000000000041eb06        0xa
 .text._elf_xlatetom
                0x000000000041eb10       0x46 0x10 /usr/local/popcorn/x86_64//lib/libelf.a(cook.o)
                0x000000000041eb10                _elf_xlatetom
 ** fill        0x000000000041eb56        0xa
 .text._elf_cook
                0x000000000041eb60      0x69f 0x10 /usr/local/popcorn/x86_64//lib/libelf.a(cook.o)
                0x000000000041eb60                _elf_cook
 .text          0x000000000041f1ff        0x0 0x1 /usr/local/popcorn/x86_64//lib/libelf.a(data.o)
 .text          0x000000000041f1ff        0x0 0x1 /usr/local/popcorn/x86_64//lib/libelf.a(input.o)
 ** fill        0x000000000041f1ff        0x1
 .text._elf_read
                0x000000000041f200      0x115 0x10 /usr/local/popcorn/x86_64//lib/libelf.a(input.o)
                0x000000000041f200                _elf_read
 ** fill        0x000000000041f315        0xb
 .text._elf_mmap
                0x000000000041f320       0x63 0x10 /usr/local/popcorn/x86_64//lib/libelf.a(input.o)
                0x000000000041f320                _elf_mmap
 .text          0x000000000041f383        0x0 0x1 /usr/local/popcorn/x86_64//lib/libelf.a(x.elfext.o)
 ** fill        0x000000000041f383        0xd
 .text.elf_getphdrnum
                0x000000000041f390       0x66 0x10 /usr/local/popcorn/x86_64//lib/libelf.a(x.elfext.o)
                0x000000000041f390                elf_getphdrnum
 ** fill        0x000000000041f3f6        0xa
 .text.elf_getshdrnum
                0x000000000041f400       0x7e 0x10 /usr/local/popcorn/x86_64//lib/libelf.a(x.elfext.o)
                0x000000000041f400                elf_getshdrnum
 ** fill        0x000000000041f47e        0x2
 .text.elf_getshdrstrndx
                0x000000000041f480      0x114 0x10 /usr/local/popcorn/x86_64//lib/libelf.a(x.elfext.o)
                0x000000000041f480                elf_getshdrstrndx
 ** fill        0x000000000041f594        0xc
 .text.elf_getphnum
                0x000000000041f5a0       0x60 0x10 /usr/local/popcorn/x86_64//lib/libelf.a(x.elfext.o)
                0x000000000041f5a0                elf_getphnum
 .text.elf_getshnum
                0x000000000041f600       0x80 0x10 /usr/local/popcorn/x86_64//lib/libelf.a(x.elfext.o)
                0x000000000041f600                elf_getshnum
 .text.elf_getshstrndx
                0x000000000041f680      0x114 0x10 /usr/local/popcorn/x86_64//lib/libelf.a(x.elfext.o)
                0x000000000041f680                elf_getshstrndx
 ** fill        0x000000000041f794        0xc
 .text.elfx_update_shstrndx
                0x000000000041f7a0       0xef 0x10 /usr/local/popcorn/x86_64//lib/libelf.a(x.elfext.o)
                0x000000000041f7a0                elfx_update_shstrndx
 .text          0x000000000041f88f        0x0 0x1 /usr/local/popcorn/x86_64//lib/libelf.a(64.xlatetof.o)
 ** fill        0x000000000041f88f        0x1
 .text.half_64L__tom
                0x000000000041f890      0x2fa 0x10 /usr/local/popcorn/x86_64//lib/libelf.a(64.xlatetof.o)
 ** fill        0x000000000041fb8a        0x6
 .text.half_64L__tof
                0x000000000041fb90      0x2b6 0x10 /usr/local/popcorn/x86_64//lib/libelf.a(64.xlatetof.o)
 ** fill        0x000000000041fe46        0xa
 .text.half_64M__tom
                0x000000000041fe50      0x2fa 0x10 /usr/local/popcorn/x86_64//lib/libelf.a(64.xlatetof.o)
 ** fill        0x000000000042014a        0x6
 .text.half_64M__tof
                0x0000000000420150      0x2b6 0x10 /usr/local/popcorn/x86_64//lib/libelf.a(64.xlatetof.o)
 ** fill        0x0000000000420406        0xa
 .text.sword_64L__tom
                0x0000000000420410      0x467 0x10 /usr/local/popcorn/x86_64//lib/libelf.a(64.xlatetof.o)
 ** fill        0x0000000000420877        0x9
 .text.sword_64L__tof
                0x0000000000420880      0x37a 0x10 /usr/local/popcorn/x86_64//lib/libelf.a(64.xlatetof.o)
 ** fill        0x0000000000420bfa        0x6
 .text.sword_64M__tom
                0x0000000000420c00      0x467 0x10 /usr/local/popcorn/x86_64//lib/libelf.a(64.xlatetof.o)
 ** fill        0x0000000000421067        0x9
 .text.sword_64M__tof
                0x0000000000421070      0x37a 0x10 /usr/local/popcorn/x86_64//lib/libelf.a(64.xlatetof.o)
 ** fill        0x00000000004213ea        0x6
 .text.word_64L__tom
                0x00000000004213f0      0x38a 0x10 /usr/local/popcorn/x86_64//lib/libelf.a(64.xlatetof.o)
 ** fill        0x000000000042177a        0x6
 .text.word_64L__tof
                0x0000000000421780      0x37a 0x10 /usr/local/popcorn/x86_64//lib/libelf.a(64.xlatetof.o)
 ** fill        0x0000000000421afa        0x6
 .text.word_64M__tom
                0x0000000000421b00      0x37b 0x10 /usr/local/popcorn/x86_64//lib/libelf.a(64.xlatetof.o)
 ** fill        0x0000000000421e7b        0x5
 .text.word_64M__tof
                0x0000000000421e80      0x37a 0x10 /usr/local/popcorn/x86_64//lib/libelf.a(64.xlatetof.o)
 ** fill        0x00000000004221fa        0x6
 .text.elf64_xlate
                0x0000000000422200      0x14d 0x10 /usr/local/popcorn/x86_64//lib/libelf.a(64.xlatetof.o)
 ** fill        0x000000000042234d        0x3
 .text.xword_64M__tof
                0x0000000000422350       0x55 0x10 /usr/local/popcorn/x86_64//lib/libelf.a(64.xlatetof.o)
 ** fill        0x00000000004223a5        0xb
 .text.sym_64M11_tof
                0x00000000004223b0       0xba 0x10 /usr/local/popcorn/x86_64//lib/libelf.a(64.xlatetof.o)
 ** fill        0x000000000042246a        0x6
 .text.shdr_64M11_tof
                0x0000000000422470      0x11c 0x10 /usr/local/popcorn/x86_64//lib/libelf.a(64.xlatetof.o)
 ** fill        0x000000000042258c        0x4
 .text.rel_64M11_tof
                0x0000000000422590       0x64 0x10 /usr/local/popcorn/x86_64//lib/libelf.a(64.xlatetof.o)
 ** fill        0x00000000004225f4        0xc
 .text.phdr_64M11_tof
                0x0000000000422600       0xfd 0x10 /usr/local/popcorn/x86_64//lib/libelf.a(64.xlatetof.o)
 ** fill        0x00000000004226fd        0x3
 .text.off_64M__tof
                0x0000000000422700       0x55 0x10 /usr/local/popcorn/x86_64//lib/libelf.a(64.xlatetof.o)
 ** fill        0x0000000000422755        0xb
 .text.dyn_64M11_tof
                0x0000000000422760       0x64 0x10 /usr/local/popcorn/x86_64//lib/libelf.a(64.xlatetof.o)
 ** fill        0x00000000004227c4        0xc
 .text.addr_64M__tof
                0x00000000004227d0       0x55 0x10 /usr/local/popcorn/x86_64//lib/libelf.a(64.xlatetof.o)
 ** fill        0x0000000000422825        0xb
 .text.xword_64M__tom
                0x0000000000422830       0x55 0x10 /usr/local/popcorn/x86_64//lib/libelf.a(64.xlatetof.o)
 ** fill        0x0000000000422885        0xb
 .text.sym_64M11_tom
                0x0000000000422890       0xbe 0x10 /usr/local/popcorn/x86_64//lib/libelf.a(64.xlatetof.o)
 ** fill        0x000000000042294e        0x2
 .text.shdr_64M11_tom
                0x0000000000422950      0x132 0x10 /usr/local/popcorn/x86_64//lib/libelf.a(64.xlatetof.o)
 ** fill        0x0000000000422a82        0xe
 .text.rel_64M11_tom
                0x0000000000422a90       0x64 0x10 /usr/local/popcorn/x86_64//lib/libelf.a(64.xlatetof.o)
 ** fill        0x0000000000422af4        0xc
 .text.phdr_64M11_tom
                0x0000000000422b00      0x105 0x10 /usr/local/popcorn/x86_64//lib/libelf.a(64.xlatetof.o)
 ** fill        0x0000000000422c05        0xb
 .text.off_64M__tom
                0x0000000000422c10       0x55 0x10 /usr/local/popcorn/x86_64//lib/libelf.a(64.xlatetof.o)
 ** fill        0x0000000000422c65        0xb
 .text.dyn_64M11_tom
                0x0000000000422c70       0x64 0x10 /usr/local/popcorn/x86_64//lib/libelf.a(64.xlatetof.o)
 ** fill        0x0000000000422cd4        0xc
 .text.addr_64M__tom
                0x0000000000422ce0       0x55 0x10 /usr/local/popcorn/x86_64//lib/libelf.a(64.xlatetof.o)
 ** fill        0x0000000000422d35        0xb
 .text.sxword_64M__tof
                0x0000000000422d40       0x55 0x10 /usr/local/popcorn/x86_64//lib/libelf.a(64.xlatetof.o)
 ** fill        0x0000000000422d95        0xb
 .text.rela_64M11_tof
                0x0000000000422da0       0x83 0x10 /usr/local/popcorn/x86_64//lib/libelf.a(64.xlatetof.o)
 ** fill        0x0000000000422e23        0xd
 .text.sxword_64M__tom
                0x0000000000422e30       0x55 0x10 /usr/local/popcorn/x86_64//lib/libelf.a(64.xlatetof.o)
 ** fill        0x0000000000422e85        0xb
 .text.rela_64M11_tom
                0x0000000000422e90       0x83 0x10 /usr/local/popcorn/x86_64//lib/libelf.a(64.xlatetof.o)
 ** fill        0x0000000000422f13        0xd
 .text.xword_64L__tof
                0x0000000000422f20       0x55 0x10 /usr/local/popcorn/x86_64//lib/libelf.a(64.xlatetof.o)
 ** fill        0x0000000000422f75        0xb
 .text.sym_64L11_tof
                0x0000000000422f80       0xba 0x10 /usr/local/popcorn/x86_64//lib/libelf.a(64.xlatetof.o)
 ** fill        0x000000000042303a        0x6
 .text.shdr_64L11_tof
                0x0000000000423040      0x11c 0x10 /usr/local/popcorn/x86_64//lib/libelf.a(64.xlatetof.o)
 ** fill        0x000000000042315c        0x4
 .text.rel_64L11_tof
                0x0000000000423160       0x64 0x10 /usr/local/popcorn/x86_64//lib/libelf.a(64.xlatetof.o)
 ** fill        0x00000000004231c4        0xc
 .text.phdr_64L11_tof
                0x00000000004231d0       0xfd 0x10 /usr/local/popcorn/x86_64//lib/libelf.a(64.xlatetof.o)
 ** fill        0x00000000004232cd        0x3
 .text.off_64L__tof
                0x00000000004232d0       0x55 0x10 /usr/local/popcorn/x86_64//lib/libelf.a(64.xlatetof.o)
 ** fill        0x0000000000423325        0xb
 .text.dyn_64L11_tof
                0x0000000000423330       0x64 0x10 /usr/local/popcorn/x86_64//lib/libelf.a(64.xlatetof.o)
 ** fill        0x0000000000423394        0xc
 .text.addr_64L__tof
                0x00000000004233a0       0x55 0x10 /usr/local/popcorn/x86_64//lib/libelf.a(64.xlatetof.o)
 ** fill        0x00000000004233f5        0xb
 .text.xword_64L__tom
                0x0000000000423400       0x55 0x10 /usr/local/popcorn/x86_64//lib/libelf.a(64.xlatetof.o)
 ** fill        0x0000000000423455        0xb
 .text.sym_64L11_tom
                0x0000000000423460       0xbe 0x10 /usr/local/popcorn/x86_64//lib/libelf.a(64.xlatetof.o)
 ** fill        0x000000000042351e        0x2
 .text.shdr_64L11_tom
                0x0000000000423520      0x132 0x10 /usr/local/popcorn/x86_64//lib/libelf.a(64.xlatetof.o)
 ** fill        0x0000000000423652        0xe
 .text.rel_64L11_tom
                0x0000000000423660       0x64 0x10 /usr/local/popcorn/x86_64//lib/libelf.a(64.xlatetof.o)
 ** fill        0x00000000004236c4        0xc
 .text.phdr_64L11_tom
                0x00000000004236d0      0x105 0x10 /usr/local/popcorn/x86_64//lib/libelf.a(64.xlatetof.o)
 ** fill        0x00000000004237d5        0xb
 .text.off_64L__tom
                0x00000000004237e0       0x55 0x10 /usr/local/popcorn/x86_64//lib/libelf.a(64.xlatetof.o)
 ** fill        0x0000000000423835        0xb
 .text.dyn_64L11_tom
                0x0000000000423840       0x64 0x10 /usr/local/popcorn/x86_64//lib/libelf.a(64.xlatetof.o)
 ** fill        0x00000000004238a4        0xc
 .text.addr_64L__tom
                0x00000000004238b0       0x55 0x10 /usr/local/popcorn/x86_64//lib/libelf.a(64.xlatetof.o)
 ** fill        0x0000000000423905        0xb
 .text.sxword_64L__tof
                0x0000000000423910       0x55 0x10 /usr/local/popcorn/x86_64//lib/libelf.a(64.xlatetof.o)
 ** fill        0x0000000000423965        0xb
 .text.rela_64L11_tof
                0x0000000000423970       0x83 0x10 /usr/local/popcorn/x86_64//lib/libelf.a(64.xlatetof.o)
 ** fill        0x00000000004239f3        0xd
 .text.sxword_64L__tom
                0x0000000000423a00       0x55 0x10 /usr/local/popcorn/x86_64//lib/libelf.a(64.xlatetof.o)
 ** fill        0x0000000000423a55        0xb
 .text.rela_64L11_tom
                0x0000000000423a60       0x83 0x10 /usr/local/popcorn/x86_64//lib/libelf.a(64.xlatetof.o)
 ** fill        0x0000000000423ae3        0xd
 .text.ehdr_64M11_tom
                0x0000000000423af0      0x166 0x10 /usr/local/popcorn/x86_64//lib/libelf.a(64.xlatetof.o)
 ** fill        0x0000000000423c56        0xa
 .text.byte_copy
                0x0000000000423c60       0x26 0x10 /usr/local/popcorn/x86_64//lib/libelf.a(64.xlatetof.o)
 ** fill        0x0000000000423c86        0xa
 .text.ehdr_64L11_tom
                0x0000000000423c90      0x166 0x10 /usr/local/popcorn/x86_64//lib/libelf.a(64.xlatetof.o)
 ** fill        0x0000000000423df6        0xa
 .text.ehdr_64M11_tof
                0x0000000000423e00      0x142 0x10 /usr/local/popcorn/x86_64//lib/libelf.a(64.xlatetof.o)
 ** fill        0x0000000000423f42        0xe
 .text.ehdr_64L11_tof
                0x0000000000423f50      0x142 0x10 /usr/local/popcorn/x86_64//lib/libelf.a(64.xlatetof.o)
 ** fill        0x0000000000424092        0xe
 .text._elf64_xltsize
                0x00000000004240a0       0x8e 0x10 /usr/local/popcorn/x86_64//lib/libelf.a(64.xlatetof.o)
                0x00000000004240a0                _elf64_xltsize
 ** fill        0x000000000042412e        0x2
 .text.elf64_xlatetom
                0x0000000000424130      0x13d 0x10 /usr/local/popcorn/x86_64//lib/libelf.a(64.xlatetof.o)
                0x0000000000424130                elf64_xlatetom
 ** fill        0x000000000042426d        0x3
 .text.elf64_xlatetof
                0x0000000000424270      0x13d 0x10 /usr/local/popcorn/x86_64//lib/libelf.a(64.xlatetof.o)
                0x0000000000424270                elf64_xlatetof
 ** fill        0x00000000004243ad        0x3
 .text.gelf_xlatetom
                0x00000000004243b0       0x5a 0x10 /usr/local/popcorn/x86_64//lib/libelf.a(64.xlatetof.o)
                0x00000000004243b0                gelf_xlatetom
 ** fill        0x000000000042440a        0x6
 .text.gelf_xlatetof
                0x0000000000424410       0x5d 0x10 /usr/local/popcorn/x86_64//lib/libelf.a(64.xlatetof.o)
                0x0000000000424410                gelf_xlatetof
 .text          0x000000000042446d        0x0 0x1 /usr/local/popcorn/x86_64//lib/libelf.a(gelfshdr.o)
 ** fill        0x000000000042446d        0x3
 .text.gelf_getshdr
                0x0000000000424470      0x152 0x10 /usr/local/popcorn/x86_64//lib/libelf.a(gelfshdr.o)
                0x0000000000424470                gelf_getshdr
 ** fill        0x00000000004245c2        0xe
 .text.gelf_update_shdr
                0x00000000004245d0      0x113 0x10 /usr/local/popcorn/x86_64//lib/libelf.a(gelfshdr.o)
                0x00000000004245d0                gelf_update_shdr
 .text          0x00000000004246e3        0x0 0x1 /usr/local/popcorn/x86_64//lib/libelf.a(swap64.o)
 ** fill        0x00000000004246e3        0xd
 .text._elf_load_u64L
                0x00000000004246f0       0x4c 0x10 /usr/local/popcorn/x86_64//lib/libelf.a(swap64.o)
                0x00000000004246f0                _elf_load_u64L
 ** fill        0x000000000042473c        0x4
 .text._elf_load_u64M
                0x0000000000424740       0x4c 0x10 /usr/local/popcorn/x86_64//lib/libelf.a(swap64.o)
                0x0000000000424740                _elf_load_u64M
 ** fill        0x000000000042478c        0x4
 .text._elf_load_i64L
                0x0000000000424790       0x4c 0x10 /usr/local/popcorn/x86_64//lib/libelf.a(swap64.o)
                0x0000000000424790                _elf_load_i64L
 ** fill        0x00000000004247dc        0x4
 .text._elf_load_i64M
                0x00000000004247e0       0x4c 0x10 /usr/local/popcorn/x86_64//lib/libelf.a(swap64.o)
                0x00000000004247e0                _elf_load_i64M
 ** fill        0x000000000042482c        0x4
 .text._elf_store_u64L
                0x0000000000424830       0x3c 0x10 /usr/local/popcorn/x86_64//lib/libelf.a(swap64.o)
                0x0000000000424830                _elf_store_u64L
 ** fill        0x000000000042486c        0x4
 .text._elf_store_u64M
                0x0000000000424870       0x3c 0x10 /usr/local/popcorn/x86_64//lib/libelf.a(swap64.o)
                0x0000000000424870                _elf_store_u64M
 ** fill        0x00000000004248ac        0x4
 .text._elf_store_i64L
                0x00000000004248b0       0x3c 0x10 /usr/local/popcorn/x86_64//lib/libelf.a(swap64.o)
                0x00000000004248b0                _elf_store_i64L
 ** fill        0x00000000004248ec        0x4
 .text._elf_store_i64M
                0x00000000004248f0       0x3c 0x10 /usr/local/popcorn/x86_64//lib/libelf.a(swap64.o)
                0x00000000004248f0                _elf_store_i64M
 .text          0x000000000042492c        0x0 0x1 /usr/local/popcorn/x86_64//lib/libelf.a(verdef_32_tof.o)
 ** fill        0x000000000042492c        0x4
 .text._elf_verdef_32L11_tof
                0x0000000000424930      0x227 0x10 /usr/local/popcorn/x86_64//lib/libelf.a(verdef_32_tof.o)
                0x0000000000424930                _elf_verdef_32L11_tof
 ** fill        0x0000000000424b57        0x9
 .text._elf_verdef_32M11_tof
                0x0000000000424b60      0x227 0x10 /usr/local/popcorn/x86_64//lib/libelf.a(verdef_32_tof.o)
                0x0000000000424b60                _elf_verdef_32M11_tof
 ** fill        0x0000000000424d87        0x9
 .text._elf_verneed_32L11_tof
                0x0000000000424d90      0x267 0x10 /usr/local/popcorn/x86_64//lib/libelf.a(verdef_32_tof.o)
                0x0000000000424d90                _elf_verneed_32L11_tof
 ** fill        0x0000000000424ff7        0x9
 .text._elf_verneed_32M11_tof
                0x0000000000425000      0x267 0x10 /usr/local/popcorn/x86_64//lib/libelf.a(verdef_32_tof.o)
                0x0000000000425000                _elf_verneed_32M11_tof
 .text          0x0000000000425267        0x0 0x1 /usr/local/popcorn/x86_64//lib/libelf.a(verdef_32_tom.o)
 ** fill        0x0000000000425267        0x9
 .text._elf_verdef_32L11_tom
                0x0000000000425270      0x237 0x10 /usr/local/popcorn/x86_64//lib/libelf.a(verdef_32_tom.o)
                0x0000000000425270                _elf_verdef_32L11_tom
 ** fill        0x00000000004254a7        0x9
 .text._elf_verdef_32M11_tom
                0x00000000004254b0      0x237 0x10 /usr/local/popcorn/x86_64//lib/libelf.a(verdef_32_tom.o)
                0x00000000004254b0                _elf_verdef_32M11_tom
 ** fill        0x00000000004256e7        0x9
 .text._elf_verneed_32L11_tom
                0x00000000004256f0      0x267 0x10 /usr/local/popcorn/x86_64//lib/libelf.a(verdef_32_tom.o)
                0x00000000004256f0                _elf_verneed_32L11_tom
 ** fill        0x0000000000425957        0x9
 .text._elf_verneed_32M11_tom
                0x0000000000425960      0x267 0x10 /usr/local/popcorn/x86_64//lib/libelf.a(verdef_32_tom.o)
                0x0000000000425960                _elf_verneed_32M11_tom
 .text          0x0000000000425bc7        0x0 0x1 /usr/local/popcorn/x86_64//lib/libelf.a(verdef_64_tof.o)
 ** fill        0x0000000000425bc7        0x9
 .text._elf_verdef_64L11_tof
                0x0000000000425bd0      0x227 0x10 /usr/local/popcorn/x86_64//lib/libelf.a(verdef_64_tof.o)
                0x0000000000425bd0                _elf_verdef_64L11_tof
 ** fill        0x0000000000425df7        0x9
 .text._elf_verdef_64M11_tof
                0x0000000000425e00      0x227 0x10 /usr/local/popcorn/x86_64//lib/libelf.a(verdef_64_tof.o)
                0x0000000000425e00                _elf_verdef_64M11_tof
 ** fill        0x0000000000426027        0x9
 .text._elf_verneed_64L11_tof
                0x0000000000426030      0x267 0x10 /usr/local/popcorn/x86_64//lib/libelf.a(verdef_64_tof.o)
                0x0000000000426030                _elf_verneed_64L11_tof
 ** fill        0x0000000000426297        0x9
 .text._elf_verneed_64M11_tof
                0x00000000004262a0      0x267 0x10 /usr/local/popcorn/x86_64//lib/libelf.a(verdef_64_tof.o)
                0x00000000004262a0                _elf_verneed_64M11_tof
 .text          0x0000000000426507        0x0 0x1 /usr/local/popcorn/x86_64//lib/libelf.a(verdef_64_tom.o)
 ** fill        0x0000000000426507        0x9
 .text._elf_verdef_64L11_tom
                0x0000000000426510      0x237 0x10 /usr/local/popcorn/x86_64//lib/libelf.a(verdef_64_tom.o)
                0x0000000000426510                _elf_verdef_64L11_tom
 ** fill        0x0000000000426747        0x9
 .text._elf_verdef_64M11_tom
                0x0000000000426750      0x237 0x10 /usr/local/popcorn/x86_64//lib/libelf.a(verdef_64_tom.o)
                0x0000000000426750                _elf_verdef_64M11_tom
 ** fill        0x0000000000426987        0x9
 .text._elf_verneed_64L11_tom
                0x0000000000426990      0x267 0x10 /usr/local/popcorn/x86_64//lib/libelf.a(verdef_64_tom.o)
                0x0000000000426990                _elf_verneed_64L11_tom
 ** fill        0x0000000000426bf7        0x9
 .text._elf_verneed_64M11_tom
                0x0000000000426c00      0x267 0x10 /usr/local/popcorn/x86_64//lib/libelf.a(verdef_64_tom.o)
                0x0000000000426c00                _elf_verneed_64M11_tom
 .text          0x0000000000426e67        0x0 0x1 /usr/local/popcorn/x86_64//lib/libelf.a(getscn.o)
 ** fill        0x0000000000426e67        0x9
 .text.elf_getscn
                0x0000000000426e70       0x7d 0x10 /usr/local/popcorn/x86_64//lib/libelf.a(getscn.o)
                0x0000000000426e70                elf_getscn
 .text          0x0000000000426eed        0x0 0x1 /usr/local/popcorn/x86_64//lib/libelf.a(newscn.o)
 ** fill        0x0000000000426eed        0x3
 .text._elf_update_shnum
                0x0000000000426ef0       0x7d 0x10 /usr/local/popcorn/x86_64//lib/libelf.a(newscn.o)
                0x0000000000426ef0                _elf_update_shnum
 ** fill        0x0000000000426f6d        0x3
 .text._elf_first_scn
                0x0000000000426f70      0x108 0x10 /usr/local/popcorn/x86_64//lib/libelf.a(newscn.o)
                0x0000000000426f70                _elf_first_scn
 ** fill        0x0000000000427078        0x8
 .text.elf_newscn
                0x0000000000427080      0x26d 0x10 /usr/local/popcorn/x86_64//lib/libelf.a(newscn.o)
                0x0000000000427080                elf_newscn
 .text          0x00000000004272ed        0x0 0x1 /usr/local/popcorn/x86_64//lib/libelf.a(32.fsize.o)
 ** fill        0x00000000004272ed        0x3
 .text.elf32_fsize
                0x00000000004272f0       0x45 0x10 /usr/local/popcorn/x86_64//lib/libelf.a(32.fsize.o)
                0x00000000004272f0                elf32_fsize
 ** fill        0x0000000000427335        0xb
 .text.elf64_fsize
                0x0000000000427340       0x45 0x10 /usr/local/popcorn/x86_64//lib/libelf.a(32.fsize.o)
                0x0000000000427340                elf64_fsize
 ** fill        0x0000000000427385        0xb
 .text.gelf_fsize
                0x0000000000427390       0x96 0x10 /usr/local/popcorn/x86_64//lib/libelf.a(32.fsize.o)
                0x0000000000427390                gelf_fsize
 ** fill        0x0000000000427426        0xa
 .text.gelf_msize
                0x0000000000427430       0x9d 0x10 /usr/local/popcorn/x86_64//lib/libelf.a(32.fsize.o)
                0x0000000000427430                gelf_msize
 ** fill        0x00000000004274cd        0x3
 .text          0x00000000004274d0        0x0 0x4 /usr/local/popcorn/x86_64//lib/libc.a(getenv.o)
 .text.getenv   0x00000000004274d0       0xa9 0x1 /usr/local/popcorn/x86_64//lib/libc.a(getenv.o)
                0x00000000004274d0                getenv
 ** fill        0x0000000000427579        0x3
 .text          0x000000000042757c        0x0 0x4 /usr/local/popcorn/x86_64//lib/libc.a(assert.o)
 .text.__assert_fail
                0x000000000042757c       0x2c 0x1 /usr/local/popcorn/x86_64//lib/libc.a(assert.o)
                0x000000000042757c                __assert_fail
 .text          0x00000000004275a8        0x0 0x4 /usr/local/popcorn/x86_64//lib/libc.a(open.o)
 .text.open     0x00000000004275a8      0x125 0x1 /usr/local/popcorn/x86_64//lib/libc.a(open.o)
                0x00000000004275a8                open
                0x00000000004275a8                open64
 ** fill        0x00000000004276cd        0x3
 .text          0x00000000004276d0        0x0 0x4 /usr/local/popcorn/x86_64//lib/libc.a(calloc.o)
 .text.calloc   0x00000000004276d0      0x120 0x10 /usr/local/popcorn/x86_64//lib/libc.a(calloc.o)
                0x00000000004276d0                calloc
 .text          0x00000000004277f0        0x0 0x4 /usr/local/popcorn/x86_64//lib/libc.a(getrlimit.o)
 .text.getrlimit
                0x00000000004277f0       0xaa 0x1 /usr/local/popcorn/x86_64//lib/libc.a(getrlimit.o)
                0x00000000004277f0                getrlimit
                0x00000000004277f0                getrlimit64
 ** fill        0x000000000042789a        0x2
 .text          0x000000000042789c        0x0 0x4 /usr/local/popcorn/x86_64//lib/libc.a(syscall.o)
 .text.syscall  0x000000000042789c      0x1fc 0x1 /usr/local/popcorn/x86_64//lib/libc.a(syscall.o)
                0x000000000042789c                syscall
 .text          0x0000000000427a98        0x0 0x4 /usr/local/popcorn/x86_64//lib/libc.a(getline.o)
 .text.getline  0x0000000000427a98       0x10 0x1 /usr/local/popcorn/x86_64//lib/libc.a(getline.o)
                0x0000000000427a98                getline
 .text          0x0000000000427aa8        0x0 0x4 /usr/local/popcorn/x86_64//lib/libc.a(snprintf.o)
 .text.snprintf
                0x0000000000427aa8       0x92 0x1 /usr/local/popcorn/x86_64//lib/libc.a(snprintf.o)
                0x0000000000427aa8                snprintf
 ** fill        0x0000000000427b3a        0x2
 .text          0x0000000000427b3c        0x0 0x4 /usr/local/popcorn/x86_64//lib/libc.a(sscanf.o)
 .text.sscanf   0x0000000000427b3c       0x97 0x1 /usr/local/popcorn/x86_64//lib/libc.a(sscanf.o)
                0x0000000000427b3c                __isoc99_sscanf
                0x0000000000427b3c                sscanf
 ** fill        0x0000000000427bd3        0x1
 .text          0x0000000000427bd4        0x0 0x4 /usr/local/popcorn/x86_64//lib/libc.a(stderr.o)
 .text          0x0000000000427bd4        0x0 0x4 /usr/local/popcorn/x86_64//lib/libc.a(vsnprintf.o)
 .text.vsnprintf
                0x0000000000427bd4       0xd4 0x1 /usr/local/popcorn/x86_64//lib/libc.a(vsnprintf.o)
                0x0000000000427bd4                vsnprintf
 .text.sn_write
                0x0000000000427ca8       0x32 0x1 /usr/local/popcorn/x86_64//lib/libc.a(vsnprintf.o)
 ** fill        0x0000000000427cda        0x2
 .text          0x0000000000427cdc        0x0 0x4 /usr/local/popcorn/x86_64//lib/libc.a(vsscanf.o)
 .text.vsscanf  0x0000000000427cdc       0x69 0x1 /usr/local/popcorn/x86_64//lib/libc.a(vsscanf.o)
                0x0000000000427cdc                __isoc99_vsscanf
                0x0000000000427cdc                vsscanf
 .text.do_read  0x0000000000427d45        0x5 0x1 /usr/local/popcorn/x86_64//lib/libc.a(vsscanf.o)
 ** fill        0x0000000000427d4a        0x2
 .text          0x0000000000427d4c        0x0 0x4 /usr/local/popcorn/x86_64//lib/libc.a(strtol.o)
 .text.strtoull
                0x0000000000427d4c        0xc 0x1 /usr/local/popcorn/x86_64//lib/libc.a(strtol.o)
                0x0000000000427d4c                __strtoull_internal
                0x0000000000427d4c                strtoull
 .text.strtox   0x0000000000427d58       0xa6 0x1 /usr/local/popcorn/x86_64//lib/libc.a(strtol.o)
 .text.strtoll  0x0000000000427dfe        0xf 0x1 /usr/local/popcorn/x86_64//lib/libc.a(strtol.o)
                0x0000000000427dfe                __strtoll_internal
                0x0000000000427dfe                strtoll
 .text.strtoul  0x0000000000427e0d        0xc 0x1 /usr/local/popcorn/x86_64//lib/libc.a(strtol.o)
                0x0000000000427e0d                __strtoul_internal
                0x0000000000427e0d                strtoul
 .text.strtol   0x0000000000427e19        0xf 0x1 /usr/local/popcorn/x86_64//lib/libc.a(strtol.o)
                0x0000000000427e19                __strtol_internal
                0x0000000000427e19                strtol
 .text.strtoimax
                0x0000000000427e28        0xf 0x1 /usr/local/popcorn/x86_64//lib/libc.a(strtol.o)
                0x0000000000427e28                __strtoimax_internal
                0x0000000000427e28                strtoimax
 .text.strtoumax
                0x0000000000427e37        0xc 0x1 /usr/local/popcorn/x86_64//lib/libc.a(strtol.o)
                0x0000000000427e37                __strtoumax_internal
                0x0000000000427e37                strtoumax
 ** fill        0x0000000000427e43        0x1
 .text          0x0000000000427e44        0x0 0x4 /usr/local/popcorn/x86_64//lib/libc.a(memcmp.o)
 ** fill        0x0000000000427e44        0xc
 .text.memcmp   0x0000000000427e50       0x28 0x10 /usr/local/popcorn/x86_64//lib/libc.a(memcmp.o)
                0x0000000000427e50                memcmp
 .text          0x0000000000427e78        0x0 0x4 /usr/local/popcorn/x86_64//lib/libc.a(memmove.o)
 .text.memmove  0x0000000000427e78       0x25 0x1 /usr/local/popcorn/x86_64//lib/libc.a(memmove.o)
                0x0000000000427e78                memmove
 ** fill        0x0000000000427e9d        0x3
 .text          0x0000000000427ea0        0x0 0x4 /usr/local/popcorn/x86_64//lib/libc.a(strcmp.o)
 .text.strcmp   0x0000000000427ea0       0x44 0x10 /usr/local/popcorn/x86_64//lib/libc.a(strcmp.o)
                0x0000000000427ea0                strcmp
 .text          0x0000000000427ee4        0x0 0x4 /usr/local/popcorn/x86_64//lib/libc.a(strncmp.o)
 ** fill        0x0000000000427ee4        0xc
 .text.strncmp  0x0000000000427ef0       0x52 0x10 /usr/local/popcorn/x86_64//lib/libc.a(strncmp.o)
                0x0000000000427ef0                strncmp
 ** fill        0x0000000000427f42        0x2
 .text          0x0000000000427f44        0x0 0x4 /usr/local/popcorn/x86_64//lib/libc.a(pthread_attr_get.o)
 .text.pthread_attr_getdetachstate
                0x0000000000427f44        0x8 0x1 /usr/local/popcorn/x86_64//lib/libc.a(pthread_attr_get.o)
                0x0000000000427f44                pthread_attr_getdetachstate
 .text.pthread_attr_getguardsize
                0x0000000000427f4c        0xf 0x1 /usr/local/popcorn/x86_64//lib/libc.a(pthread_attr_get.o)
                0x0000000000427f4c                pthread_attr_getguardsize
 .text.pthread_attr_getinheritsched
                0x0000000000427f5b        0x8 0x1 /usr/local/popcorn/x86_64//lib/libc.a(pthread_attr_get.o)
                0x0000000000427f5b                pthread_attr_getinheritsched
 .text.pthread_attr_getschedparam
                0x0000000000427f63        0x8 0x1 /usr/local/popcorn/x86_64//lib/libc.a(pthread_attr_get.o)
                0x0000000000427f63                pthread_attr_getschedparam
 .text.pthread_attr_getschedpolicy
                0x0000000000427f6b        0x8 0x1 /usr/local/popcorn/x86_64//lib/libc.a(pthread_attr_get.o)
                0x0000000000427f6b                pthread_attr_getschedpolicy
 .text.pthread_attr_getscope
                0x0000000000427f73        0x9 0x1 /usr/local/popcorn/x86_64//lib/libc.a(pthread_attr_get.o)
                0x0000000000427f73                pthread_attr_getscope
 .text.pthread_attr_getstack
                0x0000000000427f7c       0x22 0x1 /usr/local/popcorn/x86_64//lib/libc.a(pthread_attr_get.o)
                0x0000000000427f7c                pthread_attr_getstack
 .text.pthread_attr_getstacksize
                0x0000000000427f9e        0xe 0x1 /usr/local/popcorn/x86_64//lib/libc.a(pthread_attr_get.o)
                0x0000000000427f9e                pthread_attr_getstacksize
 .text.pthread_barrierattr_getpshared
                0x0000000000427fac        0xe 0x1 /usr/local/popcorn/x86_64//lib/libc.a(pthread_attr_get.o)
                0x0000000000427fac                pthread_barrierattr_getpshared
 .text.pthread_condattr_getclock
                0x0000000000427fba        0xc 0x1 /usr/local/popcorn/x86_64//lib/libc.a(pthread_attr_get.o)
                0x0000000000427fba                pthread_condattr_getclock
 .text.pthread_condattr_getpshared
                0x0000000000427fc6        0xa 0x1 /usr/local/popcorn/x86_64//lib/libc.a(pthread_attr_get.o)
                0x0000000000427fc6                pthread_condattr_getpshared
 .text.pthread_mutexattr_getprotocol
                0x0000000000427fd0        0x9 0x1 /usr/local/popcorn/x86_64//lib/libc.a(pthread_attr_get.o)
                0x0000000000427fd0                pthread_mutexattr_getprotocol
 .text.pthread_mutexattr_getpshared
                0x0000000000427fd9        0xd 0x1 /usr/local/popcorn/x86_64//lib/libc.a(pthread_attr_get.o)
                0x0000000000427fd9                pthread_mutexattr_getpshared
 .text.pthread_mutexattr_getrobust
                0x0000000000427fe6        0xd 0x1 /usr/local/popcorn/x86_64//lib/libc.a(pthread_attr_get.o)
                0x0000000000427fe6                pthread_mutexattr_getrobust
 .text.pthread_mutexattr_gettype
                0x0000000000427ff3        0xa 0x1 /usr/local/popcorn/x86_64//lib/libc.a(pthread_attr_get.o)
                0x0000000000427ff3                pthread_mutexattr_gettype
 .text.pthread_rwlockattr_getpshared
                0x0000000000427ffd        0x7 0x1 /usr/local/popcorn/x86_64//lib/libc.a(pthread_attr_get.o)
                0x0000000000427ffd                pthread_rwlockattr_getpshared
 .text          0x0000000000428004        0x0 0x4 /usr/local/popcorn/x86_64//lib/libc.a(pthread_getattr_np.o)
 .text.pthread_getattr_np
                0x0000000000428004      0x121 0x1 /usr/local/popcorn/x86_64//lib/libc.a(pthread_getattr_np.o)
                0x0000000000428004                pthread_getattr_np
 ** fill        0x0000000000428125        0x3
 .text          0x0000000000428128        0x0 0x4 /usr/local/popcorn/x86_64//lib/libc.a(pthread_getspecific.o)
 .text.__pthread_getspecific
                0x0000000000428128       0x17 0x1 /usr/local/popcorn/x86_64//lib/libc.a(pthread_getspecific.o)
                0x0000000000428128                pthread_getspecific
                0x0000000000428128                tss_get
 ** fill        0x000000000042813f        0x1
 .text          0x0000000000428140        0x0 0x4 /usr/local/popcorn/x86_64//lib/libc.a(pthread_key_create.o)
 .text.__pthread_key_create
                0x0000000000428140       0x68 0x1 /usr/local/popcorn/x86_64//lib/libc.a(pthread_key_create.o)
                0x0000000000428140                __pthread_key_create
                0x0000000000428140                pthread_key_create
 .text.nodtor   0x00000000004281a8        0x1 0x1 /usr/local/popcorn/x86_64//lib/libc.a(pthread_key_create.o)
 .text.__pthread_key_delete
                0x00000000004281a9       0x11 0x1 /usr/local/popcorn/x86_64//lib/libc.a(pthread_key_create.o)
                0x00000000004281a9                __pthread_key_delete
                0x00000000004281a9                pthread_key_delete
 .text.__pthread_tsd_run_dtors
                0x00000000004281ba       0x6c 0x1 /usr/local/popcorn/x86_64//lib/libc.a(pthread_key_create.o)
                0x00000000004281ba                __pthread_tsd_run_dtors
 ** fill        0x0000000000428226        0x2
 .text          0x0000000000428228        0x0 0x4 /usr/local/popcorn/x86_64//lib/libc.a(pthread_migrate.o)
 .text.pthread_migrate_args
                0x0000000000428228       0x10 0x1 /usr/local/popcorn/x86_64//lib/libc.a(pthread_migrate.o)
                0x0000000000428228                pthread_migrate_args
 .text          0x0000000000428238        0x0 0x4 /usr/local/popcorn/x86_64//lib/libc.a(pthread_self.o)
 .text.__pthread_self_internal
                0x0000000000428238        0xa 0x1 /usr/local/popcorn/x86_64//lib/libc.a(pthread_self.o)
                0x0000000000428238                pthread_self
                0x0000000000428238                thrd_current
 ** fill        0x0000000000428242        0x2
 .text          0x0000000000428244        0x0 0x4 /usr/local/popcorn/x86_64//lib/libc.a(pthread_setspecific.o)
 .text.pthread_setspecific
                0x0000000000428244       0x26 0x1 /usr/local/popcorn/x86_64//lib/libc.a(pthread_setspecific.o)
                0x0000000000428244                pthread_setspecific
 ** fill        0x000000000042826a        0x2
 .text          0x000000000042826c        0x0 0x4 /usr/local/popcorn/x86_64//lib/libc.a(close.o)
 .text.dummy    0x000000000042826c        0x3 0x1 /usr/local/popcorn/x86_64//lib/libc.a(close.o)
 .text.close    0x000000000042826f       0x3f 0x1 /usr/local/popcorn/x86_64//lib/libc.a(close.o)
                0x000000000042826f                close
 ** fill        0x00000000004282ae        0x2
 .text          0x00000000004282b0        0x0 0x4 /usr/local/popcorn/x86_64//lib/libc.a(getpid.o)
 .text.getpid   0x00000000004282b0        0x8 0x1 /usr/local/popcorn/x86_64//lib/libc.a(getpid.o)
                0x00000000004282b0                getpid
 .text          0x00000000004282b8        0x0 0x4 /usr/local/popcorn/x86_64//lib/libc.a(lseek.o)
 .text.lseek    0x00000000004282b8       0x15 0x1 /usr/local/popcorn/x86_64//lib/libc.a(lseek.o)
                0x00000000004282b8                lseek
                0x00000000004282b8                lseek64
 ** fill        0x00000000004282cd        0x3
 .text          0x00000000004282d0        0x0 0x4 /usr/local/popcorn/x86_64//lib/libc.a(read.o)
 .text.read     0x00000000004282d0       0x2e 0x1 /usr/local/popcorn/x86_64//lib/libc.a(read.o)
                0x00000000004282d0                read
 ** fill        0x00000000004282fe        0x2
 .text          0x0000000000428300        0x0 0x4 /usr/local/popcorn/x86_64//lib/libc.a(abort.o)
 .text.abort    0x0000000000428300       0x17 0x1 /usr/local/popcorn/x86_64//lib/libc.a(abort.o)
                0x0000000000428300                abort
 ** fill        0x0000000000428317        0x1
 .text          0x0000000000428318        0x0 0x4 /usr/local/popcorn/x86_64//lib/libc.a(intscan.o)
 ** fill        0x0000000000428318        0x8
 .text.__intscan
                0x0000000000428320      0x59d 0x10 /usr/local/popcorn/x86_64//lib/libc.a(intscan.o)
                0x0000000000428320                __intscan
 ** fill        0x00000000004288bd        0x3
 .text          0x00000000004288c0        0x0 0x4 /usr/local/popcorn/x86_64//lib/libc.a(shgetc.o)
 .text.__shlim  0x00000000004288c0       0x39 0x10 /usr/local/popcorn/x86_64//lib/libc.a(shgetc.o)
                0x00000000004288c0                __shlim
 ** fill        0x00000000004288f9        0x7
 .text.__shgetc
                0x0000000000428900       0x9c 0x10 /usr/local/popcorn/x86_64//lib/libc.a(shgetc.o)
                0x0000000000428900                __shgetc
 .text          0x000000000042899c        0x0 0x4 /usr/local/popcorn/x86_64//lib/libc.a(raise.o)
 .text.raise    0x000000000042899c       0x4d 0x1 /usr/local/popcorn/x86_64//lib/libc.a(raise.o)
                0x000000000042899c                raise
 ** fill        0x00000000004289e9        0x3
 .text          0x00000000004289ec        0x0 0x4 /usr/local/popcorn/x86_64//lib/libc.a(__string_read.o)
 .text.__string_read
                0x00000000004289ec       0x79 0x1 /usr/local/popcorn/x86_64//lib/libc.a(__string_read.o)
                0x00000000004289ec                __string_read
 ** fill        0x0000000000428a65        0x3
 .text          0x0000000000428a68        0x0 0x4 /usr/local/popcorn/x86_64//lib/libc.a(__uflow.o)
 .text.__uflow  0x0000000000428a68       0x38 0x1 /usr/local/popcorn/x86_64//lib/libc.a(__uflow.o)
                0x0000000000428a68                __uflow
 .text          0x0000000000428aa0        0x0 0x4 /usr/local/popcorn/x86_64//lib/libc.a(getdelim.o)
 .text.getdelim
                0x0000000000428aa0      0x1f9 0x1 /usr/local/popcorn/x86_64//lib/libc.a(getdelim.o)
                0x0000000000428aa0                __getdelim
                0x0000000000428aa0                getdelim
 ** fill        0x0000000000428c99        0x3
 .text          0x0000000000428c9c        0x0 0x4 /usr/local/popcorn/x86_64//lib/libc.a(vfscanf.o)
 .text.vfscanf  0x0000000000428c9c      0xb23 0x1 /usr/local/popcorn/x86_64//lib/libc.a(vfscanf.o)
                0x0000000000428c9c                __isoc99_vfscanf
                0x0000000000428c9c                vfscanf
 ** fill        0x00000000004297bf        0x1
 .text          0x00000000004297c0        0x0 0x4 /usr/local/popcorn/x86_64//lib/libc.a(floatscan.o)
 .text.__floatscan
                0x00000000004297c0     0x170b 0x10 /usr/local/popcorn/x86_64//lib/libc.a(floatscan.o)
                0x00000000004297c0                __floatscan
 ** fill        0x000000000042aecb        0x5
 .text.scanexp  0x000000000042aed0      0x1d6 0x10 /usr/local/popcorn/x86_64//lib/libc.a(floatscan.o)
 ** fill        0x000000000042b0a6        0x2
 .text          0x000000000042b0a8        0x0 0x4 /usr/local/popcorn/x86_64//lib/libc.a(copysignl.o)
 .text.copysignl
                0x000000000042b0a8       0x2c 0x1 /usr/local/popcorn/x86_64//lib/libc.a(copysignl.o)
                0x000000000042b0a8                copysignl
 .text          0x000000000042b0d4        0x0 0x4 /usr/local/popcorn/x86_64//lib/libc.a(fabs.o)
 .text.fabs     0x000000000042b0d4       0x12 0x1 /usr/local/popcorn/x86_64//lib/libc.a(fabs.o)
                0x000000000042b0d4                fabs
 ** fill        0x000000000042b0e6        0x2
 .text          0x000000000042b0e8        0x0 0x4 /usr/local/popcorn/x86_64//lib/libc.a(fmodl.o)
 .text.fmodl    0x000000000042b0e8       0x14 0x1 /usr/local/popcorn/x86_64//lib/libc.a(fmodl.o)
                0x000000000042b0e8                fmodl
 .text          0x000000000042b0fc        0x0 0x4 /usr/local/popcorn/x86_64//lib/libc.a(scalbn.o)
 .text.scalbn   0x000000000042b0fc       0x8e 0x1 /usr/local/popcorn/x86_64//lib/libc.a(scalbn.o)
                0x000000000042b0fc                scalbn
 ** fill        0x000000000042b18a        0x2
 .text          0x000000000042b18c        0x0 0x4 /usr/local/popcorn/x86_64//lib/libc.a(scalbnl.o)
 .text.scalbnl  0x000000000042b18c       0x93 0x1 /usr/local/popcorn/x86_64//lib/libc.a(scalbnl.o)
                0x000000000042b18c                scalbnl
 ** fill        0x000000000042b21f        0x1
 .text          0x000000000042b220        0x0 0x4 /usr/local/popcorn/x86_64//lib/libc.a(mbrtowc.o)
 .text.mbrtowc  0x000000000042b220      0x109 0x1 /usr/local/popcorn/x86_64//lib/libc.a(mbrtowc.o)
                0x000000000042b220                mbrtowc
 ** fill        0x000000000042b329        0x3
 .text          0x000000000042b32c        0x0 0x4 /usr/local/popcorn/x86_64//lib/libc.a(mbsinit.o)
 .text.mbsinit  0x000000000042b32c       0x11 0x1 /usr/local/popcorn/x86_64//lib/libc.a(mbsinit.o)
                0x000000000042b32c                mbsinit
 ** fill        0x000000000042b33d        0x3
 .text          0x000000000042b340        0x0 0x4 /usr/local/popcorn/x86_64//lib/libc.a(block.o)
 .text.__block_all_sigs
                0x000000000042b340       0x1b 0x1 /usr/local/popcorn/x86_64//lib/libc.a(block.o)
                0x000000000042b340                __block_all_sigs
 .text.__block_app_sigs
                0x000000000042b35b       0x1b 0x1 /usr/local/popcorn/x86_64//lib/libc.a(block.o)
                0x000000000042b35b                __block_app_sigs
 .text.__restore_sigs
                0x000000000042b376       0x1b 0x1 /usr/local/popcorn/x86_64//lib/libc.a(block.o)
                0x000000000042b376                __restore_sigs
 ** fill        0x000000000042b391        0x3
 .text          0x000000000042b394        0x0 0x4 /usr/local/popcorn/x86_64//lib/libc.a(__toread.o)
 .text.__toread
                0x000000000042b394       0x63 0x1 /usr/local/popcorn/x86_64//lib/libc.a(__toread.o)
                0x000000000042b394                __toread
 .text.__toread_needs_stdio_exit
                0x000000000042b3f7        0x5 0x1 /usr/local/popcorn/x86_64//lib/libc.a(__toread.o)
                0x000000000042b3f7                __toread_needs_stdio_exit
 .text          0x000000000042b3fc        0x0 0x4 /usr/local/popcorn/x86_64//lib/libc.a(internal.o)

.rodata         0x000000000042b400     0x2adc
 .rodata.conftest__str_conftest_v
                0x000000000042b400        0xd 0x1 /tmp/conftest-dcbec8_x86_64.o
                0x000000000042b400                conftest__str_conftest_v
 .rodata.conftest__str_1_w_
                0x000000000042b40d        0x2 0x1 /tmp/conftest-dcbec8_x86_64.o
                0x000000000042b40d                conftest__str_1_w_
 .rodata.conftest__str_2__lu_
                0x000000000042b40f        0x4 0x1 /tmp/conftest-dcbec8_x86_64.o
                0x000000000042b40f                conftest__str_2__lu_
 .rodata.src_env___libc_start_main___init_libc_pfd_
                0x000000000042b420       0x18 0x10 /usr/local/popcorn/x86_64//lib/libc.a(__libc_start_main.o)
                0x000000000042b420                src_env___libc_start_main___init_libc_pfd_
 .rodata.src_env___libc_start_main__str__dev_null_
                0x000000000042b438        0xa 0x1 /usr/local/popcorn/x86_64//lib/libc.a(__libc_start_main.o)
                0x000000000042b438                src_env___libc_start_main__str__dev_null_
 .rodata.src_stdio_fopen__str_rwa_
                0x000000000042b442        0x4 0x1 /usr/local/popcorn/x86_64//lib/libc.a(fopen.o)
                0x000000000042b442                src_stdio_fopen__str_rwa_
 ** merge constants
                0x000000000042b448       0x28
 .rodata        0x000000000042b470       0x20 0x10 /usr/local/popcorn/x86_64//lib/libc.a(vfprintf.o)
 .rodata.printf_core
                0x000000000042b490      0x170 0x8 /usr/local/popcorn/x86_64//lib/libc.a(vfprintf.o)
 .rodata.pop_arg
                0x000000000042b600       0x60 0x8 /usr/local/popcorn/x86_64//lib/libc.a(vfprintf.o)
 .rodata.src_stdio_vfprintf_c_states
                0x000000000042b660      0x1d0 0x10 /usr/local/popcorn/x86_64//lib/libc.a(vfprintf.o)
 .rodata.src_stdio_vfprintf__str______0X0x_
                0x000000000042b830        0xa 0x1 /usr/local/popcorn/x86_64//lib/libc.a(vfprintf.o)
                0x000000000042b830                src_stdio_vfprintf__str______0X0x_
 .rodata.src_stdio_vfprintf__str_1__null__
                0x000000000042b83a        0x7 0x1 /usr/local/popcorn/x86_64//lib/libc.a(vfprintf.o)
                0x000000000042b83a                src_stdio_vfprintf__str_1__null__
 .rodata.src_stdio_vfprintf_c_xdigits
                0x000000000042b850       0x10 0x10 /usr/local/popcorn/x86_64//lib/libc.a(vfprintf.o)
 .rodata.src_stdio_vfprintf__str_2__0X_0X_0X_
                0x000000000042b860       0x13 0x1 /usr/local/popcorn/x86_64//lib/libc.a(vfprintf.o)
                0x000000000042b860                src_stdio_vfprintf__str_2__0X_0X_0X_
 .rodata.src_stdio_vfprintf__str_3_inf_
                0x000000000042b873        0x4 0x1 /usr/local/popcorn/x86_64//lib/libc.a(vfprintf.o)
                0x000000000042b873                src_stdio_vfprintf__str_3_inf_
 .rodata.src_stdio_vfprintf__str_4_INF_
                0x000000000042b877        0x4 0x1 /usr/local/popcorn/x86_64//lib/libc.a(vfprintf.o)
                0x000000000042b877                src_stdio_vfprintf__str_4_INF_
 .rodata.src_stdio_vfprintf__str_5_nan_
                0x000000000042b87b        0x4 0x1 /usr/local/popcorn/x86_64//lib/libc.a(vfprintf.o)
                0x000000000042b87b                src_stdio_vfprintf__str_5_nan_
 .rodata.src_stdio_vfprintf__str_6_NAN_
                0x000000000042b87f        0x4 0x1 /usr/local/popcorn/x86_64//lib/libc.a(vfprintf.o)
                0x000000000042b87f                src_stdio_vfprintf__str_6_NAN_
 .rodata.src_stdio_vfprintf__str_7___
                0x000000000042b883        0x2 0x1 /usr/local/popcorn/x86_64//lib/libc.a(vfprintf.o)
                0x000000000042b883                src_stdio_vfprintf__str_7___
 .rodata.src_errno_strerror_c_errid
                0x000000000042b890       0x58 0x10 /usr/local/popcorn/x86_64//lib/libc.a(strerror.o)
 .rodata.src_errno_strerror_c_errmsg
                0x000000000042b8f0      0x70c 0x10 /usr/local/popcorn/x86_64//lib/libc.a(strerror.o)
 .rodata.src_stdio___fdopen__str_rwa_
                0x000000000042bffc        0x4 0x1 /usr/local/popcorn/x86_64//lib/libc.a(__fdopen.o)
                0x000000000042bffc                src_stdio___fdopen__str_rwa_
 .rodata.src_migrate__str_Cannot_ret
                0x000000000042c000       0x2e 0x1 /usr/local/popcorn/x86_64//lib/libmigrate.a(migrate.o)
                0x000000000042c000                src_migrate__str_Cannot_ret
 .rodata.src_migrate__str_1_Could_not_
                0x000000000042c02e       0x1a 0x1 /usr/local/popcorn/x86_64//lib/libmigrate.a(migrate.o)
                0x000000000042c02e                src_migrate__str_1_Could_not_
 .rodata.src_migrate__str_2_0_____Unsu
                0x000000000042c048       0x21 0x1 /usr/local/popcorn/x86_64//lib/libmigrate.a(migrate.o)
                0x000000000042c048                src_migrate__str_2_0_____Unsu
 .rodata.src_migrate__str_3_src_migrat
                0x000000000042c069        0xe 0x1 /usr/local/popcorn/x86_64//lib/libmigrate.a(migrate.o)
                0x000000000042c069                src_migrate__str_3_src_migrat
 .rodata.src_migrate___func_____migrate_shim_internal___migrate_
                0x000000000042c077       0x18 0x1 /usr/local/popcorn/x86_64//lib/libmigrate.a(migrate.o)
                0x000000000042c077                src_migrate___func_____migrate_shim_internal___migrate_
 .rodata.src_migrate__str_4_0_____Coul
                0x000000000042c08f       0x19 0x1 /usr/local/popcorn/x86_64//lib/libmigrate.a(migrate.o)
                0x000000000042c08f                src_migrate__str_4_0_____Coul
 .rodata.src_userspace__str_ST_AARCH64
                0x000000000042c0a8        0xf 0x1 /usr/local/popcorn/x86_64//lib/libstack-transform.a(userspace.o)
                0x000000000042c0a8                src_userspace__str_ST_AARCH64
 .rodata.src_userspace__str_1__s_aarch64
                0x000000000042c0b7        0xb 0x1 /usr/local/popcorn/x86_64//lib/libstack-transform.a(userspace.o)
                0x000000000042c0b7                src_userspace__str_1__s_aarch64
 .rodata.src_userspace__str_2_ST_X86_64_
                0x000000000042c0c2        0xe 0x1 /usr/local/popcorn/x86_64//lib/libstack-transform.a(userspace.o)
                0x000000000042c0c2                src_userspace__str_2_ST_X86_64_
 .rodata.src_userspace__str_3__s_x86_64_
                0x000000000042c0d0        0xa 0x1 /usr/local/popcorn/x86_64//lib/libstack-transform.a(userspace.o)
                0x000000000042c0d0                src_userspace__str_3__s_x86_64_
 .rodata.src_userspace__str_4__proc__d_m
                0x000000000042c0da        0xe 0x1 /usr/local/popcorn/x86_64//lib/libstack-transform.a(userspace.o)
                0x000000000042c0da                src_userspace__str_4__proc__d_m
 .rodata.src_userspace__str_5_r_
                0x000000000042c0e8        0x2 0x1 /usr/local/popcorn/x86_64//lib/libstack-transform.a(userspace.o)
                0x000000000042c0e8                src_userspace__str_5_r_
 .rodata.src_userspace__str_6__lx__lx__s
                0x000000000042c0ea       0x19 0x1 /usr/local/popcorn/x86_64//lib/libstack-transform.a(userspace.o)
                0x000000000042c0ea                src_userspace__str_6__lx__lx(short)
 .rodata.src_userspace__str_7__stack__
                0x000000000042c103        0x8 0x1 /usr/local/popcorn/x86_64//lib/libstack-transform.a(userspace.o)
                0x000000000042c103                src_userspace__str_7__stack__
 .rodata.src_init__str__stack_tra
                0x000000000042c10b       0x1f 0x1 /usr/local/popcorn/x86_64//lib/libstack-transform.a(init.o)
                0x000000000042c10b                src_init__str__stack_tra
 .rodata.src_init__str_1__stack_tra
                0x000000000042c12a       0x18 0x1 /usr/local/popcorn/x86_64//lib/libstack-transform.a(init.o)
                0x000000000042c12a                src_init__str_1__stack_tra
 .rodata.src_init__str_2__stack_tra
                0x000000000042c142       0x14 0x1 /usr/local/popcorn/x86_64//lib/libstack-transform.a(init.o)
                0x000000000042c142                src_init__str_2__stack_tra
 .rodata.src_init__str_3__stack_tra
                0x000000000042c156       0x16 0x1 /usr/local/popcorn/x86_64//lib/libstack-transform.a(init.o)
                0x000000000042c156                src_init__str_3__stack_tra
 .rodata.src_init__str_4__stack_tra
                0x000000000042c16c       0x16 0x1 /usr/local/popcorn/x86_64//lib/libstack-transform.a(init.o)
                0x000000000042c16c                src_init__str_4__stack_tra
 .rodata.src_init__str_5__stack_tra
                0x000000000042c182       0x1c 0x1 /usr/local/popcorn/x86_64//lib/libstack-transform.a(init.o)
                0x000000000042c182                src_init__str_5__stack_tra
 ** merge constants
                0x000000000042c1a0       0x70
 .rodata.src_rewrite__str__src_rewri
                0x000000000042c210       0x42 0x1 /usr/local/popcorn/x86_64//lib/libstack-transform.a(rewrite.o)
                0x000000000042c210                src_rewrite__str__src_rewri
 .rodata.src_rewrite__str_1__src_rewri
                0x000000000042c252       0x68 0x1 /usr/local/popcorn/x86_64//lib/libstack-transform.a(rewrite.o)
                0x000000000042c252                src_rewrite__str_1__src_rewri
 .rodata.src_rewrite__str_2__src_rewri
                0x000000000042c2ba       0x54 0x1 /usr/local/popcorn/x86_64//lib/libstack-transform.a(rewrite.o)
                0x000000000042c2ba                src_rewrite__str_2__src_rewri
 .rodata.src_rewrite__str_3__src_rewri
                0x000000000042c30e       0x61 0x1 /usr/local/popcorn/x86_64//lib/libstack-transform.a(rewrite.o)
                0x000000000042c30e                src_rewrite__str_3__src_rewri
 .rodata.src_util__str_x86_64_
                0x000000000042c36f        0x7 0x1 /usr/local/popcorn/x86_64//lib/libstack-transform.a(util.o)
                0x000000000042c36f                src_util__str_x86_64_
 .rodata.src_util__str_1_aarch64_
                0x000000000042c376        0x8 0x1 /usr/local/popcorn/x86_64//lib/libstack-transform.a(util.o)
                0x000000000042c376                src_util__str_1_aarch64_
 .rodata.src_util__str_2_unknown_un
                0x000000000042c37e       0x21 0x1 /usr/local/popcorn/x86_64//lib/libstack-transform.a(util.o)
                0x000000000042c37e                src_util__str_2_unknown_un
 .rodata.src_arch_aarch64_properties_c_callee_saved_aarch64
                0x000000000042c3a0       0x28 0x10 /usr/local/popcorn/x86_64//lib/libstack-transform.a(properties.o)
 .rodata.src_arch_aarch64_properties_c_callee_saved_size_aarch64
                0x000000000042c3d0       0x28 0x10 /usr/local/popcorn/x86_64//lib/libstack-transform.a(properties.o)
 .rodata.properties_aarch64
                0x000000000042c3f8       0x48 0x8 /usr/local/popcorn/x86_64//lib/libstack-transform.a(properties.o)
                0x000000000042c3f8                properties_aarch64
 .rodata.src_arch_aarch64_properties__str__src_arch_
                0x000000000042c440       0x5a 0x1 /usr/local/popcorn/x86_64//lib/libstack-transform.a(properties.o)
                0x000000000042c440                src_arch_aarch64_properties__str__src_arch_
 .rodata.src_arch_aarch64_properties__str_1__src_arch_
                0x000000000042c49a       0x51 0x1 /usr/local/popcorn/x86_64//lib/libstack-transform.a(properties.o)
                0x000000000042c49a                src_arch_aarch64_properties__str_1__src_arch_
 .rodata.reg_aarch64
                0x000000000042c4f0      0x300 0x8 /usr/local/popcorn/x86_64//lib/libstack-transform.a(regs.o)
 .rodata.regs_aarch64
                0x000000000042c7f0       0xa0 0x8 /usr/local/popcorn/x86_64//lib/libstack-transform.a(regs.o)
                0x000000000042c7f0                regs_aarch64
 .rodata.src_arch_aarch64_regs__str__src_arch_
                0x000000000042c890       0x4c 0x1 /usr/local/popcorn/x86_64//lib/libstack-transform.a(regs.o)
                0x000000000042c890                src_arch_aarch64_regs__str__src_arch_
 .rodata.src_arch_aarch64_regs__str_1__src_arch_
                0x000000000042c8dc       0x4c 0x1 /usr/local/popcorn/x86_64//lib/libstack-transform.a(regs.o)
                0x000000000042c8dc                src_arch_aarch64_regs__str_1__src_arch_
 .rodata.src_arch_x86_64_properties_c_callee_saved_x86_64
                0x000000000042c928        0xe 0x2 /usr/local/popcorn/x86_64//lib/libstack-transform.a(properties.o)
 .rodata.src_arch_x86_64_properties_c_callee_saved_size_x86_64
                0x000000000042c936        0xe 0x2 /usr/local/popcorn/x86_64//lib/libstack-transform.a(properties.o)
 .rodata.properties_x86_64
                0x000000000042c948       0x48 0x8 /usr/local/popcorn/x86_64//lib/libstack-transform.a(properties.o)
                0x000000000042c948                properties_x86_64
 .rodata.src_arch_x86_64_properties__str__src_arch_
                0x000000000042c990       0x4f 0x1 /usr/local/popcorn/x86_64//lib/libstack-transform.a(properties.o)
                0x000000000042c990                src_arch_x86_64_properties__str__src_arch_
 .rodata.reg_x86_64
                0x000000000042c9e0      0x108 0x8 /usr/local/popcorn/x86_64//lib/libstack-transform.a(regs.o)
 .rodata.regs_x86_64
                0x000000000042cae8       0xa0 0x8 /usr/local/popcorn/x86_64//lib/libstack-transform.a(regs.o)
                0x000000000042cae8                regs_x86_64
 .rodata.src_arch_x86_64_regs__str__src_arch_
                0x000000000042cb88       0x4b 0x1 /usr/local/popcorn/x86_64//lib/libstack-transform.a(regs.o)
                0x000000000042cb88                src_arch_x86_64_regs__str__src_arch_
 .rodata.src_arch_x86_64_regs__str_1__src_arch_
                0x000000000042cbd3       0x4b 0x1 /usr/local/popcorn/x86_64//lib/libstack-transform.a(regs.o)
                0x000000000042cbd3                src_arch_x86_64_regs__str_1__src_arch_
 .rodata.src_arch_x86_64_regs__str_2__src_arch_
                0x000000000042cc1e       0x4a 0x1 /usr/local/popcorn/x86_64//lib/libstack-transform.a(regs.o)
                0x000000000042cc1e                src_arch_x86_64_regs__str_2__src_arch_
 .rodata.src_arch_x86_64_regs__str_3__src_arch_
                0x000000000042cc68       0x4a 0x1 /usr/local/popcorn/x86_64//lib/libstack-transform.a(regs.o)
                0x000000000042cc68                src_arch_x86_64_regs__str_3__src_arch_
 .rodata.src_arch_x86_64_regs_switch_table_
                0x000000000042ccc0       0x42 0x10 /usr/local/popcorn/x86_64//lib/libstack-transform.a(regs.o)
                0x000000000042ccc0                src_arch_x86_64_regs_switch_table_
 .rodata.put_val_arch
                0x000000000042cd08       0x50 0x8 /usr/local/popcorn/x86_64//lib/libstack-transform.a(data.o)
 .rodata.points_to_stack
                0x000000000042cd58       0x28 0x8 /usr/local/popcorn/x86_64//lib/libstack-transform.a(data.o)
 .rodata.src_data__str__src_data_
                0x000000000042cd80       0x38 0x1 /usr/local/popcorn/x86_64//lib/libstack-transform.a(data.o)
                0x000000000042cd80                src_data__str__src_data_
 .rodata.src_data__str_1__src_data_
                0x000000000042cdb8       0x50 0x1 /usr/local/popcorn/x86_64//lib/libstack-transform.a(data.o)
                0x000000000042cdb8                src_data__str_1__src_data_
 .rodata.src_data__str_2__src_data_
                0x000000000042ce08       0x3d 0x1 /usr/local/popcorn/x86_64//lib/libstack-transform.a(data.o)
                0x000000000042ce08                src_data__str_2__src_data_
 .rodata.src_data__str_3__src_data_
                0x000000000042ce45       0x30 0x1 /usr/local/popcorn/x86_64//lib/libstack-transform.a(data.o)
                0x000000000042ce45                src_data__str_3__src_data_
 .rodata.src_data__str_4__src_data_
                0x000000000042ce75       0x49 0x1 /usr/local/popcorn/x86_64//lib/libstack-transform.a(data.o)
                0x000000000042ce75                src_data__str_4__src_data_
 .rodata.src_data__str_5__src_data_
                0x000000000042cebe       0x3f 0x1 /usr/local/popcorn/x86_64//lib/libstack-transform.a(data.o)
                0x000000000042cebe                src_data__str_5__src_data_
 .rodata.src_data__str_6__src_data_
                0x000000000042cefd       0x3d 0x1 /usr/local/popcorn/x86_64//lib/libstack-transform.a(data.o)
                0x000000000042cefd                src_data__str_6__src_data_
 .rodata.src_data__str_7__src_data_
                0x000000000042cf3a       0x3f 0x1 /usr/local/popcorn/x86_64//lib/libstack-transform.a(data.o)
                0x000000000042cf3a                src_data__str_7__src_data_
 .rodata.src_data__str_8__src_data_
                0x000000000042cf79       0x4b 0x1 /usr/local/popcorn/x86_64//lib/libstack-transform.a(data.o)
                0x000000000042cf79                src_data__str_8__src_data_
 .rodata.src_data__str_9__src_data_
                0x000000000042cfc4       0x37 0x1 /usr/local/popcorn/x86_64//lib/libstack-transform.a(data.o)
                0x000000000042cfc4                src_data__str_9__src_data_
 ** merge strings
                0x000000000042cffb       0x23
 .rodata.fmag   0x000000000042d01e        0x3 0x1 /usr/local/popcorn/x86_64//lib/libelf.a(begin.o)
 .rodata.xlate32_11
                0x000000000042d040      0x220 0x40 /usr/local/popcorn/x86_64//lib/libelf.a(32.xlatetof.o)
 .rodata._elf_data_init
                0x000000000042d280       0x58 0x40 /usr/local/popcorn/x86_64//lib/libelf.a(cook.o)
                0x000000000042d280                _elf_data_init
 .rodata._elf_scn_init
                0x000000000042d300       0xa0 0x40 /usr/local/popcorn/x86_64//lib/libelf.a(cook.o)
                0x000000000042d300                _elf_scn_init
 .rodata.xlate64_11
                0x000000000042d3c0      0x220 0x40 /usr/local/popcorn/x86_64//lib/libelf.a(64.xlatetof.o)
 .rodata._elf_fmsize
                0x000000000042d600      0x220 0x40 /usr/local/popcorn/x86_64//lib/libelf.a(32.fsize.o)
                0x000000000042d600                _elf_fmsize
 .rodata.src_exit_assert__str_Assertion_
                0x000000000042d820       0x23 0x1 /usr/local/popcorn/x86_64//lib/libc.a(assert.o)
                0x000000000042d820                src_exit_assert__str_Assertion_
 .rodata.stderr
                0x000000000042d848        0x8 0x8 /usr/local/popcorn/x86_64//lib/libc.a(stderr.o)
                0x000000000042d848                stderr
 .rodata.src_stdio_vsnprintf_vsnprintf_f_
                0x000000000042d850       0xe0 0x8 /usr/local/popcorn/x86_64//lib/libc.a(vsnprintf.o)
                0x000000000042d850                src_stdio_vsnprintf_vsnprintf_f_
 .rodata.src_internal_intscan_c_table
                0x000000000042d930      0x101 0x10 /usr/local/popcorn/x86_64//lib/libc.a(intscan.o)
 .rodata.src_internal_intscan__str__________
                0x000000000042da31        0x9 0x1 /usr/local/popcorn/x86_64//lib/libc.a(intscan.o)
                0x000000000042da31                src_internal_intscan__str__________
 .rodata.vfscanf
                0x000000000042da40      0x338 0x8 /usr/local/popcorn/x86_64//lib/libc.a(vfscanf.o)
 ** merge constants
                0x000000000042dd78       0x38
 .rodata.src_internal_floatscan__str_infinity_
                0x000000000042ddb0        0x9 0x1 /usr/local/popcorn/x86_64//lib/libc.a(floatscan.o)
                0x000000000042ddb0                src_internal_floatscan__str_infinity_
 .rodata.src_internal_floatscan_c_decfloat_p10s
                0x000000000042ddc0       0x20 0x10 /usr/local/popcorn/x86_64//lib/libc.a(floatscan.o)
 .rodata.src_internal_floatscan_switch_table_
                0x000000000042dde0        0xc 0x4 /usr/local/popcorn/x86_64//lib/libc.a(floatscan.o)
                0x000000000042dde0                src_internal_floatscan_switch_table_
 .rodata.src_internal_floatscan_switch_table_2_
                0x000000000042ddec        0xc 0x4 /usr/local/popcorn/x86_64//lib/libc.a(floatscan.o)
                0x000000000042ddec                src_internal_floatscan_switch_table_2_
 .rodata.src_signal_block_c_all_mask
                0x000000000042ddf8        0x8 0x8 /usr/local/popcorn/x86_64//lib/libc.a(block.o)
 .rodata.src_signal_block_c_app_mask
                0x000000000042de00        0x8 0x8 /usr/local/popcorn/x86_64//lib/libc.a(block.o)
 .rodata.__fsmu8
                0x000000000042de10       0xcc 0x10 /usr/local/popcorn/x86_64//lib/libc.a(internal.o)
                0x000000000042de10                __fsmu8

.llvm_stackmaps
                0x000000000042dee0      0x5c0
 .llvm_stackmaps
                0x000000000042dee0      0x200 0x8 /tmp/conftest-dcbec8_x86_64.o
 .llvm_stackmaps
                0x000000000042e0e0       0x48 0x8 /usr/local/popcorn/x86_64//lib/libc.a(__libc_start_main.o)
 .llvm_stackmaps
                0x000000000042e128      0x378 0x8 /usr/local/popcorn/x86_64//lib/libmigrate.a(migrate.o)

.eh_frame       0x000000000042e4a0     0x2b78
 ** eh_frame    0x000000000042e4a0     0x2b78

.eh_frame_hdr   0x0000000000431018      0x864
 ** eh_frame_hdr
                0x0000000000431018      0x864

.init_array     0x0000000000432ff0       0x10
 .init_array    0x0000000000432ff0        0x8 0x8 /usr/local/popcorn/x86_64//lib/libmigrate.a(migrate.o)
 .init_array    0x0000000000432ff8        0x8 0x8 /usr/local/popcorn/x86_64//lib/libstack-transform.a(init.o)

.data           0x0000000000433000      0x188
 .data          0x0000000000433000        0x0 0x4 /tmp/conftest-dcbec8_x86_64.o
 .data          0x0000000000433000        0x0 0x4 /usr/local/popcorn/x86_64//lib/crt1.o
 .data          0x0000000000433000        0x0 0x4 /usr/local/popcorn/x86_64//lib/libc.a(__libc_start_main.o)
 .data          0x0000000000433000        0x0 0x4 /usr/local/popcorn/x86_64//lib/libc.a(exit.o)
 .data          0x0000000000433000        0x0 0x4 /usr/local/popcorn/x86_64//lib/libc.a(libc.o)
 .data          0x0000000000433000        0x0 0x4 /usr/local/popcorn/x86_64//lib/libc.a(fclose.o)
 .data          0x0000000000433000        0x0 0x4 /usr/local/popcorn/x86_64//lib/libc.a(ferror.o)
 .data          0x0000000000433000        0x0 0x4 /usr/local/popcorn/x86_64//lib/libc.a(fflush.o)
 .data          0x0000000000433000        0x0 0x4 /usr/local/popcorn/x86_64//lib/libc.a(fopen.o)
 .data          0x0000000000433000        0x0 0x4 /usr/local/popcorn/x86_64//lib/libc.a(fprintf.o)
 .data          0x0000000000433000        0x0 0x4 /usr/local/popcorn/x86_64//lib/libc.a(vfprintf.o)
 .data          0x0000000000433000        0x0 0x4 /usr/local/popcorn/x86_64//lib/libc.a(memchr.o)
 .data          0x0000000000433000        0x0 0x4 /usr/local/popcorn/x86_64//lib/libc.a(memset.o)
 .data          0x0000000000433000        0x0 0x4 /usr/local/popcorn/x86_64//lib/libc.a(strchr.o)
 .data          0x0000000000433000        0x0 0x4 /usr/local/popcorn/x86_64//lib/libc.a(strchrnul.o)
 .data          0x0000000000433000        0x0 0x4 /usr/local/popcorn/x86_64//lib/libc.a(strlen.o)
 .data          0x0000000000433000        0x0 0x4 /usr/local/popcorn/x86_64//lib/libc.a(__lock.o)
 .data          0x0000000000433000        0x0 0x4 /usr/local/popcorn/x86_64//lib/libc.a(__syscall_cp.o)
 .data          0x0000000000433000        0x0 0x4 /usr/local/popcorn/x86_64//lib/libc.a(__wait.o)
 .data          0x0000000000433000        0x0 0x4 /usr/local/popcorn/x86_64//lib/libc.a(__environ.o)
 .data          0x0000000000433000        0x0 0x4 /usr/local/popcorn/x86_64//lib/libc.a(__init_tls.o)
 .data          0x0000000000433000        0x0 0x4 /usr/local/popcorn/x86_64//lib/libc.a(__errno_location.o)
 .data          0x0000000000433000        0x0 0x4 /usr/local/popcorn/x86_64//lib/libc.a(strerror.o)
 .data          0x0000000000433000        0x0 0x4 /usr/local/popcorn/x86_64//lib/libc.a(_Exit.o)
 .data          0x0000000000433000        0x0 0x4 /usr/local/popcorn/x86_64//lib/libc.a(syscall.o)
 .data          0x0000000000433000        0x0 0x4 /usr/local/popcorn/x86_64//lib/libc.a(syscall_ret.o)
 .data          0x0000000000433000        0x0 0x4 /usr/local/popcorn/x86_64//lib/libc.a(__lctrans.o)
 .data          0x0000000000433000        0x0 0x4 /usr/local/popcorn/x86_64//lib/libc.a(malloc.o)
 .data          0x0000000000433000        0x0 0x4 /usr/local/popcorn/x86_64//lib/libc.a(__fpclassifyl.o)
 .data          0x0000000000433000        0x0 0x4 /usr/local/popcorn/x86_64//lib/libc.a(__signbitl.o)
 .data          0x0000000000433000        0x0 0x4 /usr/local/popcorn/x86_64//lib/libc.a(frexpl.o)
 .data          0x0000000000433000        0x0 0x4 /usr/local/popcorn/x86_64//lib/libc.a(madvise.o)
 .data          0x0000000000433000        0x0 0x4 /usr/local/popcorn/x86_64//lib/libc.a(mmap.o)
 .data          0x0000000000433000        0x0 0x4 /usr/local/popcorn/x86_64//lib/libc.a(mremap.o)
 .data          0x0000000000433000        0x0 0x4 /usr/local/popcorn/x86_64//lib/libc.a(munmap.o)
 .data          0x0000000000433000        0x0 0x4 /usr/local/popcorn/x86_64//lib/libc.a(wctomb.o)
 .data          0x0000000000433000        0x0 0x4 /usr/local/popcorn/x86_64//lib/libc.a(sched_yield.o)
 .data          0x0000000000433000        0x0 0x4 /usr/local/popcorn/x86_64//lib/libc.a(__fdopen.o)
 .data          0x0000000000433000        0x0 0x4 /usr/local/popcorn/x86_64//lib/libc.a(__fmodeflags.o)
 .data          0x0000000000433000        0x0 0x4 /usr/local/popcorn/x86_64//lib/libc.a(__lockfile.o)
 .data          0x0000000000433000        0x0 0x4 /usr/local/popcorn/x86_64//lib/libc.a(__stdio_close.o)
 .data          0x0000000000433000        0x0 0x4 /usr/local/popcorn/x86_64//lib/libc.a(__stdio_read.o)
 .data          0x0000000000433000        0x0 0x4 /usr/local/popcorn/x86_64//lib/libc.a(__stdio_seek.o)
 .data          0x0000000000433000        0x0 0x4 /usr/local/popcorn/x86_64//lib/libc.a(__stdio_write.o)
 .data          0x0000000000433000        0x0 0x4 /usr/local/popcorn/x86_64//lib/libc.a(fwrite.o)
 .data          0x0000000000433000        0x0 0x4 /usr/local/popcorn/x86_64//lib/libc.a(memcpy.o)
 .data          0x0000000000433000        0x0 0x4 /usr/local/popcorn/x86_64//lib/libc.a(__set_thread_area.o)
 .data          0x0000000000433000        0x0 0x4 /usr/local/popcorn/x86_64//lib/libc.a(pthread_cleanup_push.o)
 .data          0x0000000000433000        0x0 0x4 /usr/local/popcorn/x86_64//lib/libc.a(__brk.o)
 .data          0x0000000000433000        0x0 0x4 /usr/local/popcorn/x86_64//lib/libc.a(wcrtomb.o)
 .data          0x0000000000433000        0x0 0x4 /usr/local/popcorn/x86_64//lib/libc.a(__towrite.o)
 .data          0x0000000000433000        0x0 0x4 /usr/local/popcorn/x86_64//lib/libc.a(__stdio_exit.o)
 .data          0x0000000000433000        0x0 0x4 /usr/local/popcorn/x86_64//lib/libmigrate.a(migrate.o)
 .data.origin_nid
                0x0000000000433000        0x4 0x4 /usr/local/popcorn/x86_64//lib/libmigrate.a(migrate.o)
                0x0000000000433000                origin_nid
 .data.archs    0x0000000000433010       0x80 0x10 /usr/local/popcorn/x86_64//lib/libmigrate.a(migrate.o)
                0x0000000000433010                archs
 .data          0x0000000000433090        0x0 0x4 /usr/local/popcorn/x86_64//lib/libstack-transform.a(userspace.o)
 .data          0x0000000000433090        0x0 0x4 /usr/local/popcorn/x86_64//lib/libstack-transform.a(init.o)
 .data          0x0000000000433090        0x0 0x4 /usr/local/popcorn/x86_64//lib/libstack-transform.a(rewrite.o)
 .data          0x0000000000433090        0x0 0x4 /usr/local/popcorn/x86_64//lib/libstack-transform.a(unwind.o)
 .data          0x0000000000433090        0x0 0x4 /usr/local/popcorn/x86_64//lib/libstack-transform.a(util.o)
 .data          0x0000000000433090        0x0 0x4 /usr/local/popcorn/x86_64//lib/libstack-transform.a(properties.o)
 .data          0x0000000000433090        0x0 0x4 /usr/local/popcorn/x86_64//lib/libstack-transform.a(regs.o)
 .data          0x0000000000433090        0x0 0x4 /usr/local/popcorn/x86_64//lib/libstack-transform.a(properties.o)
 .data          0x0000000000433090        0x0 0x4 /usr/local/popcorn/x86_64//lib/libstack-transform.a(regs.o)
 .data          0x0000000000433090        0x0 0x4 /usr/local/popcorn/x86_64//lib/libstack-transform.a(data.o)
 .data          0x0000000000433090        0x0 0x1 /usr/local/popcorn/x86_64//lib/libelf.a(begin.o)
 .data          0x0000000000433090        0x0 0x1 /usr/local/popcorn/x86_64//lib/libelf.a(end.o)
 .data          0x0000000000433090        0x0 0x1 /usr/local/popcorn/x86_64//lib/libelf.a(getdata.o)
 .data          0x0000000000433090        0x0 0x1 /usr/local/popcorn/x86_64//lib/libelf.a(getident.o)
 .data          0x0000000000433090        0x0 0x1 /usr/local/popcorn/x86_64//lib/libelf.a(nextscn.o)
 .data          0x0000000000433090        0x0 0x1 /usr/local/popcorn/x86_64//lib/libelf.a(strptr.o)
 .data          0x0000000000433090        0x0 0x1 /usr/local/popcorn/x86_64//lib/libelf.a(version.o)
 .data          0x0000000000433090        0x0 0x1 /usr/local/popcorn/x86_64//lib/libelf.a(32.getehdr.o)
 .data          0x0000000000433090        0x0 0x1 /usr/local/popcorn/x86_64//lib/libelf.a(32.xlatetof.o)
 .data          0x0000000000433090        0x0 0x1 /usr/local/popcorn/x86_64//lib/libelf.a(cook.o)
 .data          0x0000000000433090        0x0 0x1 /usr/local/popcorn/x86_64//lib/libelf.a(data.o)
 .data._elf_sanity_checks
                0x0000000000433090        0x4 0x4 /usr/local/popcorn/x86_64//lib/libelf.a(data.o)
                0x0000000000433090                _elf_sanity_checks
 .data          0x0000000000433094        0x0 0x1 /usr/local/popcorn/x86_64//lib/libelf.a(input.o)
 .data          0x0000000000433094        0x0 0x1 /usr/local/popcorn/x86_64//lib/libelf.a(x.elfext.o)
 .data          0x0000000000433094        0x0 0x1 /usr/local/popcorn/x86_64//lib/libelf.a(64.xlatetof.o)
 .data          0x0000000000433094        0x0 0x1 /usr/local/popcorn/x86_64//lib/libelf.a(gelfshdr.o)
 .data          0x0000000000433094        0x0 0x1 /usr/local/popcorn/x86_64//lib/libelf.a(swap64.o)
 .data          0x0000000000433094        0x0 0x1 /usr/local/popcorn/x86_64//lib/libelf.a(verdef_32_tof.o)
 .data          0x0000000000433094        0x0 0x1 /usr/local/popcorn/x86_64//lib/libelf.a(verdef_32_tom.o)
 .data          0x0000000000433094        0x0 0x1 /usr/local/popcorn/x86_64//lib/libelf.a(verdef_64_tof.o)
 .data          0x0000000000433094        0x0 0x1 /usr/local/popcorn/x86_64//lib/libelf.a(verdef_64_tom.o)
 .data          0x0000000000433094        0x0 0x1 /usr/local/popcorn/x86_64//lib/libelf.a(getscn.o)
 .data          0x0000000000433094        0x0 0x1 /usr/local/popcorn/x86_64//lib/libelf.a(newscn.o)
 .data          0x0000000000433094        0x0 0x1 /usr/local/popcorn/x86_64//lib/libelf.a(32.fsize.o)
 .data          0x0000000000433094        0x0 0x4 /usr/local/popcorn/x86_64//lib/libc.a(getenv.o)
 .data          0x0000000000433094        0x0 0x4 /usr/local/popcorn/x86_64//lib/libc.a(assert.o)
 .data          0x0000000000433094        0x0 0x4 /usr/local/popcorn/x86_64//lib/libc.a(open.o)
 .data          0x0000000000433094        0x0 0x4 /usr/local/popcorn/x86_64//lib/libc.a(calloc.o)
 .data          0x0000000000433094        0x0 0x4 /usr/local/popcorn/x86_64//lib/libc.a(getrlimit.o)
 .data          0x0000000000433094        0x0 0x4 /usr/local/popcorn/x86_64//lib/libc.a(syscall.o)
 .data          0x0000000000433094        0x0 0x4 /usr/local/popcorn/x86_64//lib/libc.a(getline.o)
 .data          0x0000000000433094        0x0 0x4 /usr/local/popcorn/x86_64//lib/libc.a(snprintf.o)
 .data          0x0000000000433094        0x0 0x4 /usr/local/popcorn/x86_64//lib/libc.a(sscanf.o)
 .data          0x0000000000433094        0x0 0x4 /usr/local/popcorn/x86_64//lib/libc.a(stderr.o)
 .data.src_stdio_stderr_c_f
                0x0000000000433098       0xe0 0x8 /usr/local/popcorn/x86_64//lib/libc.a(stderr.o)
 .data.__stderr_used
                0x0000000000433178        0x8 0x8 /usr/local/popcorn/x86_64//lib/libc.a(stderr.o)
                0x0000000000433178                __stderr_used
 .data          0x0000000000433180        0x0 0x4 /usr/local/popcorn/x86_64//lib/libc.a(vsnprintf.o)
 .data          0x0000000000433180        0x0 0x4 /usr/local/popcorn/x86_64//lib/libc.a(vsscanf.o)
 .data          0x0000000000433180        0x0 0x4 /usr/local/popcorn/x86_64//lib/libc.a(strtol.o)
 .data          0x0000000000433180        0x0 0x4 /usr/local/popcorn/x86_64//lib/libc.a(memcmp.o)
 .data          0x0000000000433180        0x0 0x4 /usr/local/popcorn/x86_64//lib/libc.a(memmove.o)
 .data          0x0000000000433180        0x0 0x4 /usr/local/popcorn/x86_64//lib/libc.a(strcmp.o)
 .data          0x0000000000433180        0x0 0x4 /usr/local/popcorn/x86_64//lib/libc.a(strncmp.o)
 .data          0x0000000000433180        0x0 0x4 /usr/local/popcorn/x86_64//lib/libc.a(pthread_attr_get.o)
 .data          0x0000000000433180        0x0 0x4 /usr/local/popcorn/x86_64//lib/libc.a(pthread_getattr_np.o)
 .data          0x0000000000433180        0x0 0x4 /usr/local/popcorn/x86_64//lib/libc.a(pthread_getspecific.o)
 .data          0x0000000000433180        0x0 0x4 /usr/local/popcorn/x86_64//lib/libc.a(pthread_key_create.o)
 .data.__pthread_tsd_size
                0x0000000000433180        0x8 0x8 /usr/local/popcorn/x86_64//lib/libc.a(pthread_key_create.o)
                0x0000000000433180                __pthread_tsd_size
 .data          0x0000000000433188        0x0 0x4 /usr/local/popcorn/x86_64//lib/libc.a(pthread_migrate.o)
 .data          0x0000000000433188        0x0 0x4 /usr/local/popcorn/x86_64//lib/libc.a(pthread_self.o)
 .data          0x0000000000433188        0x0 0x4 /usr/local/popcorn/x86_64//lib/libc.a(pthread_setspecific.o)
 .data          0x0000000000433188        0x0 0x4 /usr/local/popcorn/x86_64//lib/libc.a(close.o)
 .data          0x0000000000433188        0x0 0x4 /usr/local/popcorn/x86_64//lib/libc.a(getpid.o)
 .data          0x0000000000433188        0x0 0x4 /usr/local/popcorn/x86_64//lib/libc.a(lseek.o)
 .data          0x0000000000433188        0x0 0x4 /usr/local/popcorn/x86_64//lib/libc.a(read.o)
 .data          0x0000000000433188        0x0 0x4 /usr/local/popcorn/x86_64//lib/libc.a(abort.o)
 .data          0x0000000000433188        0x0 0x4 /usr/local/popcorn/x86_64//lib/libc.a(intscan.o)
 .data          0x0000000000433188        0x0 0x4 /usr/local/popcorn/x86_64//lib/libc.a(shgetc.o)
 .data          0x0000000000433188        0x0 0x4 /usr/local/popcorn/x86_64//lib/libc.a(raise.o)
 .data          0x0000000000433188        0x0 0x4 /usr/local/popcorn/x86_64//lib/libc.a(__string_read.o)
 .data          0x0000000000433188        0x0 0x4 /usr/local/popcorn/x86_64//lib/libc.a(__uflow.o)
 .data          0x0000000000433188        0x0 0x4 /usr/local/popcorn/x86_64//lib/libc.a(getdelim.o)
 .data          0x0000000000433188        0x0 0x4 /usr/local/popcorn/x86_64//lib/libc.a(vfscanf.o)
 .data          0x0000000000433188        0x0 0x4 /usr/local/popcorn/x86_64//lib/libc.a(floatscan.o)
 .data          0x0000000000433188        0x0 0x4 /usr/local/popcorn/x86_64//lib/libc.a(copysignl.o)
 .data          0x0000000000433188        0x0 0x4 /usr/local/popcorn/x86_64//lib/libc.a(fabs.o)
 .data          0x0000000000433188        0x0 0x4 /usr/local/popcorn/x86_64//lib/libc.a(fmodl.o)
 .data          0x0000000000433188        0x0 0x4 /usr/local/popcorn/x86_64//lib/libc.a(scalbn.o)
 .data          0x0000000000433188        0x0 0x4 /usr/local/popcorn/x86_64//lib/libc.a(scalbnl.o)
 .data          0x0000000000433188        0x0 0x4 /usr/local/popcorn/x86_64//lib/libc.a(mbrtowc.o)
 .data          0x0000000000433188        0x0 0x4 /usr/local/popcorn/x86_64//lib/libc.a(mbsinit.o)
 .data          0x0000000000433188        0x0 0x4 /usr/local/popcorn/x86_64//lib/libc.a(block.o)
 .data          0x0000000000433188        0x0 0x4 /usr/local/popcorn/x86_64//lib/libc.a(__toread.o)
 .data          0x0000000000433188        0x0 0x4 /usr/local/popcorn/x86_64//lib/libc.a(internal.o)

.bss            0x0000000000433190     0x1154
 .bss           0x0000000000433190        0x0 0x4 /tmp/conftest-dcbec8_x86_64.o
 .bss           0x0000000000433190        0x0 0x4 /usr/local/popcorn/x86_64//lib/crt1.o
 .bss           0x0000000000433190        0x0 0x4 /usr/local/popcorn/x86_64//lib/libc.a(__libc_start_main.o)
 .bss.__popcorn_stack_base
                0x0000000000433190        0x8 0x8 /usr/local/popcorn/x86_64//lib/libc.a(__libc_start_main.o)
                0x0000000000433190                __popcorn_stack_base
 .bss           0x0000000000433198        0x0 0x4 /usr/local/popcorn/x86_64//lib/libc.a(exit.o)
 .bss           0x0000000000433198        0x0 0x4 /usr/local/popcorn/x86_64//lib/libc.a(libc.o)
 .bss.__progname
                0x0000000000433198        0x8 0x8 /usr/local/popcorn/x86_64//lib/libc.a(libc.o)
                0x0000000000433198                __progname
                0x0000000000433198                program_invocation_short_name
 .bss.__progname_full
                0x00000000004331a0        0x8 0x8 /usr/local/popcorn/x86_64//lib/libc.a(libc.o)
                0x00000000004331a0                __progname_full
                0x00000000004331a0                program_invocation_name
 .bss.__libc    0x00000000004331a8       0x68 0x8 /usr/local/popcorn/x86_64//lib/libc.a(libc.o)
                0x00000000004331a8                __libc
 .bss.__hwcap   0x0000000000433210        0x8 0x8 /usr/local/popcorn/x86_64//lib/libc.a(libc.o)
                0x0000000000433210                __hwcap
 .bss.__sysinfo
                0x0000000000433218        0x8 0x8 /usr/local/popcorn/x86_64//lib/libc.a(libc.o)
                0x0000000000433218                __sysinfo
 .bss           0x0000000000433220        0x0 0x4 /usr/local/popcorn/x86_64//lib/libc.a(fclose.o)
 .bss           0x0000000000433220        0x0 0x4 /usr/local/popcorn/x86_64//lib/libc.a(ferror.o)
 .bss           0x0000000000433220        0x0 0x4 /usr/local/popcorn/x86_64//lib/libc.a(fflush.o)
 .bss.src_stdio_fflush_c_dummy
                0x0000000000433220        0x8 0x8 /usr/local/popcorn/x86_64//lib/libc.a(fflush.o)
                0x0000000000433220                __stdout_used
 .bss           0x0000000000433228        0x0 0x4 /usr/local/popcorn/x86_64//lib/libc.a(fopen.o)
 .bss           0x0000000000433228        0x0 0x4 /usr/local/popcorn/x86_64//lib/libc.a(fprintf.o)
 .bss           0x0000000000433228        0x0 0x4 /usr/local/popcorn/x86_64//lib/libc.a(vfprintf.o)
 .bss           0x0000000000433228        0x0 0x4 /usr/local/popcorn/x86_64//lib/libc.a(memchr.o)
 .bss           0x0000000000433228        0x0 0x4 /usr/local/popcorn/x86_64//lib/libc.a(memset.o)
 .bss           0x0000000000433228        0x0 0x4 /usr/local/popcorn/x86_64//lib/libc.a(strchr.o)
 .bss           0x0000000000433228        0x0 0x4 /usr/local/popcorn/x86_64//lib/libc.a(strchrnul.o)
 .bss           0x0000000000433228        0x0 0x4 /usr/local/popcorn/x86_64//lib/libc.a(strlen.o)
 .bss           0x0000000000433228        0x0 0x4 /usr/local/popcorn/x86_64//lib/libc.a(__lock.o)
 .bss           0x0000000000433228        0x0 0x4 /usr/local/popcorn/x86_64//lib/libc.a(__syscall_cp.o)
 .bss           0x0000000000433228        0x0 0x4 /usr/local/popcorn/x86_64//lib/libc.a(__wait.o)
 .bss           0x0000000000433228        0x0 0x4 /usr/local/popcorn/x86_64//lib/libc.a(__environ.o)
 .bss.__environ
                0x0000000000433228        0x8 0x8 /usr/local/popcorn/x86_64//lib/libc.a(__environ.o)
                0x0000000000433228                ___environ
                0x0000000000433228                __environ
                0x0000000000433228                _environ
                0x0000000000433228                environ
 .bss           0x0000000000433230        0x0 0x4 /usr/local/popcorn/x86_64//lib/libc.a(__init_tls.o)
 .bss.__static_tls
                0x0000000000433230       0x20 0x8 /usr/local/popcorn/x86_64//lib/libc.a(__init_tls.o)
                0x0000000000433230                __static_tls
 .bss.src_env___init_tls_c_builtin_tls
                0x0000000000433250      0x1e0 0x10 /usr/local/popcorn/x86_64//lib/libc.a(__init_tls.o)
 .bss           0x0000000000433430        0x0 0x4 /usr/local/popcorn/x86_64//lib/libc.a(__errno_location.o)
 .bss           0x0000000000433430        0x0 0x4 /usr/local/popcorn/x86_64//lib/libc.a(strerror.o)
 .bss           0x0000000000433430        0x0 0x4 /usr/local/popcorn/x86_64//lib/libc.a(_Exit.o)
 .bss           0x0000000000433430        0x0 0x4 /usr/local/popcorn/x86_64//lib/libc.a(syscall.o)
 .bss           0x0000000000433430        0x0 0x4 /usr/local/popcorn/x86_64//lib/libc.a(syscall_ret.o)
 .bss           0x0000000000433430        0x0 0x4 /usr/local/popcorn/x86_64//lib/libc.a(__lctrans.o)
 .bss           0x0000000000433430        0x0 0x4 /usr/local/popcorn/x86_64//lib/libc.a(malloc.o)
 .bss.src_malloc_malloc_c_mal
                0x0000000000433430      0x630 0x8 /usr/local/popcorn/x86_64//lib/libc.a(malloc.o)
 .bss.src_malloc_malloc_c_expand_heap_init
                0x0000000000433a60        0x1 0x1 /usr/local/popcorn/x86_64//lib/libc.a(malloc.o)
 .bss           0x0000000000433a64        0x0 0x4 /usr/local/popcorn/x86_64//lib/libc.a(__fpclassifyl.o)
 .bss           0x0000000000433a64        0x0 0x4 /usr/local/popcorn/x86_64//lib/libc.a(__signbitl.o)
 .bss           0x0000000000433a64        0x0 0x4 /usr/local/popcorn/x86_64//lib/libc.a(frexpl.o)
 .bss           0x0000000000433a64        0x0 0x4 /usr/local/popcorn/x86_64//lib/libc.a(madvise.o)
 .bss           0x0000000000433a64        0x0 0x4 /usr/local/popcorn/x86_64//lib/libc.a(mmap.o)
 .bss           0x0000000000433a64        0x0 0x4 /usr/local/popcorn/x86_64//lib/libc.a(mremap.o)
 .bss           0x0000000000433a64        0x0 0x4 /usr/local/popcorn/x86_64//lib/libc.a(munmap.o)
 .bss           0x0000000000433a64        0x0 0x4 /usr/local/popcorn/x86_64//lib/libc.a(wctomb.o)
 .bss           0x0000000000433a64        0x0 0x4 /usr/local/popcorn/x86_64//lib/libc.a(sched_yield.o)
 .bss           0x0000000000433a64        0x0 0x4 /usr/local/popcorn/x86_64//lib/libc.a(__fdopen.o)
 .bss           0x0000000000433a64        0x0 0x4 /usr/local/popcorn/x86_64//lib/libc.a(__fmodeflags.o)
 .bss           0x0000000000433a64        0x0 0x4 /usr/local/popcorn/x86_64//lib/libc.a(__lockfile.o)
 .bss           0x0000000000433a64        0x0 0x4 /usr/local/popcorn/x86_64//lib/libc.a(__stdio_close.o)
 .bss           0x0000000000433a64        0x0 0x4 /usr/local/popcorn/x86_64//lib/libc.a(__stdio_read.o)
 .bss           0x0000000000433a64        0x0 0x4 /usr/local/popcorn/x86_64//lib/libc.a(__stdio_seek.o)
 .bss           0x0000000000433a64        0x0 0x4 /usr/local/popcorn/x86_64//lib/libc.a(__stdio_write.o)
 .bss           0x0000000000433a64        0x0 0x4 /usr/local/popcorn/x86_64//lib/libc.a(fwrite.o)
 .bss           0x0000000000433a64        0x0 0x4 /usr/local/popcorn/x86_64//lib/libc.a(memcpy.o)
 .bss           0x0000000000433a64        0x0 0x4 /usr/local/popcorn/x86_64//lib/libc.a(__set_thread_area.o)
 .bss           0x0000000000433a64        0x0 0x4 /usr/local/popcorn/x86_64//lib/libc.a(pthread_cleanup_push.o)
 .bss           0x0000000000433a64        0x0 0x4 /usr/local/popcorn/x86_64//lib/libc.a(__brk.o)
 .bss           0x0000000000433a64        0x0 0x4 /usr/local/popcorn/x86_64//lib/libc.a(wcrtomb.o)
 .bss           0x0000000000433a64        0x0 0x4 /usr/local/popcorn/x86_64//lib/libc.a(__towrite.o)
 .bss           0x0000000000433a64        0x0 0x4 /usr/local/popcorn/x86_64//lib/libc.a(__stdio_exit.o)
 .bss.src_stdio___stdio_exit_c_dummy_file
                0x0000000000433a68        0x8 0x8 /usr/local/popcorn/x86_64//lib/libc.a(__stdio_exit.o)
                0x0000000000433a68                __stdin_used
 .bss           0x0000000000433a70        0x0 0x4 /usr/local/popcorn/x86_64//lib/libmigrate.a(migrate.o)
 .bss.migrate_callback
                0x0000000000433a70        0x8 0x8 /usr/local/popcorn/x86_64//lib/libmigrate.a(migrate.o)
                0x0000000000433a70                migrate_callback
 .bss.migrate_callback_data
                0x0000000000433a78        0x8 0x8 /usr/local/popcorn/x86_64//lib/libmigrate.a(migrate.o)
                0x0000000000433a78                migrate_callback_data
 .bss           0x0000000000433a80        0x0 0x4 /usr/local/popcorn/x86_64//lib/libstack-transform.a(userspace.o)
 .bss.aarch64_fn
                0x0000000000433a80        0x8 0x8 /usr/local/popcorn/x86_64//lib/libstack-transform.a(userspace.o)
                0x0000000000433a80                aarch64_fn
 .bss.x86_64_fn
                0x0000000000433a88        0x8 0x8 /usr/local/popcorn/x86_64//lib/libstack-transform.a(userspace.o)
                0x0000000000433a88                x86_64_fn
 .bss.src_userspace_c_aarch64_handle
                0x0000000000433a90        0x8 0x8 /usr/local/popcorn/x86_64//lib/libstack-transform.a(userspace.o)
 .bss.src_userspace_c_alloc_aarch64_fn
                0x0000000000433a98        0x1 0x1 /usr/local/popcorn/x86_64//lib/libstack-transform.a(userspace.o)
 .bss.src_userspace_c_x86_64_handle
                0x0000000000433aa0        0x8 0x8 /usr/local/popcorn/x86_64//lib/libstack-transform.a(userspace.o)
 .bss.src_userspace_c_alloc_x86_64_fn
                0x0000000000433aa8        0x1 0x1 /usr/local/popcorn/x86_64//lib/libstack-transform.a(userspace.o)
 .bss.src_userspace_c_stack_bounds_key
                0x0000000000433aac        0x4 0x4 /usr/local/popcorn/x86_64//lib/libstack-transform.a(userspace.o)
 .bss           0x0000000000433ab0        0x0 0x4 /usr/local/popcorn/x86_64//lib/libstack-transform.a(init.o)
 .bss           0x0000000000433ab0        0x0 0x4 /usr/local/popcorn/x86_64//lib/libstack-transform.a(rewrite.o)
 .bss           0x0000000000433ab0        0x0 0x4 /usr/local/popcorn/x86_64//lib/libstack-transform.a(unwind.o)
 .bss           0x0000000000433ab0        0x0 0x4 /usr/local/popcorn/x86_64//lib/libstack-transform.a(util.o)
 .bss           0x0000000000433ab0        0x0 0x4 /usr/local/popcorn/x86_64//lib/libstack-transform.a(properties.o)
 .bss           0x0000000000433ab0        0x0 0x4 /usr/local/popcorn/x86_64//lib/libstack-transform.a(regs.o)
 .bss           0x0000000000433ab0        0x0 0x4 /usr/local/popcorn/x86_64//lib/libstack-transform.a(properties.o)
 .bss           0x0000000000433ab0        0x0 0x4 /usr/local/popcorn/x86_64//lib/libstack-transform.a(regs.o)
 .bss           0x0000000000433ab0        0x0 0x4 /usr/local/popcorn/x86_64//lib/libstack-transform.a(data.o)
 .bss           0x0000000000433ab0        0x0 0x1 /usr/local/popcorn/x86_64//lib/libelf.a(begin.o)
 .bss           0x0000000000433ab0        0x0 0x1 /usr/local/popcorn/x86_64//lib/libelf.a(end.o)
 .bss           0x0000000000433ab0        0x0 0x1 /usr/local/popcorn/x86_64//lib/libelf.a(getdata.o)
 .bss           0x0000000000433ab0        0x0 0x1 /usr/local/popcorn/x86_64//lib/libelf.a(getident.o)
 .bss           0x0000000000433ab0        0x0 0x1 /usr/local/popcorn/x86_64//lib/libelf.a(nextscn.o)
 .bss           0x0000000000433ab0        0x0 0x1 /usr/local/popcorn/x86_64//lib/libelf.a(strptr.o)
 .bss           0x0000000000433ab0        0x0 0x1 /usr/local/popcorn/x86_64//lib/libelf.a(version.o)
 .bss           0x0000000000433ab0        0x0 0x1 /usr/local/popcorn/x86_64//lib/libelf.a(32.getehdr.o)
 .bss           0x0000000000433ab0        0x0 0x1 /usr/local/popcorn/x86_64//lib/libelf.a(32.xlatetof.o)
 .bss           0x0000000000433ab0        0x0 0x1 /usr/local/popcorn/x86_64//lib/libelf.a(cook.o)
 .bss           0x0000000000433ab0        0x0 0x1 /usr/local/popcorn/x86_64//lib/libelf.a(data.o)
 .bss._elf_fill
                0x0000000000433ab0        0x4 0x4 /usr/local/popcorn/x86_64//lib/libelf.a(data.o)
                0x0000000000433ab0                _elf_fill
 .bss._elf_errno
                0x0000000000433ab4        0x4 0x4 /usr/local/popcorn/x86_64//lib/libelf.a(data.o)
                0x0000000000433ab4                _elf_errno
 .bss._elf_version
                0x0000000000433ab8        0x4 0x4 /usr/local/popcorn/x86_64//lib/libelf.a(data.o)
                0x0000000000433ab8                _elf_version
 .bss           0x0000000000433abc        0x0 0x1 /usr/local/popcorn/x86_64//lib/libelf.a(input.o)
 .bss           0x0000000000433abc        0x0 0x1 /usr/local/popcorn/x86_64//lib/libelf.a(x.elfext.o)
 .bss           0x0000000000433abc        0x0 0x1 /usr/local/popcorn/x86_64//lib/libelf.a(64.xlatetof.o)
 .bss           0x0000000000433abc        0x0 0x1 /usr/local/popcorn/x86_64//lib/libelf.a(gelfshdr.o)
 .bss           0x0000000000433abc        0x0 0x1 /usr/local/popcorn/x86_64//lib/libelf.a(swap64.o)
 .bss           0x0000000000433abc        0x0 0x1 /usr/local/popcorn/x86_64//lib/libelf.a(verdef_32_tof.o)
 .bss           0x0000000000433abc        0x0 0x1 /usr/local/popcorn/x86_64//lib/libelf.a(verdef_32_tom.o)
 .bss           0x0000000000433abc        0x0 0x1 /usr/local/popcorn/x86_64//lib/libelf.a(verdef_64_tof.o)
 .bss           0x0000000000433abc        0x0 0x1 /usr/local/popcorn/x86_64//lib/libelf.a(verdef_64_tom.o)
 .bss           0x0000000000433abc        0x0 0x1 /usr/local/popcorn/x86_64//lib/libelf.a(getscn.o)
 .bss           0x0000000000433abc        0x0 0x1 /usr/local/popcorn/x86_64//lib/libelf.a(newscn.o)
 .bss           0x0000000000433abc        0x0 0x1 /usr/local/popcorn/x86_64//lib/libelf.a(32.fsize.o)
 .bss           0x0000000000433abc        0x0 0x4 /usr/local/popcorn/x86_64//lib/libc.a(getenv.o)
 .bss           0x0000000000433abc        0x0 0x4 /usr/local/popcorn/x86_64//lib/libc.a(assert.o)
 .bss           0x0000000000433abc        0x0 0x4 /usr/local/popcorn/x86_64//lib/libc.a(open.o)
 .bss           0x0000000000433abc        0x0 0x4 /usr/local/popcorn/x86_64//lib/libc.a(calloc.o)
 .bss           0x0000000000433abc        0x0 0x4 /usr/local/popcorn/x86_64//lib/libc.a(getrlimit.o)
 .bss           0x0000000000433abc        0x0 0x4 /usr/local/popcorn/x86_64//lib/libc.a(syscall.o)
 .bss           0x0000000000433abc        0x0 0x4 /usr/local/popcorn/x86_64//lib/libc.a(getline.o)
 .bss           0x0000000000433abc        0x0 0x4 /usr/local/popcorn/x86_64//lib/libc.a(snprintf.o)
 .bss           0x0000000000433abc        0x0 0x4 /usr/local/popcorn/x86_64//lib/libc.a(sscanf.o)
 .bss           0x0000000000433abc        0x0 0x4 /usr/local/popcorn/x86_64//lib/libc.a(stderr.o)
 .bss.src_stdio_stderr_c_buf
                0x0000000000433abc        0x8 0x1 /usr/local/popcorn/x86_64//lib/libc.a(stderr.o)
 .bss           0x0000000000433ac4        0x0 0x4 /usr/local/popcorn/x86_64//lib/libc.a(vsnprintf.o)
 .bss           0x0000000000433ac4        0x0 0x4 /usr/local/popcorn/x86_64//lib/libc.a(vsscanf.o)
 .bss           0x0000000000433ac4        0x0 0x4 /usr/local/popcorn/x86_64//lib/libc.a(strtol.o)
 .bss           0x0000000000433ac4        0x0 0x4 /usr/local/popcorn/x86_64//lib/libc.a(memcmp.o)
 .bss           0x0000000000433ac4        0x0 0x4 /usr/local/popcorn/x86_64//lib/libc.a(memmove.o)
 .bss           0x0000000000433ac4        0x0 0x4 /usr/local/popcorn/x86_64//lib/libc.a(strcmp.o)
 .bss           0x0000000000433ac4        0x0 0x4 /usr/local/popcorn/x86_64//lib/libc.a(strncmp.o)
 .bss           0x0000000000433ac4        0x0 0x4 /usr/local/popcorn/x86_64//lib/libc.a(pthread_attr_get.o)
 .bss           0x0000000000433ac4        0x0 0x4 /usr/local/popcorn/x86_64//lib/libc.a(pthread_getattr_np.o)
 .bss           0x0000000000433ac4        0x0 0x4 /usr/local/popcorn/x86_64//lib/libc.a(pthread_getspecific.o)
 .bss           0x0000000000433ac4        0x0 0x4 /usr/local/popcorn/x86_64//lib/libc.a(pthread_key_create.o)
 .bss.__pthread_tsd_main
                0x0000000000433ad0      0x400 0x10 /usr/local/popcorn/x86_64//lib/libc.a(pthread_key_create.o)
                0x0000000000433ad0                __pthread_tsd_main
 .bss.src_thread_pthread_key_create_c_keys
                0x0000000000433ed0      0x400 0x10 /usr/local/popcorn/x86_64//lib/libc.a(pthread_key_create.o)
 .bss           0x00000000004342d0        0x0 0x4 /usr/local/popcorn/x86_64//lib/libc.a(pthread_migrate.o)
 .bss           0x00000000004342d0        0x0 0x4 /usr/local/popcorn/x86_64//lib/libc.a(pthread_self.o)
 .bss           0x00000000004342d0        0x0 0x4 /usr/local/popcorn/x86_64//lib/libc.a(pthread_setspecific.o)
 .bss           0x00000000004342d0        0x0 0x4 /usr/local/popcorn/x86_64//lib/libc.a(close.o)
 .bss           0x00000000004342d0        0x0 0x4 /usr/local/popcorn/x86_64//lib/libc.a(getpid.o)
 .bss           0x00000000004342d0        0x0 0x4 /usr/local/popcorn/x86_64//lib/libc.a(lseek.o)
 .bss           0x00000000004342d0        0x0 0x4 /usr/local/popcorn/x86_64//lib/libc.a(read.o)
 .bss           0x00000000004342d0        0x0 0x4 /usr/local/popcorn/x86_64//lib/libc.a(abort.o)
 .bss           0x00000000004342d0        0x0 0x4 /usr/local/popcorn/x86_64//lib/libc.a(intscan.o)
 .bss           0x00000000004342d0        0x0 0x4 /usr/local/popcorn/x86_64//lib/libc.a(shgetc.o)
 .bss           0x00000000004342d0        0x0 0x4 /usr/local/popcorn/x86_64//lib/libc.a(raise.o)
 .bss           0x00000000004342d0        0x0 0x4 /usr/local/popcorn/x86_64//lib/libc.a(__string_read.o)
 .bss           0x00000000004342d0        0x0 0x4 /usr/local/popcorn/x86_64//lib/libc.a(__uflow.o)
 .bss           0x00000000004342d0        0x0 0x4 /usr/local/popcorn/x86_64//lib/libc.a(getdelim.o)
 .bss           0x00000000004342d0        0x0 0x4 /usr/local/popcorn/x86_64//lib/libc.a(vfscanf.o)
 .bss           0x00000000004342d0        0x0 0x4 /usr/local/popcorn/x86_64//lib/libc.a(floatscan.o)
 .bss           0x00000000004342d0        0x0 0x4 /usr/local/popcorn/x86_64//lib/libc.a(copysignl.o)
 .bss           0x00000000004342d0        0x0 0x4 /usr/local/popcorn/x86_64//lib/libc.a(fabs.o)
 .bss           0x00000000004342d0        0x0 0x4 /usr/local/popcorn/x86_64//lib/libc.a(fmodl.o)
 .bss           0x00000000004342d0        0x0 0x4 /usr/local/popcorn/x86_64//lib/libc.a(scalbn.o)
 .bss           0x00000000004342d0        0x0 0x4 /usr/local/popcorn/x86_64//lib/libc.a(scalbnl.o)
 .bss           0x00000000004342d0        0x0 0x4 /usr/local/popcorn/x86_64//lib/libc.a(mbrtowc.o)
 .bss.src_multibyte_mbrtowc_c_mbrtowc_internal_state
                0x00000000004342d0        0x4 0x4 /usr/local/popcorn/x86_64//lib/libc.a(mbrtowc.o)
 .bss           0x00000000004342d4        0x0 0x4 /usr/local/popcorn/x86_64//lib/libc.a(mbsinit.o)
 .bss           0x00000000004342d4        0x0 0x4 /usr/local/popcorn/x86_64//lib/libc.a(block.o)
 .bss           0x00000000004342d4        0x0 0x4 /usr/local/popcorn/x86_64//lib/libc.a(__toread.o)
 .bss           0x00000000004342d4        0x0 0x4 /usr/local/popcorn/x86_64//lib/libc.a(internal.o)
 ** common      0x00000000004342d4       0x10

.comment        0x0000000000000000       0x52
 ** merge strings
                0x0000000000000000       0x52

.stack_transform.unwind
                0x0000000000000000       0x90
 .stack_transform.unwind
                0x0000000000000000       0x10 0x4 /tmp/conftest-dcbec8_x86_64.o
 .stack_transform.unwind
                0x0000000000000010       0x1c 0x4 /usr/local/popcorn/x86_64//lib/libc.a(__libc_start_main.o)
 .stack_transform.unwind
                0x000000000000002c       0x64 0x4 /usr/local/popcorn/x86_64//lib/libmigrate.a(migrate.o)

.stack_transform.unwind_arange
                0x0000000000000000       0xc0
 .stack_transform.unwind_arange
                0x0000000000000000       0x20 0x8 /tmp/conftest-dcbec8_x86_64.o
 .stack_transform.unwind_arange
                0x0000000000000020       0x10 0x8 /usr/local/popcorn/x86_64//lib/libc.a(__libc_start_main.o)
 .stack_transform.unwind_arange
                0x0000000000000030       0x90 0x8 /usr/local/popcorn/x86_64//lib/libmigrate.a(migrate.o)

.debug_info     0x0000000000000000    0x159ba
 .debug_info    0x0000000000000000       0xaf 0x1 /usr/local/popcorn/x86_64//lib/crt1.o
 .debug_info    0x00000000000000af      0x31b 0x1 /usr/local/popcorn/x86_64//lib/libc.a(__libc_start_main.o)
 .debug_info    0x00000000000003ca       0x9a 0x1 /usr/local/popcorn/x86_64//lib/libc.a(exit.o)
 .debug_info    0x0000000000000464      0x196 0x1 /usr/local/popcorn/x86_64//lib/libc.a(libc.o)
 .debug_info    0x00000000000005fa      0x2f1 0x1 /usr/local/popcorn/x86_64//lib/libc.a(fclose.o)
 .debug_info    0x00000000000008eb      0x2ce 0x1 /usr/local/popcorn/x86_64//lib/libc.a(ferror.o)
 .debug_info    0x0000000000000bb9      0x334 0x1 /usr/local/popcorn/x86_64//lib/libc.a(fflush.o)
 .debug_info    0x0000000000000eed      0x3be 0x1 /usr/local/popcorn/x86_64//lib/libc.a(fopen.o)
 .debug_info    0x00000000000012ab      0x12b 0x1 /usr/local/popcorn/x86_64//lib/libc.a(fprintf.o)
 .debug_info    0x00000000000013d6     0x10ea 0x1 /usr/local/popcorn/x86_64//lib/libc.a(vfprintf.o)
 .debug_info    0x00000000000024c0       0xf3 0x1 /usr/local/popcorn/x86_64//lib/libc.a(memchr.o)
 .debug_info    0x00000000000025b3       0xb2 0x1 /usr/local/popcorn/x86_64//lib/libc.a(memset.o)
 .debug_info    0x0000000000002665       0x99 0x1 /usr/local/popcorn/x86_64//lib/libc.a(strchr.o)
 .debug_info    0x00000000000026fe       0xcd 0x1 /usr/local/popcorn/x86_64//lib/libc.a(strchrnul.o)
 .debug_info    0x00000000000027cb       0xaa 0x1 /usr/local/popcorn/x86_64//lib/libc.a(strlen.o)
 .debug_info    0x0000000000002875      0x124 0x1 /usr/local/popcorn/x86_64//lib/libc.a(__lock.o)
 .debug_info    0x0000000000002999      0x12a 0x1 /usr/local/popcorn/x86_64//lib/libc.a(__syscall_cp.o)
 .debug_info    0x0000000000002ac3      0x11a 0x1 /usr/local/popcorn/x86_64//lib/libc.a(__wait.o)
 .debug_info    0x0000000000002bdd       0x45 0x1 /usr/local/popcorn/x86_64//lib/libc.a(__environ.o)
 .debug_info    0x0000000000002c22      0x7b5 0x1 /usr/local/popcorn/x86_64//lib/libc.a(__init_tls.o)
 .debug_info    0x00000000000033d7      0x423 0x1 /usr/local/popcorn/x86_64//lib/libc.a(__errno_location.o)
 .debug_info    0x00000000000037fa      0x514 0x1 /usr/local/popcorn/x86_64//lib/libc.a(strerror.o)
 .debug_info    0x0000000000003d0e       0xc7 0x1 /usr/local/popcorn/x86_64//lib/libc.a(_Exit.o)
 .debug_info    0x0000000000003dd5       0xb5 0x1 /usr/local/popcorn/x86_64//lib/libc.a(syscall.o)
 .debug_info    0x0000000000003e8a       0x62 0x1 /usr/local/popcorn/x86_64//lib/libc.a(syscall_ret.o)
 .debug_info    0x0000000000003eec      0x4e5 0x1 /usr/local/popcorn/x86_64//lib/libc.a(__lctrans.o)
 .debug_info    0x00000000000043d1      0xf13 0x1 /usr/local/popcorn/x86_64//lib/libc.a(malloc.o)
 .debug_info    0x00000000000052e4       0xed 0x1 /usr/local/popcorn/x86_64//lib/libc.a(__fpclassifyl.o)
 .debug_info    0x00000000000053d1       0xd3 0x1 /usr/local/popcorn/x86_64//lib/libc.a(__signbitl.o)
 .debug_info    0x00000000000054a4       0xf2 0x1 /usr/local/popcorn/x86_64//lib/libc.a(frexpl.o)
 .debug_info    0x0000000000005596       0xf4 0x1 /usr/local/popcorn/x86_64//lib/libc.a(madvise.o)
 .debug_info    0x000000000000568a      0x189 0x1 /usr/local/popcorn/x86_64//lib/libc.a(mmap.o)
 .debug_info    0x0000000000005813      0x1c0 0x1 /usr/local/popcorn/x86_64//lib/libc.a(mremap.o)
 .debug_info    0x00000000000059d3       0xf3 0x1 /usr/local/popcorn/x86_64//lib/libc.a(munmap.o)
 .debug_info    0x0000000000005ac6       0x7f 0x1 /usr/local/popcorn/x86_64//lib/libc.a(wctomb.o)
 .debug_info    0x0000000000005b45       0x9e 0x1 /usr/local/popcorn/x86_64//lib/libc.a(sched_yield.o)
 .debug_info    0x0000000000005be3      0x48f 0x1 /usr/local/popcorn/x86_64//lib/libc.a(__fdopen.o)
 .debug_info    0x0000000000006072       0x7b 0x1 /usr/local/popcorn/x86_64//lib/libc.a(__fmodeflags.o)
 .debug_info    0x00000000000060ed      0x73a 0x1 /usr/local/popcorn/x86_64//lib/libc.a(__lockfile.o)
 .debug_info    0x0000000000006827      0x32e 0x1 /usr/local/popcorn/x86_64//lib/libc.a(__stdio_close.o)
 .debug_info    0x0000000000006b55      0x3bc 0x1 /usr/local/popcorn/x86_64//lib/libc.a(__stdio_read.o)
 .debug_info    0x0000000000006f11      0x340 0x1 /usr/local/popcorn/x86_64//lib/libc.a(__stdio_seek.o)
 .debug_info    0x0000000000007251      0x3ee 0x1 /usr/local/popcorn/x86_64//lib/libc.a(__stdio_write.o)
 .debug_info    0x000000000000763f      0x372 0x1 /usr/local/popcorn/x86_64//lib/libc.a(fwrite.o)
 .debug_info    0x00000000000079b1       0xd2 0x1 /usr/local/popcorn/x86_64//lib/libc.a(memcpy.o)
 .debug_info    0x0000000000007a83       0xc7 0x1 /usr/local/popcorn/x86_64//lib/libc.a(__set_thread_area.o)
 .debug_info    0x0000000000007b4a      0x105 0x1 /usr/local/popcorn/x86_64//lib/libc.a(pthread_cleanup_push.o)
 .debug_info    0x0000000000007c4f       0xba 0x1 /usr/local/popcorn/x86_64//lib/libc.a(__brk.o)
 .debug_info    0x0000000000007d09       0xe4 0x1 /usr/local/popcorn/x86_64//lib/libc.a(wcrtomb.o)
 .debug_info    0x0000000000007ded      0x2c7 0x1 /usr/local/popcorn/x86_64//lib/libc.a(__towrite.o)
 .debug_info    0x00000000000080b4      0x2eb 0x1 /usr/local/popcorn/x86_64//lib/libc.a(__stdio_exit.o)
 .debug_info    0x000000000000839f      0x6aa 0x1 /usr/local/popcorn/x86_64//lib/libmigrate.a(migrate.o)
 .debug_info    0x0000000000008a49      0xee9 0x1 /usr/local/popcorn/x86_64//lib/libstack-transform.a(userspace.o)
 .debug_info    0x0000000000009932      0x8c0 0x1 /usr/local/popcorn/x86_64//lib/libstack-transform.a(init.o)
 .debug_info    0x000000000000a1f2      0xfff 0x1 /usr/local/popcorn/x86_64//lib/libstack-transform.a(rewrite.o)
 .debug_info    0x000000000000b1f1      0xd89 0x1 /usr/local/popcorn/x86_64//lib/libstack-transform.a(unwind.o)
 .debug_info    0x000000000000bf7a      0xc76 0x1 /usr/local/popcorn/x86_64//lib/libstack-transform.a(util.o)
 .debug_info    0x000000000000cbf0      0x205 0x1 /usr/local/popcorn/x86_64//lib/libstack-transform.a(properties.o)
 .debug_info    0x000000000000cdf5      0x69d 0x1 /usr/local/popcorn/x86_64//lib/libstack-transform.a(regs.o)
 .debug_info    0x000000000000d492      0x21d 0x1 /usr/local/popcorn/x86_64//lib/libstack-transform.a(properties.o)
 .debug_info    0x000000000000d6af      0x7cd 0x1 /usr/local/popcorn/x86_64//lib/libstack-transform.a(regs.o)
 .debug_info    0x000000000000de7c      0xf44 0x1 /usr/local/popcorn/x86_64//lib/libstack-transform.a(data.o)
 .debug_info    0x000000000000edc0       0x9d 0x1 /usr/local/popcorn/x86_64//lib/libc.a(getenv.o)
 .debug_info    0x000000000000ee5d       0x95 0x1 /usr/local/popcorn/x86_64//lib/libc.a(assert.o)
 .debug_info    0x000000000000eef2      0x1b3 0x1 /usr/local/popcorn/x86_64//lib/libc.a(open.o)
 .debug_info    0x000000000000f0a5       0x99 0x1 /usr/local/popcorn/x86_64//lib/libc.a(calloc.o)
 .debug_info    0x000000000000f13e      0x1c7 0x1 /usr/local/popcorn/x86_64//lib/libc.a(getrlimit.o)
 .debug_info    0x000000000000f305      0x243 0x1 /usr/local/popcorn/x86_64//lib/libc.a(syscall.o)
 .debug_info    0x000000000000f548       0xcd 0x1 /usr/local/popcorn/x86_64//lib/libc.a(getline.o)
 .debug_info    0x000000000000f615      0x139 0x1 /usr/local/popcorn/x86_64//lib/libc.a(snprintf.o)
 .debug_info    0x000000000000f74e      0x110 0x1 /usr/local/popcorn/x86_64//lib/libc.a(sscanf.o)
 .debug_info    0x000000000000f85e      0x2f0 0x1 /usr/local/popcorn/x86_64//lib/libc.a(stderr.o)
 .debug_info    0x000000000000fb4e      0x3b3 0x1 /usr/local/popcorn/x86_64//lib/libc.a(vsnprintf.o)
 .debug_info    0x000000000000ff01      0x36e 0x1 /usr/local/popcorn/x86_64//lib/libc.a(vsscanf.o)
 .debug_info    0x000000000001026f      0x56d 0x1 /usr/local/popcorn/x86_64//lib/libc.a(strtol.o)
 .debug_info    0x00000000000107dc       0xc0 0x1 /usr/local/popcorn/x86_64//lib/libc.a(memcmp.o)
 .debug_info    0x000000000001089c       0xb4 0x1 /usr/local/popcorn/x86_64//lib/libc.a(memmove.o)
 .debug_info    0x0000000000010950       0x87 0x1 /usr/local/popcorn/x86_64//lib/libc.a(strcmp.o)
 .debug_info    0x00000000000109d7       0xcc 0x1 /usr/local/popcorn/x86_64//lib/libc.a(strncmp.o)
 .debug_info    0x0000000000010aa3      0x599 0x1 /usr/local/popcorn/x86_64//lib/libc.a(pthread_attr_get.o)
 .debug_info    0x000000000001103c      0x444 0x1 /usr/local/popcorn/x86_64//lib/libc.a(pthread_getattr_np.o)
 .debug_info    0x0000000000011480      0x44f 0x1 /usr/local/popcorn/x86_64//lib/libc.a(pthread_getspecific.o)
 .debug_info    0x00000000000118cf      0x607 0x1 /usr/local/popcorn/x86_64//lib/libc.a(pthread_key_create.o)
 .debug_info    0x0000000000011ed6      0x42d 0x1 /usr/local/popcorn/x86_64//lib/libc.a(pthread_migrate.o)
 .debug_info    0x0000000000012303      0x428 0x1 /usr/local/popcorn/x86_64//lib/libc.a(pthread_self.o)
 .debug_info    0x000000000001272b      0x462 0x1 /usr/local/popcorn/x86_64//lib/libc.a(pthread_setspecific.o)
 .debug_info    0x0000000000012b8d       0x9a 0x1 /usr/local/popcorn/x86_64//lib/libc.a(close.o)
 .debug_info    0x0000000000012c27       0xaa 0x1 /usr/local/popcorn/x86_64//lib/libc.a(getpid.o)
 .debug_info    0x0000000000012cd1       0xf5 0x1 /usr/local/popcorn/x86_64//lib/libc.a(lseek.o)
 .debug_info    0x0000000000012dc6       0x9e 0x1 /usr/local/popcorn/x86_64//lib/libc.a(read.o)
 .debug_info    0x0000000000012e64       0x40 0x1 /usr/local/popcorn/x86_64//lib/libc.a(abort.o)
 .debug_info    0x0000000000012ea4      0x388 0x1 /usr/local/popcorn/x86_64//lib/libc.a(intscan.o)
 .debug_info    0x000000000001322c      0x2f3 0x1 /usr/local/popcorn/x86_64//lib/libc.a(shgetc.o)
 .debug_info    0x000000000001351f      0x168 0x1 /usr/local/popcorn/x86_64//lib/libc.a(raise.o)
 .debug_info    0x0000000000013687      0x2ff 0x1 /usr/local/popcorn/x86_64//lib/libc.a(__string_read.o)
 .debug_info    0x0000000000013986      0x2c3 0x1 /usr/local/popcorn/x86_64//lib/libc.a(__uflow.o)
 .debug_info    0x0000000000013c49      0x35f 0x1 /usr/local/popcorn/x86_64//lib/libc.a(getdelim.o)
 .debug_info    0x0000000000013fa8      0x683 0x1 /usr/local/popcorn/x86_64//lib/libc.a(vfscanf.o)
 .debug_info    0x000000000001462b      0x891 0x1 /usr/local/popcorn/x86_64//lib/libc.a(floatscan.o)
 .debug_info    0x0000000000014ebc       0xea 0x1 /usr/local/popcorn/x86_64//lib/libc.a(copysignl.o)
 .debug_info    0x0000000000014fa6       0xae 0x1 /usr/local/popcorn/x86_64//lib/libc.a(fabs.o)
 .debug_info    0x0000000000015054       0xb0 0x1 /usr/local/popcorn/x86_64//lib/libc.a(fmodl.o)
 .debug_info    0x0000000000015104       0xc7 0x1 /usr/local/popcorn/x86_64//lib/libc.a(scalbn.o)
 .debug_info    0x00000000000151cb       0xe6 0x1 /usr/local/popcorn/x86_64//lib/libc.a(scalbnl.o)
 .debug_info    0x00000000000152b1      0x17a 0x1 /usr/local/popcorn/x86_64//lib/libc.a(mbrtowc.o)
 .debug_info    0x000000000001542b       0x9f 0x1 /usr/local/popcorn/x86_64//lib/libc.a(mbsinit.o)
 .debug_info    0x00000000000154ca      0x1c9 0x1 /usr/local/popcorn/x86_64//lib/libc.a(block.o)
 .debug_info    0x0000000000015693      0x2c9 0x1 /usr/local/popcorn/x86_64//lib/libc.a(__toread.o)
 .debug_info    0x000000000001595c       0x5e 0x1 /usr/local/popcorn/x86_64//lib/libc.a(internal.o)

.debug_abbrev   0x0000000000000000     0x6446
 .debug_abbrev  0x0000000000000000       0x28 0x1 /usr/local/popcorn/x86_64//lib/crt1.o
 .debug_abbrev  0x0000000000000028      0x1b2 0x1 /usr/local/popcorn/x86_64//lib/libc.a(__libc_start_main.o)
 .debug_abbrev  0x00000000000001da       0x90 0x1 /usr/local/popcorn/x86_64//lib/libc.a(exit.o)
 .debug_abbrev  0x000000000000026a       0x9e 0x1 /usr/local/popcorn/x86_64//lib/libc.a(libc.o)
 .debug_abbrev  0x0000000000000308       0xf2 0x1 /usr/local/popcorn/x86_64//lib/libc.a(fclose.o)
 .debug_abbrev  0x00000000000003fa       0xca 0x1 /usr/local/popcorn/x86_64//lib/libc.a(ferror.o)
 .debug_abbrev  0x00000000000004c4      0x104 0x1 /usr/local/popcorn/x86_64//lib/libc.a(fflush.o)
 .debug_abbrev  0x00000000000005c8      0x113 0x1 /usr/local/popcorn/x86_64//lib/libc.a(fopen.o)
 .debug_abbrev  0x00000000000006db       0xd6 0x1 /usr/local/popcorn/x86_64//lib/libc.a(fprintf.o)
 .debug_abbrev  0x00000000000007b1      0x2d0 0x1 /usr/local/popcorn/x86_64//lib/libc.a(vfprintf.o)
 .debug_abbrev  0x0000000000000a81       0x8b 0x1 /usr/local/popcorn/x86_64//lib/libc.a(memchr.o)
 .debug_abbrev  0x0000000000000b0c       0x28 0x1 /usr/local/popcorn/x86_64//lib/libc.a(memset.o)
 .debug_abbrev  0x0000000000000b34       0x7a 0x1 /usr/local/popcorn/x86_64//lib/libc.a(strchr.o)
 .debug_abbrev  0x0000000000000bae       0x8c 0x1 /usr/local/popcorn/x86_64//lib/libc.a(strchrnul.o)
 .debug_abbrev  0x0000000000000c3a       0x8a 0x1 /usr/local/popcorn/x86_64//lib/libc.a(strlen.o)
 .debug_abbrev  0x0000000000000cc4       0xdf 0x1 /usr/local/popcorn/x86_64//lib/libc.a(__lock.o)
 .debug_abbrev  0x0000000000000da3       0x85 0x1 /usr/local/popcorn/x86_64//lib/libc.a(__syscall_cp.o)
 .debug_abbrev  0x0000000000000e28       0xbf 0x1 /usr/local/popcorn/x86_64//lib/libc.a(__wait.o)
 .debug_abbrev  0x0000000000000ee7       0x36 0x1 /usr/local/popcorn/x86_64//lib/libc.a(__environ.o)
 .debug_abbrev  0x0000000000000f1d      0x1f4 0x1 /usr/local/popcorn/x86_64//lib/libc.a(__init_tls.o)
 .debug_abbrev  0x0000000000001111      0x138 0x1 /usr/local/popcorn/x86_64//lib/libc.a(__errno_location.o)
 .debug_abbrev  0x0000000000001249      0x188 0x1 /usr/local/popcorn/x86_64//lib/libc.a(strerror.o)
 .debug_abbrev  0x00000000000013d1       0x92 0x1 /usr/local/popcorn/x86_64//lib/libc.a(_Exit.o)
 .debug_abbrev  0x0000000000001463       0x28 0x1 /usr/local/popcorn/x86_64//lib/libc.a(syscall.o)
 .debug_abbrev  0x000000000000148b       0x4e 0x1 /usr/local/popcorn/x86_64//lib/libc.a(syscall_ret.o)
 .debug_abbrev  0x00000000000014d9      0x16d 0x1 /usr/local/popcorn/x86_64//lib/libc.a(__lctrans.o)
 .debug_abbrev  0x0000000000001646      0x278 0x1 /usr/local/popcorn/x86_64//lib/libc.a(malloc.o)
 .debug_abbrev  0x00000000000018be       0xad 0x1 /usr/local/popcorn/x86_64//lib/libc.a(__fpclassifyl.o)
 .debug_abbrev  0x000000000000196b       0x91 0x1 /usr/local/popcorn/x86_64//lib/libc.a(__signbitl.o)
 .debug_abbrev  0x00000000000019fc       0xa5 0x1 /usr/local/popcorn/x86_64//lib/libc.a(frexpl.o)
 .debug_abbrev  0x0000000000001aa1       0xbe 0x1 /usr/local/popcorn/x86_64//lib/libc.a(madvise.o)
 .debug_abbrev  0x0000000000001b5f       0xc8 0x1 /usr/local/popcorn/x86_64//lib/libc.a(mmap.o)
 .debug_abbrev  0x0000000000001c27      0x109 0x1 /usr/local/popcorn/x86_64//lib/libc.a(mremap.o)
 .debug_abbrev  0x0000000000001d30       0xc8 0x1 /usr/local/popcorn/x86_64//lib/libc.a(munmap.o)
 .debug_abbrev  0x0000000000001df8       0x62 0x1 /usr/local/popcorn/x86_64//lib/libc.a(wctomb.o)
 .debug_abbrev  0x0000000000001e5a       0x8e 0x1 /usr/local/popcorn/x86_64//lib/libc.a(sched_yield.o)
 .debug_abbrev  0x0000000000001ee8      0x118 0x1 /usr/local/popcorn/x86_64//lib/libc.a(__fdopen.o)
 .debug_abbrev  0x0000000000002000       0x6b 0x1 /usr/local/popcorn/x86_64//lib/libc.a(__fmodeflags.o)
 .debug_abbrev  0x000000000000206b      0x1e2 0x1 /usr/local/popcorn/x86_64//lib/libc.a(__lockfile.o)
 .debug_abbrev  0x000000000000224d      0x118 0x1 /usr/local/popcorn/x86_64//lib/libc.a(__stdio_close.o)
 .debug_abbrev  0x0000000000002365      0x13b 0x1 /usr/local/popcorn/x86_64//lib/libc.a(__stdio_read.o)
 .debug_abbrev  0x00000000000024a0      0x10c 0x1 /usr/local/popcorn/x86_64//lib/libc.a(__stdio_seek.o)
 .debug_abbrev  0x00000000000025ac      0x13b 0x1 /usr/local/popcorn/x86_64//lib/libc.a(__stdio_write.o)
 .debug_abbrev  0x00000000000026e7       0xe5 0x1 /usr/local/popcorn/x86_64//lib/libc.a(fwrite.o)
 .debug_abbrev  0x00000000000027cc       0x28 0x1 /usr/local/popcorn/x86_64//lib/libc.a(memcpy.o)
 .debug_abbrev  0x00000000000027f4       0x28 0x1 /usr/local/popcorn/x86_64//lib/libc.a(__set_thread_area.o)
 .debug_abbrev  0x000000000000281c       0xaa 0x1 /usr/local/popcorn/x86_64//lib/libc.a(pthread_cleanup_push.o)
 .debug_abbrev  0x00000000000028c6       0xaa 0x1 /usr/local/popcorn/x86_64//lib/libc.a(__brk.o)
 .debug_abbrev  0x0000000000002970       0xa1 0x1 /usr/local/popcorn/x86_64//lib/libc.a(wcrtomb.o)
 .debug_abbrev  0x0000000000002a11       0xc7 0x1 /usr/local/popcorn/x86_64//lib/libc.a(__towrite.o)
 .debug_abbrev  0x0000000000002ad8       0xe1 0x1 /usr/local/popcorn/x86_64//lib/libc.a(__stdio_exit.o)
 .debug_abbrev  0x0000000000002bb9      0x1d8 0x1 /usr/local/popcorn/x86_64//lib/libmigrate.a(migrate.o)
 .debug_abbrev  0x0000000000002d91      0x2b1 0x1 /usr/local/popcorn/x86_64//lib/libstack-transform.a(userspace.o)
 .debug_abbrev  0x0000000000003042      0x172 0x1 /usr/local/popcorn/x86_64//lib/libstack-transform.a(init.o)
 .debug_abbrev  0x00000000000031b4      0x257 0x1 /usr/local/popcorn/x86_64//lib/libstack-transform.a(rewrite.o)
 .debug_abbrev  0x000000000000340b      0x1fc 0x1 /usr/local/popcorn/x86_64//lib/libstack-transform.a(unwind.o)
 .debug_abbrev  0x0000000000003607      0x179 0x1 /usr/local/popcorn/x86_64//lib/libstack-transform.a(util.o)
 .debug_abbrev  0x0000000000003780       0xd3 0x1 /usr/local/popcorn/x86_64//lib/libstack-transform.a(properties.o)
 .debug_abbrev  0x0000000000003853      0x12a 0x1 /usr/local/popcorn/x86_64//lib/libstack-transform.a(regs.o)
 .debug_abbrev  0x000000000000397d       0xf1 0x1 /usr/local/popcorn/x86_64//lib/libstack-transform.a(properties.o)
 .debug_abbrev  0x0000000000003a6e      0x12a 0x1 /usr/local/popcorn/x86_64//lib/libstack-transform.a(regs.o)
 .debug_abbrev  0x0000000000003b98      0x249 0x1 /usr/local/popcorn/x86_64//lib/libstack-transform.a(data.o)
 .debug_abbrev  0x0000000000003de1       0x85 0x1 /usr/local/popcorn/x86_64//lib/libc.a(getenv.o)
 .debug_abbrev  0x0000000000003e66       0x5a 0x1 /usr/local/popcorn/x86_64//lib/libc.a(assert.o)
 .debug_abbrev  0x0000000000003ec0      0x12f 0x1 /usr/local/popcorn/x86_64//lib/libc.a(open.o)
 .debug_abbrev  0x0000000000003fef       0x76 0x1 /usr/local/popcorn/x86_64//lib/libc.a(calloc.o)
 .debug_abbrev  0x0000000000004065      0x106 0x1 /usr/local/popcorn/x86_64//lib/libc.a(getrlimit.o)
 .debug_abbrev  0x000000000000416b      0x11b 0x1 /usr/local/popcorn/x86_64//lib/libc.a(syscall.o)
 .debug_abbrev  0x0000000000004286       0x8e 0x1 /usr/local/popcorn/x86_64//lib/libc.a(getline.o)
 .debug_abbrev  0x0000000000004314       0xc0 0x1 /usr/local/popcorn/x86_64//lib/libc.a(snprintf.o)
 .debug_abbrev  0x00000000000043d4       0xc0 0x1 /usr/local/popcorn/x86_64//lib/libc.a(sscanf.o)
 .debug_abbrev  0x0000000000004494       0xb9 0x1 /usr/local/popcorn/x86_64//lib/libc.a(stderr.o)
 .debug_abbrev  0x000000000000454d      0x10b 0x1 /usr/local/popcorn/x86_64//lib/libc.a(vsnprintf.o)
 .debug_abbrev  0x0000000000004658      0x10b 0x1 /usr/local/popcorn/x86_64//lib/libc.a(vsscanf.o)
 .debug_abbrev  0x0000000000004763      0x142 0x1 /usr/local/popcorn/x86_64//lib/libc.a(strtol.o)
 .debug_abbrev  0x00000000000048a5       0x7d 0x1 /usr/local/popcorn/x86_64//lib/libc.a(memcmp.o)
 .debug_abbrev  0x0000000000004922       0x28 0x1 /usr/local/popcorn/x86_64//lib/libc.a(memmove.o)
 .debug_abbrev  0x000000000000494a       0x5c 0x1 /usr/local/popcorn/x86_64//lib/libc.a(strcmp.o)
 .debug_abbrev  0x00000000000049a6       0x7d 0x1 /usr/local/popcorn/x86_64//lib/libc.a(strncmp.o)
 .debug_abbrev  0x0000000000004a23       0xfd 0x1 /usr/local/popcorn/x86_64//lib/libc.a(pthread_attr_get.o)
 .debug_abbrev  0x0000000000004b20      0x128 0x1 /usr/local/popcorn/x86_64//lib/libc.a(pthread_getattr_np.o)
 .debug_abbrev  0x0000000000004c48      0x154 0x1 /usr/local/popcorn/x86_64//lib/libc.a(pthread_getspecific.o)
 .debug_abbrev  0x0000000000004d9c      0x1f7 0x1 /usr/local/popcorn/x86_64//lib/libc.a(pthread_key_create.o)
 .debug_abbrev  0x0000000000004f93      0x145 0x1 /usr/local/popcorn/x86_64//lib/libc.a(pthread_migrate.o)
 .debug_abbrev  0x00000000000050d8      0x134 0x1 /usr/local/popcorn/x86_64//lib/libc.a(pthread_self.o)
 .debug_abbrev  0x000000000000520c      0x15b 0x1 /usr/local/popcorn/x86_64//lib/libc.a(pthread_setspecific.o)
 .debug_abbrev  0x0000000000005367       0x78 0x1 /usr/local/popcorn/x86_64//lib/libc.a(close.o)
 .debug_abbrev  0x00000000000053df       0x9b 0x1 /usr/local/popcorn/x86_64//lib/libc.a(getpid.o)
 .debug_abbrev  0x000000000000547a       0xb9 0x1 /usr/local/popcorn/x86_64//lib/libc.a(lseek.o)
 .debug_abbrev  0x0000000000005533       0x60 0x1 /usr/local/popcorn/x86_64//lib/libc.a(read.o)
 .debug_abbrev  0x0000000000005593       0x32 0x1 /usr/local/popcorn/x86_64//lib/libc.a(abort.o)
 .debug_abbrev  0x00000000000055c5      0x11c 0x1 /usr/local/popcorn/x86_64//lib/libc.a(intscan.o)
 .debug_abbrev  0x00000000000056e1       0xe7 0x1 /usr/local/popcorn/x86_64//lib/libc.a(shgetc.o)
 .debug_abbrev  0x00000000000057c8       0xf0 0x1 /usr/local/popcorn/x86_64//lib/libc.a(raise.o)
 .debug_abbrev  0x00000000000058b8       0xbd 0x1 /usr/local/popcorn/x86_64//lib/libc.a(__string_read.o)
 .debug_abbrev  0x0000000000005975       0xbd 0x1 /usr/local/popcorn/x86_64//lib/libc.a(__uflow.o)
 .debug_abbrev  0x0000000000005a32       0xc4 0x1 /usr/local/popcorn/x86_64//lib/libc.a(getdelim.o)
 .debug_abbrev  0x0000000000005af6      0x1db 0x1 /usr/local/popcorn/x86_64//lib/libc.a(vfscanf.o)
 .debug_abbrev  0x0000000000005cd1      0x200 0x1 /usr/local/popcorn/x86_64//lib/libc.a(floatscan.o)
 .debug_abbrev  0x0000000000005ed1       0x91 0x1 /usr/local/popcorn/x86_64//lib/libc.a(copysignl.o)
 .debug_abbrev  0x0000000000005f62       0x28 0x1 /usr/local/popcorn/x86_64//lib/libc.a(fabs.o)
 .debug_abbrev  0x0000000000005f8a       0x28 0x1 /usr/local/popcorn/x86_64//lib/libc.a(fmodl.o)
 .debug_abbrev  0x0000000000005fb2       0x93 0x1 /usr/local/popcorn/x86_64//lib/libc.a(scalbn.o)
 .debug_abbrev  0x0000000000006045       0xa0 0x1 /usr/local/popcorn/x86_64//lib/libc.a(scalbnl.o)
 .debug_abbrev  0x00000000000060e5       0xdd 0x1 /usr/local/popcorn/x86_64//lib/libc.a(mbrtowc.o)
 .debug_abbrev  0x00000000000061c2       0x85 0x1 /usr/local/popcorn/x86_64//lib/libc.a(mbsinit.o)
 .debug_abbrev  0x0000000000006247       0xda 0x1 /usr/local/popcorn/x86_64//lib/libc.a(block.o)
 .debug_abbrev  0x0000000000006321       0xc7 0x1 /usr/local/popcorn/x86_64//lib/libc.a(__toread.o)
 .debug_abbrev  0x00000000000063e8       0x5e 0x1 /usr/local/popcorn/x86_64//lib/libc.a(internal.o)

.debug_aranges  0x0000000000000000      0x180
 .debug_aranges
                0x0000000000000000       0x30 0x1 /usr/local/popcorn/x86_64//lib/crt1.o
 .debug_aranges
                0x0000000000000030       0x30 0x1 /usr/local/popcorn/x86_64//lib/libc.a(memset.o)
 .debug_aranges
                0x0000000000000060       0x30 0x1 /usr/local/popcorn/x86_64//lib/libc.a(syscall.o)
 .debug_aranges
                0x0000000000000090       0x30 0x1 /usr/local/popcorn/x86_64//lib/libc.a(memcpy.o)
 .debug_aranges
                0x00000000000000c0       0x30 0x1 /usr/local/popcorn/x86_64//lib/libc.a(__set_thread_area.o)
 .debug_aranges
                0x00000000000000f0       0x30 0x1 /usr/local/popcorn/x86_64//lib/libc.a(memmove.o)
 .debug_aranges
                0x0000000000000120       0x30 0x1 /usr/local/popcorn/x86_64//lib/libc.a(fabs.o)
 .debug_aranges
                0x0000000000000150       0x30 0x1 /usr/local/popcorn/x86_64//lib/libc.a(fmodl.o)

.debug_line     0x0000000000000000     0xa3d6
 .debug_line    0x0000000000000000       0x41 0x1 /usr/local/popcorn/x86_64//lib/crt1.o
 .debug_line    0x0000000000000041      0x1d0 0x1 /usr/local/popcorn/x86_64//lib/libc.a(__libc_start_main.o)
 .debug_line    0x0000000000000211       0x9a 0x1 /usr/local/popcorn/x86_64//lib/libc.a(exit.o)
 .debug_line    0x00000000000002ab       0x6e 0x1 /usr/local/popcorn/x86_64//lib/libc.a(libc.o)
 .debug_line    0x0000000000000319       0xf2 0x1 /usr/local/popcorn/x86_64//lib/libc.a(fclose.o)
 .debug_line    0x000000000000040b       0xb2 0x1 /usr/local/popcorn/x86_64//lib/libc.a(ferror.o)
 .debug_line    0x00000000000004bd      0x13a 0x1 /usr/local/popcorn/x86_64//lib/libc.a(fflush.o)
 .debug_line    0x00000000000005f7       0xe2 0x1 /usr/local/popcorn/x86_64//lib/libc.a(fopen.o)
 .debug_line    0x00000000000006d9       0x74 0x1 /usr/local/popcorn/x86_64//lib/libc.a(fprintf.o)
 .debug_line    0x000000000000074d     0x1220 0x1 /usr/local/popcorn/x86_64//lib/libc.a(vfprintf.o)
 .debug_line    0x000000000000196d       0xfb 0x1 /usr/local/popcorn/x86_64//lib/libc.a(memchr.o)
 .debug_line    0x0000000000001a68       0x72 0x1 /usr/local/popcorn/x86_64//lib/libc.a(memset.o)
 .debug_line    0x0000000000001ada       0x50 0x1 /usr/local/popcorn/x86_64//lib/libc.a(strchr.o)
 .debug_line    0x0000000000001b2a       0xde 0x1 /usr/local/popcorn/x86_64//lib/libc.a(strchrnul.o)
 .debug_line    0x0000000000001c08       0xb0 0x1 /usr/local/popcorn/x86_64//lib/libc.a(strlen.o)
 .debug_line    0x0000000000001cb8       0xe0 0x1 /usr/local/popcorn/x86_64//lib/libc.a(__lock.o)
 .debug_line    0x0000000000001d98       0x88 0x1 /usr/local/popcorn/x86_64//lib/libc.a(__syscall_cp.o)
 .debug_line    0x0000000000001e20       0xae 0x1 /usr/local/popcorn/x86_64//lib/libc.a(__wait.o)
 .debug_line    0x0000000000001ece       0x34 0x1 /usr/local/popcorn/x86_64//lib/libc.a(__environ.o)
 .debug_line    0x0000000000001f02      0x205 0x1 /usr/local/popcorn/x86_64//lib/libc.a(__init_tls.o)
 .debug_line    0x0000000000002107       0xe0 0x1 /usr/local/popcorn/x86_64//lib/libc.a(__errno_location.o)
 .debug_line    0x00000000000021e7      0x12d 0x1 /usr/local/popcorn/x86_64//lib/libc.a(strerror.o)
 .debug_line    0x0000000000002314       0x71 0x1 /usr/local/popcorn/x86_64//lib/libc.a(_Exit.o)
 .debug_line    0x0000000000002385       0x43 0x1 /usr/local/popcorn/x86_64//lib/libc.a(syscall.o)
 .debug_line    0x00000000000023c8       0x5e 0x1 /usr/local/popcorn/x86_64//lib/libc.a(syscall_ret.o)
 .debug_line    0x0000000000002426      0x11d 0x1 /usr/local/popcorn/x86_64//lib/libc.a(__lctrans.o)
 .debug_line    0x0000000000002543      0xa41 0x1 /usr/local/popcorn/x86_64//lib/libc.a(malloc.o)
 .debug_line    0x0000000000002f84       0xab 0x1 /usr/local/popcorn/x86_64//lib/libc.a(__fpclassifyl.o)
 .debug_line    0x000000000000302f       0x89 0x1 /usr/local/popcorn/x86_64//lib/libc.a(__signbitl.o)
 .debug_line    0x00000000000030b8       0xa7 0x1 /usr/local/popcorn/x86_64//lib/libc.a(frexpl.o)
 .debug_line    0x000000000000315f       0x97 0x1 /usr/local/popcorn/x86_64//lib/libc.a(madvise.o)
 .debug_line    0x00000000000031f6       0xd0 0x1 /usr/local/popcorn/x86_64//lib/libc.a(mmap.o)
 .debug_line    0x00000000000032c6       0xc4 0x1 /usr/local/popcorn/x86_64//lib/libc.a(mremap.o)
 .debug_line    0x000000000000338a       0xa9 0x1 /usr/local/popcorn/x86_64//lib/libc.a(munmap.o)
 .debug_line    0x0000000000003433       0x75 0x1 /usr/local/popcorn/x86_64//lib/libc.a(wctomb.o)
 .debug_line    0x00000000000034a8       0x74 0x1 /usr/local/popcorn/x86_64//lib/libc.a(sched_yield.o)
 .debug_line    0x000000000000351c      0x182 0x1 /usr/local/popcorn/x86_64//lib/libc.a(__fdopen.o)
 .debug_line    0x000000000000369e       0xb7 0x1 /usr/local/popcorn/x86_64//lib/libc.a(__fmodeflags.o)
 .debug_line    0x0000000000003755      0x147 0x1 /usr/local/popcorn/x86_64//lib/libc.a(__lockfile.o)
 .debug_line    0x000000000000389c       0xd0 0x1 /usr/local/popcorn/x86_64//lib/libc.a(__stdio_close.o)
 .debug_line    0x000000000000396c      0x11f 0x1 /usr/local/popcorn/x86_64//lib/libc.a(__stdio_read.o)
 .debug_line    0x0000000000003a8b       0xbc 0x1 /usr/local/popcorn/x86_64//lib/libc.a(__stdio_seek.o)
 .debug_line    0x0000000000003b47      0x14b 0x1 /usr/local/popcorn/x86_64//lib/libc.a(__stdio_write.o)
 .debug_line    0x0000000000003c92      0x11d 0x1 /usr/local/popcorn/x86_64//lib/libc.a(fwrite.o)
 .debug_line    0x0000000000003daf       0x4c 0x1 /usr/local/popcorn/x86_64//lib/libc.a(memcpy.o)
 .debug_line    0x0000000000003dfb       0x4b 0x1 /usr/local/popcorn/x86_64//lib/libc.a(__set_thread_area.o)
 .debug_line    0x0000000000003e46       0xae 0x1 /usr/local/popcorn/x86_64//lib/libc.a(pthread_cleanup_push.o)
 .debug_line    0x0000000000003ef4       0x92 0x1 /usr/local/popcorn/x86_64//lib/libc.a(__brk.o)
 .debug_line    0x0000000000003f86       0xfe 0x1 /usr/local/popcorn/x86_64//lib/libc.a(wcrtomb.o)
 .debug_line    0x0000000000004084       0xd5 0x1 /usr/local/popcorn/x86_64//lib/libc.a(__towrite.o)
 .debug_line    0x0000000000004159       0xf0 0x1 /usr/local/popcorn/x86_64//lib/libc.a(__stdio_exit.o)
 .debug_line    0x0000000000004249      0x317 0x1 /usr/local/popcorn/x86_64//lib/libmigrate.a(migrate.o)
 .debug_line    0x0000000000004560      0x4c8 0x1 /usr/local/popcorn/x86_64//lib/libstack-transform.a(userspace.o)
 .debug_line    0x0000000000004a28      0x2ef 0x1 /usr/local/popcorn/x86_64//lib/libstack-transform.a(init.o)
 .debug_line    0x0000000000004d17      0x8a3 0x1 /usr/local/popcorn/x86_64//lib/libstack-transform.a(rewrite.o)
 .debug_line    0x00000000000055ba      0x4a5 0x1 /usr/local/popcorn/x86_64//lib/libstack-transform.a(unwind.o)
 .debug_line    0x0000000000005a5f      0x3d1 0x1 /usr/local/popcorn/x86_64//lib/libstack-transform.a(util.o)
 .debug_line    0x0000000000005e30       0xe6 0x1 /usr/local/popcorn/x86_64//lib/libstack-transform.a(properties.o)
 .debug_line    0x0000000000005f16      0x2f5 0x1 /usr/local/popcorn/x86_64//lib/libstack-transform.a(regs.o)
 .debug_line    0x000000000000620b       0xef 0x1 /usr/local/popcorn/x86_64//lib/libstack-transform.a(properties.o)
 .debug_line    0x00000000000062fa      0x2cf 0x1 /usr/local/popcorn/x86_64//lib/libstack-transform.a(regs.o)
 .debug_line    0x00000000000065c9      0x62d 0x1 /usr/local/popcorn/x86_64//lib/libstack-transform.a(data.o)
 .debug_line    0x0000000000006bf6       0xad 0x1 /usr/local/popcorn/x86_64//lib/libc.a(getenv.o)
 .debug_line    0x0000000000006ca3       0x4e 0x1 /usr/local/popcorn/x86_64//lib/libc.a(assert.o)
 .debug_line    0x0000000000006cf1       0xcb 0x1 /usr/local/popcorn/x86_64//lib/libc.a(open.o)
 .debug_line    0x0000000000006dbc       0xce 0x1 /usr/local/popcorn/x86_64//lib/libc.a(calloc.o)
 .debug_line    0x0000000000006e8a       0xfd 0x1 /usr/local/popcorn/x86_64//lib/libc.a(getrlimit.o)
 .debug_line    0x0000000000006f87      0x17b 0x1 /usr/local/popcorn/x86_64//lib/libc.a(syscall.o)
 .debug_line    0x0000000000007102       0x6a 0x1 /usr/local/popcorn/x86_64//lib/libc.a(getline.o)
 .debug_line    0x000000000000716c       0x75 0x1 /usr/local/popcorn/x86_64//lib/libc.a(snprintf.o)
 .debug_line    0x00000000000071e1       0x73 0x1 /usr/local/popcorn/x86_64//lib/libc.a(sscanf.o)
 .debug_line    0x0000000000007254       0x73 0x1 /usr/local/popcorn/x86_64//lib/libc.a(stderr.o)
 .debug_line    0x00000000000072c7      0x108 0x1 /usr/local/popcorn/x86_64//lib/libc.a(vsnprintf.o)
 .debug_line    0x00000000000073cf       0xae 0x1 /usr/local/popcorn/x86_64//lib/libc.a(vsscanf.o)
 .debug_line    0x000000000000747d      0x15b 0x1 /usr/local/popcorn/x86_64//lib/libc.a(strtol.o)
 .debug_line    0x00000000000075d8       0x9b 0x1 /usr/local/popcorn/x86_64//lib/libc.a(memcmp.o)
 .debug_line    0x0000000000007673       0x47 0x1 /usr/local/popcorn/x86_64//lib/libc.a(memmove.o)
 .debug_line    0x00000000000076ba       0x73 0x1 /usr/local/popcorn/x86_64//lib/libc.a(strcmp.o)
 .debug_line    0x000000000000772d       0x8f 0x1 /usr/local/popcorn/x86_64//lib/libc.a(strncmp.o)
 .debug_line    0x00000000000077bc      0x27f 0x1 /usr/local/popcorn/x86_64//lib/libc.a(pthread_attr_get.o)
 .debug_line    0x0000000000007a3b      0x12d 0x1 /usr/local/popcorn/x86_64//lib/libc.a(pthread_getattr_np.o)
 .debug_line    0x0000000000007b68       0xea 0x1 /usr/local/popcorn/x86_64//lib/libc.a(pthread_getspecific.o)
 .debug_line    0x0000000000007c52      0x1c4 0x1 /usr/local/popcorn/x86_64//lib/libc.a(pthread_key_create.o)
 .debug_line    0x0000000000007e16       0xe0 0x1 /usr/local/popcorn/x86_64//lib/libc.a(pthread_migrate.o)
 .debug_line    0x0000000000007ef6       0xd7 0x1 /usr/local/popcorn/x86_64//lib/libc.a(pthread_self.o)
 .debug_line    0x0000000000007fcd       0xf1 0x1 /usr/local/popcorn/x86_64//lib/libc.a(pthread_setspecific.o)
 .debug_line    0x00000000000080be       0x6d 0x1 /usr/local/popcorn/x86_64//lib/libc.a(close.o)
 .debug_line    0x000000000000812b       0x8f 0x1 /usr/local/popcorn/x86_64//lib/libc.a(getpid.o)
 .debug_line    0x00000000000081ba       0x97 0x1 /usr/local/popcorn/x86_64//lib/libc.a(lseek.o)
 .debug_line    0x0000000000008251       0x68 0x1 /usr/local/popcorn/x86_64//lib/libc.a(read.o)
 .debug_line    0x00000000000082b9       0x4c 0x1 /usr/local/popcorn/x86_64//lib/libc.a(abort.o)
 .debug_line    0x0000000000008305      0x36e 0x1 /usr/local/popcorn/x86_64//lib/libc.a(intscan.o)
 .debug_line    0x0000000000008673      0x11f 0x1 /usr/local/popcorn/x86_64//lib/libc.a(shgetc.o)
 .debug_line    0x0000000000008792       0xa4 0x1 /usr/local/popcorn/x86_64//lib/libc.a(raise.o)
 .debug_line    0x0000000000008836       0xc0 0x1 /usr/local/popcorn/x86_64//lib/libc.a(__string_read.o)
 .debug_line    0x00000000000088f6       0xa2 0x1 /usr/local/popcorn/x86_64//lib/libc.a(__uflow.o)
 .debug_line    0x0000000000008998      0x18f 0x1 /usr/local/popcorn/x86_64//lib/libc.a(getdelim.o)
 .debug_line    0x0000000000008b27      0x5b8 0x1 /usr/local/popcorn/x86_64//lib/libc.a(vfscanf.o)
 .debug_line    0x00000000000090df      0xd2c 0x1 /usr/local/popcorn/x86_64//lib/libc.a(floatscan.o)
 .debug_line    0x0000000000009e0b       0x95 0x1 /usr/local/popcorn/x86_64//lib/libc.a(copysignl.o)
 .debug_line    0x0000000000009ea0       0x3f 0x1 /usr/local/popcorn/x86_64//lib/libc.a(fabs.o)
 .debug_line    0x0000000000009edf       0x42 0x1 /usr/local/popcorn/x86_64//lib/libc.a(fmodl.o)
 .debug_line    0x0000000000009f21       0xa6 0x1 /usr/local/popcorn/x86_64//lib/libc.a(scalbn.o)
 .debug_line    0x0000000000009fc7       0xbd 0x1 /usr/local/popcorn/x86_64//lib/libc.a(scalbnl.o)
 .debug_line    0x000000000000a084       0xed 0x1 /usr/local/popcorn/x86_64//lib/libc.a(mbrtowc.o)
 .debug_line    0x000000000000a171       0x82 0x1 /usr/local/popcorn/x86_64//lib/libc.a(mbsinit.o)
 .debug_line    0x000000000000a1f3       0xb0 0x1 /usr/local/popcorn/x86_64//lib/libc.a(block.o)
 .debug_line    0x000000000000a2a3       0xd9 0x1 /usr/local/popcorn/x86_64//lib/libc.a(__toread.o)
 .debug_line    0x000000000000a37c       0x5a 0x1 /usr/local/popcorn/x86_64//lib/libc.a(internal.o)

.debug_str      0x0000000000000000     0x334b
 ** merge strings
                0x0000000000000000     0x334b

.debug_loc      0x0000000000000000    0x107ef
 .debug_loc     0x0000000000000000      0x24c 0x1 /usr/local/popcorn/x86_64//lib/libc.a(__libc_start_main.o)
 .debug_loc     0x000000000000024c       0x5d 0x1 /usr/local/popcorn/x86_64//lib/libc.a(exit.o)
 .debug_loc     0x00000000000002a9        0x0 0x1 /usr/local/popcorn/x86_64//lib/libc.a(libc.o)
 .debug_loc     0x00000000000002a9       0x70 0x1 /usr/local/popcorn/x86_64//lib/libc.a(fclose.o)
 .debug_loc     0x0000000000000319       0x5b 0x1 /usr/local/popcorn/x86_64//lib/libc.a(ferror.o)
 .debug_loc     0x0000000000000374       0xde 0x1 /usr/local/popcorn/x86_64//lib/libc.a(fflush.o)
 .debug_loc     0x0000000000000452       0xd9 0x1 /usr/local/popcorn/x86_64//lib/libc.a(fopen.o)
 .debug_loc     0x000000000000052b        0x0 0x1 /usr/local/popcorn/x86_64//lib/libc.a(fprintf.o)
 .debug_loc     0x000000000000052b     0x53e1 0x1 /usr/local/popcorn/x86_64//lib/libc.a(vfprintf.o)
 .debug_loc     0x000000000000590c      0x170 0x1 /usr/local/popcorn/x86_64//lib/libc.a(memchr.o)
 .debug_loc     0x0000000000005a7c       0x5d 0x1 /usr/local/popcorn/x86_64//lib/libc.a(strchr.o)
 .debug_loc     0x0000000000005ad9       0xc8 0x1 /usr/local/popcorn/x86_64//lib/libc.a(strchrnul.o)
 .debug_loc     0x0000000000005ba1       0x6f 0x1 /usr/local/popcorn/x86_64//lib/libc.a(strlen.o)
 .debug_loc     0x0000000000005c10       0x9a 0x1 /usr/local/popcorn/x86_64//lib/libc.a(__lock.o)
 .debug_loc     0x0000000000005caa       0x24 0x1 /usr/local/popcorn/x86_64//lib/libc.a(__syscall_cp.o)
 .debug_loc     0x0000000000005cce      0x19f 0x1 /usr/local/popcorn/x86_64//lib/libc.a(__wait.o)
 .debug_loc     0x0000000000005e6d        0x0 0x1 /usr/local/popcorn/x86_64//lib/libc.a(__environ.o)
 .debug_loc     0x0000000000005e6d      0x209 0x1 /usr/local/popcorn/x86_64//lib/libc.a(__init_tls.o)
 .debug_loc     0x0000000000006076       0x23 0x1 /usr/local/popcorn/x86_64//lib/libc.a(__errno_location.o)
 .debug_loc     0x0000000000006099       0x5d 0x1 /usr/local/popcorn/x86_64//lib/libc.a(strerror.o)
 .debug_loc     0x00000000000060f6       0x25 0x1 /usr/local/popcorn/x86_64//lib/libc.a(_Exit.o)
 .debug_loc     0x000000000000611b       0x36 0x1 /usr/local/popcorn/x86_64//lib/libc.a(syscall_ret.o)
 .debug_loc     0x0000000000006151       0x59 0x1 /usr/local/popcorn/x86_64//lib/libc.a(__lctrans.o)
 .debug_loc     0x00000000000061aa     0x1319 0x1 /usr/local/popcorn/x86_64//lib/libc.a(malloc.o)
 .debug_loc     0x00000000000074c3       0x3a 0x1 /usr/local/popcorn/x86_64//lib/libc.a(__fpclassifyl.o)
 .debug_loc     0x00000000000074fd        0x0 0x1 /usr/local/popcorn/x86_64//lib/libc.a(__signbitl.o)
 .debug_loc     0x00000000000074fd       0xa6 0x1 /usr/local/popcorn/x86_64//lib/libc.a(frexpl.o)
 .debug_loc     0x00000000000075a3       0x25 0x1 /usr/local/popcorn/x86_64//lib/libc.a(madvise.o)
 .debug_loc     0x00000000000075c8      0x263 0x1 /usr/local/popcorn/x86_64//lib/libc.a(mmap.o)
 .debug_loc     0x000000000000782b       0x6b 0x1 /usr/local/popcorn/x86_64//lib/libc.a(mremap.o)
 .debug_loc     0x0000000000007896       0x92 0x1 /usr/local/popcorn/x86_64//lib/libc.a(munmap.o)
 .debug_loc     0x0000000000007928        0x0 0x1 /usr/local/popcorn/x86_64//lib/libc.a(wctomb.o)
 .debug_loc     0x0000000000007928        0x0 0x1 /usr/local/popcorn/x86_64//lib/libc.a(sched_yield.o)
 .debug_loc     0x0000000000007928      0x17a 0x1 /usr/local/popcorn/x86_64//lib/libc.a(__fdopen.o)
 .debug_loc     0x0000000000007aa2       0xaf 0x1 /usr/local/popcorn/x86_64//lib/libc.a(__fmodeflags.o)
 .debug_loc     0x0000000000007b51      0x11c 0x1 /usr/local/popcorn/x86_64//lib/libc.a(__lockfile.o)
 .debug_loc     0x0000000000007c6d       0x80 0x1 /usr/local/popcorn/x86_64//lib/libc.a(__stdio_close.o)
 .debug_loc     0x0000000000007ced      0x148 0x1 /usr/local/popcorn/x86_64//lib/libc.a(__stdio_read.o)
 .debug_loc     0x0000000000007e35       0x48 0x1 /usr/local/popcorn/x86_64//lib/libc.a(__stdio_seek.o)
 .debug_loc     0x0000000000007e7d      0x240 0x1 /usr/local/popcorn/x86_64//lib/libc.a(__stdio_write.o)
 .debug_loc     0x00000000000080bd      0x20c 0x1 /usr/local/popcorn/x86_64//lib/libc.a(fwrite.o)
 .debug_loc     0x00000000000082c9       0x83 0x1 /usr/local/popcorn/x86_64//lib/libc.a(pthread_cleanup_push.o)
 .debug_loc     0x000000000000834c        0x0 0x1 /usr/local/popcorn/x86_64//lib/libc.a(__brk.o)
 .debug_loc     0x000000000000834c       0x4f 0x1 /usr/local/popcorn/x86_64//lib/libc.a(wcrtomb.o)
 .debug_loc     0x000000000000839b        0x0 0x1 /usr/local/popcorn/x86_64//lib/libc.a(__towrite.o)
 .debug_loc     0x000000000000839b       0x36 0x1 /usr/local/popcorn/x86_64//lib/libc.a(__stdio_exit.o)
 .debug_loc     0x00000000000083d1      0x4ab 0x1 /usr/local/popcorn/x86_64//lib/libmigrate.a(migrate.o)
 .debug_loc     0x000000000000887c      0x5ee 0x1 /usr/local/popcorn/x86_64//lib/libstack-transform.a(userspace.o)
 .debug_loc     0x0000000000008e6a       0xb2 0x1 /usr/local/popcorn/x86_64//lib/libstack-transform.a(init.o)
 .debug_loc     0x0000000000008f1c      0xda3 0x1 /usr/local/popcorn/x86_64//lib/libstack-transform.a(rewrite.o)
 .debug_loc     0x0000000000009cbf      0x7b2 0x1 /usr/local/popcorn/x86_64//lib/libstack-transform.a(unwind.o)
 .debug_loc     0x000000000000a471      0x71b 0x1 /usr/local/popcorn/x86_64//lib/libstack-transform.a(util.o)
 .debug_loc     0x000000000000ab8c       0x97 0x1 /usr/local/popcorn/x86_64//lib/libstack-transform.a(properties.o)
 .debug_loc     0x000000000000ac23      0x6b2 0x1 /usr/local/popcorn/x86_64//lib/libstack-transform.a(regs.o)
 .debug_loc     0x000000000000b2d5       0xaa 0x1 /usr/local/popcorn/x86_64//lib/libstack-transform.a(properties.o)
 .debug_loc     0x000000000000b37f      0x4a4 0x1 /usr/local/popcorn/x86_64//lib/libstack-transform.a(regs.o)
 .debug_loc     0x000000000000b823      0xbcf 0x1 /usr/local/popcorn/x86_64//lib/libstack-transform.a(data.o)
 .debug_loc     0x000000000000c3f2       0x59 0x1 /usr/local/popcorn/x86_64//lib/libc.a(getenv.o)
 .debug_loc     0x000000000000c44b       0xdc 0x1 /usr/local/popcorn/x86_64//lib/libc.a(assert.o)
 .debug_loc     0x000000000000c527       0x95 0x1 /usr/local/popcorn/x86_64//lib/libc.a(open.o)
 .debug_loc     0x000000000000c5bc      0x208 0x1 /usr/local/popcorn/x86_64//lib/libc.a(calloc.o)
 .debug_loc     0x000000000000c7c4       0xc6 0x1 /usr/local/popcorn/x86_64//lib/libc.a(getrlimit.o)
 .debug_loc     0x000000000000c88a      0x20d 0x1 /usr/local/popcorn/x86_64//lib/libc.a(syscall.o)
 .debug_loc     0x000000000000ca97       0x49 0x1 /usr/local/popcorn/x86_64//lib/libc.a(getline.o)
 .debug_loc     0x000000000000cae0        0x0 0x1 /usr/local/popcorn/x86_64//lib/libc.a(snprintf.o)
 .debug_loc     0x000000000000cae0        0x0 0x1 /usr/local/popcorn/x86_64//lib/libc.a(sscanf.o)
 .debug_loc     0x000000000000cae0        0x0 0x1 /usr/local/popcorn/x86_64//lib/libc.a(stderr.o)
 .debug_loc     0x000000000000cae0      0x26c 0x1 /usr/local/popcorn/x86_64//lib/libc.a(vsnprintf.o)
 .debug_loc     0x000000000000cd4c       0xec 0x1 /usr/local/popcorn/x86_64//lib/libc.a(vsscanf.o)
 .debug_loc     0x000000000000ce38      0x181 0x1 /usr/local/popcorn/x86_64//lib/libc.a(strtol.o)
 .debug_loc     0x000000000000cfb9       0xd5 0x1 /usr/local/popcorn/x86_64//lib/libc.a(memcmp.o)
 .debug_loc     0x000000000000d08e       0x46 0x1 /usr/local/popcorn/x86_64//lib/libc.a(strcmp.o)
 .debug_loc     0x000000000000d0d4       0xc2 0x1 /usr/local/popcorn/x86_64//lib/libc.a(strncmp.o)
 .debug_loc     0x000000000000d196        0x0 0x1 /usr/local/popcorn/x86_64//lib/libc.a(pthread_attr_get.o)
 .debug_loc     0x000000000000d196       0xde 0x1 /usr/local/popcorn/x86_64//lib/libc.a(pthread_getattr_np.o)
 .debug_loc     0x000000000000d274       0x46 0x1 /usr/local/popcorn/x86_64//lib/libc.a(pthread_getspecific.o)
 .debug_loc     0x000000000000d2ba      0x1d9 0x1 /usr/local/popcorn/x86_64//lib/libc.a(pthread_key_create.o)
 .debug_loc     0x000000000000d493       0x46 0x1 /usr/local/popcorn/x86_64//lib/libc.a(pthread_migrate.o)
 .debug_loc     0x000000000000d4d9        0x0 0x1 /usr/local/popcorn/x86_64//lib/libc.a(pthread_self.o)
 .debug_loc     0x000000000000d4d9       0x46 0x1 /usr/local/popcorn/x86_64//lib/libc.a(pthread_setspecific.o)
 .debug_loc     0x000000000000d51f       0x74 0x1 /usr/local/popcorn/x86_64//lib/libc.a(close.o)
 .debug_loc     0x000000000000d593        0x0 0x1 /usr/local/popcorn/x86_64//lib/libc.a(getpid.o)
 .debug_loc     0x000000000000d593       0x4a 0x1 /usr/local/popcorn/x86_64//lib/libc.a(lseek.o)
 .debug_loc     0x000000000000d5dd       0xb7 0x1 /usr/local/popcorn/x86_64//lib/libc.a(read.o)
 .debug_loc     0x000000000000d694        0x0 0x1 /usr/local/popcorn/x86_64//lib/libc.a(abort.o)
 .debug_loc     0x000000000000d694      0x5d8 0x1 /usr/local/popcorn/x86_64//lib/libc.a(intscan.o)
 .debug_loc     0x000000000000dc6c       0x83 0x1 /usr/local/popcorn/x86_64//lib/libc.a(shgetc.o)
 .debug_loc     0x000000000000dcef       0xa5 0x1 /usr/local/popcorn/x86_64//lib/libc.a(raise.o)
 .debug_loc     0x000000000000dd94      0x144 0x1 /usr/local/popcorn/x86_64//lib/libc.a(__string_read.o)
 .debug_loc     0x000000000000ded8       0x5a 0x1 /usr/local/popcorn/x86_64//lib/libc.a(__uflow.o)
 .debug_loc     0x000000000000df32      0x3f1 0x1 /usr/local/popcorn/x86_64//lib/libc.a(getdelim.o)
 .debug_loc     0x000000000000e323      0xcca 0x1 /usr/local/popcorn/x86_64//lib/libc.a(vfscanf.o)
 .debug_loc     0x000000000000efed     0x1392 0x1 /usr/local/popcorn/x86_64//lib/libc.a(floatscan.o)
 .debug_loc     0x000000000001037f        0x0 0x1 /usr/local/popcorn/x86_64//lib/libc.a(copysignl.o)
 .debug_loc     0x000000000001037f      0x148 0x1 /usr/local/popcorn/x86_64//lib/libc.a(scalbn.o)
 .debug_loc     0x00000000000104c7       0xa3 0x1 /usr/local/popcorn/x86_64//lib/libc.a(scalbnl.o)
 .debug_loc     0x000000000001056a      0x174 0x1 /usr/local/popcorn/x86_64//lib/libc.a(mbrtowc.o)
 .debug_loc     0x00000000000106de        0x0 0x1 /usr/local/popcorn/x86_64//lib/libc.a(mbsinit.o)
 .debug_loc     0x00000000000106de       0xdb 0x1 /usr/local/popcorn/x86_64//lib/libc.a(block.o)
 .debug_loc     0x00000000000107b9       0x36 0x1 /usr/local/popcorn/x86_64//lib/libc.a(__toread.o)
 .debug_loc     0x00000000000107ef        0x0 0x1 /usr/local/popcorn/x86_64//lib/libc.a(internal.o)

.debug_ranges   0x0000000000000000     0x2e80
 .debug_ranges  0x0000000000000000       0x40 0x1 /usr/local/popcorn/x86_64//lib/libc.a(__libc_start_main.o)
 .debug_ranges  0x0000000000000040       0x30 0x1 /usr/local/popcorn/x86_64//lib/libc.a(exit.o)
 .debug_ranges  0x0000000000000070        0x0 0x1 /usr/local/popcorn/x86_64//lib/libc.a(libc.o)
 .debug_ranges  0x0000000000000070       0x30 0x1 /usr/local/popcorn/x86_64//lib/libc.a(fclose.o)
 .debug_ranges  0x00000000000000a0        0x0 0x1 /usr/local/popcorn/x86_64//lib/libc.a(ferror.o)
 .debug_ranges  0x00000000000000a0       0x60 0x1 /usr/local/popcorn/x86_64//lib/libc.a(fflush.o)
 .debug_ranges  0x0000000000000100        0x0 0x1 /usr/local/popcorn/x86_64//lib/libc.a(fopen.o)
 .debug_ranges  0x0000000000000100        0x0 0x1 /usr/local/popcorn/x86_64//lib/libc.a(fprintf.o)
 .debug_ranges  0x0000000000000100      0xa00 0x1 /usr/local/popcorn/x86_64//lib/libc.a(vfprintf.o)
 .debug_ranges  0x0000000000000b00        0x0 0x1 /usr/local/popcorn/x86_64//lib/libc.a(memchr.o)
 .debug_ranges  0x0000000000000b00        0x0 0x1 /usr/local/popcorn/x86_64//lib/libc.a(strchr.o)
 .debug_ranges  0x0000000000000b00        0x0 0x1 /usr/local/popcorn/x86_64//lib/libc.a(strchrnul.o)
 .debug_ranges  0x0000000000000b00        0x0 0x1 /usr/local/popcorn/x86_64//lib/libc.a(strlen.o)
 .debug_ranges  0x0000000000000b00       0x70 0x1 /usr/local/popcorn/x86_64//lib/libc.a(__lock.o)
 .debug_ranges  0x0000000000000b70       0x30 0x1 /usr/local/popcorn/x86_64//lib/libc.a(__syscall_cp.o)
 .debug_ranges  0x0000000000000ba0        0x0 0x1 /usr/local/popcorn/x86_64//lib/libc.a(__wait.o)
 .debug_ranges  0x0000000000000ba0        0x0 0x1 /usr/local/popcorn/x86_64//lib/libc.a(__environ.o)
 .debug_ranges  0x0000000000000ba0       0x30 0x1 /usr/local/popcorn/x86_64//lib/libc.a(__init_tls.o)
 .debug_ranges  0x0000000000000bd0        0x0 0x1 /usr/local/popcorn/x86_64//lib/libc.a(__errno_location.o)
 .debug_ranges  0x0000000000000bd0       0x30 0x1 /usr/local/popcorn/x86_64//lib/libc.a(strerror.o)
 .debug_ranges  0x0000000000000c00        0x0 0x1 /usr/local/popcorn/x86_64//lib/libc.a(_Exit.o)
 .debug_ranges  0x0000000000000c00        0x0 0x1 /usr/local/popcorn/x86_64//lib/libc.a(syscall_ret.o)
 .debug_ranges  0x0000000000000c00       0x40 0x1 /usr/local/popcorn/x86_64//lib/libc.a(__lctrans.o)
 .debug_ranges  0x0000000000000c40      0x930 0x1 /usr/local/popcorn/x86_64//lib/libc.a(malloc.o)
 .debug_ranges  0x0000000000001570        0x0 0x1 /usr/local/popcorn/x86_64//lib/libc.a(__fpclassifyl.o)
 .debug_ranges  0x0000000000001570        0x0 0x1 /usr/local/popcorn/x86_64//lib/libc.a(__signbitl.o)
 .debug_ranges  0x0000000000001570        0x0 0x1 /usr/local/popcorn/x86_64//lib/libc.a(frexpl.o)
 .debug_ranges  0x0000000000001570        0x0 0x1 /usr/local/popcorn/x86_64//lib/libc.a(madvise.o)
 .debug_ranges  0x0000000000001570       0x30 0x1 /usr/local/popcorn/x86_64//lib/libc.a(mmap.o)
 .debug_ranges  0x00000000000015a0        0x0 0x1 /usr/local/popcorn/x86_64//lib/libc.a(mremap.o)
 .debug_ranges  0x00000000000015a0       0x30 0x1 /usr/local/popcorn/x86_64//lib/libc.a(munmap.o)
 .debug_ranges  0x00000000000015d0        0x0 0x1 /usr/local/popcorn/x86_64//lib/libc.a(wctomb.o)
 .debug_ranges  0x00000000000015d0        0x0 0x1 /usr/local/popcorn/x86_64//lib/libc.a(sched_yield.o)
 .debug_ranges  0x00000000000015d0        0x0 0x1 /usr/local/popcorn/x86_64//lib/libc.a(__fdopen.o)
 .debug_ranges  0x00000000000015d0        0x0 0x1 /usr/local/popcorn/x86_64//lib/libc.a(__fmodeflags.o)
 .debug_ranges  0x00000000000015d0       0x60 0x1 /usr/local/popcorn/x86_64//lib/libc.a(__lockfile.o)
 .debug_ranges  0x0000000000001630       0x30 0x1 /usr/local/popcorn/x86_64//lib/libc.a(__stdio_close.o)
 .debug_ranges  0x0000000000001660       0x30 0x1 /usr/local/popcorn/x86_64//lib/libc.a(__stdio_read.o)
 .debug_ranges  0x0000000000001690        0x0 0x1 /usr/local/popcorn/x86_64//lib/libc.a(__stdio_seek.o)
 .debug_ranges  0x0000000000001690       0x30 0x1 /usr/local/popcorn/x86_64//lib/libc.a(__stdio_write.o)
 .debug_ranges  0x00000000000016c0       0x30 0x1 /usr/local/popcorn/x86_64//lib/libc.a(fwrite.o)
 .debug_ranges  0x00000000000016f0       0x40 0x1 /usr/local/popcorn/x86_64//lib/libc.a(pthread_cleanup_push.o)
 .debug_ranges  0x0000000000001730        0x0 0x1 /usr/local/popcorn/x86_64//lib/libc.a(__brk.o)
 .debug_ranges  0x0000000000001730        0x0 0x1 /usr/local/popcorn/x86_64//lib/libc.a(wcrtomb.o)
 .debug_ranges  0x0000000000001730       0x30 0x1 /usr/local/popcorn/x86_64//lib/libc.a(__towrite.o)
 .debug_ranges  0x0000000000001760       0x30 0x1 /usr/local/popcorn/x86_64//lib/libc.a(__stdio_exit.o)
 .debug_ranges  0x0000000000001790       0xe0 0x1 /usr/local/popcorn/x86_64//lib/libmigrate.a(migrate.o)
 .debug_ranges  0x0000000000001870       0xb0 0x1 /usr/local/popcorn/x86_64//lib/libstack-transform.a(userspace.o)
 .debug_ranges  0x0000000000001920       0x50 0x1 /usr/local/popcorn/x86_64//lib/libstack-transform.a(init.o)
 .debug_ranges  0x0000000000001970      0x2b0 0x1 /usr/local/popcorn/x86_64//lib/libstack-transform.a(rewrite.o)
 .debug_ranges  0x0000000000001c20      0x190 0x1 /usr/local/popcorn/x86_64//lib/libstack-transform.a(unwind.o)
 .debug_ranges  0x0000000000001db0      0x100 0x1 /usr/local/popcorn/x86_64//lib/libstack-transform.a(util.o)
 .debug_ranges  0x0000000000001eb0       0x40 0x1 /usr/local/popcorn/x86_64//lib/libstack-transform.a(properties.o)
 .debug_ranges  0x0000000000001ef0      0x120 0x1 /usr/local/popcorn/x86_64//lib/libstack-transform.a(regs.o)
 .debug_ranges  0x0000000000002010       0x40 0x1 /usr/local/popcorn/x86_64//lib/libstack-transform.a(properties.o)
 .debug_ranges  0x0000000000002050      0x120 0x1 /usr/local/popcorn/x86_64//lib/libstack-transform.a(regs.o)
 .debug_ranges  0x0000000000002170      0x3d0 0x1 /usr/local/popcorn/x86_64//lib/libstack-transform.a(data.o)
 .debug_ranges  0x0000000000002540        0x0 0x1 /usr/local/popcorn/x86_64//lib/libc.a(getenv.o)
 .debug_ranges  0x0000000000002540        0x0 0x1 /usr/local/popcorn/x86_64//lib/libc.a(assert.o)
 .debug_ranges  0x0000000000002540        0x0 0x1 /usr/local/popcorn/x86_64//lib/libc.a(open.o)
 .debug_ranges  0x0000000000002540        0x0 0x1 /usr/local/popcorn/x86_64//lib/libc.a(calloc.o)
 .debug_ranges  0x0000000000002540        0x0 0x1 /usr/local/popcorn/x86_64//lib/libc.a(getrlimit.o)
 .debug_ranges  0x0000000000002540        0x0 0x1 /usr/local/popcorn/x86_64//lib/libc.a(syscall.o)
 .debug_ranges  0x0000000000002540        0x0 0x1 /usr/local/popcorn/x86_64//lib/libc.a(getline.o)
 .debug_ranges  0x0000000000002540        0x0 0x1 /usr/local/popcorn/x86_64//lib/libc.a(snprintf.o)
 .debug_ranges  0x0000000000002540        0x0 0x1 /usr/local/popcorn/x86_64//lib/libc.a(sscanf.o)
 .debug_ranges  0x0000000000002540        0x0 0x1 /usr/local/popcorn/x86_64//lib/libc.a(stderr.o)
 .debug_ranges  0x0000000000002540       0x30 0x1 /usr/local/popcorn/x86_64//lib/libc.a(vsnprintf.o)
 .debug_ranges  0x0000000000002570       0x30 0x1 /usr/local/popcorn/x86_64//lib/libc.a(vsscanf.o)
 .debug_ranges  0x00000000000025a0       0x80 0x1 /usr/local/popcorn/x86_64//lib/libc.a(strtol.o)
 .debug_ranges  0x0000000000002620        0x0 0x1 /usr/local/popcorn/x86_64//lib/libc.a(memcmp.o)
 .debug_ranges  0x0000000000002620        0x0 0x1 /usr/local/popcorn/x86_64//lib/libc.a(strcmp.o)
 .debug_ranges  0x0000000000002620        0x0 0x1 /usr/local/popcorn/x86_64//lib/libc.a(strncmp.o)
 .debug_ranges  0x0000000000002620      0x110 0x1 /usr/local/popcorn/x86_64//lib/libc.a(pthread_attr_get.o)
 .debug_ranges  0x0000000000002730        0x0 0x1 /usr/local/popcorn/x86_64//lib/libc.a(pthread_getattr_np.o)
 .debug_ranges  0x0000000000002730        0x0 0x1 /usr/local/popcorn/x86_64//lib/libc.a(pthread_getspecific.o)
 .debug_ranges  0x0000000000002730       0x80 0x1 /usr/local/popcorn/x86_64//lib/libc.a(pthread_key_create.o)
 .debug_ranges  0x00000000000027b0        0x0 0x1 /usr/local/popcorn/x86_64//lib/libc.a(pthread_migrate.o)
 .debug_ranges  0x00000000000027b0        0x0 0x1 /usr/local/popcorn/x86_64//lib/libc.a(pthread_self.o)
 .debug_ranges  0x00000000000027b0        0x0 0x1 /usr/local/popcorn/x86_64//lib/libc.a(pthread_setspecific.o)
 .debug_ranges  0x00000000000027b0       0x30 0x1 /usr/local/popcorn/x86_64//lib/libc.a(close.o)
 .debug_ranges  0x00000000000027e0        0x0 0x1 /usr/local/popcorn/x86_64//lib/libc.a(getpid.o)
 .debug_ranges  0x00000000000027e0        0x0 0x1 /usr/local/popcorn/x86_64//lib/libc.a(lseek.o)
 .debug_ranges  0x00000000000027e0        0x0 0x1 /usr/local/popcorn/x86_64//lib/libc.a(read.o)
 .debug_ranges  0x00000000000027e0        0x0 0x1 /usr/local/popcorn/x86_64//lib/libc.a(abort.o)
 .debug_ranges  0x00000000000027e0        0x0 0x1 /usr/local/popcorn/x86_64//lib/libc.a(intscan.o)
 .debug_ranges  0x00000000000027e0       0x30 0x1 /usr/local/popcorn/x86_64//lib/libc.a(shgetc.o)
 .debug_ranges  0x0000000000002810        0x0 0x1 /usr/local/popcorn/x86_64//lib/libc.a(raise.o)
 .debug_ranges  0x0000000000002810        0x0 0x1 /usr/local/popcorn/x86_64//lib/libc.a(__string_read.o)
 .debug_ranges  0x0000000000002810        0x0 0x1 /usr/local/popcorn/x86_64//lib/libc.a(__uflow.o)
 .debug_ranges  0x0000000000002810        0x0 0x1 /usr/local/popcorn/x86_64//lib/libc.a(getdelim.o)
 .debug_ranges  0x0000000000002810       0x90 0x1 /usr/local/popcorn/x86_64//lib/libc.a(vfscanf.o)
 .debug_ranges  0x00000000000028a0      0x570 0x1 /usr/local/popcorn/x86_64//lib/libc.a(floatscan.o)
 .debug_ranges  0x0000000000002e10        0x0 0x1 /usr/local/popcorn/x86_64//lib/libc.a(copysignl.o)
 .debug_ranges  0x0000000000002e10        0x0 0x1 /usr/local/popcorn/x86_64//lib/libc.a(scalbn.o)
 .debug_ranges  0x0000000000002e10        0x0 0x1 /usr/local/popcorn/x86_64//lib/libc.a(scalbnl.o)
 .debug_ranges  0x0000000000002e10        0x0 0x1 /usr/local/popcorn/x86_64//lib/libc.a(mbrtowc.o)
 .debug_ranges  0x0000000000002e10        0x0 0x1 /usr/local/popcorn/x86_64//lib/libc.a(mbsinit.o)
 .debug_ranges  0x0000000000002e10       0x40 0x1 /usr/local/popcorn/x86_64//lib/libc.a(block.o)
 .debug_ranges  0x0000000000002e50       0x30 0x1 /usr/local/popcorn/x86_64//lib/libc.a(__toread.o)
 .debug_ranges  0x0000000000002e80        0x0 0x1 /usr/local/popcorn/x86_64//lib/libc.a(internal.o)

.debug_pubnames
                0x0000000000000000     0x2194
 .debug_pubnames
                0x0000000000000000       0x90 0x1 /usr/local/popcorn/x86_64//lib/libc.a(__libc_start_main.o)
 .debug_pubnames
                0x0000000000000090       0x25 0x1 /usr/local/popcorn/x86_64//lib/libc.a(exit.o)
 .debug_pubnames
                0x00000000000000b5       0x5a 0x1 /usr/local/popcorn/x86_64//lib/libc.a(libc.o)
 .debug_pubnames
                0x000000000000010f       0x27 0x1 /usr/local/popcorn/x86_64//lib/libc.a(fclose.o)
 .debug_pubnames
                0x0000000000000136       0x1d 0x1 /usr/local/popcorn/x86_64//lib/libc.a(ferror.o)
 .debug_pubnames
                0x0000000000000153       0x3d 0x1 /usr/local/popcorn/x86_64//lib/libc.a(fflush.o)
 .debug_pubnames
                0x0000000000000190       0x3a 0x1 /usr/local/popcorn/x86_64//lib/libc.a(fopen.o)
 .debug_pubnames
                0x00000000000001ca       0x1e 0x1 /usr/local/popcorn/x86_64//lib/libc.a(fprintf.o)
 .debug_pubnames
                0x00000000000001e8       0xb9 0x1 /usr/local/popcorn/x86_64//lib/libc.a(vfprintf.o)
 .debug_pubnames
                0x00000000000002a1       0x1d 0x1 /usr/local/popcorn/x86_64//lib/libc.a(memchr.o)
 .debug_pubnames
                0x00000000000002be       0x1d 0x1 /usr/local/popcorn/x86_64//lib/libc.a(strchr.o)
 .debug_pubnames
                0x00000000000002db       0x22 0x1 /usr/local/popcorn/x86_64//lib/libc.a(strchrnul.o)
 .debug_pubnames
                0x00000000000002fd       0x1d 0x1 /usr/local/popcorn/x86_64//lib/libc.a(strlen.o)
 .debug_pubnames
                0x000000000000031a       0x4c 0x1 /usr/local/popcorn/x86_64//lib/libc.a(__lock.o)
 .debug_pubnames
                0x0000000000000366       0x2c 0x1 /usr/local/popcorn/x86_64//lib/libc.a(__syscall_cp.o)
 .debug_pubnames
                0x0000000000000392       0x3c 0x1 /usr/local/popcorn/x86_64//lib/libc.a(__wait.o)
 .debug_pubnames
                0x00000000000003ce       0x20 0x1 /usr/local/popcorn/x86_64//lib/libc.a(__environ.o)
 .debug_pubnames
                0x00000000000003ee       0x89 0x1 /usr/local/popcorn/x86_64//lib/libc.a(__init_tls.o)
 .debug_pubnames
                0x0000000000000477       0x3a 0x1 /usr/local/popcorn/x86_64//lib/libc.a(__errno_location.o)
 .debug_pubnames
                0x00000000000004b1       0x58 0x1 /usr/local/popcorn/x86_64//lib/libc.a(strerror.o)
 .debug_pubnames
                0x0000000000000509       0x2b 0x1 /usr/local/popcorn/x86_64//lib/libc.a(_Exit.o)
 .debug_pubnames
                0x0000000000000534       0x24 0x1 /usr/local/popcorn/x86_64//lib/libc.a(syscall_ret.o)
 .debug_pubnames
                0x0000000000000558       0x4f 0x1 /usr/local/popcorn/x86_64//lib/libc.a(__lctrans.o)
 .debug_pubnames
                0x00000000000005a7      0x14f 0x1 /usr/local/popcorn/x86_64//lib/libc.a(malloc.o)
 .debug_pubnames
                0x00000000000006f6       0x24 0x1 /usr/local/popcorn/x86_64//lib/libc.a(__fpclassifyl.o)
 .debug_pubnames
                0x000000000000071a       0x21 0x1 /usr/local/popcorn/x86_64//lib/libc.a(__signbitl.o)
 .debug_pubnames
                0x000000000000073b       0x1d 0x1 /usr/local/popcorn/x86_64//lib/libc.a(frexpl.o)
 .debug_pubnames
                0x0000000000000758       0x2f 0x1 /usr/local/popcorn/x86_64//lib/libc.a(madvise.o)
 .debug_pubnames
                0x0000000000000787       0x36 0x1 /usr/local/popcorn/x86_64//lib/libc.a(mmap.o)
 .debug_pubnames
                0x00000000000007bd       0x2e 0x1 /usr/local/popcorn/x86_64//lib/libc.a(mremap.o)
 .debug_pubnames
                0x00000000000007eb       0x38 0x1 /usr/local/popcorn/x86_64//lib/libc.a(munmap.o)
 .debug_pubnames
                0x0000000000000823       0x1d 0x1 /usr/local/popcorn/x86_64//lib/libc.a(wctomb.o)
 .debug_pubnames
                0x0000000000000840       0x31 0x1 /usr/local/popcorn/x86_64//lib/libc.a(sched_yield.o)
 .debug_pubnames
                0x0000000000000871       0x3d 0x1 /usr/local/popcorn/x86_64//lib/libc.a(__fdopen.o)
 .debug_pubnames
                0x00000000000008ae       0x23 0x1 /usr/local/popcorn/x86_64//lib/libc.a(__fmodeflags.o)
 .debug_pubnames
                0x00000000000008d1       0x66 0x1 /usr/local/popcorn/x86_64//lib/libc.a(__lockfile.o)
 .debug_pubnames
                0x0000000000000937       0x3d 0x1 /usr/local/popcorn/x86_64//lib/libc.a(__stdio_close.o)
 .debug_pubnames
                0x0000000000000974       0x2f 0x1 /usr/local/popcorn/x86_64//lib/libc.a(__stdio_read.o)
 .debug_pubnames
                0x00000000000009a3       0x32 0x1 /usr/local/popcorn/x86_64//lib/libc.a(__stdio_seek.o)
 .debug_pubnames
                0x00000000000009d5       0x30 0x1 /usr/local/popcorn/x86_64//lib/libc.a(__stdio_write.o)
 .debug_pubnames
                0x0000000000000a05       0x2b 0x1 /usr/local/popcorn/x86_64//lib/libc.a(fwrite.o)
 .debug_pubnames
                0x0000000000000a30       0x4f 0x1 /usr/local/popcorn/x86_64//lib/libc.a(pthread_cleanup_push.o)
 .debug_pubnames
                0x0000000000000a7f       0x2b 0x1 /usr/local/popcorn/x86_64//lib/libc.a(__brk.o)
 .debug_pubnames
                0x0000000000000aaa       0x1e 0x1 /usr/local/popcorn/x86_64//lib/libc.a(wcrtomb.o)
 .debug_pubnames
                0x0000000000000ac8       0x3f 0x1 /usr/local/popcorn/x86_64//lib/libc.a(__towrite.o)
 .debug_pubnames
                0x0000000000000b07       0x41 0x1 /usr/local/popcorn/x86_64//lib/libc.a(__stdio_exit.o)
 .debug_pubnames
                0x0000000000000b48      0x13c 0x1 /usr/local/popcorn/x86_64//lib/libmigrate.a(migrate.o)
 .debug_pubnames
                0x0000000000000c84      0x187 0x1 /usr/local/popcorn/x86_64//lib/libstack-transform.a(userspace.o)
 .debug_pubnames
                0x0000000000000e0b       0x49 0x1 /usr/local/popcorn/x86_64//lib/libstack-transform.a(init.o)
 .debug_pubnames
                0x0000000000000e54      0x158 0x1 /usr/local/popcorn/x86_64//lib/libstack-transform.a(rewrite.o)
 .debug_pubnames
                0x0000000000000fac      0x128 0x1 /usr/local/popcorn/x86_64//lib/libstack-transform.a(unwind.o)
 .debug_pubnames
                0x00000000000010d4       0xda 0x1 /usr/local/popcorn/x86_64//lib/libstack-transform.a(util.o)
 .debug_pubnames
                0x00000000000011ae       0xad 0x1 /usr/local/popcorn/x86_64//lib/libstack-transform.a(properties.o)
 .debug_pubnames
                0x000000000000125b      0x189 0x1 /usr/local/popcorn/x86_64//lib/libstack-transform.a(regs.o)
 .debug_pubnames
                0x00000000000013e4       0xa7 0x1 /usr/local/popcorn/x86_64//lib/libstack-transform.a(properties.o)
 .debug_pubnames
                0x000000000000148b      0x177 0x1 /usr/local/popcorn/x86_64//lib/libstack-transform.a(regs.o)
 .debug_pubnames
                0x0000000000001602      0x12c 0x1 /usr/local/popcorn/x86_64//lib/libstack-transform.a(data.o)
 .debug_pubnames
                0x000000000000172e       0x1d 0x1 /usr/local/popcorn/x86_64//lib/libc.a(getenv.o)
 .debug_pubnames
                0x000000000000174b       0x24 0x1 /usr/local/popcorn/x86_64//lib/libc.a(assert.o)
 .debug_pubnames
                0x000000000000176f       0x2a 0x1 /usr/local/popcorn/x86_64//lib/libc.a(open.o)
 .debug_pubnames
                0x0000000000001799       0x1d 0x1 /usr/local/popcorn/x86_64//lib/libc.a(calloc.o)
 .debug_pubnames
                0x00000000000017b6       0x3e 0x1 /usr/local/popcorn/x86_64//lib/libc.a(getrlimit.o)
 .debug_pubnames
                0x00000000000017f4       0x2d 0x1 /usr/local/popcorn/x86_64//lib/libc.a(syscall.o)
 .debug_pubnames
                0x0000000000001821       0x1e 0x1 /usr/local/popcorn/x86_64//lib/libc.a(getline.o)
 .debug_pubnames
                0x000000000000183f       0x1f 0x1 /usr/local/popcorn/x86_64//lib/libc.a(snprintf.o)
 .debug_pubnames
                0x000000000000185e       0x1d 0x1 /usr/local/popcorn/x86_64//lib/libc.a(sscanf.o)
 .debug_pubnames
                0x000000000000187b       0x3d 0x1 /usr/local/popcorn/x86_64//lib/libc.a(stderr.o)
 .debug_pubnames
                0x00000000000018b8       0x2d 0x1 /usr/local/popcorn/x86_64//lib/libc.a(vsnprintf.o)
 .debug_pubnames
                0x00000000000018e5       0x2a 0x1 /usr/local/popcorn/x86_64//lib/libc.a(vsscanf.o)
 .debug_pubnames
                0x000000000000190f       0x69 0x1 /usr/local/popcorn/x86_64//lib/libc.a(strtol.o)
 .debug_pubnames
                0x0000000000001978       0x1d 0x1 /usr/local/popcorn/x86_64//lib/libc.a(memcmp.o)
 .debug_pubnames
                0x0000000000001995       0x1d 0x1 /usr/local/popcorn/x86_64//lib/libc.a(strcmp.o)
 .debug_pubnames
                0x00000000000019b2       0x1e 0x1 /usr/local/popcorn/x86_64//lib/libc.a(strncmp.o)
 .debug_pubnames
                0x00000000000019d0      0x206 0x1 /usr/local/popcorn/x86_64//lib/libc.a(pthread_attr_get.o)
 .debug_pubnames
                0x0000000000001bd6       0x29 0x1 /usr/local/popcorn/x86_64//lib/libc.a(pthread_getattr_np.o)
 .debug_pubnames
                0x0000000000001bff       0x3f 0x1 /usr/local/popcorn/x86_64//lib/libc.a(pthread_getspecific.o)
 .debug_pubnames
                0x0000000000001c3e       0xc1 0x1 /usr/local/popcorn/x86_64//lib/libc.a(pthread_key_create.o)
 .debug_pubnames
                0x0000000000001cff       0x3e 0x1 /usr/local/popcorn/x86_64//lib/libc.a(pthread_migrate.o)
 .debug_pubnames
                0x0000000000001d3d       0x41 0x1 /usr/local/popcorn/x86_64//lib/libc.a(pthread_self.o)
 .debug_pubnames
                0x0000000000001d7e       0x3d 0x1 /usr/local/popcorn/x86_64//lib/libc.a(pthread_setspecific.o)
 .debug_pubnames
                0x0000000000001dbb       0x26 0x1 /usr/local/popcorn/x86_64//lib/libc.a(close.o)
 .debug_pubnames
                0x0000000000001de1       0x2c 0x1 /usr/local/popcorn/x86_64//lib/libc.a(getpid.o)
 .debug_pubnames
                0x0000000000001e0d       0x2b 0x1 /usr/local/popcorn/x86_64//lib/libc.a(lseek.o)
 .debug_pubnames
                0x0000000000001e38       0x1b 0x1 /usr/local/popcorn/x86_64//lib/libc.a(read.o)
 .debug_pubnames
                0x0000000000001e53       0x1c 0x1 /usr/local/popcorn/x86_64//lib/libc.a(abort.o)
 .debug_pubnames
                0x0000000000001e6f       0x38 0x1 /usr/local/popcorn/x86_64//lib/libc.a(intscan.o)
 .debug_pubnames
                0x0000000000001ea7       0x2b 0x1 /usr/local/popcorn/x86_64//lib/libc.a(shgetc.o)
 .debug_pubnames
                0x0000000000001ed2       0x3a 0x1 /usr/local/popcorn/x86_64//lib/libc.a(raise.o)
 .debug_pubnames
                0x0000000000001f0c       0x24 0x1 /usr/local/popcorn/x86_64//lib/libc.a(__string_read.o)
 .debug_pubnames
                0x0000000000001f30       0x1e 0x1 /usr/local/popcorn/x86_64//lib/libc.a(__uflow.o)
 .debug_pubnames
                0x0000000000001f4e       0x1f 0x1 /usr/local/popcorn/x86_64//lib/libc.a(getdelim.o)
 .debug_pubnames
                0x0000000000001f6d       0x44 0x1 /usr/local/popcorn/x86_64//lib/libc.a(vfscanf.o)
 .debug_pubnames
                0x0000000000001fb1       0x66 0x1 /usr/local/popcorn/x86_64//lib/libc.a(floatscan.o)
 .debug_pubnames
                0x0000000000002017       0x20 0x1 /usr/local/popcorn/x86_64//lib/libc.a(copysignl.o)
 .debug_pubnames
                0x0000000000002037       0x1d 0x1 /usr/local/popcorn/x86_64//lib/libc.a(scalbn.o)
 .debug_pubnames
                0x0000000000002054       0x1e 0x1 /usr/local/popcorn/x86_64//lib/libc.a(scalbnl.o)
 .debug_pubnames
                0x0000000000002072       0x31 0x1 /usr/local/popcorn/x86_64//lib/libc.a(mbrtowc.o)
 .debug_pubnames
                0x00000000000020a3       0x1e 0x1 /usr/local/popcorn/x86_64//lib/libc.a(mbsinit.o)
 .debug_pubnames
                0x00000000000020c1       0x78 0x1 /usr/local/popcorn/x86_64//lib/libc.a(block.o)
 .debug_pubnames
                0x0000000000002139       0x3d 0x1 /usr/local/popcorn/x86_64//lib/libc.a(__toread.o)
 .debug_pubnames
                0x0000000000002176       0x1e 0x1 /usr/local/popcorn/x86_64//lib/libc.a(internal.o)

.debug_pubtypes
                0x0000000000000000     0x4059
 .debug_pubtypes
                0x0000000000000000       0x74 0x1 /usr/local/popcorn/x86_64//lib/libc.a(__libc_start_main.o)
 .debug_pubtypes
                0x0000000000000074       0x3e 0x1 /usr/local/popcorn/x86_64//lib/libc.a(exit.o)
 .debug_pubtypes
                0x00000000000000b2       0x6c 0x1 /usr/local/popcorn/x86_64//lib/libc.a(libc.o)
 .debug_pubtypes
                0x000000000000011e       0xae 0x1 /usr/local/popcorn/x86_64//lib/libc.a(fclose.o)
 .debug_pubtypes
                0x00000000000001cc       0xae 0x1 /usr/local/popcorn/x86_64//lib/libc.a(ferror.o)
 .debug_pubtypes
                0x000000000000027a       0xae 0x1 /usr/local/popcorn/x86_64//lib/libc.a(fflush.o)
 .debug_pubtypes
                0x0000000000000328       0xae 0x1 /usr/local/popcorn/x86_64//lib/libc.a(fopen.o)
 .debug_pubtypes
                0x00000000000003d6       0x71 0x1 /usr/local/popcorn/x86_64//lib/libc.a(fprintf.o)
 .debug_pubtypes
                0x0000000000000447      0x183 0x1 /usr/local/popcorn/x86_64//lib/libc.a(vfprintf.o)
 .debug_pubtypes
                0x00000000000005ca       0x5b 0x1 /usr/local/popcorn/x86_64//lib/libc.a(memchr.o)
 .debug_pubtypes
                0x0000000000000625       0x35 0x1 /usr/local/popcorn/x86_64//lib/libc.a(strchr.o)
 .debug_pubtypes
                0x000000000000065a       0x64 0x1 /usr/local/popcorn/x86_64//lib/libc.a(strchrnul.o)
 .debug_pubtypes
                0x00000000000006be       0x4a 0x1 /usr/local/popcorn/x86_64//lib/libc.a(strlen.o)
 .debug_pubtypes
                0x0000000000000708       0x1a 0x1 /usr/local/popcorn/x86_64//lib/libc.a(__lock.o)
 .debug_pubtypes
                0x0000000000000722       0x31 0x1 /usr/local/popcorn/x86_64//lib/libc.a(__syscall_cp.o)
 .debug_pubtypes
                0x0000000000000753       0x1a 0x1 /usr/local/popcorn/x86_64//lib/libc.a(__wait.o)
 .debug_pubtypes
                0x000000000000076d       0x1b 0x1 /usr/local/popcorn/x86_64//lib/libc.a(__environ.o)
 .debug_pubtypes
                0x0000000000000788      0x173 0x1 /usr/local/popcorn/x86_64//lib/libc.a(__init_tls.o)
 .debug_pubtypes
                0x00000000000008fb       0xc8 0x1 /usr/local/popcorn/x86_64//lib/libc.a(__errno_location.o)
 .debug_pubtypes
                0x00000000000009c3       0xd9 0x1 /usr/local/popcorn/x86_64//lib/libc.a(strerror.o)
 .debug_pubtypes
                0x0000000000000a9c       0x3d 0x1 /usr/local/popcorn/x86_64//lib/libc.a(_Exit.o)
 .debug_pubtypes
                0x0000000000000ad9       0x35 0x1 /usr/local/popcorn/x86_64//lib/libc.a(syscall_ret.o)
 .debug_pubtypes
                0x0000000000000b0e       0xd9 0x1 /usr/local/popcorn/x86_64//lib/libc.a(__lctrans.o)
 .debug_pubtypes
                0x0000000000000be7       0x82 0x1 /usr/local/popcorn/x86_64//lib/libc.a(malloc.o)
 .debug_pubtypes
                0x0000000000000c69       0x79 0x1 /usr/local/popcorn/x86_64//lib/libc.a(__fpclassifyl.o)
 .debug_pubtypes
                0x0000000000000ce2       0x79 0x1 /usr/local/popcorn/x86_64//lib/libc.a(__signbitl.o)
 .debug_pubtypes
                0x0000000000000d5b       0x79 0x1 /usr/local/popcorn/x86_64//lib/libc.a(frexpl.o)
 .debug_pubtypes
                0x0000000000000dd4       0x48 0x1 /usr/local/popcorn/x86_64//lib/libc.a(madvise.o)
 .debug_pubtypes
                0x0000000000000e1c       0x52 0x1 /usr/local/popcorn/x86_64//lib/libc.a(mmap.o)
 .debug_pubtypes
                0x0000000000000e6e       0x8d 0x1 /usr/local/popcorn/x86_64//lib/libc.a(mremap.o)
 .debug_pubtypes
                0x0000000000000efb       0x48 0x1 /usr/local/popcorn/x86_64//lib/libc.a(munmap.o)
 .debug_pubtypes
                0x0000000000000f43       0x2f 0x1 /usr/local/popcorn/x86_64//lib/libc.a(wctomb.o)
 .debug_pubtypes
                0x0000000000000f72       0x3d 0x1 /usr/local/popcorn/x86_64//lib/libc.a(sched_yield.o)
 .debug_pubtypes
                0x0000000000000faf       0xcd 0x1 /usr/local/popcorn/x86_64//lib/libc.a(__fdopen.o)
 .debug_pubtypes
                0x000000000000107c       0x23 0x1 /usr/local/popcorn/x86_64//lib/libc.a(__fmodeflags.o)
 .debug_pubtypes
                0x000000000000109f      0x113 0x1 /usr/local/popcorn/x86_64//lib/libc.a(__lockfile.o)
 .debug_pubtypes
                0x00000000000011b2       0xae 0x1 /usr/local/popcorn/x86_64//lib/libc.a(__stdio_close.o)
 .debug_pubtypes
                0x0000000000001260       0xcf 0x1 /usr/local/popcorn/x86_64//lib/libc.a(__stdio_read.o)
 .debug_pubtypes
                0x000000000000132f       0xae 0x1 /usr/local/popcorn/x86_64//lib/libc.a(__stdio_seek.o)
 .debug_pubtypes
                0x00000000000013dd       0xcf 0x1 /usr/local/popcorn/x86_64//lib/libc.a(__stdio_write.o)
 .debug_pubtypes
                0x00000000000014ac       0xae 0x1 /usr/local/popcorn/x86_64//lib/libc.a(fwrite.o)
 .debug_pubtypes
                0x000000000000155a       0x25 0x1 /usr/local/popcorn/x86_64//lib/libc.a(pthread_cleanup_push.o)
 .debug_pubtypes
                0x000000000000157f       0x43 0x1 /usr/local/popcorn/x86_64//lib/libc.a(__brk.o)
 .debug_pubtypes
                0x00000000000015c2       0x7f 0x1 /usr/local/popcorn/x86_64//lib/libc.a(wcrtomb.o)
 .debug_pubtypes
                0x0000000000001641       0xae 0x1 /usr/local/popcorn/x86_64//lib/libc.a(__towrite.o)
 .debug_pubtypes
                0x00000000000016ef       0xae 0x1 /usr/local/popcorn/x86_64//lib/libc.a(__stdio_exit.o)
 .debug_pubtypes
                0x000000000000179d       0xd7 0x1 /usr/local/popcorn/x86_64//lib/libmigrate.a(migrate.o)
 .debug_pubtypes
                0x0000000000001874      0x260 0x1 /usr/local/popcorn/x86_64//lib/libstack-transform.a(userspace.o)
 .debug_pubtypes
                0x0000000000001ad4      0x1ef 0x1 /usr/local/popcorn/x86_64//lib/libstack-transform.a(init.o)
 .debug_pubtypes
                0x0000000000001cc3      0x20c 0x1 /usr/local/popcorn/x86_64//lib/libstack-transform.a(rewrite.o)
 .debug_pubtypes
                0x0000000000001ecf      0x20c 0x1 /usr/local/popcorn/x86_64//lib/libstack-transform.a(unwind.o)
 .debug_pubtypes
                0x00000000000020db      0x22e 0x1 /usr/local/popcorn/x86_64//lib/libstack-transform.a(util.o)
 .debug_pubtypes
                0x0000000000002309       0x82 0x1 /usr/local/popcorn/x86_64//lib/libstack-transform.a(properties.o)
 .debug_pubtypes
                0x000000000000238b       0xd7 0x1 /usr/local/popcorn/x86_64//lib/libstack-transform.a(regs.o)
 .debug_pubtypes
                0x0000000000002462       0x8f 0x1 /usr/local/popcorn/x86_64//lib/libstack-transform.a(properties.o)
 .debug_pubtypes
                0x00000000000024f1      0x103 0x1 /usr/local/popcorn/x86_64//lib/libstack-transform.a(regs.o)
 .debug_pubtypes
                0x00000000000025f4      0x22c 0x1 /usr/local/popcorn/x86_64//lib/libstack-transform.a(data.o)
 .debug_pubtypes
                0x0000000000002820       0x44 0x1 /usr/local/popcorn/x86_64//lib/libc.a(getenv.o)
 .debug_pubtypes
                0x0000000000002864       0x23 0x1 /usr/local/popcorn/x86_64//lib/libc.a(assert.o)
 .debug_pubtypes
                0x0000000000002887       0x96 0x1 /usr/local/popcorn/x86_64//lib/libc.a(open.o)
 .debug_pubtypes
                0x000000000000291d       0x33 0x1 /usr/local/popcorn/x86_64//lib/libc.a(calloc.o)
 .debug_pubtypes
                0x0000000000002950       0x6e 0x1 /usr/local/popcorn/x86_64//lib/libc.a(getrlimit.o)
 .debug_pubtypes
                0x00000000000029be       0x8c 0x1 /usr/local/popcorn/x86_64//lib/libc.a(syscall.o)
 .debug_pubtypes
                0x0000000000002a4a       0x5e 0x1 /usr/local/popcorn/x86_64//lib/libc.a(getline.o)
 .debug_pubtypes
                0x0000000000002aa8       0x89 0x1 /usr/local/popcorn/x86_64//lib/libc.a(snprintf.o)
 .debug_pubtypes
                0x0000000000002b31       0x68 0x1 /usr/local/popcorn/x86_64//lib/libc.a(sscanf.o)
 .debug_pubtypes
                0x0000000000002b99       0xae 0x1 /usr/local/popcorn/x86_64//lib/libc.a(stderr.o)
 .debug_pubtypes
                0x0000000000002c47       0xc0 0x1 /usr/local/popcorn/x86_64//lib/libc.a(vsnprintf.o)
 .debug_pubtypes
                0x0000000000002d07       0xc0 0x1 /usr/local/popcorn/x86_64//lib/libc.a(vsscanf.o)
 .debug_pubtypes
                0x0000000000002dc7       0xf6 0x1 /usr/local/popcorn/x86_64//lib/libc.a(strtol.o)
 .debug_pubtypes
                0x0000000000002ebd       0x4d 0x1 /usr/local/popcorn/x86_64//lib/libc.a(memcmp.o)
 .debug_pubtypes
                0x0000000000002f0a       0x35 0x1 /usr/local/popcorn/x86_64//lib/libc.a(strcmp.o)
 .debug_pubtypes
                0x0000000000002f3f       0x56 0x1 /usr/local/popcorn/x86_64//lib/libc.a(strncmp.o)
 .debug_pubtypes
                0x0000000000002f95      0x104 0x1 /usr/local/popcorn/x86_64//lib/libc.a(pthread_attr_get.o)
 .debug_pubtypes
                0x0000000000003099       0xd6 0x1 /usr/local/popcorn/x86_64//lib/libc.a(pthread_getattr_np.o)
 .debug_pubtypes
                0x000000000000316f       0xeb 0x1 /usr/local/popcorn/x86_64//lib/libc.a(pthread_getspecific.o)
 .debug_pubtypes
                0x000000000000325a       0xf9 0x1 /usr/local/popcorn/x86_64//lib/libc.a(pthread_key_create.o)
 .debug_pubtypes
                0x0000000000003353       0xc8 0x1 /usr/local/popcorn/x86_64//lib/libc.a(pthread_migrate.o)
 .debug_pubtypes
                0x000000000000341b       0xd6 0x1 /usr/local/popcorn/x86_64//lib/libc.a(pthread_self.o)
 .debug_pubtypes
                0x00000000000034f1       0xeb 0x1 /usr/local/popcorn/x86_64//lib/libc.a(pthread_setspecific.o)
 .debug_pubtypes
                0x00000000000035dc       0x27 0x1 /usr/local/popcorn/x86_64//lib/libc.a(close.o)
 .debug_pubtypes
                0x0000000000003603       0x47 0x1 /usr/local/popcorn/x86_64//lib/libc.a(getpid.o)
 .debug_pubtypes
                0x000000000000364a       0x47 0x1 /usr/local/popcorn/x86_64//lib/libc.a(lseek.o)
 .debug_pubtypes
                0x0000000000003691       0x54 0x1 /usr/local/popcorn/x86_64//lib/libc.a(read.o)
 .debug_pubtypes
                0x00000000000036e5       0xc9 0x1 /usr/local/popcorn/x86_64//lib/libc.a(intscan.o)
 .debug_pubtypes
                0x00000000000037ae       0xae 0x1 /usr/local/popcorn/x86_64//lib/libc.a(shgetc.o)
 .debug_pubtypes
                0x000000000000385c       0x59 0x1 /usr/local/popcorn/x86_64//lib/libc.a(raise.o)
 .debug_pubtypes
                0x00000000000038b5       0xae 0x1 /usr/local/popcorn/x86_64//lib/libc.a(__string_read.o)
 .debug_pubtypes
                0x0000000000003963       0xae 0x1 /usr/local/popcorn/x86_64//lib/libc.a(__uflow.o)
 .debug_pubtypes
                0x0000000000003a11       0xba 0x1 /usr/local/popcorn/x86_64//lib/libc.a(getdelim.o)
 .debug_pubtypes
                0x0000000000003acb      0x16c 0x1 /usr/local/popcorn/x86_64//lib/libc.a(vfscanf.o)
 .debug_pubtypes
                0x0000000000003c37       0xea 0x1 /usr/local/popcorn/x86_64//lib/libc.a(floatscan.o)
 .debug_pubtypes
                0x0000000000003d21       0x71 0x1 /usr/local/popcorn/x86_64//lib/libc.a(copysignl.o)
 .debug_pubtypes
                0x0000000000003d92       0x55 0x1 /usr/local/popcorn/x86_64//lib/libc.a(scalbn.o)
 .debug_pubtypes
                0x0000000000003de7       0x79 0x1 /usr/local/popcorn/x86_64//lib/libc.a(scalbnl.o)
 .debug_pubtypes
                0x0000000000003e60       0x9d 0x1 /usr/local/popcorn/x86_64//lib/libc.a(mbrtowc.o)
 .debug_pubtypes
                0x0000000000003efd       0x49 0x1 /usr/local/popcorn/x86_64//lib/libc.a(mbsinit.o)
 .debug_pubtypes
                0x0000000000003f46       0x35 0x1 /usr/local/popcorn/x86_64//lib/libc.a(block.o)
 .debug_pubtypes
                0x0000000000003f7b       0xae 0x1 /usr/local/popcorn/x86_64//lib/libc.a(__toread.o)
 .debug_pubtypes
                0x0000000000004029       0x30 0x1 /usr/local/popcorn/x86_64//lib/libc.a(internal.o)

.debug_frame    0x0000000000000000     0x1b78
 .debug_frame   0x0000000000000000       0x78 0x8 /usr/local/popcorn/x86_64//lib/libc.a(__libc_start_main.o)
 .debug_frame   0x0000000000000078       0x58 0x8 /usr/local/popcorn/x86_64//lib/libc.a(exit.o)
 .debug_frame   0x00000000000000d0       0x60 0x8 /usr/local/popcorn/x86_64//lib/libc.a(fclose.o)
 .debug_frame   0x0000000000000130       0x40 0x8 /usr/local/popcorn/x86_64//lib/libc.a(ferror.o)
 .debug_frame   0x0000000000000170       0x60 0x8 /usr/local/popcorn/x86_64//lib/libc.a(fflush.o)
 .debug_frame   0x00000000000001d0       0x48 0x8 /usr/local/popcorn/x86_64//lib/libc.a(fopen.o)
 .debug_frame   0x0000000000000218       0x38 0x8 /usr/local/popcorn/x86_64//lib/libc.a(fprintf.o)
 .debug_frame   0x0000000000000250       0xe0 0x8 /usr/local/popcorn/x86_64//lib/libc.a(vfprintf.o)
 .debug_frame   0x0000000000000330       0x30 0x8 /usr/local/popcorn/x86_64//lib/libc.a(memchr.o)
 .debug_frame   0x0000000000000360       0x38 0x8 /usr/local/popcorn/x86_64//lib/libc.a(strchr.o)
 .debug_frame   0x0000000000000398       0x38 0x8 /usr/local/popcorn/x86_64//lib/libc.a(strchrnul.o)
 .debug_frame   0x00000000000003d0       0x30 0x8 /usr/local/popcorn/x86_64//lib/libc.a(strlen.o)
 .debug_frame   0x0000000000000400       0x58 0x8 /usr/local/popcorn/x86_64//lib/libc.a(__lock.o)
 .debug_frame   0x0000000000000458       0x50 0x8 /usr/local/popcorn/x86_64//lib/libc.a(__syscall_cp.o)
 .debug_frame   0x00000000000004a8       0x48 0x8 /usr/local/popcorn/x86_64//lib/libc.a(__wait.o)
 .debug_frame   0x00000000000004f0       0x58 0x8 /usr/local/popcorn/x86_64//lib/libc.a(__init_tls.o)
 .debug_frame   0x0000000000000548       0x30 0x8 /usr/local/popcorn/x86_64//lib/libc.a(__errno_location.o)
 .debug_frame   0x0000000000000578       0x48 0x8 /usr/local/popcorn/x86_64//lib/libc.a(strerror.o)
 .debug_frame   0x00000000000005c0       0x30 0x8 /usr/local/popcorn/x86_64//lib/libc.a(_Exit.o)
 .debug_frame   0x00000000000005f0       0x38 0x8 /usr/local/popcorn/x86_64//lib/libc.a(syscall_ret.o)
 .debug_frame   0x0000000000000628       0x60 0x8 /usr/local/popcorn/x86_64//lib/libc.a(__lctrans.o)
 .debug_frame   0x0000000000000688      0x148 0x8 /usr/local/popcorn/x86_64//lib/libc.a(malloc.o)
 .debug_frame   0x00000000000007d0       0x30 0x8 /usr/local/popcorn/x86_64//lib/libc.a(__fpclassifyl.o)
 .debug_frame   0x0000000000000800       0x30 0x8 /usr/local/popcorn/x86_64//lib/libc.a(__signbitl.o)
 .debug_frame   0x0000000000000830       0x38 0x8 /usr/local/popcorn/x86_64//lib/libc.a(frexpl.o)
 .debug_frame   0x0000000000000868       0x30 0x8 /usr/local/popcorn/x86_64//lib/libc.a(madvise.o)
 .debug_frame   0x0000000000000898       0x70 0x8 /usr/local/popcorn/x86_64//lib/libc.a(mmap.o)
 .debug_frame   0x0000000000000908       0x38 0x8 /usr/local/popcorn/x86_64//lib/libc.a(mremap.o)
 .debug_frame   0x0000000000000940       0x58 0x8 /usr/local/popcorn/x86_64//lib/libc.a(munmap.o)
 .debug_frame   0x0000000000000998       0x38 0x8 /usr/local/popcorn/x86_64//lib/libc.a(wctomb.o)
 .debug_frame   0x00000000000009d0       0x30 0x8 /usr/local/popcorn/x86_64//lib/libc.a(sched_yield.o)
 .debug_frame   0x0000000000000a00       0x48 0x8 /usr/local/popcorn/x86_64//lib/libc.a(__fdopen.o)
 .debug_frame   0x0000000000000a48       0x40 0x8 /usr/local/popcorn/x86_64//lib/libc.a(__fmodeflags.o)
 .debug_frame   0x0000000000000a88       0x60 0x8 /usr/local/popcorn/x86_64//lib/libc.a(__lockfile.o)
 .debug_frame   0x0000000000000ae8       0x50 0x8 /usr/local/popcorn/x86_64//lib/libc.a(__stdio_close.o)
 .debug_frame   0x0000000000000b38       0x70 0x8 /usr/local/popcorn/x86_64//lib/libc.a(__stdio_read.o)
 .debug_frame   0x0000000000000ba8       0x30 0x8 /usr/local/popcorn/x86_64//lib/libc.a(__stdio_seek.o)
 .debug_frame   0x0000000000000bd8       0x70 0x8 /usr/local/popcorn/x86_64//lib/libc.a(__stdio_write.o)
 .debug_frame   0x0000000000000c48       0x98 0x8 /usr/local/popcorn/x86_64//lib/libc.a(fwrite.o)
 .debug_frame   0x0000000000000ce0       0x70 0x8 /usr/local/popcorn/x86_64//lib/libc.a(pthread_cleanup_push.o)
 .debug_frame   0x0000000000000d50       0x30 0x8 /usr/local/popcorn/x86_64//lib/libc.a(__brk.o)
 .debug_frame   0x0000000000000d80       0x38 0x8 /usr/local/popcorn/x86_64//lib/libc.a(wcrtomb.o)
 .debug_frame   0x0000000000000db8       0x48 0x8 /usr/local/popcorn/x86_64//lib/libc.a(__towrite.o)
 .debug_frame   0x0000000000000e00       0x58 0x8 /usr/local/popcorn/x86_64//lib/libc.a(__stdio_exit.o)
 .debug_frame   0x0000000000000e58       0x48 0x8 /usr/local/popcorn/x86_64//lib/libc.a(getenv.o)
 .debug_frame   0x0000000000000ea0       0x38 0x8 /usr/local/popcorn/x86_64//lib/libc.a(assert.o)
 .debug_frame   0x0000000000000ed8       0x40 0x8 /usr/local/popcorn/x86_64//lib/libc.a(open.o)
 .debug_frame   0x0000000000000f18       0x40 0x8 /usr/local/popcorn/x86_64//lib/libc.a(calloc.o)
 .debug_frame   0x0000000000000f58       0x48 0x8 /usr/local/popcorn/x86_64//lib/libc.a(getrlimit.o)
 .debug_frame   0x0000000000000fa0       0x38 0x8 /usr/local/popcorn/x86_64//lib/libc.a(syscall.o)
 .debug_frame   0x0000000000000fd8       0x30 0x8 /usr/local/popcorn/x86_64//lib/libc.a(getline.o)
 .debug_frame   0x0000000000001008       0x38 0x8 /usr/local/popcorn/x86_64//lib/libc.a(snprintf.o)
 .debug_frame   0x0000000000001040       0x38 0x8 /usr/local/popcorn/x86_64//lib/libc.a(sscanf.o)
 .debug_frame   0x0000000000001078       0x78 0x8 /usr/local/popcorn/x86_64//lib/libc.a(vsnprintf.o)
 .debug_frame   0x00000000000010f0       0x60 0x8 /usr/local/popcorn/x86_64//lib/libc.a(vsscanf.o)
 .debug_frame   0x0000000000001150       0xe0 0x8 /usr/local/popcorn/x86_64//lib/libc.a(strtol.o)
 .debug_frame   0x0000000000001230       0x30 0x8 /usr/local/popcorn/x86_64//lib/libc.a(memcmp.o)
 .debug_frame   0x0000000000001260       0x30 0x8 /usr/local/popcorn/x86_64//lib/libc.a(strcmp.o)
 .debug_frame   0x0000000000001290       0x30 0x8 /usr/local/popcorn/x86_64//lib/libc.a(strncmp.o)
 .debug_frame   0x00000000000012c0      0x198 0x8 /usr/local/popcorn/x86_64//lib/libc.a(pthread_attr_get.o)
 .debug_frame   0x0000000000001458       0x48 0x8 /usr/local/popcorn/x86_64//lib/libc.a(pthread_getattr_np.o)
 .debug_frame   0x00000000000014a0       0x30 0x8 /usr/local/popcorn/x86_64//lib/libc.a(pthread_getspecific.o)
 .debug_frame   0x00000000000014d0       0x88 0x8 /usr/local/popcorn/x86_64//lib/libc.a(pthread_key_create.o)
 .debug_frame   0x0000000000001558       0x30 0x8 /usr/local/popcorn/x86_64//lib/libc.a(pthread_migrate.o)
 .debug_frame   0x0000000000001588       0x30 0x8 /usr/local/popcorn/x86_64//lib/libc.a(pthread_self.o)
 .debug_frame   0x00000000000015b8       0x30 0x8 /usr/local/popcorn/x86_64//lib/libc.a(pthread_setspecific.o)
 .debug_frame   0x00000000000015e8       0x50 0x8 /usr/local/popcorn/x86_64//lib/libc.a(close.o)
 .debug_frame   0x0000000000001638       0x30 0x8 /usr/local/popcorn/x86_64//lib/libc.a(getpid.o)
 .debug_frame   0x0000000000001668       0x30 0x8 /usr/local/popcorn/x86_64//lib/libc.a(lseek.o)
 .debug_frame   0x0000000000001698       0x38 0x8 /usr/local/popcorn/x86_64//lib/libc.a(read.o)
 .debug_frame   0x00000000000016d0       0x38 0x8 /usr/local/popcorn/x86_64//lib/libc.a(abort.o)
 .debug_frame   0x0000000000001708       0x58 0x8 /usr/local/popcorn/x86_64//lib/libc.a(intscan.o)
 .debug_frame   0x0000000000001760       0x50 0x8 /usr/local/popcorn/x86_64//lib/libc.a(shgetc.o)
 .debug_frame   0x00000000000017b0       0x40 0x8 /usr/local/popcorn/x86_64//lib/libc.a(raise.o)
 .debug_frame   0x00000000000017f0       0x58 0x8 /usr/local/popcorn/x86_64//lib/libc.a(__string_read.o)
 .debug_frame   0x0000000000001848       0x40 0x8 /usr/local/popcorn/x86_64//lib/libc.a(__uflow.o)
 .debug_frame   0x0000000000001888       0x58 0x8 /usr/local/popcorn/x86_64//lib/libc.a(getdelim.o)
 .debug_frame   0x00000000000018e0       0x58 0x8 /usr/local/popcorn/x86_64//lib/libc.a(vfscanf.o)
 .debug_frame   0x0000000000001938       0x90 0x8 /usr/local/popcorn/x86_64//lib/libc.a(floatscan.o)
 .debug_frame   0x00000000000019c8       0x30 0x8 /usr/local/popcorn/x86_64//lib/libc.a(copysignl.o)
 .debug_frame   0x00000000000019f8       0x30 0x8 /usr/local/popcorn/x86_64//lib/libc.a(scalbn.o)
 .debug_frame   0x0000000000001a28       0x30 0x8 /usr/local/popcorn/x86_64//lib/libc.a(scalbnl.o)
 .debug_frame   0x0000000000001a58       0x40 0x8 /usr/local/popcorn/x86_64//lib/libc.a(mbrtowc.o)
 .debug_frame   0x0000000000001a98       0x30 0x8 /usr/local/popcorn/x86_64//lib/libc.a(mbsinit.o)
 .debug_frame   0x0000000000001ac8       0x60 0x8 /usr/local/popcorn/x86_64//lib/libc.a(block.o)
 .debug_frame   0x0000000000001b28       0x50 0x8 /usr/local/popcorn/x86_64//lib/libc.a(__toread.o)

.note.gnu.gold-version
                0x0000000000000000       0x1c
 ** note header
                0x0000000000000000       0x10
 ** fill        0x0000000000000010        0x9
 ** zero fill   0x0000000000000019        0x3

.symtab         0x0000000000000000     0x45d8
 ** symtab      0x0000000000000000     0x45d8

.strtab         0x0000000000000000     0x2f9d
 ** string table
                0x0000000000000000     0x2f9d

.shstrtab       0x0000000000000000      0x158
 ** string table
                0x0000000000000000      0x158
