Archive member included because of file (symbol)

/home/rlyerly/Downloads/popcorn-compiler/test-install/aarch64/lib/libc.a(__libc_start_main.o)
                              /home/rlyerly/Downloads/popcorn-compiler/test-install/aarch64/lib/crt1.o (__libc_start_main)
/home/rlyerly/Downloads/popcorn-compiler/test-install/aarch64/lib/libc.a(exit.o)
                              /home/rlyerly/Downloads/popcorn-compiler/test-install/aarch64/lib/libc.a(__libc_start_main.o) (exit)
/home/rlyerly/Downloads/popcorn-compiler/test-install/aarch64/lib/libc.a(libc.o)
                              /home/rlyerly/Downloads/popcorn-compiler/test-install/aarch64/lib/libc.a(__libc_start_main.o) (__hwcap)
/home/rlyerly/Downloads/popcorn-compiler/test-install/aarch64/lib/libc.a(printf.o)
                              fizzbuzz.o (printf)
/home/rlyerly/Downloads/popcorn-compiler/test-install/aarch64/lib/libc.a(stdout.o)
                              /home/rlyerly/Downloads/popcorn-compiler/test-install/aarch64/lib/libc.a(printf.o) (stdout)
/home/rlyerly/Downloads/popcorn-compiler/test-install/aarch64/lib/libc.a(vfprintf.o)
                              /home/rlyerly/Downloads/popcorn-compiler/test-install/aarch64/lib/libc.a(printf.o) (vfprintf)
/home/rlyerly/Downloads/popcorn-compiler/test-install/aarch64/lib/libc.a(atoi.o)
                              main.o (atoi)
/home/rlyerly/Downloads/popcorn-compiler/test-install/aarch64/lib/libc.a(memset.o)
                              /home/rlyerly/Downloads/popcorn-compiler/test-install/aarch64/lib/libc.a(__libc_start_main.o) (memset)
/home/rlyerly/Downloads/popcorn-compiler/test-install/aarch64/lib/libc.a(strnlen.o)
                              /home/rlyerly/Downloads/popcorn-compiler/test-install/aarch64/lib/libc.a(vfprintf.o) (strnlen)
/home/rlyerly/Downloads/popcorn-compiler/test-install/aarch64/lib/libc.a(__environ.o)
                              /home/rlyerly/Downloads/popcorn-compiler/test-install/aarch64/lib/libc.a(__libc_start_main.o) (__environ)
/home/rlyerly/Downloads/popcorn-compiler/test-install/aarch64/lib/libc.a(__init_tls.o)
                              /home/rlyerly/Downloads/popcorn-compiler/test-install/aarch64/lib/libc.a(__libc_start_main.o) (__init_tls)
/home/rlyerly/Downloads/popcorn-compiler/test-install/aarch64/lib/libc.a(__errno_location.o)
                              /home/rlyerly/Downloads/popcorn-compiler/test-install/aarch64/lib/libc.a(vfprintf.o) (__errno_location)
/home/rlyerly/Downloads/popcorn-compiler/test-install/aarch64/lib/libc.a(strerror.o)
                              /home/rlyerly/Downloads/popcorn-compiler/test-install/aarch64/lib/libc.a(vfprintf.o) (strerror)
/home/rlyerly/Downloads/popcorn-compiler/test-install/aarch64/lib/libc.a(_Exit.o)
                              /home/rlyerly/Downloads/popcorn-compiler/test-install/aarch64/lib/libc.a(exit.o) (_Exit)
/home/rlyerly/Downloads/popcorn-compiler/test-install/aarch64/lib/libc.a(__lctrans.o)
                              /home/rlyerly/Downloads/popcorn-compiler/test-install/aarch64/lib/libc.a(strerror.o) (__lctrans)
/home/rlyerly/Downloads/popcorn-compiler/test-install/aarch64/lib/libc.a(__fpclassifyl.o)
                              /home/rlyerly/Downloads/popcorn-compiler/test-install/aarch64/lib/libc.a(vfprintf.o) (__fpclassifyl)
/home/rlyerly/Downloads/popcorn-compiler/test-install/aarch64/lib/libc.a(__signbitl.o)
                              /home/rlyerly/Downloads/popcorn-compiler/test-install/aarch64/lib/libc.a(vfprintf.o) (__signbitl)
/home/rlyerly/Downloads/popcorn-compiler/test-install/aarch64/lib/libc.a(frexpl.o)
                              /home/rlyerly/Downloads/popcorn-compiler/test-install/aarch64/lib/libc.a(vfprintf.o) (frexpl)
/home/rlyerly/Downloads/popcorn-compiler/test-install/aarch64/lib/libc.a(wctomb.o)
                              /home/rlyerly/Downloads/popcorn-compiler/test-install/aarch64/lib/libc.a(vfprintf.o) (wctomb)
/home/rlyerly/Downloads/popcorn-compiler/test-install/aarch64/lib/libc.a(__lockfile.o)
                              /home/rlyerly/Downloads/popcorn-compiler/test-install/aarch64/lib/libc.a(vfprintf.o) (__lockfile)
/home/rlyerly/Downloads/popcorn-compiler/test-install/aarch64/lib/libc.a(__stdio_close.o)
                              /home/rlyerly/Downloads/popcorn-compiler/test-install/aarch64/lib/libc.a(stdout.o) (__stdio_close)
/home/rlyerly/Downloads/popcorn-compiler/test-install/aarch64/lib/libc.a(__stdio_seek.o)
                              /home/rlyerly/Downloads/popcorn-compiler/test-install/aarch64/lib/libc.a(stdout.o) (__stdio_seek)
/home/rlyerly/Downloads/popcorn-compiler/test-install/aarch64/lib/libc.a(__stdout_write.o)
                              /home/rlyerly/Downloads/popcorn-compiler/test-install/aarch64/lib/libc.a(stdout.o) (__stdout_write)
/home/rlyerly/Downloads/popcorn-compiler/test-install/aarch64/lib/libc.a(fwrite.o)
                              /home/rlyerly/Downloads/popcorn-compiler/test-install/aarch64/lib/libc.a(vfprintf.o) (__fwritex)
/home/rlyerly/Downloads/popcorn-compiler/test-install/aarch64/lib/libc.a(memchr.o)
                              /home/rlyerly/Downloads/popcorn-compiler/test-install/aarch64/lib/libc.a(strnlen.o) (memchr)
/home/rlyerly/Downloads/popcorn-compiler/test-install/aarch64/lib/libc.a(memcpy.o)
                              /home/rlyerly/Downloads/popcorn-compiler/test-install/aarch64/lib/libc.a(__init_tls.o) (memcpy)
/home/rlyerly/Downloads/popcorn-compiler/test-install/aarch64/lib/libc.a(__wait.o)
                              /home/rlyerly/Downloads/popcorn-compiler/test-install/aarch64/lib/libc.a(__lockfile.o) (__wait)
/home/rlyerly/Downloads/popcorn-compiler/test-install/aarch64/lib/libc.a(__set_thread_area.o)
                              /home/rlyerly/Downloads/popcorn-compiler/test-install/aarch64/lib/libc.a(__init_tls.o) (__set_thread_area)
/home/rlyerly/Downloads/popcorn-compiler/test-install/aarch64/lib/libc.a(syscall_ret.o)
                              /home/rlyerly/Downloads/popcorn-compiler/test-install/aarch64/lib/libc.a(__stdio_close.o) (__syscall_ret)
/home/rlyerly/Downloads/popcorn-compiler/test-install/aarch64/lib/libc.a(wcrtomb.o)
                              /home/rlyerly/Downloads/popcorn-compiler/test-install/aarch64/lib/libc.a(wctomb.o) (wcrtomb)
/home/rlyerly/Downloads/popcorn-compiler/test-install/aarch64/lib/libc.a(__stdio_write.o)
                              /home/rlyerly/Downloads/popcorn-compiler/test-install/aarch64/lib/libc.a(__stdout_write.o) (__stdio_write)
/home/rlyerly/Downloads/popcorn-compiler/test-install/aarch64/lib/libc.a(__towrite.o)
                              /home/rlyerly/Downloads/popcorn-compiler/test-install/aarch64/lib/libc.a(fwrite.o) (__towrite)
/home/rlyerly/Downloads/popcorn-compiler/test-install/aarch64/lib/libc.a(__stdio_exit.o)
                              /home/rlyerly/Downloads/popcorn-compiler/test-install/aarch64/lib/libc.a(__towrite.o) (__stdio_exit_needed)
/home/rlyerly/Downloads/popcorn-compiler/test-install/aarch64/lib/libc.a(ofl.o)
                              /home/rlyerly/Downloads/popcorn-compiler/test-install/aarch64/lib/libc.a(__stdio_exit.o) (__ofl_lock)
/home/rlyerly/Downloads/popcorn-compiler/test-install/aarch64/lib/libc.a(__lock.o)
                              /home/rlyerly/Downloads/popcorn-compiler/test-install/aarch64/lib/libc.a(ofl.o) (__lock)
/home/rlyerly/Downloads/popcorn-compiler/test-install/aarch64/lib/libmigrate.a(migrate.o)
                              main.o (check_migrate)
/home/rlyerly/Downloads/popcorn-compiler/test-install/aarch64/lib/libmigrate.a(trigger.o)
                              /home/rlyerly/Downloads/popcorn-compiler/test-install/aarch64/lib/libmigrate.a(migrate.o) (clear_migrate_flag)
/home/rlyerly/Downloads/popcorn-compiler/test-install/aarch64/lib/libstack-transform.a(userspace.o)
                              /home/rlyerly/Downloads/popcorn-compiler/test-install/aarch64/lib/libmigrate.a(migrate.o) (st_userspace_rewrite)
/home/rlyerly/Downloads/popcorn-compiler/test-install/aarch64/lib/libstack-transform.a(init.o)
                              /home/rlyerly/Downloads/popcorn-compiler/test-install/aarch64/lib/libstack-transform.a(userspace.o) (st_destroy)
/home/rlyerly/Downloads/popcorn-compiler/test-install/aarch64/lib/libstack-transform.a(rewrite.o)
                              /home/rlyerly/Downloads/popcorn-compiler/test-install/aarch64/lib/libstack-transform.a(userspace.o) (st_rewrite_stack)
/home/rlyerly/Downloads/popcorn-compiler/test-install/aarch64/lib/libstack-transform.a(unwind.o)
                              /home/rlyerly/Downloads/popcorn-compiler/test-install/aarch64/lib/libstack-transform.a(rewrite.o) (bootstrap_first_frame)
/home/rlyerly/Downloads/popcorn-compiler/test-install/aarch64/lib/libstack-transform.a(util.o)
                              /home/rlyerly/Downloads/popcorn-compiler/test-install/aarch64/lib/libstack-transform.a(rewrite.o) (get_function_address)
/home/rlyerly/Downloads/popcorn-compiler/test-install/aarch64/lib/libstack-transform.a(properties.o)
                              /home/rlyerly/Downloads/popcorn-compiler/test-install/aarch64/lib/libstack-transform.a(util.o) (properties_aarch64)
/home/rlyerly/Downloads/popcorn-compiler/test-install/aarch64/lib/libstack-transform.a(regs.o)
                              /home/rlyerly/Downloads/popcorn-compiler/test-install/aarch64/lib/libstack-transform.a(util.o) (regs_aarch64)
/home/rlyerly/Downloads/popcorn-compiler/test-install/aarch64/lib/libstack-transform.a(properties.o)
                              /home/rlyerly/Downloads/popcorn-compiler/test-install/aarch64/lib/libstack-transform.a(util.o) (properties_powerpc64)
/home/rlyerly/Downloads/popcorn-compiler/test-install/aarch64/lib/libstack-transform.a(regs.o)
                              /home/rlyerly/Downloads/popcorn-compiler/test-install/aarch64/lib/libstack-transform.a(util.o) (regs_powerpc64)
/home/rlyerly/Downloads/popcorn-compiler/test-install/aarch64/lib/libstack-transform.a(properties.o)
                              /home/rlyerly/Downloads/popcorn-compiler/test-install/aarch64/lib/libstack-transform.a(util.o) (properties_x86_64)
/home/rlyerly/Downloads/popcorn-compiler/test-install/aarch64/lib/libstack-transform.a(regs.o)
                              /home/rlyerly/Downloads/popcorn-compiler/test-install/aarch64/lib/libstack-transform.a(util.o) (regs_x86_64)
/home/rlyerly/Downloads/popcorn-compiler/test-install/aarch64/lib/libstack-transform.a(data.o)
                              /home/rlyerly/Downloads/popcorn-compiler/test-install/aarch64/lib/libstack-transform.a(rewrite.o) (get_savedfbp_loc)
/home/rlyerly/Downloads/popcorn-compiler/test-install/aarch64/lib/libelf.a(begin.o)
                              /home/rlyerly/Downloads/popcorn-compiler/test-install/aarch64/lib/libstack-transform.a(init.o) (elf_begin)
/home/rlyerly/Downloads/popcorn-compiler/test-install/aarch64/lib/libelf.a(end.o)
                              /home/rlyerly/Downloads/popcorn-compiler/test-install/aarch64/lib/libstack-transform.a(init.o) (elf_end)
/home/rlyerly/Downloads/popcorn-compiler/test-install/aarch64/lib/libelf.a(getdata.o)
                              /home/rlyerly/Downloads/popcorn-compiler/test-install/aarch64/lib/libstack-transform.a(util.o) (elf_getdata)
/home/rlyerly/Downloads/popcorn-compiler/test-install/aarch64/lib/libelf.a(getident.o)
                              /home/rlyerly/Downloads/popcorn-compiler/test-install/aarch64/lib/libstack-transform.a(init.o) (elf_getident)
/home/rlyerly/Downloads/popcorn-compiler/test-install/aarch64/lib/libelf.a(nextscn.o)
                              /home/rlyerly/Downloads/popcorn-compiler/test-install/aarch64/lib/libstack-transform.a(util.o) (elf_nextscn)
/home/rlyerly/Downloads/popcorn-compiler/test-install/aarch64/lib/libelf.a(strptr.o)
                              /home/rlyerly/Downloads/popcorn-compiler/test-install/aarch64/lib/libstack-transform.a(util.o) (elf_strptr)
/home/rlyerly/Downloads/popcorn-compiler/test-install/aarch64/lib/libelf.a(version.o)
                              /home/rlyerly/Downloads/popcorn-compiler/test-install/aarch64/lib/libstack-transform.a(userspace.o) (elf_version)
/home/rlyerly/Downloads/popcorn-compiler/test-install/aarch64/lib/libelf.a(32.getehdr.o)
                              /home/rlyerly/Downloads/popcorn-compiler/test-install/aarch64/lib/libstack-transform.a(init.o) (elf64_getehdr)
/home/rlyerly/Downloads/popcorn-compiler/test-install/aarch64/lib/libelf.a(32.xlatetof.o)
                              /home/rlyerly/Downloads/popcorn-compiler/test-install/aarch64/lib/libelf.a(getdata.o) (_elf32_xltsize)
/home/rlyerly/Downloads/popcorn-compiler/test-install/aarch64/lib/libelf.a(cook.o)
                              /home/rlyerly/Downloads/popcorn-compiler/test-install/aarch64/lib/libelf.a(getdata.o) (_elf_xlatetom)
/home/rlyerly/Downloads/popcorn-compiler/test-install/aarch64/lib/libelf.a(data.o)
                              /home/rlyerly/Downloads/popcorn-compiler/test-install/aarch64/lib/libelf.a(strptr.o) (_elf_sanity_checks)
/home/rlyerly/Downloads/popcorn-compiler/test-install/aarch64/lib/libelf.a(input.o)
                              /home/rlyerly/Downloads/popcorn-compiler/test-install/aarch64/lib/libelf.a(begin.o) (_elf_read)
/home/rlyerly/Downloads/popcorn-compiler/test-install/aarch64/lib/libelf.a(x.elfext.o)
                              /home/rlyerly/Downloads/popcorn-compiler/test-install/aarch64/lib/libstack-transform.a(util.o) (elf_getshdrstrndx)
/home/rlyerly/Downloads/popcorn-compiler/test-install/aarch64/lib/libelf.a(64.xlatetof.o)
                              /home/rlyerly/Downloads/popcorn-compiler/test-install/aarch64/lib/libelf.a(getdata.o) (_elf64_xltsize)
/home/rlyerly/Downloads/popcorn-compiler/test-install/aarch64/lib/libelf.a(gelfshdr.o)
                              /home/rlyerly/Downloads/popcorn-compiler/test-install/aarch64/lib/libstack-transform.a(util.o) (gelf_getshdr)
/home/rlyerly/Downloads/popcorn-compiler/test-install/aarch64/lib/libelf.a(swap64.o)
                              /home/rlyerly/Downloads/popcorn-compiler/test-install/aarch64/lib/libelf.a(64.xlatetof.o) (_elf_load_u64L)
/home/rlyerly/Downloads/popcorn-compiler/test-install/aarch64/lib/libelf.a(verdef_32_tof.o)
                              /home/rlyerly/Downloads/popcorn-compiler/test-install/aarch64/lib/libelf.a(32.xlatetof.o) (_elf_verdef_32L11_tof)
/home/rlyerly/Downloads/popcorn-compiler/test-install/aarch64/lib/libelf.a(verdef_32_tom.o)
                              /home/rlyerly/Downloads/popcorn-compiler/test-install/aarch64/lib/libelf.a(32.xlatetof.o) (_elf_verdef_32L11_tom)
/home/rlyerly/Downloads/popcorn-compiler/test-install/aarch64/lib/libelf.a(verdef_64_tof.o)
                              /home/rlyerly/Downloads/popcorn-compiler/test-install/aarch64/lib/libelf.a(64.xlatetof.o) (_elf_verdef_64L11_tof)
/home/rlyerly/Downloads/popcorn-compiler/test-install/aarch64/lib/libelf.a(verdef_64_tom.o)
                              /home/rlyerly/Downloads/popcorn-compiler/test-install/aarch64/lib/libelf.a(64.xlatetof.o) (_elf_verdef_64L11_tom)
/home/rlyerly/Downloads/popcorn-compiler/test-install/aarch64/lib/libelf.a(getscn.o)
                              /home/rlyerly/Downloads/popcorn-compiler/test-install/aarch64/lib/libelf.a(strptr.o) (elf_getscn)
/home/rlyerly/Downloads/popcorn-compiler/test-install/aarch64/lib/libelf.a(newscn.o)
                              /home/rlyerly/Downloads/popcorn-compiler/test-install/aarch64/lib/libelf.a(x.elfext.o) (_elf_first_scn)
/home/rlyerly/Downloads/popcorn-compiler/test-install/aarch64/lib/libelf.a(32.fsize.o)
                              /home/rlyerly/Downloads/popcorn-compiler/test-install/aarch64/lib/libelf.a(cook.o) (_elf_fmsize)
/home/rlyerly/Downloads/popcorn-compiler/test-install/aarch64/lib/libc.a(__stack_chk_fail.o)
                              /home/rlyerly/Downloads/popcorn-compiler/test-install/aarch64/lib/libelf.a(getdata.o) (__stack_chk_fail)
/home/rlyerly/Downloads/popcorn-compiler/test-install/aarch64/lib/libc.a(getenv.o)
                              /home/rlyerly/Downloads/popcorn-compiler/test-install/aarch64/lib/libstack-transform.a(userspace.o) (getenv)
/home/rlyerly/Downloads/popcorn-compiler/test-install/aarch64/lib/libc.a(assert.o)
                              /home/rlyerly/Downloads/popcorn-compiler/test-install/aarch64/lib/libmigrate.a(migrate.o) (__assert_fail)
/home/rlyerly/Downloads/popcorn-compiler/test-install/aarch64/lib/libc.a(open.o)
                              /home/rlyerly/Downloads/popcorn-compiler/test-install/aarch64/lib/libstack-transform.a(init.o) (open)
/home/rlyerly/Downloads/popcorn-compiler/test-install/aarch64/lib/libc.a(calloc.o)
                              /home/rlyerly/Downloads/popcorn-compiler/test-install/aarch64/lib/libstack-transform.a(regs.o) (calloc)
/home/rlyerly/Downloads/popcorn-compiler/test-install/aarch64/lib/libc.a(lite_malloc.o)
                              /home/rlyerly/Downloads/popcorn-compiler/test-install/aarch64/lib/libc.a(calloc.o) (__malloc0)
/home/rlyerly/Downloads/popcorn-compiler/test-install/aarch64/lib/libc.a(malloc.o)
                              /home/rlyerly/Downloads/popcorn-compiler/test-install/aarch64/lib/libstack-transform.a(userspace.o) (free)
/home/rlyerly/Downloads/popcorn-compiler/test-install/aarch64/lib/libc.a(getrlimit.o)
                              /home/rlyerly/Downloads/popcorn-compiler/test-install/aarch64/lib/libstack-transform.a(userspace.o) (getrlimit)
/home/rlyerly/Downloads/popcorn-compiler/test-install/aarch64/lib/libc.a(syscall.o)
                              /home/rlyerly/Downloads/popcorn-compiler/test-install/aarch64/lib/libmigrate.a(migrate.o) (syscall)
/home/rlyerly/Downloads/popcorn-compiler/test-install/aarch64/lib/libc.a(madvise.o)
                              /home/rlyerly/Downloads/popcorn-compiler/test-install/aarch64/lib/libc.a(malloc.o) (__madvise)
/home/rlyerly/Downloads/popcorn-compiler/test-install/aarch64/lib/libc.a(mmap.o)
                              /home/rlyerly/Downloads/popcorn-compiler/test-install/aarch64/lib/libc.a(malloc.o) (__mmap)
/home/rlyerly/Downloads/popcorn-compiler/test-install/aarch64/lib/libc.a(mremap.o)
                              /home/rlyerly/Downloads/popcorn-compiler/test-install/aarch64/lib/libc.a(malloc.o) (__mremap)
/home/rlyerly/Downloads/popcorn-compiler/test-install/aarch64/lib/libc.a(munmap.o)
                              /home/rlyerly/Downloads/popcorn-compiler/test-install/aarch64/lib/libc.a(malloc.o) (__munmap)
/home/rlyerly/Downloads/popcorn-compiler/test-install/aarch64/lib/libc.a(sigaction.o)
                              /home/rlyerly/Downloads/popcorn-compiler/test-install/aarch64/lib/libmigrate.a(trigger.o) (sigaction)
/home/rlyerly/Downloads/popcorn-compiler/test-install/aarch64/lib/libc.a(sigemptyset.o)
                              /home/rlyerly/Downloads/popcorn-compiler/test-install/aarch64/lib/libmigrate.a(trigger.o) (sigemptyset)
/home/rlyerly/Downloads/popcorn-compiler/test-install/aarch64/lib/libc.a(sigrtmin.o)
                              /home/rlyerly/Downloads/popcorn-compiler/test-install/aarch64/lib/libmigrate.a(trigger.o) (__libc_current_sigrtmin)
/home/rlyerly/Downloads/popcorn-compiler/test-install/aarch64/lib/libc.a(fclose.o)
                              /home/rlyerly/Downloads/popcorn-compiler/test-install/aarch64/lib/libstack-transform.a(userspace.o) (fclose)
/home/rlyerly/Downloads/popcorn-compiler/test-install/aarch64/lib/libc.a(fflush.o)
                              /home/rlyerly/Downloads/popcorn-compiler/test-install/aarch64/lib/libc.a(assert.o) (fflush)
/home/rlyerly/Downloads/popcorn-compiler/test-install/aarch64/lib/libc.a(fopen.o)
                              /home/rlyerly/Downloads/popcorn-compiler/test-install/aarch64/lib/libstack-transform.a(userspace.o) (fopen)
/home/rlyerly/Downloads/popcorn-compiler/test-install/aarch64/lib/libc.a(fprintf.o)
                              /home/rlyerly/Downloads/popcorn-compiler/test-install/aarch64/lib/libstack-transform.a(rewrite.o) (fprintf)
/home/rlyerly/Downloads/popcorn-compiler/test-install/aarch64/lib/libc.a(getline.o)
                              /home/rlyerly/Downloads/popcorn-compiler/test-install/aarch64/lib/libstack-transform.a(userspace.o) (getline)
/home/rlyerly/Downloads/popcorn-compiler/test-install/aarch64/lib/libc.a(perror.o)
                              /home/rlyerly/Downloads/popcorn-compiler/test-install/aarch64/lib/libmigrate.a(trigger.o) (perror)
/home/rlyerly/Downloads/popcorn-compiler/test-install/aarch64/lib/libc.a(snprintf.o)
                              /home/rlyerly/Downloads/popcorn-compiler/test-install/aarch64/lib/libstack-transform.a(userspace.o) (snprintf)
/home/rlyerly/Downloads/popcorn-compiler/test-install/aarch64/lib/libc.a(sscanf.o)
                              /home/rlyerly/Downloads/popcorn-compiler/test-install/aarch64/lib/libstack-transform.a(userspace.o) (sscanf)
/home/rlyerly/Downloads/popcorn-compiler/test-install/aarch64/lib/libc.a(stderr.o)
                              /home/rlyerly/Downloads/popcorn-compiler/test-install/aarch64/lib/libmigrate.a(trigger.o) (stderr)
/home/rlyerly/Downloads/popcorn-compiler/test-install/aarch64/lib/libc.a(vsnprintf.o)
                              /home/rlyerly/Downloads/popcorn-compiler/test-install/aarch64/lib/libc.a(snprintf.o) (vsnprintf)
/home/rlyerly/Downloads/popcorn-compiler/test-install/aarch64/lib/libc.a(vsscanf.o)
                              /home/rlyerly/Downloads/popcorn-compiler/test-install/aarch64/lib/libc.a(sscanf.o) (vsscanf)
/home/rlyerly/Downloads/popcorn-compiler/test-install/aarch64/lib/libc.a(strtol.o)
                              /home/rlyerly/Downloads/popcorn-compiler/test-install/aarch64/lib/libelf.a(version.o) (strtol)
/home/rlyerly/Downloads/popcorn-compiler/test-install/aarch64/lib/libc.a(memcmp.o)
                              /home/rlyerly/Downloads/popcorn-compiler/test-install/aarch64/lib/libelf.a(begin.o) (memcmp)
/home/rlyerly/Downloads/popcorn-compiler/test-install/aarch64/lib/libc.a(memmove.o)
                              /home/rlyerly/Downloads/popcorn-compiler/test-install/aarch64/lib/libelf.a(32.xlatetof.o) (memmove)
/home/rlyerly/Downloads/popcorn-compiler/test-install/aarch64/lib/libc.a(strchr.o)
                              /home/rlyerly/Downloads/popcorn-compiler/test-install/aarch64/lib/libc.a(fopen.o) (strchr)
/home/rlyerly/Downloads/popcorn-compiler/test-install/aarch64/lib/libc.a(strchrnul.o)
                              /home/rlyerly/Downloads/popcorn-compiler/test-install/aarch64/lib/libc.a(getenv.o) (__strchrnul)
/home/rlyerly/Downloads/popcorn-compiler/test-install/aarch64/lib/libc.a(strcmp.o)
                              /home/rlyerly/Downloads/popcorn-compiler/test-install/aarch64/lib/libstack-transform.a(util.o) (strcmp)
/home/rlyerly/Downloads/popcorn-compiler/test-install/aarch64/lib/libc.a(strlen.o)
                              /home/rlyerly/Downloads/popcorn-compiler/test-install/aarch64/lib/libc.a(perror.o) (strlen)
/home/rlyerly/Downloads/popcorn-compiler/test-install/aarch64/lib/libc.a(strncmp.o)
                              /home/rlyerly/Downloads/popcorn-compiler/test-install/aarch64/lib/libstack-transform.a(userspace.o) (strncmp)
/home/rlyerly/Downloads/popcorn-compiler/test-install/aarch64/lib/libc.a(__syscall_cp.o)
                              /home/rlyerly/Downloads/popcorn-compiler/test-install/aarch64/lib/libc.a(open.o) (__syscall_cp)
/home/rlyerly/Downloads/popcorn-compiler/test-install/aarch64/lib/libc.a(pthread_attr_get.o)
                              /home/rlyerly/Downloads/popcorn-compiler/test-install/aarch64/lib/libstack-transform.a(userspace.o) (pthread_attr_getstack)
/home/rlyerly/Downloads/popcorn-compiler/test-install/aarch64/lib/libc.a(pthread_getattr_np.o)
                              /home/rlyerly/Downloads/popcorn-compiler/test-install/aarch64/lib/libstack-transform.a(userspace.o) (pthread_getattr_np)
/home/rlyerly/Downloads/popcorn-compiler/test-install/aarch64/lib/libc.a(pthread_getspecific.o)
                              /home/rlyerly/Downloads/popcorn-compiler/test-install/aarch64/lib/libstack-transform.a(userspace.o) (pthread_getspecific)
/home/rlyerly/Downloads/popcorn-compiler/test-install/aarch64/lib/libc.a(pthread_key_create.o)
                              /home/rlyerly/Downloads/popcorn-compiler/test-install/aarch64/lib/libstack-transform.a(userspace.o) (pthread_key_create)
/home/rlyerly/Downloads/popcorn-compiler/test-install/aarch64/lib/libc.a(pthread_migrate.o)
                              /home/rlyerly/Downloads/popcorn-compiler/test-install/aarch64/lib/libmigrate.a(migrate.o) (pthread_migrate_args)
/home/rlyerly/Downloads/popcorn-compiler/test-install/aarch64/lib/libc.a(pthread_self.o)
                              /home/rlyerly/Downloads/popcorn-compiler/test-install/aarch64/lib/libstack-transform.a(userspace.o) (pthread_self)
/home/rlyerly/Downloads/popcorn-compiler/test-install/aarch64/lib/libc.a(pthread_setspecific.o)
                              /home/rlyerly/Downloads/popcorn-compiler/test-install/aarch64/lib/libstack-transform.a(userspace.o) (pthread_setspecific)
/home/rlyerly/Downloads/popcorn-compiler/test-install/aarch64/lib/libc.a(close.o)
                              /home/rlyerly/Downloads/popcorn-compiler/test-install/aarch64/lib/libstack-transform.a(init.o) (close)
/home/rlyerly/Downloads/popcorn-compiler/test-install/aarch64/lib/libc.a(getpid.o)
                              /home/rlyerly/Downloads/popcorn-compiler/test-install/aarch64/lib/libstack-transform.a(userspace.o) (getpid)
/home/rlyerly/Downloads/popcorn-compiler/test-install/aarch64/lib/libc.a(lseek.o)
                              /home/rlyerly/Downloads/popcorn-compiler/test-install/aarch64/lib/libelf.a(begin.o) (lseek)
/home/rlyerly/Downloads/popcorn-compiler/test-install/aarch64/lib/libc.a(read.o)
                              /home/rlyerly/Downloads/popcorn-compiler/test-install/aarch64/lib/libelf.a(input.o) (read)
/home/rlyerly/Downloads/popcorn-compiler/test-install/aarch64/lib/libc.a(abort.o)
                              /home/rlyerly/Downloads/popcorn-compiler/test-install/aarch64/lib/libc.a(assert.o) (abort)
/home/rlyerly/Downloads/popcorn-compiler/test-install/aarch64/lib/libc.a(syscall.o)
                              /home/rlyerly/Downloads/popcorn-compiler/test-install/aarch64/lib/libc.a(__syscall_cp.o) (__syscall)
/home/rlyerly/Downloads/popcorn-compiler/test-install/aarch64/lib/libc.a(intscan.o)
                              /home/rlyerly/Downloads/popcorn-compiler/test-install/aarch64/lib/libc.a(strtol.o) (__intscan)
/home/rlyerly/Downloads/popcorn-compiler/test-install/aarch64/lib/libc.a(shgetc.o)
                              /home/rlyerly/Downloads/popcorn-compiler/test-install/aarch64/lib/libc.a(intscan.o) (__shgetc)
/home/rlyerly/Downloads/popcorn-compiler/test-install/aarch64/lib/libc.a(expand_heap.o)
                              /home/rlyerly/Downloads/popcorn-compiler/test-install/aarch64/lib/libc.a(lite_malloc.o) (__expand_heap)
/home/rlyerly/Downloads/popcorn-compiler/test-install/aarch64/lib/libc.a(restore.o)
                              /home/rlyerly/Downloads/popcorn-compiler/test-install/aarch64/lib/libc.a(sigaction.o) (__restore)
/home/rlyerly/Downloads/popcorn-compiler/test-install/aarch64/lib/libc.a(block.o)
                              /home/rlyerly/Downloads/popcorn-compiler/test-install/aarch64/lib/libc.a(abort.o) (__block_all_sigs)
/home/rlyerly/Downloads/popcorn-compiler/test-install/aarch64/lib/libc.a(raise.o)
                              /home/rlyerly/Downloads/popcorn-compiler/test-install/aarch64/lib/libc.a(abort.o) (raise)
/home/rlyerly/Downloads/popcorn-compiler/test-install/aarch64/lib/libc.a(__fdopen.o)
                              /home/rlyerly/Downloads/popcorn-compiler/test-install/aarch64/lib/libc.a(fopen.o) (__fdopen)
/home/rlyerly/Downloads/popcorn-compiler/test-install/aarch64/lib/libc.a(__fmodeflags.o)
                              /home/rlyerly/Downloads/popcorn-compiler/test-install/aarch64/lib/libc.a(fopen.o) (__fmodeflags)
/home/rlyerly/Downloads/popcorn-compiler/test-install/aarch64/lib/libc.a(__stdio_read.o)
                              /home/rlyerly/Downloads/popcorn-compiler/test-install/aarch64/lib/libc.a(__fdopen.o) (__stdio_read)
/home/rlyerly/Downloads/popcorn-compiler/test-install/aarch64/lib/libc.a(__string_read.o)
                              /home/rlyerly/Downloads/popcorn-compiler/test-install/aarch64/lib/libc.a(vsscanf.o) (__string_read)
/home/rlyerly/Downloads/popcorn-compiler/test-install/aarch64/lib/libc.a(__uflow.o)
                              /home/rlyerly/Downloads/popcorn-compiler/test-install/aarch64/lib/libc.a(shgetc.o) (__uflow)
/home/rlyerly/Downloads/popcorn-compiler/test-install/aarch64/lib/libc.a(fputc.o)
                              /home/rlyerly/Downloads/popcorn-compiler/test-install/aarch64/lib/libc.a(perror.o) (fputc)
/home/rlyerly/Downloads/popcorn-compiler/test-install/aarch64/lib/libc.a(getdelim.o)
                              /home/rlyerly/Downloads/popcorn-compiler/test-install/aarch64/lib/libc.a(getline.o) (getdelim)
/home/rlyerly/Downloads/popcorn-compiler/test-install/aarch64/lib/libc.a(ofl_add.o)
                              /home/rlyerly/Downloads/popcorn-compiler/test-install/aarch64/lib/libc.a(__fdopen.o) (__ofl_add)
/home/rlyerly/Downloads/popcorn-compiler/test-install/aarch64/lib/libc.a(vfscanf.o)
                              /home/rlyerly/Downloads/popcorn-compiler/test-install/aarch64/lib/libc.a(vsscanf.o) (vfscanf)
/home/rlyerly/Downloads/popcorn-compiler/test-install/aarch64/lib/libc.a(floatscan.o)
                              /home/rlyerly/Downloads/popcorn-compiler/test-install/aarch64/lib/libc.a(vfscanf.o) (__floatscan)
/home/rlyerly/Downloads/popcorn-compiler/test-install/aarch64/lib/libc.a(fabs.o)
                              /home/rlyerly/Downloads/popcorn-compiler/test-install/aarch64/lib/libc.a(floatscan.o) (fabs)
/home/rlyerly/Downloads/popcorn-compiler/test-install/aarch64/lib/libc.a(copysignl.o)
                              /home/rlyerly/Downloads/popcorn-compiler/test-install/aarch64/lib/libc.a(floatscan.o) (copysignl)
/home/rlyerly/Downloads/popcorn-compiler/test-install/aarch64/lib/libc.a(fmodl.o)
                              /home/rlyerly/Downloads/popcorn-compiler/test-install/aarch64/lib/libc.a(floatscan.o) (fmodl)
/home/rlyerly/Downloads/popcorn-compiler/test-install/aarch64/lib/libc.a(scalbn.o)
                              /home/rlyerly/Downloads/popcorn-compiler/test-install/aarch64/lib/libc.a(floatscan.o) (scalbn)
/home/rlyerly/Downloads/popcorn-compiler/test-install/aarch64/lib/libc.a(scalbnl.o)
                              /home/rlyerly/Downloads/popcorn-compiler/test-install/aarch64/lib/libc.a(floatscan.o) (scalbnl)
/home/rlyerly/Downloads/popcorn-compiler/test-install/aarch64/lib/libc.a(mbrtowc.o)
                              /home/rlyerly/Downloads/popcorn-compiler/test-install/aarch64/lib/libc.a(vfscanf.o) (mbrtowc)
/home/rlyerly/Downloads/popcorn-compiler/test-install/aarch64/lib/libc.a(mbsinit.o)
                              /home/rlyerly/Downloads/popcorn-compiler/test-install/aarch64/lib/libc.a(vfscanf.o) (mbsinit)
/home/rlyerly/Downloads/popcorn-compiler/test-install/aarch64/lib/libc.a(__overflow.o)
                              /home/rlyerly/Downloads/popcorn-compiler/test-install/aarch64/lib/libc.a(fputc.o) (__overflow)
/home/rlyerly/Downloads/popcorn-compiler/test-install/aarch64/lib/libc.a(__toread.o)
                              /home/rlyerly/Downloads/popcorn-compiler/test-install/aarch64/lib/libc.a(__uflow.o) (__toread)
/home/rlyerly/Downloads/popcorn-compiler/test-install/aarch64/lib/libc.a(internal.o)
                              /home/rlyerly/Downloads/popcorn-compiler/test-install/aarch64/lib/libc.a(mbrtowc.o) (__fsmu8)
/usr/lib/gcc-cross/aarch64-linux-gnu/5/libgcc.a(addtf3.o)
                              /home/rlyerly/Downloads/popcorn-compiler/test-install/aarch64/lib/libc.a(vfprintf.o) (__addtf3)
/usr/lib/gcc-cross/aarch64-linux-gnu/5/libgcc.a(divtf3.o)
                              /home/rlyerly/Downloads/popcorn-compiler/test-install/aarch64/lib/libc.a(floatscan.o) (__divtf3)
/usr/lib/gcc-cross/aarch64-linux-gnu/5/libgcc.a(eqtf2.o)
                              /home/rlyerly/Downloads/popcorn-compiler/test-install/aarch64/lib/libc.a(vfprintf.o) (__eqtf2)
/usr/lib/gcc-cross/aarch64-linux-gnu/5/libgcc.a(getf2.o)
                              /home/rlyerly/Downloads/popcorn-compiler/test-install/aarch64/lib/libc.a(fmodl.o) (__gttf2)
/usr/lib/gcc-cross/aarch64-linux-gnu/5/libgcc.a(letf2.o)
                              /home/rlyerly/Downloads/popcorn-compiler/test-install/aarch64/lib/libc.a(floatscan.o) (__lttf2)
/usr/lib/gcc-cross/aarch64-linux-gnu/5/libgcc.a(multf3.o)
                              /home/rlyerly/Downloads/popcorn-compiler/test-install/aarch64/lib/libc.a(vfprintf.o) (__multf3)
/usr/lib/gcc-cross/aarch64-linux-gnu/5/libgcc.a(subtf3.o)
                              /home/rlyerly/Downloads/popcorn-compiler/test-install/aarch64/lib/libc.a(vfprintf.o) (__subtf3)
/usr/lib/gcc-cross/aarch64-linux-gnu/5/libgcc.a(unordtf2.o)
                              /home/rlyerly/Downloads/popcorn-compiler/test-install/aarch64/lib/libc.a(vfprintf.o) (__unordtf2)
/usr/lib/gcc-cross/aarch64-linux-gnu/5/libgcc.a(fixtfsi.o)
                              /home/rlyerly/Downloads/popcorn-compiler/test-install/aarch64/lib/libc.a(vfprintf.o) (__fixtfsi)
/usr/lib/gcc-cross/aarch64-linux-gnu/5/libgcc.a(fixunstfsi.o)
                              /home/rlyerly/Downloads/popcorn-compiler/test-install/aarch64/lib/libc.a(vfprintf.o) (__fixunstfsi)
/usr/lib/gcc-cross/aarch64-linux-gnu/5/libgcc.a(floatsitf.o)
                              /home/rlyerly/Downloads/popcorn-compiler/test-install/aarch64/lib/libc.a(vfprintf.o) (__floatsitf)
/usr/lib/gcc-cross/aarch64-linux-gnu/5/libgcc.a(floatunsitf.o)
                              /home/rlyerly/Downloads/popcorn-compiler/test-install/aarch64/lib/libc.a(vfprintf.o) (__floatunsitf)
/usr/lib/gcc-cross/aarch64-linux-gnu/5/libgcc.a(extendsftf2.o)
                              /home/rlyerly/Downloads/popcorn-compiler/test-install/aarch64/lib/libc.a(floatscan.o) (__extendsftf2)
/usr/lib/gcc-cross/aarch64-linux-gnu/5/libgcc.a(extenddftf2.o)
                              /home/rlyerly/Downloads/popcorn-compiler/test-install/aarch64/lib/libc.a(vfprintf.o) (__extenddftf2)
/usr/lib/gcc-cross/aarch64-linux-gnu/5/libgcc.a(trunctfsf2.o)
                              /home/rlyerly/Downloads/popcorn-compiler/test-install/aarch64/lib/libc.a(vfscanf.o) (__trunctfsf2)
/usr/lib/gcc-cross/aarch64-linux-gnu/5/libgcc.a(trunctfdf2.o)
                              /home/rlyerly/Downloads/popcorn-compiler/test-install/aarch64/lib/libc.a(vfscanf.o) (__trunctfdf2)
/usr/lib/gcc-cross/aarch64-linux-gnu/5/libgcc.a(sfp-exceptions.o)
                              /usr/lib/gcc-cross/aarch64-linux-gnu/5/libgcc.a(addtf3.o) (__sfp_handle_exceptions)

Allocating common symbols
Common symbol       size              file

__libc              0x70              /home/rlyerly/Downloads/popcorn-compiler/test-install/aarch64/lib/libc.a(libc.o)
__hwcap             0x8               /home/rlyerly/Downloads/popcorn-compiler/test-install/aarch64/lib/libc.a(libc.o)
__stack_chk_guard   0x8               /home/rlyerly/Downloads/popcorn-compiler/test-install/aarch64/lib/libc.a(__stack_chk_fail.o)
__sysinfo           0x8               /home/rlyerly/Downloads/popcorn-compiler/test-install/aarch64/lib/libc.a(libc.o)

Discarded input sections

 .note.GNU-stack
                0x0000000000000000        0x0 0x1 main.o
 .note.GNU-stack
                0x0000000000000000        0x0 0x1 fizzbuzz.o
 .note.GNU-stack
                0x0000000000000000        0x0 0x1 /home/rlyerly/Downloads/popcorn-compiler/test-install/aarch64/lib/crt1.o
 .note.GNU-stack
                0x0000000000000000        0x0 0x1 /home/rlyerly/Downloads/popcorn-compiler/test-install/aarch64/lib/libc.a(__libc_start_main.o)
 .note.GNU-stack
                0x0000000000000000        0x0 0x1 /home/rlyerly/Downloads/popcorn-compiler/test-install/aarch64/lib/libc.a(exit.o)
 .note.GNU-stack
                0x0000000000000000        0x0 0x1 /home/rlyerly/Downloads/popcorn-compiler/test-install/aarch64/lib/libc.a(libc.o)
 .note.GNU-stack
                0x0000000000000000        0x0 0x1 /home/rlyerly/Downloads/popcorn-compiler/test-install/aarch64/lib/libc.a(printf.o)
 .note.GNU-stack
                0x0000000000000000        0x0 0x1 /home/rlyerly/Downloads/popcorn-compiler/test-install/aarch64/lib/libc.a(stdout.o)
 .note.GNU-stack
                0x0000000000000000        0x0 0x1 /home/rlyerly/Downloads/popcorn-compiler/test-install/aarch64/lib/libc.a(vfprintf.o)
 .note.GNU-stack
                0x0000000000000000        0x0 0x1 /home/rlyerly/Downloads/popcorn-compiler/test-install/aarch64/lib/libc.a(atoi.o)
 .note.GNU-stack
                0x0000000000000000        0x0 0x1 /home/rlyerly/Downloads/popcorn-compiler/test-install/aarch64/lib/libc.a(memset.o)
 .note.GNU-stack
                0x0000000000000000        0x0 0x1 /home/rlyerly/Downloads/popcorn-compiler/test-install/aarch64/lib/libc.a(strnlen.o)
 .note.GNU-stack
                0x0000000000000000        0x0 0x1 /home/rlyerly/Downloads/popcorn-compiler/test-install/aarch64/lib/libc.a(__environ.o)
 .note.GNU-stack
                0x0000000000000000        0x0 0x1 /home/rlyerly/Downloads/popcorn-compiler/test-install/aarch64/lib/libc.a(__init_tls.o)
 .note.GNU-stack
                0x0000000000000000        0x0 0x1 /home/rlyerly/Downloads/popcorn-compiler/test-install/aarch64/lib/libc.a(__errno_location.o)
 .note.GNU-stack
                0x0000000000000000        0x0 0x1 /home/rlyerly/Downloads/popcorn-compiler/test-install/aarch64/lib/libc.a(strerror.o)
 .note.GNU-stack
                0x0000000000000000        0x0 0x1 /home/rlyerly/Downloads/popcorn-compiler/test-install/aarch64/lib/libc.a(_Exit.o)
 .note.GNU-stack
                0x0000000000000000        0x0 0x1 /home/rlyerly/Downloads/popcorn-compiler/test-install/aarch64/lib/libc.a(__lctrans.o)
 .note.GNU-stack
                0x0000000000000000        0x0 0x1 /home/rlyerly/Downloads/popcorn-compiler/test-install/aarch64/lib/libc.a(__fpclassifyl.o)
 .note.GNU-stack
                0x0000000000000000        0x0 0x1 /home/rlyerly/Downloads/popcorn-compiler/test-install/aarch64/lib/libc.a(__signbitl.o)
 .note.GNU-stack
                0x0000000000000000        0x0 0x1 /home/rlyerly/Downloads/popcorn-compiler/test-install/aarch64/lib/libc.a(frexpl.o)
 .note.GNU-stack
                0x0000000000000000        0x0 0x1 /home/rlyerly/Downloads/popcorn-compiler/test-install/aarch64/lib/libc.a(wctomb.o)
 .note.GNU-stack
                0x0000000000000000        0x0 0x1 /home/rlyerly/Downloads/popcorn-compiler/test-install/aarch64/lib/libc.a(__lockfile.o)
 .note.GNU-stack
                0x0000000000000000        0x0 0x1 /home/rlyerly/Downloads/popcorn-compiler/test-install/aarch64/lib/libc.a(__stdio_close.o)
 .note.GNU-stack
                0x0000000000000000        0x0 0x1 /home/rlyerly/Downloads/popcorn-compiler/test-install/aarch64/lib/libc.a(__stdio_seek.o)
 .note.GNU-stack
                0x0000000000000000        0x0 0x1 /home/rlyerly/Downloads/popcorn-compiler/test-install/aarch64/lib/libc.a(__stdout_write.o)
 .note.GNU-stack
                0x0000000000000000        0x0 0x1 /home/rlyerly/Downloads/popcorn-compiler/test-install/aarch64/lib/libc.a(fwrite.o)
 .note.GNU-stack
                0x0000000000000000        0x0 0x1 /home/rlyerly/Downloads/popcorn-compiler/test-install/aarch64/lib/libc.a(memchr.o)
 .note.GNU-stack
                0x0000000000000000        0x0 0x1 /home/rlyerly/Downloads/popcorn-compiler/test-install/aarch64/lib/libc.a(memcpy.o)
 .note.GNU-stack
                0x0000000000000000        0x0 0x1 /home/rlyerly/Downloads/popcorn-compiler/test-install/aarch64/lib/libc.a(__wait.o)
 .note.GNU-stack
                0x0000000000000000        0x0 0x1 /home/rlyerly/Downloads/popcorn-compiler/test-install/aarch64/lib/libc.a(__set_thread_area.o)
 .note.GNU-stack
                0x0000000000000000        0x0 0x1 /home/rlyerly/Downloads/popcorn-compiler/test-install/aarch64/lib/libc.a(syscall_ret.o)
 .note.GNU-stack
                0x0000000000000000        0x0 0x1 /home/rlyerly/Downloads/popcorn-compiler/test-install/aarch64/lib/libc.a(wcrtomb.o)
 .note.GNU-stack
                0x0000000000000000        0x0 0x1 /home/rlyerly/Downloads/popcorn-compiler/test-install/aarch64/lib/libc.a(__stdio_write.o)
 .note.GNU-stack
                0x0000000000000000        0x0 0x1 /home/rlyerly/Downloads/popcorn-compiler/test-install/aarch64/lib/libc.a(__towrite.o)
 .note.GNU-stack
                0x0000000000000000        0x0 0x1 /home/rlyerly/Downloads/popcorn-compiler/test-install/aarch64/lib/libc.a(__stdio_exit.o)
 .note.GNU-stack
                0x0000000000000000        0x0 0x1 /home/rlyerly/Downloads/popcorn-compiler/test-install/aarch64/lib/libc.a(ofl.o)
 .note.GNU-stack
                0x0000000000000000        0x0 0x1 /home/rlyerly/Downloads/popcorn-compiler/test-install/aarch64/lib/libc.a(__lock.o)
 .note.GNU-stack
                0x0000000000000000        0x0 0x1 /home/rlyerly/Downloads/popcorn-compiler/test-install/aarch64/lib/libmigrate.a(migrate.o)
 .note.GNU-stack
                0x0000000000000000        0x0 0x1 /home/rlyerly/Downloads/popcorn-compiler/test-install/aarch64/lib/libmigrate.a(trigger.o)
 .note.GNU-stack
                0x0000000000000000        0x0 0x1 /home/rlyerly/Downloads/popcorn-compiler/test-install/aarch64/lib/libstack-transform.a(userspace.o)
 .note.GNU-stack
                0x0000000000000000        0x0 0x1 /home/rlyerly/Downloads/popcorn-compiler/test-install/aarch64/lib/libstack-transform.a(init.o)
 .note.GNU-stack
                0x0000000000000000        0x0 0x1 /home/rlyerly/Downloads/popcorn-compiler/test-install/aarch64/lib/libstack-transform.a(rewrite.o)
 .note.GNU-stack
                0x0000000000000000        0x0 0x1 /home/rlyerly/Downloads/popcorn-compiler/test-install/aarch64/lib/libstack-transform.a(unwind.o)
 .note.GNU-stack
                0x0000000000000000        0x0 0x1 /home/rlyerly/Downloads/popcorn-compiler/test-install/aarch64/lib/libstack-transform.a(util.o)
 .note.GNU-stack
                0x0000000000000000        0x0 0x1 /home/rlyerly/Downloads/popcorn-compiler/test-install/aarch64/lib/libstack-transform.a(properties.o)
 .note.GNU-stack
                0x0000000000000000        0x0 0x1 /home/rlyerly/Downloads/popcorn-compiler/test-install/aarch64/lib/libstack-transform.a(regs.o)
 .note.GNU-stack
                0x0000000000000000        0x0 0x1 /home/rlyerly/Downloads/popcorn-compiler/test-install/aarch64/lib/libstack-transform.a(properties.o)
 .note.GNU-stack
                0x0000000000000000        0x0 0x1 /home/rlyerly/Downloads/popcorn-compiler/test-install/aarch64/lib/libstack-transform.a(regs.o)
 .note.GNU-stack
                0x0000000000000000        0x0 0x1 /home/rlyerly/Downloads/popcorn-compiler/test-install/aarch64/lib/libstack-transform.a(properties.o)
 .note.GNU-stack
                0x0000000000000000        0x0 0x1 /home/rlyerly/Downloads/popcorn-compiler/test-install/aarch64/lib/libstack-transform.a(regs.o)
 .note.GNU-stack
                0x0000000000000000        0x0 0x1 /home/rlyerly/Downloads/popcorn-compiler/test-install/aarch64/lib/libstack-transform.a(data.o)
 .note.GNU-stack
                0x0000000000000000        0x0 0x1 /home/rlyerly/Downloads/popcorn-compiler/test-install/aarch64/lib/libelf.a(begin.o)
 .note.GNU-stack
                0x0000000000000000        0x0 0x1 /home/rlyerly/Downloads/popcorn-compiler/test-install/aarch64/lib/libelf.a(end.o)
 .note.GNU-stack
                0x0000000000000000        0x0 0x1 /home/rlyerly/Downloads/popcorn-compiler/test-install/aarch64/lib/libelf.a(getdata.o)
 .note.GNU-stack
                0x0000000000000000        0x0 0x1 /home/rlyerly/Downloads/popcorn-compiler/test-install/aarch64/lib/libelf.a(getident.o)
 .note.GNU-stack
                0x0000000000000000        0x0 0x1 /home/rlyerly/Downloads/popcorn-compiler/test-install/aarch64/lib/libelf.a(nextscn.o)
 .note.GNU-stack
                0x0000000000000000        0x0 0x1 /home/rlyerly/Downloads/popcorn-compiler/test-install/aarch64/lib/libelf.a(strptr.o)
 .note.GNU-stack
                0x0000000000000000        0x0 0x1 /home/rlyerly/Downloads/popcorn-compiler/test-install/aarch64/lib/libelf.a(version.o)
 .note.GNU-stack
                0x0000000000000000        0x0 0x1 /home/rlyerly/Downloads/popcorn-compiler/test-install/aarch64/lib/libelf.a(32.getehdr.o)
 .note.GNU-stack
                0x0000000000000000        0x0 0x1 /home/rlyerly/Downloads/popcorn-compiler/test-install/aarch64/lib/libelf.a(32.xlatetof.o)
 .note.GNU-stack
                0x0000000000000000        0x0 0x1 /home/rlyerly/Downloads/popcorn-compiler/test-install/aarch64/lib/libelf.a(cook.o)
 .note.GNU-stack
                0x0000000000000000        0x0 0x1 /home/rlyerly/Downloads/popcorn-compiler/test-install/aarch64/lib/libelf.a(data.o)
 .note.GNU-stack
                0x0000000000000000        0x0 0x1 /home/rlyerly/Downloads/popcorn-compiler/test-install/aarch64/lib/libelf.a(input.o)
 .note.GNU-stack
                0x0000000000000000        0x0 0x1 /home/rlyerly/Downloads/popcorn-compiler/test-install/aarch64/lib/libelf.a(x.elfext.o)
 .note.GNU-stack
                0x0000000000000000        0x0 0x1 /home/rlyerly/Downloads/popcorn-compiler/test-install/aarch64/lib/libelf.a(64.xlatetof.o)
 .note.GNU-stack
                0x0000000000000000        0x0 0x1 /home/rlyerly/Downloads/popcorn-compiler/test-install/aarch64/lib/libelf.a(gelfshdr.o)
 .note.GNU-stack
                0x0000000000000000        0x0 0x1 /home/rlyerly/Downloads/popcorn-compiler/test-install/aarch64/lib/libelf.a(swap64.o)
 .note.GNU-stack
                0x0000000000000000        0x0 0x1 /home/rlyerly/Downloads/popcorn-compiler/test-install/aarch64/lib/libelf.a(verdef_32_tof.o)
 .note.GNU-stack
                0x0000000000000000        0x0 0x1 /home/rlyerly/Downloads/popcorn-compiler/test-install/aarch64/lib/libelf.a(verdef_32_tom.o)
 .note.GNU-stack
                0x0000000000000000        0x0 0x1 /home/rlyerly/Downloads/popcorn-compiler/test-install/aarch64/lib/libelf.a(verdef_64_tof.o)
 .note.GNU-stack
                0x0000000000000000        0x0 0x1 /home/rlyerly/Downloads/popcorn-compiler/test-install/aarch64/lib/libelf.a(verdef_64_tom.o)
 .note.GNU-stack
                0x0000000000000000        0x0 0x1 /home/rlyerly/Downloads/popcorn-compiler/test-install/aarch64/lib/libelf.a(getscn.o)
 .note.GNU-stack
                0x0000000000000000        0x0 0x1 /home/rlyerly/Downloads/popcorn-compiler/test-install/aarch64/lib/libelf.a(newscn.o)
 .note.GNU-stack
                0x0000000000000000        0x0 0x1 /home/rlyerly/Downloads/popcorn-compiler/test-install/aarch64/lib/libelf.a(32.fsize.o)
 .note.GNU-stack
                0x0000000000000000        0x0 0x1 /home/rlyerly/Downloads/popcorn-compiler/test-install/aarch64/lib/libc.a(__stack_chk_fail.o)
 .note.GNU-stack
                0x0000000000000000        0x0 0x1 /home/rlyerly/Downloads/popcorn-compiler/test-install/aarch64/lib/libc.a(getenv.o)
 .note.GNU-stack
                0x0000000000000000        0x0 0x1 /home/rlyerly/Downloads/popcorn-compiler/test-install/aarch64/lib/libc.a(assert.o)
 .note.GNU-stack
                0x0000000000000000        0x0 0x1 /home/rlyerly/Downloads/popcorn-compiler/test-install/aarch64/lib/libc.a(open.o)
 .note.GNU-stack
                0x0000000000000000        0x0 0x1 /home/rlyerly/Downloads/popcorn-compiler/test-install/aarch64/lib/libc.a(calloc.o)
 .note.GNU-stack
                0x0000000000000000        0x0 0x1 /home/rlyerly/Downloads/popcorn-compiler/test-install/aarch64/lib/libc.a(lite_malloc.o)
 .note.GNU-stack
                0x0000000000000000        0x0 0x1 /home/rlyerly/Downloads/popcorn-compiler/test-install/aarch64/lib/libc.a(malloc.o)
 .note.GNU-stack
                0x0000000000000000        0x0 0x1 /home/rlyerly/Downloads/popcorn-compiler/test-install/aarch64/lib/libc.a(getrlimit.o)
 .note.GNU-stack
                0x0000000000000000        0x0 0x1 /home/rlyerly/Downloads/popcorn-compiler/test-install/aarch64/lib/libc.a(syscall.o)
 .note.GNU-stack
                0x0000000000000000        0x0 0x1 /home/rlyerly/Downloads/popcorn-compiler/test-install/aarch64/lib/libc.a(madvise.o)
 .note.GNU-stack
                0x0000000000000000        0x0 0x1 /home/rlyerly/Downloads/popcorn-compiler/test-install/aarch64/lib/libc.a(mmap.o)
 .note.GNU-stack
                0x0000000000000000        0x0 0x1 /home/rlyerly/Downloads/popcorn-compiler/test-install/aarch64/lib/libc.a(mremap.o)
 .note.GNU-stack
                0x0000000000000000        0x0 0x1 /home/rlyerly/Downloads/popcorn-compiler/test-install/aarch64/lib/libc.a(munmap.o)
 .note.GNU-stack
                0x0000000000000000        0x0 0x1 /home/rlyerly/Downloads/popcorn-compiler/test-install/aarch64/lib/libc.a(sigaction.o)
 .note.GNU-stack
                0x0000000000000000        0x0 0x1 /home/rlyerly/Downloads/popcorn-compiler/test-install/aarch64/lib/libc.a(sigemptyset.o)
 .note.GNU-stack
                0x0000000000000000        0x0 0x1 /home/rlyerly/Downloads/popcorn-compiler/test-install/aarch64/lib/libc.a(sigrtmin.o)
 .note.GNU-stack
                0x0000000000000000        0x0 0x1 /home/rlyerly/Downloads/popcorn-compiler/test-install/aarch64/lib/libc.a(fclose.o)
 .note.GNU-stack
                0x0000000000000000        0x0 0x1 /home/rlyerly/Downloads/popcorn-compiler/test-install/aarch64/lib/libc.a(fflush.o)
 .note.GNU-stack
                0x0000000000000000        0x0 0x1 /home/rlyerly/Downloads/popcorn-compiler/test-install/aarch64/lib/libc.a(fopen.o)
 .note.GNU-stack
                0x0000000000000000        0x0 0x1 /home/rlyerly/Downloads/popcorn-compiler/test-install/aarch64/lib/libc.a(fprintf.o)
 .note.GNU-stack
                0x0000000000000000        0x0 0x1 /home/rlyerly/Downloads/popcorn-compiler/test-install/aarch64/lib/libc.a(getline.o)
 .note.GNU-stack
                0x0000000000000000        0x0 0x1 /home/rlyerly/Downloads/popcorn-compiler/test-install/aarch64/lib/libc.a(perror.o)
 .note.GNU-stack
                0x0000000000000000        0x0 0x1 /home/rlyerly/Downloads/popcorn-compiler/test-install/aarch64/lib/libc.a(snprintf.o)
 .note.GNU-stack
                0x0000000000000000        0x0 0x1 /home/rlyerly/Downloads/popcorn-compiler/test-install/aarch64/lib/libc.a(sscanf.o)
 .note.GNU-stack
                0x0000000000000000        0x0 0x1 /home/rlyerly/Downloads/popcorn-compiler/test-install/aarch64/lib/libc.a(stderr.o)
 .note.GNU-stack
                0x0000000000000000        0x0 0x1 /home/rlyerly/Downloads/popcorn-compiler/test-install/aarch64/lib/libc.a(vsnprintf.o)
 .note.GNU-stack
                0x0000000000000000        0x0 0x1 /home/rlyerly/Downloads/popcorn-compiler/test-install/aarch64/lib/libc.a(vsscanf.o)
 .note.GNU-stack
                0x0000000000000000        0x0 0x1 /home/rlyerly/Downloads/popcorn-compiler/test-install/aarch64/lib/libc.a(strtol.o)
 .note.GNU-stack
                0x0000000000000000        0x0 0x1 /home/rlyerly/Downloads/popcorn-compiler/test-install/aarch64/lib/libc.a(memcmp.o)
 .note.GNU-stack
                0x0000000000000000        0x0 0x1 /home/rlyerly/Downloads/popcorn-compiler/test-install/aarch64/lib/libc.a(memmove.o)
 .note.GNU-stack
                0x0000000000000000        0x0 0x1 /home/rlyerly/Downloads/popcorn-compiler/test-install/aarch64/lib/libc.a(strchr.o)
 .note.GNU-stack
                0x0000000000000000        0x0 0x1 /home/rlyerly/Downloads/popcorn-compiler/test-install/aarch64/lib/libc.a(strchrnul.o)
 .note.GNU-stack
                0x0000000000000000        0x0 0x1 /home/rlyerly/Downloads/popcorn-compiler/test-install/aarch64/lib/libc.a(strcmp.o)
 .note.GNU-stack
                0x0000000000000000        0x0 0x1 /home/rlyerly/Downloads/popcorn-compiler/test-install/aarch64/lib/libc.a(strlen.o)
 .note.GNU-stack
                0x0000000000000000        0x0 0x1 /home/rlyerly/Downloads/popcorn-compiler/test-install/aarch64/lib/libc.a(strncmp.o)
 .note.GNU-stack
                0x0000000000000000        0x0 0x1 /home/rlyerly/Downloads/popcorn-compiler/test-install/aarch64/lib/libc.a(__syscall_cp.o)
 .note.GNU-stack
                0x0000000000000000        0x0 0x1 /home/rlyerly/Downloads/popcorn-compiler/test-install/aarch64/lib/libc.a(pthread_attr_get.o)
 .note.GNU-stack
                0x0000000000000000        0x0 0x1 /home/rlyerly/Downloads/popcorn-compiler/test-install/aarch64/lib/libc.a(pthread_getattr_np.o)
 .note.GNU-stack
                0x0000000000000000        0x0 0x1 /home/rlyerly/Downloads/popcorn-compiler/test-install/aarch64/lib/libc.a(pthread_getspecific.o)
 .note.GNU-stack
                0x0000000000000000        0x0 0x1 /home/rlyerly/Downloads/popcorn-compiler/test-install/aarch64/lib/libc.a(pthread_key_create.o)
 .note.GNU-stack
                0x0000000000000000        0x0 0x1 /home/rlyerly/Downloads/popcorn-compiler/test-install/aarch64/lib/libc.a(pthread_migrate.o)
 .note.GNU-stack
                0x0000000000000000        0x0 0x1 /home/rlyerly/Downloads/popcorn-compiler/test-install/aarch64/lib/libc.a(pthread_self.o)
 .note.GNU-stack
                0x0000000000000000        0x0 0x1 /home/rlyerly/Downloads/popcorn-compiler/test-install/aarch64/lib/libc.a(pthread_setspecific.o)
 .note.GNU-stack
                0x0000000000000000        0x0 0x1 /home/rlyerly/Downloads/popcorn-compiler/test-install/aarch64/lib/libc.a(close.o)
 .note.GNU-stack
                0x0000000000000000        0x0 0x1 /home/rlyerly/Downloads/popcorn-compiler/test-install/aarch64/lib/libc.a(getpid.o)
 .note.GNU-stack
                0x0000000000000000        0x0 0x1 /home/rlyerly/Downloads/popcorn-compiler/test-install/aarch64/lib/libc.a(lseek.o)
 .note.GNU-stack
                0x0000000000000000        0x0 0x1 /home/rlyerly/Downloads/popcorn-compiler/test-install/aarch64/lib/libc.a(read.o)
 .note.GNU-stack
                0x0000000000000000        0x0 0x1 /home/rlyerly/Downloads/popcorn-compiler/test-install/aarch64/lib/libc.a(abort.o)
 .note.GNU-stack
                0x0000000000000000        0x0 0x1 /home/rlyerly/Downloads/popcorn-compiler/test-install/aarch64/lib/libc.a(syscall.o)
 .note.GNU-stack
                0x0000000000000000        0x0 0x1 /home/rlyerly/Downloads/popcorn-compiler/test-install/aarch64/lib/libc.a(intscan.o)
 .note.GNU-stack
                0x0000000000000000        0x0 0x1 /home/rlyerly/Downloads/popcorn-compiler/test-install/aarch64/lib/libc.a(shgetc.o)
 .note.GNU-stack
                0x0000000000000000        0x0 0x1 /home/rlyerly/Downloads/popcorn-compiler/test-install/aarch64/lib/libc.a(expand_heap.o)
 .note.GNU-stack
                0x0000000000000000        0x0 0x1 /home/rlyerly/Downloads/popcorn-compiler/test-install/aarch64/lib/libc.a(restore.o)
 .note.GNU-stack
                0x0000000000000000        0x0 0x1 /home/rlyerly/Downloads/popcorn-compiler/test-install/aarch64/lib/libc.a(block.o)
 .note.GNU-stack
                0x0000000000000000        0x0 0x1 /home/rlyerly/Downloads/popcorn-compiler/test-install/aarch64/lib/libc.a(raise.o)
 .note.GNU-stack
                0x0000000000000000        0x0 0x1 /home/rlyerly/Downloads/popcorn-compiler/test-install/aarch64/lib/libc.a(__fdopen.o)
 .note.GNU-stack
                0x0000000000000000        0x0 0x1 /home/rlyerly/Downloads/popcorn-compiler/test-install/aarch64/lib/libc.a(__fmodeflags.o)
 .note.GNU-stack
                0x0000000000000000        0x0 0x1 /home/rlyerly/Downloads/popcorn-compiler/test-install/aarch64/lib/libc.a(__stdio_read.o)
 .note.GNU-stack
                0x0000000000000000        0x0 0x1 /home/rlyerly/Downloads/popcorn-compiler/test-install/aarch64/lib/libc.a(__string_read.o)
 .note.GNU-stack
                0x0000000000000000        0x0 0x1 /home/rlyerly/Downloads/popcorn-compiler/test-install/aarch64/lib/libc.a(__uflow.o)
 .note.GNU-stack
                0x0000000000000000        0x0 0x1 /home/rlyerly/Downloads/popcorn-compiler/test-install/aarch64/lib/libc.a(fputc.o)
 .note.GNU-stack
                0x0000000000000000        0x0 0x1 /home/rlyerly/Downloads/popcorn-compiler/test-install/aarch64/lib/libc.a(getdelim.o)
 .note.GNU-stack
                0x0000000000000000        0x0 0x1 /home/rlyerly/Downloads/popcorn-compiler/test-install/aarch64/lib/libc.a(ofl_add.o)
 .note.GNU-stack
                0x0000000000000000        0x0 0x1 /home/rlyerly/Downloads/popcorn-compiler/test-install/aarch64/lib/libc.a(vfscanf.o)
 .note.GNU-stack
                0x0000000000000000        0x0 0x1 /home/rlyerly/Downloads/popcorn-compiler/test-install/aarch64/lib/libc.a(floatscan.o)
 .note.GNU-stack
                0x0000000000000000        0x0 0x1 /home/rlyerly/Downloads/popcorn-compiler/test-install/aarch64/lib/libc.a(fabs.o)
 .note.GNU-stack
                0x0000000000000000        0x0 0x1 /home/rlyerly/Downloads/popcorn-compiler/test-install/aarch64/lib/libc.a(copysignl.o)
 .note.GNU-stack
                0x0000000000000000        0x0 0x1 /home/rlyerly/Downloads/popcorn-compiler/test-install/aarch64/lib/libc.a(fmodl.o)
 .note.GNU-stack
                0x0000000000000000        0x0 0x1 /home/rlyerly/Downloads/popcorn-compiler/test-install/aarch64/lib/libc.a(scalbn.o)
 .note.GNU-stack
                0x0000000000000000        0x0 0x1 /home/rlyerly/Downloads/popcorn-compiler/test-install/aarch64/lib/libc.a(scalbnl.o)
 .note.GNU-stack
                0x0000000000000000        0x0 0x1 /home/rlyerly/Downloads/popcorn-compiler/test-install/aarch64/lib/libc.a(mbrtowc.o)
 .note.GNU-stack
                0x0000000000000000        0x0 0x1 /home/rlyerly/Downloads/popcorn-compiler/test-install/aarch64/lib/libc.a(mbsinit.o)
 .note.GNU-stack
                0x0000000000000000        0x0 0x1 /home/rlyerly/Downloads/popcorn-compiler/test-install/aarch64/lib/libc.a(__overflow.o)
 .note.GNU-stack
                0x0000000000000000        0x0 0x1 /home/rlyerly/Downloads/popcorn-compiler/test-install/aarch64/lib/libc.a(__toread.o)
 .note.GNU-stack
                0x0000000000000000        0x0 0x1 /home/rlyerly/Downloads/popcorn-compiler/test-install/aarch64/lib/libc.a(internal.o)
 .note.GNU-stack
                0x0000000000000000        0x0 0x1 /usr/lib/gcc-cross/aarch64-linux-gnu/5/libgcc.a(addtf3.o)
 .note.GNU-stack
                0x0000000000000000        0x0 0x1 /usr/lib/gcc-cross/aarch64-linux-gnu/5/libgcc.a(divtf3.o)
 .note.GNU-stack
                0x0000000000000000        0x0 0x1 /usr/lib/gcc-cross/aarch64-linux-gnu/5/libgcc.a(eqtf2.o)
 .note.GNU-stack
                0x0000000000000000        0x0 0x1 /usr/lib/gcc-cross/aarch64-linux-gnu/5/libgcc.a(getf2.o)
 .note.GNU-stack
                0x0000000000000000        0x0 0x1 /usr/lib/gcc-cross/aarch64-linux-gnu/5/libgcc.a(letf2.o)
 .note.GNU-stack
                0x0000000000000000        0x0 0x1 /usr/lib/gcc-cross/aarch64-linux-gnu/5/libgcc.a(multf3.o)
 .note.GNU-stack
                0x0000000000000000        0x0 0x1 /usr/lib/gcc-cross/aarch64-linux-gnu/5/libgcc.a(subtf3.o)
 .note.GNU-stack
                0x0000000000000000        0x0 0x1 /usr/lib/gcc-cross/aarch64-linux-gnu/5/libgcc.a(unordtf2.o)
 .note.GNU-stack
                0x0000000000000000        0x0 0x1 /usr/lib/gcc-cross/aarch64-linux-gnu/5/libgcc.a(fixtfsi.o)
 .note.GNU-stack
                0x0000000000000000        0x0 0x1 /usr/lib/gcc-cross/aarch64-linux-gnu/5/libgcc.a(fixunstfsi.o)
 .note.GNU-stack
                0x0000000000000000        0x0 0x1 /usr/lib/gcc-cross/aarch64-linux-gnu/5/libgcc.a(floatsitf.o)
 .note.GNU-stack
                0x0000000000000000        0x0 0x1 /usr/lib/gcc-cross/aarch64-linux-gnu/5/libgcc.a(floatunsitf.o)
 .note.GNU-stack
                0x0000000000000000        0x0 0x1 /usr/lib/gcc-cross/aarch64-linux-gnu/5/libgcc.a(extendsftf2.o)
 .note.GNU-stack
                0x0000000000000000        0x0 0x1 /usr/lib/gcc-cross/aarch64-linux-gnu/5/libgcc.a(extenddftf2.o)
 .note.GNU-stack
                0x0000000000000000        0x0 0x1 /usr/lib/gcc-cross/aarch64-linux-gnu/5/libgcc.a(trunctfsf2.o)
 .note.GNU-stack
                0x0000000000000000        0x0 0x1 /usr/lib/gcc-cross/aarch64-linux-gnu/5/libgcc.a(trunctfdf2.o)
 .note.GNU-stack
                0x0000000000000000        0x0 0x1 /usr/lib/gcc-cross/aarch64-linux-gnu/5/libgcc.a(sfp-exceptions.o)

Memory map

 ** file header
                0x00000000004f0000       0x40
 ** segment headers
                0x00000000004f0040      0x230

.text           0x0000000000500000    0x24ec4
 ** zero fill   0x0000000000500000        0x1
 ** zero fill   0x0000000000500001      0xfff
 .text.exit     0x0000000000501000       0x24 0x4 /home/rlyerly/Downloads/popcorn-compiler/test-install/aarch64/lib/libc.a(exit.o)
                0x0000000000501000                exit
 ** zero fill   0x0000000000501024        0xc
 .text.main     0x0000000000501030       0x7c 0x4 main.o
                0x0000000000501030                main
 ** zero fill   0x00000000005010ac        0x4
 .text.fizzbuzz
                0x00000000005010b0       0xfc 0x4 fizzbuzz.o
                0x00000000005010b0                fizzbuzz
 .text._start_c
                0x00000000005011ac       0x34 0x4 /home/rlyerly/Downloads/popcorn-compiler/test-install/aarch64/lib/crt1.o
                0x00000000005011ac                _start_c
 .text.dummy    0x00000000005011e0        0x4 0x4 /home/rlyerly/Downloads/popcorn-compiler/test-install/aarch64/lib/libc.a(__libc_start_main.o)
                0x00000000005011e0                _init
 .text.dummy1   0x00000000005011e4        0x4 0x4 /home/rlyerly/Downloads/popcorn-compiler/test-install/aarch64/lib/libc.a(__libc_start_main.o)
 .text.__init_libc
                0x00000000005011e8      0x1d8 0x4 /home/rlyerly/Downloads/popcorn-compiler/test-install/aarch64/lib/libc.a(__libc_start_main.o)
                0x00000000005011e8                __init_libc
 .text.libc_start_init
                0x00000000005013c0       0x40 0x4 /home/rlyerly/Downloads/popcorn-compiler/test-install/aarch64/lib/libc.a(__libc_start_main.o)
                0x00000000005013c0                __libc_start_init
 .text.__libc_start_main
                0x0000000000501400       0x50 0x4 /home/rlyerly/Downloads/popcorn-compiler/test-install/aarch64/lib/libc.a(__libc_start_main.o)
                0x0000000000501400                __libc_start_main
 .text.libc_exit_fini
                0x0000000000501450       0x3c 0x4 /home/rlyerly/Downloads/popcorn-compiler/test-install/aarch64/lib/libc.a(exit.o)
                0x0000000000501450                __libc_exit_fini
 .text.dummy    0x000000000050148c        0x4 0x4 /home/rlyerly/Downloads/popcorn-compiler/test-install/aarch64/lib/libc.a(exit.o)
                0x000000000050148c                __funcs_on_exit
                0x000000000050148c                _fini
 .text.printf   0x0000000000501490       0x88 0x4 /home/rlyerly/Downloads/popcorn-compiler/test-install/aarch64/lib/libc.a(printf.o)
                0x0000000000501490                printf
 ** zero fill   0x0000000000501518       0x21
 ** zero fill   0x0000000000501539        0x3
 .text.vfprintf
                0x000000000050153c      0x1a0 0x4 /home/rlyerly/Downloads/popcorn-compiler/test-install/aarch64/lib/libc.a(vfprintf.o)
                0x000000000050153c                vfprintf
 ** zero fill   0x00000000005016dc       0x1a
 ** zero fill   0x00000000005016f6        0x2
 .text.printf_core
                0x00000000005016f8     0x1cc4 0x4 /home/rlyerly/Downloads/popcorn-compiler/test-install/aarch64/lib/libc.a(vfprintf.o)
 ** zero fill   0x00000000005033bc      0x142
 ** zero fill   0x00000000005034fe        0x2
 .text.getint   0x0000000000503500       0x74 0x4 /home/rlyerly/Downloads/popcorn-compiler/test-install/aarch64/lib/libc.a(vfprintf.o)
 .text.pop_arg  0x0000000000503574      0x27c 0x4 /home/rlyerly/Downloads/popcorn-compiler/test-install/aarch64/lib/libc.a(vfprintf.o)
 .text.pad      0x00000000005037f0       0xc4 0x4 /home/rlyerly/Downloads/popcorn-compiler/test-install/aarch64/lib/libc.a(vfprintf.o)
 .text.atoi     0x00000000005038b4       0x74 0x4 /home/rlyerly/Downloads/popcorn-compiler/test-install/aarch64/lib/libc.a(atoi.o)
                0x00000000005038b4                atoi
 ** zero fill   0x0000000000503928        0x8
 .text.strnlen  0x0000000000503930       0x38 0x4 /home/rlyerly/Downloads/popcorn-compiler/test-install/aarch64/lib/libc.a(strnlen.o)
                0x0000000000503930                strnlen
 .text.memset   0x0000000000503968      0x158 0x4 /home/rlyerly/Downloads/popcorn-compiler/test-install/aarch64/lib/libc.a(memset.o)
                0x0000000000503968                memset
 .text.__init_tp
                0x0000000000503ac0       0x70 0x4 /home/rlyerly/Downloads/popcorn-compiler/test-install/aarch64/lib/libc.a(__init_tls.o)
                0x0000000000503ac0                __init_tp
 .text.__copy_tls
                0x0000000000503b30       0x8c 0x4 /home/rlyerly/Downloads/popcorn-compiler/test-install/aarch64/lib/libc.a(__init_tls.o)
                0x0000000000503b30                __copy_tls
 .text.static_init_tls
                0x0000000000503bbc      0x15c 0x4 /home/rlyerly/Downloads/popcorn-compiler/test-install/aarch64/lib/libc.a(__init_tls.o)
                0x0000000000503bbc                __init_tls
 .text.__errno_location
                0x0000000000503d18        0xc 0x4 /home/rlyerly/Downloads/popcorn-compiler/test-install/aarch64/lib/libc.a(__errno_location.o)
                0x0000000000503d18                __errno_location
 ** zero fill   0x0000000000503d24        0x2
 ** zero fill   0x0000000000503d26        0x2
 .text.__strerror_l
                0x0000000000503d28       0x60 0x4 /home/rlyerly/Downloads/popcorn-compiler/test-install/aarch64/lib/libc.a(strerror.o)
                0x0000000000503d28                __strerror_l
                0x0000000000503d28                strerror_l
 .text.strerror
                0x0000000000503d88        0xc 0x4 /home/rlyerly/Downloads/popcorn-compiler/test-install/aarch64/lib/libc.a(strerror.o)
                0x0000000000503d88                strerror
 ** zero fill   0x0000000000503d94        0x9
 ** zero fill   0x0000000000503d9d        0x3
 .text._Exit    0x0000000000503da0       0x20 0x4 /home/rlyerly/Downloads/popcorn-compiler/test-install/aarch64/lib/libc.a(_Exit.o)
                0x0000000000503da0                _Exit
 .text.dummy    0x0000000000503dc0        0x4 0x4 /home/rlyerly/Downloads/popcorn-compiler/test-install/aarch64/lib/libc.a(__lctrans.o)
                0x0000000000503dc0                __lctrans_impl
 .text.__lctrans
                0x0000000000503dc4        0x4 0x4 /home/rlyerly/Downloads/popcorn-compiler/test-install/aarch64/lib/libc.a(__lctrans.o)
                0x0000000000503dc4                __lctrans
 ** zero fill   0x0000000000503dc8        0x1
 ** zero fill   0x0000000000503dc9        0x3
 .text.__lctrans_cur
                0x0000000000503dcc       0x10 0x4 /home/rlyerly/Downloads/popcorn-compiler/test-install/aarch64/lib/libc.a(__lctrans.o)
                0x0000000000503dcc                __lctrans_cur
 ** zero fill   0x0000000000503ddc        0x9
 ** zero fill   0x0000000000503de5        0x3
 .text.__fpclassifyl
                0x0000000000503de8       0x54 0x4 /home/rlyerly/Downloads/popcorn-compiler/test-install/aarch64/lib/libc.a(__fpclassifyl.o)
                0x0000000000503de8                __fpclassifyl
 ** zero fill   0x0000000000503e3c        0x1
 ** zero fill   0x0000000000503e3d        0x3
 .text.__signbitl
                0x0000000000503e40       0x18 0x4 /home/rlyerly/Downloads/popcorn-compiler/test-install/aarch64/lib/libc.a(__signbitl.o)
                0x0000000000503e40                __signbitl
 .text.frexpl   0x0000000000503e58       0xb4 0x4 /home/rlyerly/Downloads/popcorn-compiler/test-install/aarch64/lib/libc.a(frexpl.o)
                0x0000000000503e58                frexpl
 .text.wctomb   0x0000000000503f0c       0x24 0x4 /home/rlyerly/Downloads/popcorn-compiler/test-install/aarch64/lib/libc.a(wctomb.o)
                0x0000000000503f0c                wctomb
 .text.__lockfile
                0x0000000000503f30       0x70 0x4 /home/rlyerly/Downloads/popcorn-compiler/test-install/aarch64/lib/libc.a(__lockfile.o)
                0x0000000000503f30                __lockfile
 ** zero fill   0x0000000000503fa0        0x2
 ** zero fill   0x0000000000503fa2        0x2
 .text.__unlockfile
                0x0000000000503fa4       0x4c 0x4 /home/rlyerly/Downloads/popcorn-compiler/test-install/aarch64/lib/libc.a(__lockfile.o)
                0x0000000000503fa4                __unlockfile
 .text.dummy    0x0000000000503ff0        0x4 0x4 /home/rlyerly/Downloads/popcorn-compiler/test-install/aarch64/lib/libc.a(__stdio_close.o)
                0x0000000000503ff0                __aio_close
 .text.__stdio_close
                0x0000000000503ff4       0x28 0x4 /home/rlyerly/Downloads/popcorn-compiler/test-install/aarch64/lib/libc.a(__stdio_close.o)
                0x0000000000503ff4                __stdio_close
 .text.__stdio_seek
                0x000000000050401c       0x14 0x4 /home/rlyerly/Downloads/popcorn-compiler/test-install/aarch64/lib/libc.a(__stdio_seek.o)
                0x000000000050401c                __stdio_seek
 ** zero fill   0x0000000000504030        0x2
 ** zero fill   0x0000000000504032        0x2
 .text.__stdout_write
                0x0000000000504034       0x68 0x4 /home/rlyerly/Downloads/popcorn-compiler/test-install/aarch64/lib/libc.a(__stdout_write.o)
                0x0000000000504034                __stdout_write
 .text.__fwritex
                0x000000000050409c       0xf4 0x4 /home/rlyerly/Downloads/popcorn-compiler/test-install/aarch64/lib/libc.a(fwrite.o)
                0x000000000050409c                __fwritex
 .text.fwrite   0x0000000000504190       0x9c 0x4 /home/rlyerly/Downloads/popcorn-compiler/test-install/aarch64/lib/libc.a(fwrite.o)
                0x0000000000504190                fwrite
                0x0000000000504190                fwrite_unlocked
 ** zero fill   0x000000000050422c        0x4
 .text.memchr   0x0000000000504230       0xb0 0x4 /home/rlyerly/Downloads/popcorn-compiler/test-install/aarch64/lib/libc.a(memchr.o)
                0x0000000000504230                memchr
 ** zero fill   0x00000000005042e0       0x30
 .text.memcpy   0x0000000000504310      0x3e0 0x4 /home/rlyerly/Downloads/popcorn-compiler/test-install/aarch64/lib/libc.a(memcpy.o)
                0x0000000000504310                memcpy
 .text.__wait   0x00000000005046f0       0xd8 0x4 /home/rlyerly/Downloads/popcorn-compiler/test-install/aarch64/lib/libc.a(__wait.o)
                0x00000000005046f0                __wait
 .text.__set_thread_area
                0x00000000005047c8        0xc 0x1 /home/rlyerly/Downloads/popcorn-compiler/test-install/aarch64/lib/libc.a(__set_thread_area.o)
                0x00000000005047c8                __set_thread_area
 ** zero fill   0x00000000005047d4        0x4
 ** zero fill   0x00000000005047d8        0x8
 .text.__syscall_ret
                0x00000000005047e0       0x30 0x4 /home/rlyerly/Downloads/popcorn-compiler/test-install/aarch64/lib/libc.a(syscall_ret.o)
                0x00000000005047e0                __syscall_ret
 .text.wcrtomb  0x0000000000504810      0x10c 0x4 /home/rlyerly/Downloads/popcorn-compiler/test-install/aarch64/lib/libc.a(wcrtomb.o)
                0x0000000000504810                wcrtomb
 ** zero fill   0x000000000050491c        0xc
 .text.__stdio_write
                0x0000000000504928      0x138 0x4 /home/rlyerly/Downloads/popcorn-compiler/test-install/aarch64/lib/libc.a(__stdio_write.o)
                0x0000000000504928                __stdio_write
 .text.__towrite
                0x0000000000504a60       0x50 0x4 /home/rlyerly/Downloads/popcorn-compiler/test-install/aarch64/lib/libc.a(__towrite.o)
                0x0000000000504a60                __towrite
 .text.__towrite_needs_stdio_exit
                0x0000000000504ab0        0x4 0x4 /home/rlyerly/Downloads/popcorn-compiler/test-install/aarch64/lib/libc.a(__towrite.o)
                0x0000000000504ab0                __towrite_needs_stdio_exit
 ** zero fill   0x0000000000504ab4        0x1
 ** zero fill   0x0000000000504ab5        0x3
 .text.__stdio_exit
                0x0000000000504ab8       0x48 0x4 /home/rlyerly/Downloads/popcorn-compiler/test-install/aarch64/lib/libc.a(__stdio_exit.o)
                0x0000000000504ab8                __stdio_exit
                0x0000000000504ab8                __stdio_exit_needed
 .text.close_file
                0x0000000000504b00       0x70 0x4 /home/rlyerly/Downloads/popcorn-compiler/test-install/aarch64/lib/libc.a(__stdio_exit.o)
 .text.__ofl_lock
                0x0000000000504b70       0x24 0x4 /home/rlyerly/Downloads/popcorn-compiler/test-install/aarch64/lib/libc.a(ofl.o)
                0x0000000000504b70                __ofl_lock
 .text.__ofl_unlock
                0x0000000000504b94        0xc 0x4 /home/rlyerly/Downloads/popcorn-compiler/test-install/aarch64/lib/libc.a(ofl.o)
                0x0000000000504b94                __ofl_unlock
 .text.__lock   0x0000000000504ba0       0x64 0x4 /home/rlyerly/Downloads/popcorn-compiler/test-install/aarch64/lib/libc.a(__lock.o)
                0x0000000000504ba0                __lock
 .text.__unlock
                0x0000000000504c04       0x54 0x4 /home/rlyerly/Downloads/popcorn-compiler/test-install/aarch64/lib/libc.a(__lock.o)
                0x0000000000504c04                __unlock
 ** zero fill   0x0000000000504c58        0x8
 .text.__init_nodes_info
                0x0000000000504c60       0x7c 0x4 /home/rlyerly/Downloads/popcorn-compiler/test-install/aarch64/lib/libmigrate.a(migrate.o)
 ** zero fill   0x0000000000504cdc        0x4
 .text.check_migrate
                0x0000000000504ce0       0x38 0x4 /home/rlyerly/Downloads/popcorn-compiler/test-install/aarch64/lib/libmigrate.a(migrate.o)
                0x0000000000504ce0                check_migrate
 ** zero fill   0x0000000000504d18        0x8
 .text.do_migrate
                0x0000000000504d20       0x18 0x4 /home/rlyerly/Downloads/popcorn-compiler/test-install/aarch64/lib/libmigrate.a(migrate.o)
 ** zero fill   0x0000000000504d38        0x8
 .text.__migrate_shim_internal
                0x0000000000504d40      0x53c 0x4 /home/rlyerly/Downloads/popcorn-compiler/test-install/aarch64/lib/libmigrate.a(migrate.o)
 ** zero fill   0x000000000050527c        0x4
 .text.migrate  0x0000000000505280       0x14 0x4 /home/rlyerly/Downloads/popcorn-compiler/test-install/aarch64/lib/libmigrate.a(migrate.o)
                0x0000000000505280                migrate
 ** zero fill   0x0000000000505294        0xc
 .text.register_migrate_callback
                0x00000000005052a0       0x14 0x4 /home/rlyerly/Downloads/popcorn-compiler/test-install/aarch64/lib/libmigrate.a(migrate.o)
                0x00000000005052a0                register_migrate_callback
 ** zero fill   0x00000000005052b4        0xc
 .text.__cyg_profile_func_enter
                0x00000000005052c0       0x2c 0x4 /home/rlyerly/Downloads/popcorn-compiler/test-install/aarch64/lib/libmigrate.a(migrate.o)
                0x00000000005052c0                __cyg_profile_func_enter
                0x00000000005052c0                __cyg_profile_func_exit
 ** zero fill   0x00000000005052ec        0x4
 .text.__print_response_timing
                0x00000000005052f0       0x6c 0x4 /home/rlyerly/Downloads/popcorn-compiler/test-install/aarch64/lib/libmigrate.a(trigger.o)
 ** zero fill   0x000000000050535c        0x4
 .text.clear_migrate_flag
                0x0000000000505360       0xf8 0x4 /home/rlyerly/Downloads/popcorn-compiler/test-install/aarch64/lib/libmigrate.a(trigger.o)
                0x0000000000505360                clear_migrate_flag
 ** zero fill   0x0000000000505458        0x8
 .text.__register_migrate_sighandler
                0x0000000000505460       0x60 0x4 /home/rlyerly/Downloads/popcorn-compiler/test-install/aarch64/lib/libmigrate.a(trigger.o)
 .text.__migrate_sighandler
                0x00000000005054c0       0x54 0x4 /home/rlyerly/Downloads/popcorn-compiler/test-install/aarch64/lib/libmigrate.a(trigger.o)
 ** zero fill   0x0000000000505514        0xc
 .text.__st_userspace_ctor
                0x0000000000505520      0x31c 0x4 /home/rlyerly/Downloads/popcorn-compiler/test-install/aarch64/lib/libstack-transform.a(userspace.o)
                0x0000000000505520                __st_userspace_ctor
 ** zero fill   0x000000000050583c       0xb4
 .text.__st_userspace_dtor
                0x00000000005058f0       0x98 0x4 /home/rlyerly/Downloads/popcorn-compiler/test-install/aarch64/lib/libstack-transform.a(userspace.o)
                0x00000000005058f0                __st_userspace_dtor
 ** zero fill   0x0000000000505988        0x8
 .text.get_stack_bounds
                0x0000000000505990       0xd8 0x4 /home/rlyerly/Downloads/popcorn-compiler/test-install/aarch64/lib/libstack-transform.a(userspace.o)
                0x0000000000505990                get_stack_bounds
 ** zero fill   0x0000000000505a68        0x8
 .text.st_userspace_rewrite
                0x0000000000505a70       0x30 0x4 /home/rlyerly/Downloads/popcorn-compiler/test-install/aarch64/lib/libstack-transform.a(userspace.o)
                0x0000000000505a70                st_userspace_rewrite
 .text.userspace_rewrite_internal
                0x0000000000505aa0      0x144 0x4 /home/rlyerly/Downloads/popcorn-compiler/test-install/aarch64/lib/libstack-transform.a(userspace.o)
 ** zero fill   0x0000000000505be4       0x23
 ** zero fill   0x0000000000505c07        0x9
 .text.st_userspace_rewrite_aarch64
                0x0000000000505c10       0x1c 0x4 /home/rlyerly/Downloads/popcorn-compiler/test-install/aarch64/lib/libstack-transform.a(userspace.o)
                0x0000000000505c10                st_userspace_rewrite_aarch64
 ** zero fill   0x0000000000505c2c        0x4
 .text.st_userspace_rewrite_powerpc64
                0x0000000000505c30       0x1c 0x4 /home/rlyerly/Downloads/popcorn-compiler/test-install/aarch64/lib/libstack-transform.a(userspace.o)
                0x0000000000505c30                st_userspace_rewrite_powerpc64
 ** zero fill   0x0000000000505c4c        0x4
 .text.st_userspace_rewrite_x86_64
                0x0000000000505c50       0x1c 0x4 /home/rlyerly/Downloads/popcorn-compiler/test-install/aarch64/lib/libstack-transform.a(userspace.o)
                0x0000000000505c50                st_userspace_rewrite_x86_64
 ** zero fill   0x0000000000505c6c        0x4
 .text.__st_ctor
                0x0000000000505c70        0x4 0x4 /home/rlyerly/Downloads/popcorn-compiler/test-install/aarch64/lib/libstack-transform.a(init.o)
 ** zero fill   0x0000000000505c74        0x1
 ** zero fill   0x0000000000505c75        0xb
 .text.__st_dtor
                0x0000000000505c80        0x4 0x4 /home/rlyerly/Downloads/popcorn-compiler/test-install/aarch64/lib/libstack-transform.a(init.o)
                0x0000000000505c80                __st_dtor
 ** zero fill   0x0000000000505c84        0x1
 ** zero fill   0x0000000000505c85        0xb
 .text.st_init  0x0000000000505c90      0x1e8 0x4 /home/rlyerly/Downloads/popcorn-compiler/test-install/aarch64/lib/libstack-transform.a(init.o)
                0x0000000000505c90                st_init
 ** zero fill   0x0000000000505e78       0x2a
 ** zero fill   0x0000000000505ea2        0xe
 .text.st_destroy
                0x0000000000505eb0       0x40 0x4 /home/rlyerly/Downloads/popcorn-compiler/test-install/aarch64/lib/libstack-transform.a(init.o)
                0x0000000000505eb0                st_destroy
 .text.st_rewrite_stack
                0x0000000000505ef0      0x7e8 0x4 /home/rlyerly/Downloads/popcorn-compiler/test-install/aarch64/lib/libstack-transform.a(rewrite.o)
                0x0000000000505ef0                st_rewrite_stack
 ** zero fill   0x00000000005066d8       0x24
 ** zero fill   0x00000000005066fc        0x4
 .text.rewrite_frame
                0x0000000000506700      0x3dc 0x4 /home/rlyerly/Downloads/popcorn-compiler/test-install/aarch64/lib/libstack-transform.a(rewrite.o)
 ** zero fill   0x0000000000506adc       0x66
 ** zero fill   0x0000000000506b42        0xe
 .text.st_rewrite_ondemand
                0x0000000000506b50       0x2c 0x4 /home/rlyerly/Downloads/popcorn-compiler/test-install/aarch64/lib/libstack-transform.a(rewrite.o)
                0x0000000000506b50                st_rewrite_ondemand
 ** zero fill   0x0000000000506b7c        0x4
 .text.rewrite_val
                0x0000000000506b80      0x298 0x4 /home/rlyerly/Downloads/popcorn-compiler/test-install/aarch64/lib/libstack-transform.a(rewrite.o)
 ** zero fill   0x0000000000506e18        0x8
 .text.first_frame
                0x0000000000506e20        0xc 0x4 /home/rlyerly/Downloads/popcorn-compiler/test-install/aarch64/lib/libstack-transform.a(unwind.o)
                0x0000000000506e20                first_frame
 ** zero fill   0x0000000000506e2c        0x4
 .text.calculate_cfa
                0x0000000000506e30       0x40 0x4 /home/rlyerly/Downloads/popcorn-compiler/test-install/aarch64/lib/libstack-transform.a(unwind.o)
                0x0000000000506e30                calculate_cfa
 .text.bootstrap_first_frame
                0x0000000000506e70       0x34 0x4 /home/rlyerly/Downloads/popcorn-compiler/test-install/aarch64/lib/libstack-transform.a(unwind.o)
                0x0000000000506e70                bootstrap_first_frame
 ** zero fill   0x0000000000506ea4        0xc
 .text.bootstrap_first_frame_funcentry
                0x0000000000506eb0       0x64 0x4 /home/rlyerly/Downloads/popcorn-compiler/test-install/aarch64/lib/libstack-transform.a(unwind.o)
                0x0000000000506eb0                bootstrap_first_frame_funcentry
 ** zero fill   0x0000000000506f14        0xc
 .text.pop_frame
                0x0000000000506f20      0x258 0x4 /home/rlyerly/Downloads/popcorn-compiler/test-install/aarch64/lib/libstack-transform.a(unwind.o)
                0x0000000000506f20                pop_frame
 ** zero fill   0x0000000000507178        0x8
 .text.pop_frame_funcentry
                0x0000000000507180      0x198 0x4 /home/rlyerly/Downloads/popcorn-compiler/test-install/aarch64/lib/libstack-transform.a(unwind.o)
                0x0000000000507180                pop_frame_funcentry
 ** zero fill   0x0000000000507318        0x8
 .text.get_register_save_loc
                0x0000000000507320       0x84 0x4 /home/rlyerly/Downloads/popcorn-compiler/test-install/aarch64/lib/libstack-transform.a(unwind.o)
                0x0000000000507320                get_register_save_loc
 ** zero fill   0x00000000005073a4        0xc
 .text.clear_activation
                0x00000000005073b0       0x4c 0x4 /home/rlyerly/Downloads/popcorn-compiler/test-install/aarch64/lib/libstack-transform.a(unwind.o)
                0x00000000005073b0                clear_activation
 ** zero fill   0x00000000005073fc        0x4
 .text.arch_name
                0x0000000000507400       0x4c 0x4 /home/rlyerly/Downloads/popcorn-compiler/test-install/aarch64/lib/libstack-transform.a(util.o)
                0x0000000000507400                arch_name
 ** zero fill   0x000000000050744c        0x4
 .text.get_regops
                0x0000000000507450       0x48 0x4 /home/rlyerly/Downloads/popcorn-compiler/test-install/aarch64/lib/libstack-transform.a(util.o)
                0x0000000000507450                get_regops
 ** zero fill   0x0000000000507498        0x8
 .text.get_properties
                0x00000000005074a0       0x48 0x4 /home/rlyerly/Downloads/popcorn-compiler/test-install/aarch64/lib/libstack-transform.a(util.o)
                0x00000000005074a0                get_properties
 ** zero fill   0x00000000005074e8        0x8
 .text.get_section
                0x00000000005074f0       0xc0 0x4 /home/rlyerly/Downloads/popcorn-compiler/test-install/aarch64/lib/libstack-transform.a(util.o)
                0x00000000005074f0                get_section
 .text.get_num_entries
                0x00000000005075b0       0x58 0x4 /home/rlyerly/Downloads/popcorn-compiler/test-install/aarch64/lib/libstack-transform.a(util.o)
                0x00000000005075b0                get_num_entries
 ** zero fill   0x0000000000507608        0x8
 .text.get_section_data
                0x0000000000507610       0x3c 0x4 /home/rlyerly/Downloads/popcorn-compiler/test-install/aarch64/lib/libstack-transform.a(util.o)
                0x0000000000507610                get_section_data
 ** zero fill   0x000000000050764c        0x4
 .text.get_site_by_addr
                0x0000000000507650       0xa4 0x4 /home/rlyerly/Downloads/popcorn-compiler/test-install/aarch64/lib/libstack-transform.a(util.o)
                0x0000000000507650                get_site_by_addr
 ** zero fill   0x00000000005076f4        0xc
 .text.get_site_by_id
                0x0000000000507700       0x90 0x4 /home/rlyerly/Downloads/popcorn-compiler/test-install/aarch64/lib/libstack-transform.a(util.o)
                0x0000000000507700                get_site_by_id
 .text.get_unwind_offset_by_addr
                0x0000000000507790       0xb4 0x4 /home/rlyerly/Downloads/popcorn-compiler/test-install/aarch64/lib/libstack-transform.a(util.o)
                0x0000000000507790                get_unwind_offset_by_addr
 ** zero fill   0x0000000000507844        0xc
 .text.get_function_address
                0x0000000000507850       0x88 0x4 /home/rlyerly/Downloads/popcorn-compiler/test-install/aarch64/lib/libstack-transform.a(util.o)
                0x0000000000507850                get_function_address
 ** zero fill   0x00000000005078d8        0x8
 .text.align_sp_aarch64
                0x00000000005078e0        0xc 0x4 /home/rlyerly/Downloads/popcorn-compiler/test-install/aarch64/lib/libstack-transform.a(properties.o)
 ** zero fill   0x00000000005078ec        0x4
 .text.is_callee_saved_aarch64
                0x00000000005078f0       0x30 0x4 /home/rlyerly/Downloads/popcorn-compiler/test-install/aarch64/lib/libstack-transform.a(properties.o)
 .text.callee_reg_size_aarch64
                0x0000000000507920       0x58 0x4 /home/rlyerly/Downloads/popcorn-compiler/test-install/aarch64/lib/libstack-transform.a(properties.o)
 ** zero fill   0x0000000000507978        0x8
 .text.regset_default_aarch64
                0x0000000000507980       0x2c 0x4 /home/rlyerly/Downloads/popcorn-compiler/test-install/aarch64/lib/libstack-transform.a(regs.o)
 ** zero fill   0x00000000005079ac        0x4
 .text.regset_init_aarch64
                0x00000000005079b0       0x40 0x4 /home/rlyerly/Downloads/popcorn-compiler/test-install/aarch64/lib/libstack-transform.a(regs.o)
 .text.regset_free_aarch64
                0x00000000005079f0        0x4 0x4 /home/rlyerly/Downloads/popcorn-compiler/test-install/aarch64/lib/libstack-transform.a(regs.o)
 ** zero fill   0x00000000005079f4        0x1
 ** zero fill   0x00000000005079f5        0xb
 .text.regset_clone_aarch64
                0x0000000000507a00       0x14 0x4 /home/rlyerly/Downloads/popcorn-compiler/test-install/aarch64/lib/libstack-transform.a(regs.o)
 ** zero fill   0x0000000000507a14        0xc
 .text.regset_copyin_aarch64
                0x0000000000507a20       0x10 0x4 /home/rlyerly/Downloads/popcorn-compiler/test-install/aarch64/lib/libstack-transform.a(regs.o)
 ** zero fill   0x0000000000507a30        0x1
 ** zero fill   0x0000000000507a31        0xf
 .text.regset_copyout_aarch64
                0x0000000000507a40       0x14 0x4 /home/rlyerly/Downloads/popcorn-compiler/test-install/aarch64/lib/libstack-transform.a(regs.o)
 ** zero fill   0x0000000000507a54        0xc
 .text.pc_aarch64
                0x0000000000507a60        0x8 0x4 /home/rlyerly/Downloads/popcorn-compiler/test-install/aarch64/lib/libstack-transform.a(regs.o)
 ** zero fill   0x0000000000507a68        0x8
 .text.sp_aarch64
                0x0000000000507a70        0x8 0x4 /home/rlyerly/Downloads/popcorn-compiler/test-install/aarch64/lib/libstack-transform.a(regs.o)
 ** zero fill   0x0000000000507a78        0x8
 .text.fbp_aarch64
                0x0000000000507a80        0x8 0x4 /home/rlyerly/Downloads/popcorn-compiler/test-install/aarch64/lib/libstack-transform.a(regs.o)
 ** zero fill   0x0000000000507a88        0x8
 .text.ra_reg_aarch64
                0x0000000000507a90        0x8 0x4 /home/rlyerly/Downloads/popcorn-compiler/test-install/aarch64/lib/libstack-transform.a(regs.o)
 ** zero fill   0x0000000000507a98        0x8
 .text.set_pc_aarch64
                0x0000000000507aa0        0x8 0x4 /home/rlyerly/Downloads/popcorn-compiler/test-install/aarch64/lib/libstack-transform.a(regs.o)
 ** zero fill   0x0000000000507aa8        0x8
 .text.set_sp_aarch64
                0x0000000000507ab0        0x8 0x4 /home/rlyerly/Downloads/popcorn-compiler/test-install/aarch64/lib/libstack-transform.a(regs.o)
 ** zero fill   0x0000000000507ab8        0x8
 .text.set_fbp_aarch64
                0x0000000000507ac0        0x8 0x4 /home/rlyerly/Downloads/popcorn-compiler/test-install/aarch64/lib/libstack-transform.a(regs.o)
 ** zero fill   0x0000000000507ac8        0x8
 .text.set_ra_reg_aarch64
                0x0000000000507ad0        0x8 0x4 /home/rlyerly/Downloads/popcorn-compiler/test-install/aarch64/lib/libstack-transform.a(regs.o)
 ** zero fill   0x0000000000507ad8        0x8
 .text.setup_fbp_aarch64
                0x0000000000507ae0        0xc 0x4 /home/rlyerly/Downloads/popcorn-compiler/test-install/aarch64/lib/libstack-transform.a(regs.o)
 ** zero fill   0x0000000000507aec        0x4
 .text.reg_size_aarch64
                0x0000000000507af0       0x54 0x4 /home/rlyerly/Downloads/popcorn-compiler/test-install/aarch64/lib/libstack-transform.a(regs.o)
 ** zero fill   0x0000000000507b44        0xc
 .text.reg_aarch64
                0x0000000000507b50      0x344 0x4 /home/rlyerly/Downloads/popcorn-compiler/test-install/aarch64/lib/libstack-transform.a(regs.o)
 ** zero fill   0x0000000000507e94        0xc
 .text.align_sp_powerpc64
                0x0000000000507ea0       0x14 0x4 /home/rlyerly/Downloads/popcorn-compiler/test-install/aarch64/lib/libstack-transform.a(properties.o)
 ** zero fill   0x0000000000507eb4        0xc
 .text.is_callee_saved_powerpc64
                0x0000000000507ec0       0x2c 0x4 /home/rlyerly/Downloads/popcorn-compiler/test-install/aarch64/lib/libstack-transform.a(properties.o)
 ** zero fill   0x0000000000507eec        0x4
 .text.callee_reg_size_powerpc64
                0x0000000000507ef0       0x50 0x4 /home/rlyerly/Downloads/popcorn-compiler/test-install/aarch64/lib/libstack-transform.a(properties.o)
 .text.regset_default_powerpc64
                0x0000000000507f40       0x2c 0x4 /home/rlyerly/Downloads/popcorn-compiler/test-install/aarch64/lib/libstack-transform.a(regs.o)
 ** zero fill   0x0000000000507f6c        0x4
 .text.regset_init_powerpc64
                0x0000000000507f70       0x40 0x4 /home/rlyerly/Downloads/popcorn-compiler/test-install/aarch64/lib/libstack-transform.a(regs.o)
 .text.regset_free_powerpc64
                0x0000000000507fb0        0x4 0x4 /home/rlyerly/Downloads/popcorn-compiler/test-install/aarch64/lib/libstack-transform.a(regs.o)
 ** zero fill   0x0000000000507fb4        0x1
 ** zero fill   0x0000000000507fb5        0xb
 .text.regset_clone_powerpc64
                0x0000000000507fc0       0x14 0x4 /home/rlyerly/Downloads/popcorn-compiler/test-install/aarch64/lib/libstack-transform.a(regs.o)
 ** zero fill   0x0000000000507fd4        0xc
 .text.regset_copyin_powerpc64
                0x0000000000507fe0       0x10 0x4 /home/rlyerly/Downloads/popcorn-compiler/test-install/aarch64/lib/libstack-transform.a(regs.o)
 ** zero fill   0x0000000000507ff0        0x1
 ** zero fill   0x0000000000507ff1        0xf
 .text.regset_copyout_powerpc64
                0x0000000000508000       0x14 0x4 /home/rlyerly/Downloads/popcorn-compiler/test-install/aarch64/lib/libstack-transform.a(regs.o)
 ** zero fill   0x0000000000508014        0xc
 .text.pc_powerpc64
                0x0000000000508020        0x8 0x4 /home/rlyerly/Downloads/popcorn-compiler/test-install/aarch64/lib/libstack-transform.a(regs.o)
 ** zero fill   0x0000000000508028        0x8
 .text.sp_powerpc64
                0x0000000000508030        0x8 0x4 /home/rlyerly/Downloads/popcorn-compiler/test-install/aarch64/lib/libstack-transform.a(regs.o)
 ** zero fill   0x0000000000508038        0x8
 .text.fbp_powerpc64
                0x0000000000508040        0x8 0x4 /home/rlyerly/Downloads/popcorn-compiler/test-install/aarch64/lib/libstack-transform.a(regs.o)
 ** zero fill   0x0000000000508048        0x8
 .text.ra_reg_powerpc64
                0x0000000000508050        0x8 0x4 /home/rlyerly/Downloads/popcorn-compiler/test-install/aarch64/lib/libstack-transform.a(regs.o)
 ** zero fill   0x0000000000508058        0x8
 .text.set_pc_powerpc64
                0x0000000000508060        0x8 0x4 /home/rlyerly/Downloads/popcorn-compiler/test-install/aarch64/lib/libstack-transform.a(regs.o)
 ** zero fill   0x0000000000508068        0x8
 .text.set_sp_powerpc64
                0x0000000000508070        0x8 0x4 /home/rlyerly/Downloads/popcorn-compiler/test-install/aarch64/lib/libstack-transform.a(regs.o)
 ** zero fill   0x0000000000508078        0x8
 .text.set_fbp_powerpc64
                0x0000000000508080        0x8 0x4 /home/rlyerly/Downloads/popcorn-compiler/test-install/aarch64/lib/libstack-transform.a(regs.o)
 ** zero fill   0x0000000000508088        0x8
 .text.set_ra_reg_powerpc64
                0x0000000000508090        0x8 0x4 /home/rlyerly/Downloads/popcorn-compiler/test-install/aarch64/lib/libstack-transform.a(regs.o)
 ** zero fill   0x0000000000508098        0x8
 .text.setup_fbp_powerpc64
                0x00000000005080a0        0xc 0x4 /home/rlyerly/Downloads/popcorn-compiler/test-install/aarch64/lib/libstack-transform.a(regs.o)
 ** zero fill   0x00000000005080ac        0x4
 .text.reg_size_powerpc64
                0x00000000005080b0       0x54 0x4 /home/rlyerly/Downloads/popcorn-compiler/test-install/aarch64/lib/libstack-transform.a(regs.o)
 ** zero fill   0x0000000000508104        0xc
 .text.reg_powerpc64
                0x0000000000508110      0x35c 0x4 /home/rlyerly/Downloads/popcorn-compiler/test-install/aarch64/lib/libstack-transform.a(regs.o)
 ** zero fill   0x000000000050846c        0x4
 .text.align_sp_x86_64
                0x0000000000508470       0x10 0x4 /home/rlyerly/Downloads/popcorn-compiler/test-install/aarch64/lib/libstack-transform.a(properties.o)
 .text.is_callee_saved_x86_64
                0x0000000000508480       0x2c 0x4 /home/rlyerly/Downloads/popcorn-compiler/test-install/aarch64/lib/libstack-transform.a(properties.o)
 ** zero fill   0x00000000005084ac        0x4
 .text.callee_reg_size_x86_64
                0x00000000005084b0       0x54 0x4 /home/rlyerly/Downloads/popcorn-compiler/test-install/aarch64/lib/libstack-transform.a(properties.o)
 ** zero fill   0x0000000000508504        0xc
 .text.regset_default_x86_64
                0x0000000000508510       0x2c 0x4 /home/rlyerly/Downloads/popcorn-compiler/test-install/aarch64/lib/libstack-transform.a(regs.o)
 ** zero fill   0x000000000050853c        0x4
 .text.regset_init_x86_64
                0x0000000000508540       0x40 0x4 /home/rlyerly/Downloads/popcorn-compiler/test-install/aarch64/lib/libstack-transform.a(regs.o)
 .text.regset_free_x86_64
                0x0000000000508580        0x4 0x4 /home/rlyerly/Downloads/popcorn-compiler/test-install/aarch64/lib/libstack-transform.a(regs.o)
 ** zero fill   0x0000000000508584        0x1
 ** zero fill   0x0000000000508585        0xb
 .text.regset_clone_x86_64
                0x0000000000508590       0x14 0x4 /home/rlyerly/Downloads/popcorn-compiler/test-install/aarch64/lib/libstack-transform.a(regs.o)
 ** zero fill   0x00000000005085a4        0xc
 .text.regset_copyin_x86_64
                0x00000000005085b0       0x10 0x4 /home/rlyerly/Downloads/popcorn-compiler/test-install/aarch64/lib/libstack-transform.a(regs.o)
 ** zero fill   0x00000000005085c0        0x1
 ** zero fill   0x00000000005085c1        0xf
 .text.regset_copyout_x86_64
                0x00000000005085d0       0x14 0x4 /home/rlyerly/Downloads/popcorn-compiler/test-install/aarch64/lib/libstack-transform.a(regs.o)
 ** zero fill   0x00000000005085e4        0xc
 .text.pc_x86_64
                0x00000000005085f0        0x8 0x4 /home/rlyerly/Downloads/popcorn-compiler/test-install/aarch64/lib/libstack-transform.a(regs.o)
 ** zero fill   0x00000000005085f8        0x8
 .text.sp_x86_64
                0x0000000000508600        0x8 0x4 /home/rlyerly/Downloads/popcorn-compiler/test-install/aarch64/lib/libstack-transform.a(regs.o)
 ** zero fill   0x0000000000508608        0x8
 .text.fbp_x86_64
                0x0000000000508610        0x8 0x4 /home/rlyerly/Downloads/popcorn-compiler/test-install/aarch64/lib/libstack-transform.a(regs.o)
 ** zero fill   0x0000000000508618        0x8
 .text.ra_reg_x86_64
                0x0000000000508620       0x2c 0x4 /home/rlyerly/Downloads/popcorn-compiler/test-install/aarch64/lib/libstack-transform.a(regs.o)
 ** zero fill   0x000000000050864c        0x4
 .text.set_pc_x86_64
                0x0000000000508650        0x8 0x4 /home/rlyerly/Downloads/popcorn-compiler/test-install/aarch64/lib/libstack-transform.a(regs.o)
 ** zero fill   0x0000000000508658        0x8
 .text.set_sp_x86_64
                0x0000000000508660        0x8 0x4 /home/rlyerly/Downloads/popcorn-compiler/test-install/aarch64/lib/libstack-transform.a(regs.o)
 ** zero fill   0x0000000000508668        0x8
 .text.set_fbp_x86_64
                0x0000000000508670        0x8 0x4 /home/rlyerly/Downloads/popcorn-compiler/test-install/aarch64/lib/libstack-transform.a(regs.o)
 ** zero fill   0x0000000000508678        0x8
 .text.set_ra_reg_x86_64
                0x0000000000508680       0x2c 0x4 /home/rlyerly/Downloads/popcorn-compiler/test-install/aarch64/lib/libstack-transform.a(regs.o)
 ** zero fill   0x00000000005086ac        0x4
 .text.setup_fbp_x86_64
                0x00000000005086b0        0xc 0x4 /home/rlyerly/Downloads/popcorn-compiler/test-install/aarch64/lib/libstack-transform.a(regs.o)
 ** zero fill   0x00000000005086bc        0x4
 .text.reg_size_x86_64
                0x00000000005086c0       0x50 0x4 /home/rlyerly/Downloads/popcorn-compiler/test-install/aarch64/lib/libstack-transform.a(regs.o)
 .text.reg_x86_64
                0x0000000000508710      0x1d0 0x4 /home/rlyerly/Downloads/popcorn-compiler/test-install/aarch64/lib/libstack-transform.a(regs.o)
 .text.put_val  0x00000000005088e0      0x254 0x4 /home/rlyerly/Downloads/popcorn-compiler/test-install/aarch64/lib/libstack-transform.a(data.o)
                0x00000000005088e0                put_val
 ** zero fill   0x0000000000508b34        0xc
 .text.get_dest_loc
                0x0000000000508b40       0xdc 0x4 /home/rlyerly/Downloads/popcorn-compiler/test-install/aarch64/lib/libstack-transform.a(data.o)
 ** zero fill   0x0000000000508c1c        0x4
 .text.put_val_arch
                0x0000000000508c20      0x3f0 0x4 /home/rlyerly/Downloads/popcorn-compiler/test-install/aarch64/lib/libstack-transform.a(data.o)
                0x0000000000508c20                put_val_arch
 .text.put_val_data
                0x0000000000509010      0x114 0x4 /home/rlyerly/Downloads/popcorn-compiler/test-install/aarch64/lib/libstack-transform.a(data.o)
                0x0000000000509010                put_val_data
 ** zero fill   0x0000000000509124        0xc
 .text.points_to_stack
                0x0000000000509130      0x138 0x4 /home/rlyerly/Downloads/popcorn-compiler/test-install/aarch64/lib/libstack-transform.a(data.o)
                0x0000000000509130                points_to_stack
 ** zero fill   0x0000000000509268        0x8
 .text.points_to_data
                0x0000000000509270      0x190 0x4 /home/rlyerly/Downloads/popcorn-compiler/test-install/aarch64/lib/libstack-transform.a(data.o)
                0x0000000000509270                points_to_data
 .text.set_return_address
                0x0000000000509400       0x24 0x4 /home/rlyerly/Downloads/popcorn-compiler/test-install/aarch64/lib/libstack-transform.a(data.o)
                0x0000000000509400                set_return_address
 ** zero fill   0x0000000000509424        0xc
 .text.set_return_address_funcentry
                0x0000000000509430       0x44 0x4 /home/rlyerly/Downloads/popcorn-compiler/test-install/aarch64/lib/libstack-transform.a(data.o)
                0x0000000000509430                set_return_address_funcentry
 ** zero fill   0x0000000000509474        0xc
 .text.get_savedfbp_loc
                0x0000000000509480       0x90 0x4 /home/rlyerly/Downloads/popcorn-compiler/test-install/aarch64/lib/libstack-transform.a(data.o)
                0x0000000000509480                get_savedfbp_loc
 .text._elf_check_type.part.0
                0x0000000000509510      0x250 0x8 /home/rlyerly/Downloads/popcorn-compiler/test-install/aarch64/lib/libelf.a(begin.o)
 .text.elf_begin
                0x0000000000509760     0x14fc 0x8 /home/rlyerly/Downloads/popcorn-compiler/test-install/aarch64/lib/libelf.a(begin.o)
                0x0000000000509760                elf_begin
 ** zero fill   0x000000000050ac5c        0x4
 .text.elf_memory
                0x000000000050ac60      0x164 0x8 /home/rlyerly/Downloads/popcorn-compiler/test-install/aarch64/lib/libelf.a(begin.o)
                0x000000000050ac60                elf_memory
 ** zero fill   0x000000000050adc4        0xc
 .text.gelf_getclass
                0x000000000050add0       0x40 0x8 /home/rlyerly/Downloads/popcorn-compiler/test-install/aarch64/lib/libelf.a(begin.o)
                0x000000000050add0                gelf_getclass
 .text.elf_end  0x000000000050ae10      0x1e8 0x8 /home/rlyerly/Downloads/popcorn-compiler/test-install/aarch64/lib/libelf.a(end.o)
                0x000000000050ae10                elf_end
 ** zero fill   0x000000000050aff8       0x25
 ** zero fill   0x000000000050b01d        0x3
 .text.elf_getdata
                0x000000000050b020      0x310 0x8 /home/rlyerly/Downloads/popcorn-compiler/test-install/aarch64/lib/libelf.a(getdata.o)
                0x000000000050b020                elf_getdata
 ** zero fill   0x000000000050b330       0x18
 ** zero fill   0x000000000050b348        0x8
 .text.elf_getident
                0x000000000050b350       0xc0 0x8 /home/rlyerly/Downloads/popcorn-compiler/test-install/aarch64/lib/libelf.a(getident.o)
                0x000000000050b350                elf_getident
 .text.elf_nextscn
                0x000000000050b410       0xd0 0x8 /home/rlyerly/Downloads/popcorn-compiler/test-install/aarch64/lib/libelf.a(nextscn.o)
                0x000000000050b410                elf_nextscn
 .text.elf_strptr
                0x000000000050b4e0      0x1b4 0x8 /home/rlyerly/Downloads/popcorn-compiler/test-install/aarch64/lib/libelf.a(strptr.o)
                0x000000000050b4e0                elf_strptr
 ** zero fill   0x000000000050b694        0xc
 .text.elf_version
                0x000000000050b6a0       0x80 0x8 /home/rlyerly/Downloads/popcorn-compiler/test-install/aarch64/lib/libelf.a(version.o)
                0x000000000050b6a0                elf_version
 .text._elf_getehdr
                0x000000000050b720       0xa0 0x8 /home/rlyerly/Downloads/popcorn-compiler/test-install/aarch64/lib/libelf.a(32.getehdr.o)
                0x000000000050b720                _elf_getehdr
 .text.elf32_getehdr
                0x000000000050b7c0       0xa0 0x8 /home/rlyerly/Downloads/popcorn-compiler/test-install/aarch64/lib/libelf.a(32.getehdr.o)
                0x000000000050b7c0                elf32_getehdr
 .text.elf64_getehdr
                0x000000000050b860       0xa0 0x8 /home/rlyerly/Downloads/popcorn-compiler/test-install/aarch64/lib/libelf.a(32.getehdr.o)
                0x000000000050b860                elf64_getehdr
 .text.half_32L__tom
                0x000000000050b900      0x120 0x8 /home/rlyerly/Downloads/popcorn-compiler/test-install/aarch64/lib/libelf.a(32.xlatetof.o)
 .text.half_32L__tof
                0x000000000050ba20      0x29c 0x8 /home/rlyerly/Downloads/popcorn-compiler/test-install/aarch64/lib/libelf.a(32.xlatetof.o)
 ** zero fill   0x000000000050bcbc        0x4
 .text.half_32M__tom
                0x000000000050bcc0      0x14c 0x8 /home/rlyerly/Downloads/popcorn-compiler/test-install/aarch64/lib/libelf.a(32.xlatetof.o)
 ** zero fill   0x000000000050be0c        0x6
 ** zero fill   0x000000000050be12        0xe
 .text.half_32M__tof
                0x000000000050be20      0x2a0 0x8 /home/rlyerly/Downloads/popcorn-compiler/test-install/aarch64/lib/libelf.a(32.xlatetof.o)
 .text.sword_32L__tom
                0x000000000050c0c0       0xd0 0x8 /home/rlyerly/Downloads/popcorn-compiler/test-install/aarch64/lib/libelf.a(32.xlatetof.o)
 ** zero fill   0x000000000050c190       0x10
 .text.sword_32L__tof
                0x000000000050c1a0      0x464 0x8 /home/rlyerly/Downloads/popcorn-compiler/test-install/aarch64/lib/libelf.a(32.xlatetof.o)
 ** zero fill   0x000000000050c604       0xd6
 ** zero fill   0x000000000050c6da        0x6
 .text.sword_32M__tom
                0x000000000050c6e0       0xe4 0x8 /home/rlyerly/Downloads/popcorn-compiler/test-install/aarch64/lib/libelf.a(32.xlatetof.o)
 ** zero fill   0x000000000050c7c4        0xc
 .text.sword_32M__tof
                0x000000000050c7d0      0x468 0x8 /home/rlyerly/Downloads/popcorn-compiler/test-install/aarch64/lib/libelf.a(32.xlatetof.o)
 ** zero fill   0x000000000050cc38       0xd2
 ** zero fill   0x000000000050cd0a        0x6
 .text.word_32L__tom
                0x000000000050cd10       0xd0 0x8 /home/rlyerly/Downloads/popcorn-compiler/test-install/aarch64/lib/libelf.a(32.xlatetof.o)
 ** zero fill   0x000000000050cde0       0x10
 .text.word_32L__tof
                0x000000000050cdf0      0x464 0x8 /home/rlyerly/Downloads/popcorn-compiler/test-install/aarch64/lib/libelf.a(32.xlatetof.o)
 ** zero fill   0x000000000050d254       0xd6
 ** zero fill   0x000000000050d32a        0x6
 .text.word_32M__tom
                0x000000000050d330       0xe4 0x8 /home/rlyerly/Downloads/popcorn-compiler/test-install/aarch64/lib/libelf.a(32.xlatetof.o)
 ** zero fill   0x000000000050d414        0xc
 .text.word_32M__tof
                0x000000000050d420      0x468 0x8 /home/rlyerly/Downloads/popcorn-compiler/test-install/aarch64/lib/libelf.a(32.xlatetof.o)
 ** zero fill   0x000000000050d888       0xd2
 ** zero fill   0x000000000050d95a        0x6
 .text.dyn_32L11_tom
                0x000000000050d960       0x44 0x8 /home/rlyerly/Downloads/popcorn-compiler/test-install/aarch64/lib/libelf.a(32.xlatetof.o)
 ** zero fill   0x000000000050d9a4        0xc
 .text.dyn_32L11_tof
                0x000000000050d9b0      0x374 0x8 /home/rlyerly/Downloads/popcorn-compiler/test-install/aarch64/lib/libelf.a(32.xlatetof.o)
 ** zero fill   0x000000000050dd24      0x2b3
 ** zero fill   0x000000000050dfd7        0x9
 .text.dyn_32M11_tom
                0x000000000050dfe0       0x4c 0x8 /home/rlyerly/Downloads/popcorn-compiler/test-install/aarch64/lib/libelf.a(32.xlatetof.o)
 ** zero fill   0x000000000050e02c        0x4
 .text.dyn_32M11_tof
                0x000000000050e030      0x374 0x8 /home/rlyerly/Downloads/popcorn-compiler/test-install/aarch64/lib/libelf.a(32.xlatetof.o)
 ** zero fill   0x000000000050e3a4      0x2b3
 ** zero fill   0x000000000050e657        0x9
 .text.phdr_32L11_tom
                0x000000000050e660       0xc0 0x8 /home/rlyerly/Downloads/popcorn-compiler/test-install/aarch64/lib/libelf.a(32.xlatetof.o)
 ** zero fill   0x000000000050e720        0xd
 ** zero fill   0x000000000050e72d        0x3
 .text.phdr_32L11_tof
                0x000000000050e730      0x154 0x8 /home/rlyerly/Downloads/popcorn-compiler/test-install/aarch64/lib/libelf.a(32.xlatetof.o)
 ** zero fill   0x000000000050e884        0xc
 .text.phdr_32M11_tom
                0x000000000050e890       0xe0 0x8 /home/rlyerly/Downloads/popcorn-compiler/test-install/aarch64/lib/libelf.a(32.xlatetof.o)
 .text.phdr_32M11_tof
                0x000000000050e970      0x154 0x8 /home/rlyerly/Downloads/popcorn-compiler/test-install/aarch64/lib/libelf.a(32.xlatetof.o)
 ** zero fill   0x000000000050eac4        0xc
 .text.rela_32L11_tom
                0x000000000050ead0       0x5c 0x8 /home/rlyerly/Downloads/popcorn-compiler/test-install/aarch64/lib/libelf.a(32.xlatetof.o)
 ** zero fill   0x000000000050eb2c        0x4
 .text.rela_32L11_tof
                0x000000000050eb30       0xb0 0x8 /home/rlyerly/Downloads/popcorn-compiler/test-install/aarch64/lib/libelf.a(32.xlatetof.o)
 .text.rela_32M11_tom
                0x000000000050ebe0       0x68 0x8 /home/rlyerly/Downloads/popcorn-compiler/test-install/aarch64/lib/libelf.a(32.xlatetof.o)
 ** zero fill   0x000000000050ec48        0x8
 .text.rela_32M11_tof
                0x000000000050ec50       0xb0 0x8 /home/rlyerly/Downloads/popcorn-compiler/test-install/aarch64/lib/libelf.a(32.xlatetof.o)
 .text.rel_32L11_tom
                0x000000000050ed00       0xc0 0x8 /home/rlyerly/Downloads/popcorn-compiler/test-install/aarch64/lib/libelf.a(32.xlatetof.o)
 .text.rel_32L11_tof
                0x000000000050edc0      0x354 0x8 /home/rlyerly/Downloads/popcorn-compiler/test-install/aarch64/lib/libelf.a(32.xlatetof.o)
 ** zero fill   0x000000000050f114      0x303
 ** zero fill   0x000000000050f417        0x9
 .text.rel_32M11_tom
                0x000000000050f420       0xd0 0x8 /home/rlyerly/Downloads/popcorn-compiler/test-install/aarch64/lib/libelf.a(32.xlatetof.o)
 .text.rel_32M11_tof
                0x000000000050f4f0      0x354 0x8 /home/rlyerly/Downloads/popcorn-compiler/test-install/aarch64/lib/libelf.a(32.xlatetof.o)
 ** zero fill   0x000000000050f844      0x303
 ** zero fill   0x000000000050fb47        0x9
 .text.shdr_32L11_tom
                0x000000000050fb50      0x17c 0x8 /home/rlyerly/Downloads/popcorn-compiler/test-install/aarch64/lib/libelf.a(32.xlatetof.o)
 ** zero fill   0x000000000050fccc        0x4
 .text.shdr_32L11_tof
                0x000000000050fcd0      0x1ac 0x8 /home/rlyerly/Downloads/popcorn-compiler/test-install/aarch64/lib/libelf.a(32.xlatetof.o)
 ** zero fill   0x000000000050fe7c        0x4
 .text.shdr_32M11_tom
                0x000000000050fe80      0x1dc 0x8 /home/rlyerly/Downloads/popcorn-compiler/test-install/aarch64/lib/libelf.a(32.xlatetof.o)
 ** zero fill   0x000000000051005c        0x4
 .text.shdr_32M11_tof
                0x0000000000510060      0x1ac 0x8 /home/rlyerly/Downloads/popcorn-compiler/test-install/aarch64/lib/libelf.a(32.xlatetof.o)
 ** zero fill   0x000000000051020c        0x4
 .text.sym_32L11_tom
                0x0000000000510210       0x64 0x8 /home/rlyerly/Downloads/popcorn-compiler/test-install/aarch64/lib/libelf.a(32.xlatetof.o)
 ** zero fill   0x0000000000510274        0xc
 .text.sym_32L11_tof
                0x0000000000510280       0xc0 0x8 /home/rlyerly/Downloads/popcorn-compiler/test-install/aarch64/lib/libelf.a(32.xlatetof.o)
 .text.sym_32M11_tom
                0x0000000000510340       0x74 0x8 /home/rlyerly/Downloads/popcorn-compiler/test-install/aarch64/lib/libelf.a(32.xlatetof.o)
 ** zero fill   0x00000000005103b4        0xc
 .text.sym_32M11_tof
                0x00000000005103c0       0xc0 0x8 /home/rlyerly/Downloads/popcorn-compiler/test-install/aarch64/lib/libelf.a(32.xlatetof.o)
 .text.ehdr_32M11_tom
                0x0000000000510480      0x100 0x8 /home/rlyerly/Downloads/popcorn-compiler/test-install/aarch64/lib/libelf.a(32.xlatetof.o)
 .text.byte_copy
                0x0000000000510580       0x34 0x8 /home/rlyerly/Downloads/popcorn-compiler/test-install/aarch64/lib/libelf.a(32.xlatetof.o)
 ** zero fill   0x00000000005105b4        0xc
 .text.ehdr_32M11_tof
                0x00000000005105c0      0x198 0x8 /home/rlyerly/Downloads/popcorn-compiler/test-install/aarch64/lib/libelf.a(32.xlatetof.o)
 ** zero fill   0x0000000000510758        0x8
 .text.ehdr_32L11_tom
                0x0000000000510760       0xcc 0x8 /home/rlyerly/Downloads/popcorn-compiler/test-install/aarch64/lib/libelf.a(32.xlatetof.o)
 ** zero fill   0x000000000051082c        0x4
 .text.ehdr_32L11_tof
                0x0000000000510830      0x198 0x8 /home/rlyerly/Downloads/popcorn-compiler/test-install/aarch64/lib/libelf.a(32.xlatetof.o)
 ** zero fill   0x00000000005109c8        0x8
 .text.addr_32L__tom
                0x00000000005109d0       0xd0 0x8 /home/rlyerly/Downloads/popcorn-compiler/test-install/aarch64/lib/libelf.a(32.xlatetof.o)
 ** zero fill   0x0000000000510aa0       0x10
 .text.addr_32L__tof
                0x0000000000510ab0      0x464 0x8 /home/rlyerly/Downloads/popcorn-compiler/test-install/aarch64/lib/libelf.a(32.xlatetof.o)
 ** zero fill   0x0000000000510f14       0xd6
 ** zero fill   0x0000000000510fea        0x6
 .text.addr_32M__tom
                0x0000000000510ff0       0xe4 0x8 /home/rlyerly/Downloads/popcorn-compiler/test-install/aarch64/lib/libelf.a(32.xlatetof.o)
 ** zero fill   0x00000000005110d4        0xc
 .text.addr_32M__tof
                0x00000000005110e0      0x468 0x8 /home/rlyerly/Downloads/popcorn-compiler/test-install/aarch64/lib/libelf.a(32.xlatetof.o)
 ** zero fill   0x0000000000511548       0xd2
 ** zero fill   0x000000000051161a        0x6
 .text.off_32L__tom
                0x0000000000511620       0xd0 0x8 /home/rlyerly/Downloads/popcorn-compiler/test-install/aarch64/lib/libelf.a(32.xlatetof.o)
 ** zero fill   0x00000000005116f0       0x10
 .text.off_32L__tof
                0x0000000000511700      0x464 0x8 /home/rlyerly/Downloads/popcorn-compiler/test-install/aarch64/lib/libelf.a(32.xlatetof.o)
 ** zero fill   0x0000000000511b64       0xd6
 ** zero fill   0x0000000000511c3a        0x6
 .text.off_32M__tom
                0x0000000000511c40       0xe4 0x8 /home/rlyerly/Downloads/popcorn-compiler/test-install/aarch64/lib/libelf.a(32.xlatetof.o)
 ** zero fill   0x0000000000511d24        0xc
 .text.off_32M__tof
                0x0000000000511d30      0x468 0x8 /home/rlyerly/Downloads/popcorn-compiler/test-install/aarch64/lib/libelf.a(32.xlatetof.o)
 ** zero fill   0x0000000000512198       0xd2
 ** zero fill   0x000000000051226a        0x6
 .text._elf32_xltsize
                0x0000000000512270       0xa4 0x8 /home/rlyerly/Downloads/popcorn-compiler/test-install/aarch64/lib/libelf.a(32.xlatetof.o)
                0x0000000000512270                _elf32_xltsize
 ** zero fill   0x0000000000512314        0xc
 .text.elf32_xlatetom
                0x0000000000512320      0x16c 0x8 /home/rlyerly/Downloads/popcorn-compiler/test-install/aarch64/lib/libelf.a(32.xlatetof.o)
                0x0000000000512320                elf32_xlatetom
 ** zero fill   0x000000000051248c        0x4
 .text.elf32_xlatetof
                0x0000000000512490      0x16c 0x8 /home/rlyerly/Downloads/popcorn-compiler/test-install/aarch64/lib/libelf.a(32.xlatetof.o)
                0x0000000000512490                elf32_xlatetof
 ** zero fill   0x00000000005125fc        0x4
 .text._elf_scn_type
                0x0000000000512600       0xc8 0x8 /home/rlyerly/Downloads/popcorn-compiler/test-install/aarch64/lib/libelf.a(cook.o)
                0x0000000000512600                _elf_scn_type
 ** zero fill   0x00000000005126c8        0x8
 .text._elf_xlatetom
                0x00000000005126d0       0x4c 0x8 /home/rlyerly/Downloads/popcorn-compiler/test-install/aarch64/lib/libelf.a(cook.o)
                0x00000000005126d0                _elf_xlatetom
 ** zero fill   0x000000000051271c        0x4
 .text._elf_cook
                0x0000000000512720      0x870 0x8 /home/rlyerly/Downloads/popcorn-compiler/test-install/aarch64/lib/libelf.a(cook.o)
                0x0000000000512720                _elf_cook
 ** zero fill   0x0000000000512f90      0x16e
 ** zero fill   0x00000000005130fe        0x2
 .text._elf_read
                0x0000000000513100      0x16c 0x8 /home/rlyerly/Downloads/popcorn-compiler/test-install/aarch64/lib/libelf.a(input.o)
                0x0000000000513100                _elf_read
 ** zero fill   0x000000000051326c        0x4
 .text._elf_mmap
                0x0000000000513270       0x68 0x8 /home/rlyerly/Downloads/popcorn-compiler/test-install/aarch64/lib/libelf.a(input.o)
                0x0000000000513270                _elf_mmap
 ** zero fill   0x00000000005132d8        0x8
 .text.elf_getphdrnum
                0x00000000005132e0       0x80 0x8 /home/rlyerly/Downloads/popcorn-compiler/test-install/aarch64/lib/libelf.a(x.elfext.o)
                0x00000000005132e0                elf_getphdrnum
 .text.elf_getshdrnum
                0x0000000000513360       0x90 0x8 /home/rlyerly/Downloads/popcorn-compiler/test-install/aarch64/lib/libelf.a(x.elfext.o)
                0x0000000000513360                elf_getshdrnum
 .text.elf_getshdrstrndx
                0x00000000005133f0      0x140 0x8 /home/rlyerly/Downloads/popcorn-compiler/test-install/aarch64/lib/libelf.a(x.elfext.o)
                0x00000000005133f0                elf_getshdrstrndx
 .text.elf_getphnum
                0x0000000000513530       0x80 0x8 /home/rlyerly/Downloads/popcorn-compiler/test-install/aarch64/lib/libelf.a(x.elfext.o)
                0x0000000000513530                elf_getphnum
 .text.elf_getshnum
                0x00000000005135b0       0x90 0x8 /home/rlyerly/Downloads/popcorn-compiler/test-install/aarch64/lib/libelf.a(x.elfext.o)
                0x00000000005135b0                elf_getshnum
 .text.elf_getshstrndx
                0x0000000000513640      0x140 0x8 /home/rlyerly/Downloads/popcorn-compiler/test-install/aarch64/lib/libelf.a(x.elfext.o)
                0x0000000000513640                elf_getshstrndx
 .text.elfx_update_shstrndx
                0x0000000000513780      0x11c 0x8 /home/rlyerly/Downloads/popcorn-compiler/test-install/aarch64/lib/libelf.a(x.elfext.o)
                0x0000000000513780                elfx_update_shstrndx
 ** zero fill   0x000000000051389c        0x4
 .text.half_64L__tom
                0x00000000005138a0      0x120 0x8 /home/rlyerly/Downloads/popcorn-compiler/test-install/aarch64/lib/libelf.a(64.xlatetof.o)
 .text.half_64L__tof
                0x00000000005139c0      0x29c 0x8 /home/rlyerly/Downloads/popcorn-compiler/test-install/aarch64/lib/libelf.a(64.xlatetof.o)
 ** zero fill   0x0000000000513c5c        0x4
 .text.half_64M__tom
                0x0000000000513c60      0x14c 0x8 /home/rlyerly/Downloads/popcorn-compiler/test-install/aarch64/lib/libelf.a(64.xlatetof.o)
 ** zero fill   0x0000000000513dac        0x6
 ** zero fill   0x0000000000513db2        0xe
 .text.half_64M__tof
                0x0000000000513dc0      0x2a0 0x8 /home/rlyerly/Downloads/popcorn-compiler/test-install/aarch64/lib/libelf.a(64.xlatetof.o)
 .text.sword_64L__tom
                0x0000000000514060       0xd0 0x8 /home/rlyerly/Downloads/popcorn-compiler/test-install/aarch64/lib/libelf.a(64.xlatetof.o)
 ** zero fill   0x0000000000514130       0x10
 .text.sword_64L__tof
                0x0000000000514140      0x464 0x8 /home/rlyerly/Downloads/popcorn-compiler/test-install/aarch64/lib/libelf.a(64.xlatetof.o)
 ** zero fill   0x00000000005145a4       0xd6
 ** zero fill   0x000000000051467a        0x6
 .text.sword_64M__tom
                0x0000000000514680       0xe4 0x8 /home/rlyerly/Downloads/popcorn-compiler/test-install/aarch64/lib/libelf.a(64.xlatetof.o)
 ** zero fill   0x0000000000514764        0xc
 .text.sword_64M__tof
                0x0000000000514770      0x468 0x8 /home/rlyerly/Downloads/popcorn-compiler/test-install/aarch64/lib/libelf.a(64.xlatetof.o)
 ** zero fill   0x0000000000514bd8       0xd2
 ** zero fill   0x0000000000514caa        0x6
 .text.word_64L__tom
                0x0000000000514cb0       0xd0 0x8 /home/rlyerly/Downloads/popcorn-compiler/test-install/aarch64/lib/libelf.a(64.xlatetof.o)
 ** zero fill   0x0000000000514d80       0x10
 .text.word_64L__tof
                0x0000000000514d90      0x464 0x8 /home/rlyerly/Downloads/popcorn-compiler/test-install/aarch64/lib/libelf.a(64.xlatetof.o)
 ** zero fill   0x00000000005151f4       0xd6
 ** zero fill   0x00000000005152ca        0x6
 .text.word_64M__tom
                0x00000000005152d0       0xe4 0x8 /home/rlyerly/Downloads/popcorn-compiler/test-install/aarch64/lib/libelf.a(64.xlatetof.o)
 ** zero fill   0x00000000005153b4        0xc
 .text.word_64M__tof
                0x00000000005153c0      0x468 0x8 /home/rlyerly/Downloads/popcorn-compiler/test-install/aarch64/lib/libelf.a(64.xlatetof.o)
 ** zero fill   0x0000000000515828       0xd2
 ** zero fill   0x00000000005158fa        0x6
 .text.elf64_xlate
                0x0000000000515900      0x174 0x8 /home/rlyerly/Downloads/popcorn-compiler/test-install/aarch64/lib/libelf.a(64.xlatetof.o)
 ** zero fill   0x0000000000515a74        0xc
 .text.xword_64M__tof
                0x0000000000515a80       0x60 0x8 /home/rlyerly/Downloads/popcorn-compiler/test-install/aarch64/lib/libelf.a(64.xlatetof.o)
 .text.sym_64M11_tof
                0x0000000000515ae0       0xc0 0x8 /home/rlyerly/Downloads/popcorn-compiler/test-install/aarch64/lib/libelf.a(64.xlatetof.o)
 .text.shdr_64M11_tof
                0x0000000000515ba0      0x12c 0x8 /home/rlyerly/Downloads/popcorn-compiler/test-install/aarch64/lib/libelf.a(64.xlatetof.o)
 ** zero fill   0x0000000000515ccc        0x4
 .text.rel_64M11_tof
                0x0000000000515cd0       0x70 0x8 /home/rlyerly/Downloads/popcorn-compiler/test-install/aarch64/lib/libelf.a(64.xlatetof.o)
 .text.phdr_64M11_tof
                0x0000000000515d40      0x100 0x8 /home/rlyerly/Downloads/popcorn-compiler/test-install/aarch64/lib/libelf.a(64.xlatetof.o)
 .text.dyn_64M11_tof
                0x0000000000515e40       0x70 0x8 /home/rlyerly/Downloads/popcorn-compiler/test-install/aarch64/lib/libelf.a(64.xlatetof.o)
 .text.xword_64M__tom
                0x0000000000515eb0       0x60 0x8 /home/rlyerly/Downloads/popcorn-compiler/test-install/aarch64/lib/libelf.a(64.xlatetof.o)
 .text.sym_64M11_tom
                0x0000000000515f10       0xa4 0x8 /home/rlyerly/Downloads/popcorn-compiler/test-install/aarch64/lib/libelf.a(64.xlatetof.o)
 ** zero fill   0x0000000000515fb4        0xc
 .text.shdr_64M11_tom
                0x0000000000515fc0       0xcc 0x8 /home/rlyerly/Downloads/popcorn-compiler/test-install/aarch64/lib/libelf.a(64.xlatetof.o)
 ** zero fill   0x000000000051608c        0x4
 .text.rel_64M11_tom
                0x0000000000516090       0x70 0x8 /home/rlyerly/Downloads/popcorn-compiler/test-install/aarch64/lib/libelf.a(64.xlatetof.o)
 .text.phdr_64M11_tom
                0x0000000000516100       0xd0 0x8 /home/rlyerly/Downloads/popcorn-compiler/test-install/aarch64/lib/libelf.a(64.xlatetof.o)
 .text.dyn_64M11_tom
                0x00000000005161d0       0x70 0x8 /home/rlyerly/Downloads/popcorn-compiler/test-install/aarch64/lib/libelf.a(64.xlatetof.o)
 .text.sxword_64M__tof
                0x0000000000516240       0x60 0x8 /home/rlyerly/Downloads/popcorn-compiler/test-install/aarch64/lib/libelf.a(64.xlatetof.o)
 .text.rela_64M11_tof
                0x00000000005162a0       0x8c 0x8 /home/rlyerly/Downloads/popcorn-compiler/test-install/aarch64/lib/libelf.a(64.xlatetof.o)
 ** zero fill   0x000000000051632c        0x4
 .text.sxword_64M__tom
                0x0000000000516330       0x60 0x8 /home/rlyerly/Downloads/popcorn-compiler/test-install/aarch64/lib/libelf.a(64.xlatetof.o)
 .text.rela_64M11_tom
                0x0000000000516390       0x8c 0x8 /home/rlyerly/Downloads/popcorn-compiler/test-install/aarch64/lib/libelf.a(64.xlatetof.o)
 ** zero fill   0x000000000051641c        0x4
 .text.xword_64L__tof
                0x0000000000516420       0x60 0x8 /home/rlyerly/Downloads/popcorn-compiler/test-install/aarch64/lib/libelf.a(64.xlatetof.o)
 .text.sym_64L11_tof
                0x0000000000516480       0xc0 0x8 /home/rlyerly/Downloads/popcorn-compiler/test-install/aarch64/lib/libelf.a(64.xlatetof.o)
 .text.shdr_64L11_tof
                0x0000000000516540      0x12c 0x8 /home/rlyerly/Downloads/popcorn-compiler/test-install/aarch64/lib/libelf.a(64.xlatetof.o)
 ** zero fill   0x000000000051666c        0x4
 .text.rel_64L11_tof
                0x0000000000516670       0x70 0x8 /home/rlyerly/Downloads/popcorn-compiler/test-install/aarch64/lib/libelf.a(64.xlatetof.o)
 .text.phdr_64L11_tof
                0x00000000005166e0      0x100 0x8 /home/rlyerly/Downloads/popcorn-compiler/test-install/aarch64/lib/libelf.a(64.xlatetof.o)
 .text.dyn_64L11_tof
                0x00000000005167e0       0x70 0x8 /home/rlyerly/Downloads/popcorn-compiler/test-install/aarch64/lib/libelf.a(64.xlatetof.o)
 .text.xword_64L__tom
                0x0000000000516850       0x60 0x8 /home/rlyerly/Downloads/popcorn-compiler/test-install/aarch64/lib/libelf.a(64.xlatetof.o)
 .text.sym_64L11_tom
                0x00000000005168b0       0x9c 0x8 /home/rlyerly/Downloads/popcorn-compiler/test-install/aarch64/lib/libelf.a(64.xlatetof.o)
 ** zero fill   0x000000000051694c        0x4
 .text.shdr_64L11_tom
                0x0000000000516950       0xbc 0x8 /home/rlyerly/Downloads/popcorn-compiler/test-install/aarch64/lib/libelf.a(64.xlatetof.o)
 ** zero fill   0x0000000000516a0c        0x4
 .text.rel_64L11_tom
                0x0000000000516a10       0x70 0x8 /home/rlyerly/Downloads/popcorn-compiler/test-install/aarch64/lib/libelf.a(64.xlatetof.o)
 .text.phdr_64L11_tom
                0x0000000000516a80       0xc8 0x8 /home/rlyerly/Downloads/popcorn-compiler/test-install/aarch64/lib/libelf.a(64.xlatetof.o)
 ** zero fill   0x0000000000516b48        0x8
 .text.dyn_64L11_tom
                0x0000000000516b50       0x70 0x8 /home/rlyerly/Downloads/popcorn-compiler/test-install/aarch64/lib/libelf.a(64.xlatetof.o)
 .text.sxword_64L__tof
                0x0000000000516bc0       0x60 0x8 /home/rlyerly/Downloads/popcorn-compiler/test-install/aarch64/lib/libelf.a(64.xlatetof.o)
 .text.rela_64L11_tof
                0x0000000000516c20       0x8c 0x8 /home/rlyerly/Downloads/popcorn-compiler/test-install/aarch64/lib/libelf.a(64.xlatetof.o)
 ** zero fill   0x0000000000516cac        0x4
 .text.sxword_64L__tom
                0x0000000000516cb0       0x60 0x8 /home/rlyerly/Downloads/popcorn-compiler/test-install/aarch64/lib/libelf.a(64.xlatetof.o)
 .text.rela_64L11_tom
                0x0000000000516d10       0x8c 0x8 /home/rlyerly/Downloads/popcorn-compiler/test-install/aarch64/lib/libelf.a(64.xlatetof.o)
 ** zero fill   0x0000000000516d9c        0x4
 .text.ehdr_64M11_tom
                0x0000000000516da0      0x108 0x8 /home/rlyerly/Downloads/popcorn-compiler/test-install/aarch64/lib/libelf.a(64.xlatetof.o)
 ** zero fill   0x0000000000516ea8        0x8
 .text.byte_copy
                0x0000000000516eb0       0x34 0x8 /home/rlyerly/Downloads/popcorn-compiler/test-install/aarch64/lib/libelf.a(64.xlatetof.o)
 ** zero fill   0x0000000000516ee4        0xc
 .text.ehdr_64M11_tof
                0x0000000000516ef0      0x158 0x8 /home/rlyerly/Downloads/popcorn-compiler/test-install/aarch64/lib/libelf.a(64.xlatetof.o)
 ** zero fill   0x0000000000517048        0x8
 .text.ehdr_64L11_tom
                0x0000000000517050       0xe0 0x8 /home/rlyerly/Downloads/popcorn-compiler/test-install/aarch64/lib/libelf.a(64.xlatetof.o)
 ** zero fill   0x0000000000517130        0x3
 ** zero fill   0x0000000000517133        0xd
 .text.ehdr_64L11_tof
                0x0000000000517140      0x158 0x8 /home/rlyerly/Downloads/popcorn-compiler/test-install/aarch64/lib/libelf.a(64.xlatetof.o)
 ** zero fill   0x0000000000517298        0x8
 .text.addr_64L__tom
                0x00000000005172a0       0x60 0x8 /home/rlyerly/Downloads/popcorn-compiler/test-install/aarch64/lib/libelf.a(64.xlatetof.o)
 .text.addr_64L__tof
                0x0000000000517300       0x60 0x8 /home/rlyerly/Downloads/popcorn-compiler/test-install/aarch64/lib/libelf.a(64.xlatetof.o)
 .text.addr_64M__tom
                0x0000000000517360       0x60 0x8 /home/rlyerly/Downloads/popcorn-compiler/test-install/aarch64/lib/libelf.a(64.xlatetof.o)
 .text.addr_64M__tof
                0x00000000005173c0       0x60 0x8 /home/rlyerly/Downloads/popcorn-compiler/test-install/aarch64/lib/libelf.a(64.xlatetof.o)
 .text.off_64L__tom
                0x0000000000517420       0x60 0x8 /home/rlyerly/Downloads/popcorn-compiler/test-install/aarch64/lib/libelf.a(64.xlatetof.o)
 .text.off_64L__tof
                0x0000000000517480       0x60 0x8 /home/rlyerly/Downloads/popcorn-compiler/test-install/aarch64/lib/libelf.a(64.xlatetof.o)
 .text.off_64M__tom
                0x00000000005174e0       0x60 0x8 /home/rlyerly/Downloads/popcorn-compiler/test-install/aarch64/lib/libelf.a(64.xlatetof.o)
 .text.off_64M__tof
                0x0000000000517540       0x60 0x8 /home/rlyerly/Downloads/popcorn-compiler/test-install/aarch64/lib/libelf.a(64.xlatetof.o)
 .text._elf64_xltsize
                0x00000000005175a0       0xa4 0x8 /home/rlyerly/Downloads/popcorn-compiler/test-install/aarch64/lib/libelf.a(64.xlatetof.o)
                0x00000000005175a0                _elf64_xltsize
 ** zero fill   0x0000000000517644        0xc
 .text.elf64_xlatetom
                0x0000000000517650      0x16c 0x8 /home/rlyerly/Downloads/popcorn-compiler/test-install/aarch64/lib/libelf.a(64.xlatetof.o)
                0x0000000000517650                elf64_xlatetom
 ** zero fill   0x00000000005177bc        0x4
 .text.elf64_xlatetof
                0x00000000005177c0      0x16c 0x8 /home/rlyerly/Downloads/popcorn-compiler/test-install/aarch64/lib/libelf.a(64.xlatetof.o)
                0x00000000005177c0                elf64_xlatetof
 ** zero fill   0x000000000051792c        0x4
 .text.gelf_xlatetom
                0x0000000000517930       0x78 0x8 /home/rlyerly/Downloads/popcorn-compiler/test-install/aarch64/lib/libelf.a(64.xlatetof.o)
                0x0000000000517930                gelf_xlatetom
 ** zero fill   0x00000000005179a8        0x8
 .text.gelf_xlatetof
                0x00000000005179b0       0x78 0x8 /home/rlyerly/Downloads/popcorn-compiler/test-install/aarch64/lib/libelf.a(64.xlatetof.o)
                0x00000000005179b0                gelf_xlatetof
 ** zero fill   0x0000000000517a28        0x8
 .text.gelf_getshdr
                0x0000000000517a30      0x138 0x8 /home/rlyerly/Downloads/popcorn-compiler/test-install/aarch64/lib/libelf.a(gelfshdr.o)
                0x0000000000517a30                gelf_getshdr
 ** zero fill   0x0000000000517b68       0x53
 ** zero fill   0x0000000000517bbb        0x5
 .text.gelf_update_shdr
                0x0000000000517bc0      0x100 0x8 /home/rlyerly/Downloads/popcorn-compiler/test-install/aarch64/lib/libelf.a(gelfshdr.o)
                0x0000000000517bc0                gelf_update_shdr
 ** zero fill   0x0000000000517cc0       0x13
 ** zero fill   0x0000000000517cd3        0xd
 .text._elf_load_u64L
                0x0000000000517ce0        0x8 0x8 /home/rlyerly/Downloads/popcorn-compiler/test-install/aarch64/lib/libelf.a(swap64.o)
                0x0000000000517ce0                _elf_load_u64L
 ** zero fill   0x0000000000517ce8        0x8
 .text._elf_load_u64M
                0x0000000000517cf0        0xc 0x8 /home/rlyerly/Downloads/popcorn-compiler/test-install/aarch64/lib/libelf.a(swap64.o)
                0x0000000000517cf0                _elf_load_u64M
 ** zero fill   0x0000000000517cfc        0x4
 .text._elf_load_i64L
                0x0000000000517d00        0x8 0x8 /home/rlyerly/Downloads/popcorn-compiler/test-install/aarch64/lib/libelf.a(swap64.o)
                0x0000000000517d00                _elf_load_i64L
 ** zero fill   0x0000000000517d08        0x8
 .text._elf_load_i64M
                0x0000000000517d10        0xc 0x8 /home/rlyerly/Downloads/popcorn-compiler/test-install/aarch64/lib/libelf.a(swap64.o)
                0x0000000000517d10                _elf_load_i64M
 ** zero fill   0x0000000000517d1c        0x4
 .text._elf_store_u64L
                0x0000000000517d20       0x40 0x8 /home/rlyerly/Downloads/popcorn-compiler/test-install/aarch64/lib/libelf.a(swap64.o)
                0x0000000000517d20                _elf_store_u64L
 .text._elf_store_u64M
                0x0000000000517d60       0x40 0x8 /home/rlyerly/Downloads/popcorn-compiler/test-install/aarch64/lib/libelf.a(swap64.o)
                0x0000000000517d60                _elf_store_u64M
 .text._elf_store_i64L
                0x0000000000517da0       0x40 0x8 /home/rlyerly/Downloads/popcorn-compiler/test-install/aarch64/lib/libelf.a(swap64.o)
                0x0000000000517da0                _elf_store_i64L
 .text._elf_store_i64M
                0x0000000000517de0       0x40 0x8 /home/rlyerly/Downloads/popcorn-compiler/test-install/aarch64/lib/libelf.a(swap64.o)
                0x0000000000517de0                _elf_store_i64M
 .text._elf_verdef_32L11_tof
                0x0000000000517e20      0x1e8 0x8 /home/rlyerly/Downloads/popcorn-compiler/test-install/aarch64/lib/libelf.a(verdef_32_tof.o)
                0x0000000000517e20                _elf_verdef_32L11_tof
 ** zero fill   0x0000000000518008       0x3f
 ** zero fill   0x0000000000518047        0x9
 .text._elf_verdef_32M11_tof
                0x0000000000518050      0x1e8 0x8 /home/rlyerly/Downloads/popcorn-compiler/test-install/aarch64/lib/libelf.a(verdef_32_tof.o)
                0x0000000000518050                _elf_verdef_32M11_tof
 ** zero fill   0x0000000000518238       0x3f
 ** zero fill   0x0000000000518277        0x9
 .text._elf_verneed_32L11_tof
                0x0000000000518280      0x21c 0x8 /home/rlyerly/Downloads/popcorn-compiler/test-install/aarch64/lib/libelf.a(verdef_32_tof.o)
                0x0000000000518280                _elf_verneed_32L11_tof
 ** zero fill   0x000000000051849c       0x4b
 ** zero fill   0x00000000005184e7        0x9
 .text._elf_verneed_32M11_tof
                0x00000000005184f0      0x224 0x8 /home/rlyerly/Downloads/popcorn-compiler/test-install/aarch64/lib/libelf.a(verdef_32_tof.o)
                0x00000000005184f0                _elf_verneed_32M11_tof
 ** zero fill   0x0000000000518714       0x43
 ** zero fill   0x0000000000518757        0x9
 .text._elf_verdef_32L11_tom
                0x0000000000518760      0x128 0x8 /home/rlyerly/Downloads/popcorn-compiler/test-install/aarch64/lib/libelf.a(verdef_32_tom.o)
                0x0000000000518760                _elf_verdef_32L11_tom
 ** zero fill   0x0000000000518888        0xf
 ** zero fill   0x0000000000518897        0x9
 .text._elf_verdef_32M11_tom
                0x00000000005188a0      0x158 0x8 /home/rlyerly/Downloads/popcorn-compiler/test-install/aarch64/lib/libelf.a(verdef_32_tom.o)
                0x00000000005188a0                _elf_verdef_32M11_tom
 ** zero fill   0x00000000005189f8        0xf
 ** zero fill   0x0000000000518a07        0x9
 .text._elf_verneed_32L11_tom
                0x0000000000518a10      0x130 0x8 /home/rlyerly/Downloads/popcorn-compiler/test-install/aarch64/lib/libelf.a(verdef_32_tom.o)
                0x0000000000518a10                _elf_verneed_32L11_tom
 ** zero fill   0x0000000000518b40       0x17
 ** zero fill   0x0000000000518b57        0x9
 .text._elf_verneed_32M11_tom
                0x0000000000518b60      0x158 0x8 /home/rlyerly/Downloads/popcorn-compiler/test-install/aarch64/lib/libelf.a(verdef_32_tom.o)
                0x0000000000518b60                _elf_verneed_32M11_tom
 ** zero fill   0x0000000000518cb8       0x1f
 ** zero fill   0x0000000000518cd7        0x9
 .text._elf_verdef_64L11_tof
                0x0000000000518ce0      0x1e8 0x8 /home/rlyerly/Downloads/popcorn-compiler/test-install/aarch64/lib/libelf.a(verdef_64_tof.o)
                0x0000000000518ce0                _elf_verdef_64L11_tof
 ** zero fill   0x0000000000518ec8       0x3f
 ** zero fill   0x0000000000518f07        0x9
 .text._elf_verdef_64M11_tof
                0x0000000000518f10      0x1e8 0x8 /home/rlyerly/Downloads/popcorn-compiler/test-install/aarch64/lib/libelf.a(verdef_64_tof.o)
                0x0000000000518f10                _elf_verdef_64M11_tof
 ** zero fill   0x00000000005190f8       0x3f
 ** zero fill   0x0000000000519137        0x9
 .text._elf_verneed_64L11_tof
                0x0000000000519140      0x21c 0x8 /home/rlyerly/Downloads/popcorn-compiler/test-install/aarch64/lib/libelf.a(verdef_64_tof.o)
                0x0000000000519140                _elf_verneed_64L11_tof
 ** zero fill   0x000000000051935c       0x4b
 ** zero fill   0x00000000005193a7        0x9
 .text._elf_verneed_64M11_tof
                0x00000000005193b0      0x224 0x8 /home/rlyerly/Downloads/popcorn-compiler/test-install/aarch64/lib/libelf.a(verdef_64_tof.o)
                0x00000000005193b0                _elf_verneed_64M11_tof
 ** zero fill   0x00000000005195d4       0x43
 ** zero fill   0x0000000000519617        0x9
 .text._elf_verdef_64L11_tom
                0x0000000000519620      0x128 0x8 /home/rlyerly/Downloads/popcorn-compiler/test-install/aarch64/lib/libelf.a(verdef_64_tom.o)
                0x0000000000519620                _elf_verdef_64L11_tom
 ** zero fill   0x0000000000519748        0xf
 ** zero fill   0x0000000000519757        0x9
 .text._elf_verdef_64M11_tom
                0x0000000000519760      0x158 0x8 /home/rlyerly/Downloads/popcorn-compiler/test-install/aarch64/lib/libelf.a(verdef_64_tom.o)
                0x0000000000519760                _elf_verdef_64M11_tom
 ** zero fill   0x00000000005198b8        0xf
 ** zero fill   0x00000000005198c7        0x9
 .text._elf_verneed_64L11_tom
                0x00000000005198d0      0x130 0x8 /home/rlyerly/Downloads/popcorn-compiler/test-install/aarch64/lib/libelf.a(verdef_64_tom.o)
                0x00000000005198d0                _elf_verneed_64L11_tom
 ** zero fill   0x0000000000519a00       0x17
 ** zero fill   0x0000000000519a17        0x9
 .text._elf_verneed_64M11_tom
                0x0000000000519a20      0x158 0x8 /home/rlyerly/Downloads/popcorn-compiler/test-install/aarch64/lib/libelf.a(verdef_64_tom.o)
                0x0000000000519a20                _elf_verneed_64M11_tom
 ** zero fill   0x0000000000519b78       0x1f
 ** zero fill   0x0000000000519b97        0x9
 .text.elf_getscn
                0x0000000000519ba0       0xa4 0x8 /home/rlyerly/Downloads/popcorn-compiler/test-install/aarch64/lib/libelf.a(getscn.o)
                0x0000000000519ba0                elf_getscn
 ** zero fill   0x0000000000519c44        0xc
 .text._elf_update_shnum
                0x0000000000519c50       0x88 0x8 /home/rlyerly/Downloads/popcorn-compiler/test-install/aarch64/lib/libelf.a(newscn.o)
                0x0000000000519c50                _elf_update_shnum
 ** zero fill   0x0000000000519cd8        0x8
 .text._elf_first_scn
                0x0000000000519ce0       0xe4 0x8 /home/rlyerly/Downloads/popcorn-compiler/test-install/aarch64/lib/libelf.a(newscn.o)
                0x0000000000519ce0                _elf_first_scn
 ** zero fill   0x0000000000519dc4       0x24
 ** zero fill   0x0000000000519de8        0x8
 .text.elf_newscn
                0x0000000000519df0      0x25c 0x8 /home/rlyerly/Downloads/popcorn-compiler/test-install/aarch64/lib/libelf.a(newscn.o)
                0x0000000000519df0                elf_newscn
 ** zero fill   0x000000000051a04c       0x31
 ** zero fill   0x000000000051a07d        0x3
 .text.elf32_fsize
                0x000000000051a080       0x60 0x8 /home/rlyerly/Downloads/popcorn-compiler/test-install/aarch64/lib/libelf.a(32.fsize.o)
                0x000000000051a080                elf32_fsize
 .text.elf64_fsize
                0x000000000051a0e0       0x60 0x8 /home/rlyerly/Downloads/popcorn-compiler/test-install/aarch64/lib/libelf.a(32.fsize.o)
                0x000000000051a0e0                elf64_fsize
 .text.gelf_fsize
                0x000000000051a140       0xb8 0x8 /home/rlyerly/Downloads/popcorn-compiler/test-install/aarch64/lib/libelf.a(32.fsize.o)
                0x000000000051a140                gelf_fsize
 ** zero fill   0x000000000051a1f8        0x8
 .text.gelf_msize
                0x000000000051a200       0xbc 0x8 /home/rlyerly/Downloads/popcorn-compiler/test-install/aarch64/lib/libelf.a(32.fsize.o)
                0x000000000051a200                gelf_msize
 .text.__init_ssp
                0x000000000051a2bc       0x60 0x4 /home/rlyerly/Downloads/popcorn-compiler/test-install/aarch64/lib/libc.a(__stack_chk_fail.o)
                0x000000000051a2bc                __init_ssp
 .text.__stack_chk_fail
                0x000000000051a31c        0xc 0x4 /home/rlyerly/Downloads/popcorn-compiler/test-install/aarch64/lib/libc.a(__stack_chk_fail.o)
                0x000000000051a31c                __stack_chk_fail
                0x000000000051a31c                __stack_chk_fail_local
 .text.getenv   0x000000000051a328       0x8c 0x4 /home/rlyerly/Downloads/popcorn-compiler/test-install/aarch64/lib/libc.a(getenv.o)
                0x000000000051a328                getenv
 .text.__assert_fail
                0x000000000051a3b4       0x4c 0x4 /home/rlyerly/Downloads/popcorn-compiler/test-install/aarch64/lib/libc.a(assert.o)
                0x000000000051a3b4                __assert_fail
 .text.open     0x000000000051a400      0x10c 0x4 /home/rlyerly/Downloads/popcorn-compiler/test-install/aarch64/lib/libc.a(open.o)
                0x000000000051a400                open
                0x000000000051a400                open64
 ** zero fill   0x000000000051a50c       0x1a
 ** zero fill   0x000000000051a526        0xa
 .text.calloc   0x000000000051a530       0x48 0x4 /home/rlyerly/Downloads/popcorn-compiler/test-install/aarch64/lib/libc.a(calloc.o)
                0x000000000051a530                calloc
 ** zero fill   0x000000000051a578        0x8
 .text.__simple_malloc
                0x000000000051a580      0x104 0x4 /home/rlyerly/Downloads/popcorn-compiler/test-install/aarch64/lib/libc.a(lite_malloc.o)
 ** zero fill   0x000000000051a684        0xc
 .text.malloc   0x000000000051a690      0x828 0x4 /home/rlyerly/Downloads/popcorn-compiler/test-install/aarch64/lib/libc.a(malloc.o)
                0x000000000051a690                malloc
 ** zero fill   0x000000000051aeb8        0x8
 .text.lock_bin
                0x000000000051aec0       0xac 0x4 /home/rlyerly/Downloads/popcorn-compiler/test-install/aarch64/lib/libc.a(malloc.o)
 ** zero fill   0x000000000051af6c        0x4
 .text.unbin    0x000000000051af70       0xa4 0x4 /home/rlyerly/Downloads/popcorn-compiler/test-install/aarch64/lib/libc.a(malloc.o)
 ** zero fill   0x000000000051b014        0xc
 .text.unlock_bin
                0x000000000051b020       0x6c 0x4 /home/rlyerly/Downloads/popcorn-compiler/test-install/aarch64/lib/libc.a(malloc.o)
 ** zero fill   0x000000000051b08c        0x4
 .text.__malloc0
                0x000000000051b090       0xc4 0x4 /home/rlyerly/Downloads/popcorn-compiler/test-install/aarch64/lib/libc.a(malloc.o)
                0x000000000051b090                __malloc0
 ** zero fill   0x000000000051b154        0xc
 .text.realloc  0x000000000051b160      0x210 0x4 /home/rlyerly/Downloads/popcorn-compiler/test-install/aarch64/lib/libc.a(malloc.o)
                0x000000000051b160                realloc
 .text.free     0x000000000051b370      0x684 0x4 /home/rlyerly/Downloads/popcorn-compiler/test-install/aarch64/lib/libc.a(malloc.o)
                0x000000000051b370                free
 ** zero fill   0x000000000051b9f4        0xc
 .text.alloc_fwd
                0x000000000051ba00       0xc8 0x4 /home/rlyerly/Downloads/popcorn-compiler/test-install/aarch64/lib/libc.a(malloc.o)
 .text.getrlimit
                0x000000000051bac8       0xf8 0x4 /home/rlyerly/Downloads/popcorn-compiler/test-install/aarch64/lib/libc.a(getrlimit.o)
                0x000000000051bac8                getrlimit
                0x000000000051bac8                getrlimit64
 .text.syscall  0x000000000051bbc0      0x188 0x4 /home/rlyerly/Downloads/popcorn-compiler/test-install/aarch64/lib/libc.a(syscall.o)
                0x000000000051bbc0                syscall
 ** zero fill   0x000000000051bd48       0x67
 ** zero fill   0x000000000051bdaf        0x1
 .text.__madvise
                0x000000000051bdb0       0x20 0x4 /home/rlyerly/Downloads/popcorn-compiler/test-install/aarch64/lib/libc.a(madvise.o)
                0x000000000051bdb0                __madvise
                0x000000000051bdb0                madvise
 .text.dummy    0x000000000051bdd0        0x4 0x4 /home/rlyerly/Downloads/popcorn-compiler/test-install/aarch64/lib/libc.a(mmap.o)
                0x000000000051bdd0                __vm_wait
 .text.__mmap   0x000000000051bdd4       0xc0 0x4 /home/rlyerly/Downloads/popcorn-compiler/test-install/aarch64/lib/libc.a(mmap.o)
                0x000000000051bdd4                __mmap
                0x000000000051bdd4                mmap
                0x000000000051bdd4                mmap64
 .text.dummy    0x000000000051be94        0x4 0x4 /home/rlyerly/Downloads/popcorn-compiler/test-install/aarch64/lib/libc.a(mremap.o)
 .text.__mremap
                0x000000000051be98      0x110 0x4 /home/rlyerly/Downloads/popcorn-compiler/test-install/aarch64/lib/libc.a(mremap.o)
                0x000000000051be98                __mremap
                0x000000000051be98                mremap
 ** zero fill   0x000000000051bfa8        0xe
 ** zero fill   0x000000000051bfb6        0x2
 .text.dummy    0x000000000051bfb8        0x4 0x4 /home/rlyerly/Downloads/popcorn-compiler/test-install/aarch64/lib/libc.a(munmap.o)
 .text.__munmap
                0x000000000051bfbc       0x38 0x4 /home/rlyerly/Downloads/popcorn-compiler/test-install/aarch64/lib/libc.a(munmap.o)
                0x000000000051bfbc                __munmap
                0x000000000051bfbc                munmap
 .text.__get_handler_set
                0x000000000051bff4       0x10 0x4 /home/rlyerly/Downloads/popcorn-compiler/test-install/aarch64/lib/libc.a(sigaction.o)
                0x000000000051bff4                __get_handler_set
 .text.__libc_sigaction
                0x000000000051c004      0x194 0x4 /home/rlyerly/Downloads/popcorn-compiler/test-install/aarch64/lib/libc.a(sigaction.o)
                0x000000000051c004                __libc_sigaction
 .text.__sigaction
                0x000000000051c198       0x40 0x4 /home/rlyerly/Downloads/popcorn-compiler/test-install/aarch64/lib/libc.a(sigaction.o)
                0x000000000051c198                __sigaction
                0x000000000051c198                sigaction
 .text.sigemptyset
                0x000000000051c1d8        0xc 0x4 /home/rlyerly/Downloads/popcorn-compiler/test-install/aarch64/lib/libc.a(sigemptyset.o)
                0x000000000051c1d8                sigemptyset
 .text.__libc_current_sigrtmin
                0x000000000051c1e4        0x8 0x4 /home/rlyerly/Downloads/popcorn-compiler/test-install/aarch64/lib/libc.a(sigrtmin.o)
                0x000000000051c1e4                __libc_current_sigrtmin
 .text.__restore_rt
                0x000000000051c1ec        0x8 0x1 /home/rlyerly/Downloads/popcorn-compiler/test-install/aarch64/lib/libc.a(restore.o)
                0x000000000051c1ec                __restore_rt
 ** zero fill   0x000000000051c1f4        0x1
 ** zero fill   0x000000000051c1f5        0x3
 .text.dummy    0x000000000051c1f8        0x4 0x4 /home/rlyerly/Downloads/popcorn-compiler/test-install/aarch64/lib/libc.a(fclose.o)
                0x000000000051c1f8                __unlist_locked_file
 .text.fclose   0x000000000051c1fc       0xd8 0x4 /home/rlyerly/Downloads/popcorn-compiler/test-install/aarch64/lib/libc.a(fclose.o)
                0x000000000051c1fc                fclose
 .text.fflush   0x000000000051c2d4      0x154 0x4 /home/rlyerly/Downloads/popcorn-compiler/test-install/aarch64/lib/libc.a(fflush.o)
                0x000000000051c2d4                fflush
                0x000000000051c2d4                fflush_unlocked
 .text.fopen    0x000000000051c428       0xc0 0x4 /home/rlyerly/Downloads/popcorn-compiler/test-install/aarch64/lib/libc.a(fopen.o)
                0x000000000051c428                fopen
                0x000000000051c428                fopen64
 .text.fprintf  0x000000000051c4e8       0x74 0x4 /home/rlyerly/Downloads/popcorn-compiler/test-install/aarch64/lib/libc.a(fprintf.o)
                0x000000000051c4e8                fprintf
 ** zero fill   0x000000000051c55c       0x23
 ** zero fill   0x000000000051c57f        0x1
 .text.getline  0x000000000051c580       0x10 0x4 /home/rlyerly/Downloads/popcorn-compiler/test-install/aarch64/lib/libc.a(getline.o)
                0x000000000051c580                getline
 .text.perror   0x000000000051c590       0xcc 0x4 /home/rlyerly/Downloads/popcorn-compiler/test-install/aarch64/lib/libc.a(perror.o)
                0x000000000051c590                perror
 .text.snprintf
                0x000000000051c65c       0x74 0x4 /home/rlyerly/Downloads/popcorn-compiler/test-install/aarch64/lib/libc.a(snprintf.o)
                0x000000000051c65c                snprintf
 ** zero fill   0x000000000051c6d0       0x1e
 ** zero fill   0x000000000051c6ee        0x2
 .text.sscanf   0x000000000051c6f0       0x74 0x4 /home/rlyerly/Downloads/popcorn-compiler/test-install/aarch64/lib/libc.a(sscanf.o)
                0x000000000051c6f0                __isoc99_sscanf
                0x000000000051c6f0                sscanf
 ** zero fill   0x000000000051c764       0x23
 ** zero fill   0x000000000051c787        0x1
 .text.vsnprintf
                0x000000000051c788       0xd4 0x4 /home/rlyerly/Downloads/popcorn-compiler/test-install/aarch64/lib/libc.a(vsnprintf.o)
                0x000000000051c788                vsnprintf
 .text.sn_write
                0x000000000051c85c       0xd8 0x4 /home/rlyerly/Downloads/popcorn-compiler/test-install/aarch64/lib/libc.a(vsnprintf.o)
 .text.vsscanf  0x000000000051c934       0x80 0x4 /home/rlyerly/Downloads/popcorn-compiler/test-install/aarch64/lib/libc.a(vsscanf.o)
                0x000000000051c934                __isoc99_vsscanf
                0x000000000051c934                vsscanf
 .text.do_read  0x000000000051c9b4        0x4 0x4 /home/rlyerly/Downloads/popcorn-compiler/test-install/aarch64/lib/libc.a(vsscanf.o)
 ** zero fill   0x000000000051c9b8        0x1
 ** zero fill   0x000000000051c9b9        0x3
 .text.strtoull
                0x000000000051c9bc        0x8 0x4 /home/rlyerly/Downloads/popcorn-compiler/test-install/aarch64/lib/libc.a(strtol.o)
                0x000000000051c9bc                __strtoull_internal
                0x000000000051c9bc                strtoull
 ** zero fill   0x000000000051c9c4        0x4
 .text.strtox   0x000000000051c9c8       0xb4 0x4 /home/rlyerly/Downloads/popcorn-compiler/test-install/aarch64/lib/libc.a(strtol.o)
 .text.strtoll  0x000000000051ca7c        0x8 0x4 /home/rlyerly/Downloads/popcorn-compiler/test-install/aarch64/lib/libc.a(strtol.o)
                0x000000000051ca7c                __strtoll_internal
                0x000000000051ca7c                strtoll
 ** zero fill   0x000000000051ca84        0x7
 ** zero fill   0x000000000051ca8b        0x1
 .text.strtoul  0x000000000051ca8c        0x8 0x4 /home/rlyerly/Downloads/popcorn-compiler/test-install/aarch64/lib/libc.a(strtol.o)
                0x000000000051ca8c                __strtoul_internal
                0x000000000051ca8c                strtoul
 ** zero fill   0x000000000051ca94        0x4
 .text.strtol   0x000000000051ca98        0x8 0x4 /home/rlyerly/Downloads/popcorn-compiler/test-install/aarch64/lib/libc.a(strtol.o)
                0x000000000051ca98                __strtol_internal
                0x000000000051ca98                strtol
 ** zero fill   0x000000000051caa0        0x7
 ** zero fill   0x000000000051caa7        0x1
 .text.strtoimax
                0x000000000051caa8        0x8 0x4 /home/rlyerly/Downloads/popcorn-compiler/test-install/aarch64/lib/libc.a(strtol.o)
                0x000000000051caa8                __strtoimax_internal
                0x000000000051caa8                strtoimax
 ** zero fill   0x000000000051cab0        0x7
 ** zero fill   0x000000000051cab7        0x1
 .text.strtoumax
                0x000000000051cab8        0x8 0x4 /home/rlyerly/Downloads/popcorn-compiler/test-install/aarch64/lib/libc.a(strtol.o)
                0x000000000051cab8                __strtoumax_internal
                0x000000000051cab8                strtoumax
 ** zero fill   0x000000000051cac0        0x4
 ** zero fill   0x000000000051cac4        0xc
 .text.memcmp   0x000000000051cad0       0x30 0x4 /home/rlyerly/Downloads/popcorn-compiler/test-install/aarch64/lib/libc.a(memcmp.o)
                0x000000000051cad0                memcmp
 ** zero fill   0x000000000051cb00        0x2
 ** zero fill   0x000000000051cb02        0xe
 .text.strchr   0x000000000051cb10       0x2c 0x4 /home/rlyerly/Downloads/popcorn-compiler/test-install/aarch64/lib/libc.a(strchr.o)
                0x000000000051cb10                strchr
 ** zero fill   0x000000000051cb3c        0x4
 .text.__strchrnul
                0x000000000051cb40       0xac 0x4 /home/rlyerly/Downloads/popcorn-compiler/test-install/aarch64/lib/libc.a(strchrnul.o)
                0x000000000051cb40                __strchrnul
                0x000000000051cb40                strchrnul
 ** zero fill   0x000000000051cbec       0x3c
 ** zero fill   0x000000000051cc28        0x8
 .text.strcmp   0x000000000051cc30       0x28 0x4 /home/rlyerly/Downloads/popcorn-compiler/test-install/aarch64/lib/libc.a(strcmp.o)
                0x000000000051cc30                strcmp
 ** zero fill   0x000000000051cc58       0x1e
 ** zero fill   0x000000000051cc76        0xa
 .text.strlen   0x000000000051cc80       0x60 0x4 /home/rlyerly/Downloads/popcorn-compiler/test-install/aarch64/lib/libc.a(strlen.o)
                0x000000000051cc80                strlen
 ** zero fill   0x000000000051cce0        0x1
 ** zero fill   0x000000000051cce1        0xf
 .text.strncmp  0x000000000051ccf0       0x50 0x4 /home/rlyerly/Downloads/popcorn-compiler/test-install/aarch64/lib/libc.a(strncmp.o)
                0x000000000051ccf0                strncmp
 .text.memmove  0x000000000051cd40      0x214 0x4 /home/rlyerly/Downloads/popcorn-compiler/test-install/aarch64/lib/libc.a(memmove.o)
                0x000000000051cd40                memmove
 .text.sccp     0x000000000051cf54        0x4 0x4 /home/rlyerly/Downloads/popcorn-compiler/test-install/aarch64/lib/libc.a(__syscall_cp.o)
                0x000000000051cf54                __syscall_cp_c
 ** zero fill   0x000000000051cf58        0xf
 ** zero fill   0x000000000051cf67        0x1
 .text.__syscall_cp
                0x000000000051cf68        0x4 0x4 /home/rlyerly/Downloads/popcorn-compiler/test-install/aarch64/lib/libc.a(__syscall_cp.o)
                0x000000000051cf68                __syscall_cp
 ** zero fill   0x000000000051cf6c        0x1
 ** zero fill   0x000000000051cf6d        0x3
 .text.pthread_attr_getdetachstate
                0x000000000051cf70       0x10 0x4 /home/rlyerly/Downloads/popcorn-compiler/test-install/aarch64/lib/libc.a(pthread_attr_get.o)
                0x000000000051cf70                pthread_attr_getdetachstate
 .text.pthread_attr_getguardsize
                0x000000000051cf80       0x10 0x4 /home/rlyerly/Downloads/popcorn-compiler/test-install/aarch64/lib/libc.a(pthread_attr_get.o)
                0x000000000051cf80                pthread_attr_getguardsize
 .text.pthread_attr_getinheritsched
                0x000000000051cf90       0x10 0x4 /home/rlyerly/Downloads/popcorn-compiler/test-install/aarch64/lib/libc.a(pthread_attr_get.o)
                0x000000000051cf90                pthread_attr_getinheritsched
 .text.pthread_attr_getschedparam
                0x000000000051cfa0       0x10 0x4 /home/rlyerly/Downloads/popcorn-compiler/test-install/aarch64/lib/libc.a(pthread_attr_get.o)
                0x000000000051cfa0                pthread_attr_getschedparam
 .text.pthread_attr_getschedpolicy
                0x000000000051cfb0       0x10 0x4 /home/rlyerly/Downloads/popcorn-compiler/test-install/aarch64/lib/libc.a(pthread_attr_get.o)
                0x000000000051cfb0                pthread_attr_getschedpolicy
 .text.pthread_attr_getscope
                0x000000000051cfc0        0xc 0x4 /home/rlyerly/Downloads/popcorn-compiler/test-install/aarch64/lib/libc.a(pthread_attr_get.o)
                0x000000000051cfc0                pthread_attr_getscope
 .text.pthread_attr_getstack
                0x000000000051cfcc       0x2c 0x4 /home/rlyerly/Downloads/popcorn-compiler/test-install/aarch64/lib/libc.a(pthread_attr_get.o)
                0x000000000051cfcc                pthread_attr_getstack
 .text.pthread_attr_getstacksize
                0x000000000051cff8       0x10 0x4 /home/rlyerly/Downloads/popcorn-compiler/test-install/aarch64/lib/libc.a(pthread_attr_get.o)
                0x000000000051cff8                pthread_attr_getstacksize
 .text.pthread_barrierattr_getpshared
                0x000000000051d008       0x18 0x4 /home/rlyerly/Downloads/popcorn-compiler/test-install/aarch64/lib/libc.a(pthread_attr_get.o)
                0x000000000051d008                pthread_barrierattr_getpshared
 .text.pthread_condattr_getclock
                0x000000000051d020       0x14 0x4 /home/rlyerly/Downloads/popcorn-compiler/test-install/aarch64/lib/libc.a(pthread_attr_get.o)
                0x000000000051d020                pthread_condattr_getclock
 .text.pthread_condattr_getpshared
                0x000000000051d034       0x14 0x4 /home/rlyerly/Downloads/popcorn-compiler/test-install/aarch64/lib/libc.a(pthread_attr_get.o)
                0x000000000051d034                pthread_condattr_getpshared
 .text.pthread_mutexattr_getprotocol
                0x000000000051d048        0xc 0x4 /home/rlyerly/Downloads/popcorn-compiler/test-install/aarch64/lib/libc.a(pthread_attr_get.o)
                0x000000000051d048                pthread_mutexattr_getprotocol
 .text.pthread_mutexattr_getpshared
                0x000000000051d054       0x14 0x4 /home/rlyerly/Downloads/popcorn-compiler/test-install/aarch64/lib/libc.a(pthread_attr_get.o)
                0x000000000051d054                pthread_mutexattr_getpshared
 .text.pthread_mutexattr_getrobust
                0x000000000051d068       0x14 0x4 /home/rlyerly/Downloads/popcorn-compiler/test-install/aarch64/lib/libc.a(pthread_attr_get.o)
                0x000000000051d068                pthread_mutexattr_getrobust
 .text.pthread_mutexattr_gettype
                0x000000000051d07c       0x14 0x4 /home/rlyerly/Downloads/popcorn-compiler/test-install/aarch64/lib/libc.a(pthread_attr_get.o)
                0x000000000051d07c                pthread_mutexattr_gettype
 .text.pthread_rwlockattr_getpshared
                0x000000000051d090       0x10 0x4 /home/rlyerly/Downloads/popcorn-compiler/test-install/aarch64/lib/libc.a(pthread_attr_get.o)
                0x000000000051d090                pthread_rwlockattr_getpshared
 .text.pthread_getattr_np
                0x000000000051d0a0       0xec 0x4 /home/rlyerly/Downloads/popcorn-compiler/test-install/aarch64/lib/libc.a(pthread_getattr_np.o)
                0x000000000051d0a0                pthread_getattr_np
 .text.__pthread_getspecific
                0x000000000051d18c       0x10 0x4 /home/rlyerly/Downloads/popcorn-compiler/test-install/aarch64/lib/libc.a(pthread_getspecific.o)
                0x000000000051d18c                pthread_getspecific
                0x000000000051d18c                tss_get
 ** zero fill   0x000000000051d19c        0x7
 ** zero fill   0x000000000051d1a3        0x1
 .text.__pthread_key_create
                0x000000000051d1a4       0x8c 0x4 /home/rlyerly/Downloads/popcorn-compiler/test-install/aarch64/lib/libc.a(pthread_key_create.o)
                0x000000000051d1a4                __pthread_key_create
                0x000000000051d1a4                pthread_key_create
 .text.nodtor   0x000000000051d230        0x4 0x4 /home/rlyerly/Downloads/popcorn-compiler/test-install/aarch64/lib/libc.a(pthread_key_create.o)
 .text.__pthread_key_delete
                0x000000000051d234       0x14 0x4 /home/rlyerly/Downloads/popcorn-compiler/test-install/aarch64/lib/libc.a(pthread_key_create.o)
                0x000000000051d234                __pthread_key_delete
                0x000000000051d234                pthread_key_delete
 .text.__pthread_tsd_run_dtors
                0x000000000051d248       0x8c 0x4 /home/rlyerly/Downloads/popcorn-compiler/test-install/aarch64/lib/libc.a(pthread_key_create.o)
                0x000000000051d248                __pthread_tsd_run_dtors
 .text.pthread_migrate_args
                0x000000000051d2d4        0xc 0x4 /home/rlyerly/Downloads/popcorn-compiler/test-install/aarch64/lib/libc.a(pthread_migrate.o)
                0x000000000051d2d4                pthread_migrate_args
 ** zero fill   0x000000000051d2e0        0x4
 .text.__pthread_self_internal
                0x000000000051d2e4        0x8 0x4 /home/rlyerly/Downloads/popcorn-compiler/test-install/aarch64/lib/libc.a(pthread_self.o)
                0x000000000051d2e4                pthread_self
                0x000000000051d2e4                thrd_current
 ** zero fill   0x000000000051d2ec        0x2
 ** zero fill   0x000000000051d2ee        0x2
 .text.pthread_setspecific
                0x000000000051d2f0       0x2c 0x4 /home/rlyerly/Downloads/popcorn-compiler/test-install/aarch64/lib/libc.a(pthread_setspecific.o)
                0x000000000051d2f0                pthread_setspecific
 .text.dummy    0x000000000051d31c        0x4 0x4 /home/rlyerly/Downloads/popcorn-compiler/test-install/aarch64/lib/libc.a(close.o)
 .text.close    0x000000000051d320       0x44 0x4 /home/rlyerly/Downloads/popcorn-compiler/test-install/aarch64/lib/libc.a(close.o)
                0x000000000051d320                close
 .text.getpid   0x000000000051d364        0xc 0x4 /home/rlyerly/Downloads/popcorn-compiler/test-install/aarch64/lib/libc.a(getpid.o)
                0x000000000051d364                getpid
 .text.lseek    0x000000000051d370       0x14 0x4 /home/rlyerly/Downloads/popcorn-compiler/test-install/aarch64/lib/libc.a(lseek.o)
                0x000000000051d370                lseek
                0x000000000051d370                lseek64
 ** zero fill   0x000000000051d384        0x1
 ** zero fill   0x000000000051d385        0x3
 .text.read     0x000000000051d388       0x38 0x4 /home/rlyerly/Downloads/popcorn-compiler/test-install/aarch64/lib/libc.a(read.o)
                0x000000000051d388                read
 .text.abort    0x000000000051d3c0       0x34 0x4 /home/rlyerly/Downloads/popcorn-compiler/test-install/aarch64/lib/libc.a(abort.o)
                0x000000000051d3c0                abort
 ** zero fill   0x000000000051d3f4        0xc
 .text.__intscan
                0x000000000051d400      0x5c8 0x4 /home/rlyerly/Downloads/popcorn-compiler/test-install/aarch64/lib/libc.a(intscan.o)
                0x000000000051d400                __intscan
 ** zero fill   0x000000000051d9c8        0x6
 ** zero fill   0x000000000051d9ce        0x2
 .text.__shlim  0x000000000051d9d0       0x24 0x4 /home/rlyerly/Downloads/popcorn-compiler/test-install/aarch64/lib/libc.a(shgetc.o)
                0x000000000051d9d0                __shlim
 ** zero fill   0x000000000051d9f4       0x15
 ** zero fill   0x000000000051da09        0x7
 .text.__shgetc
                0x000000000051da10       0xbc 0x4 /home/rlyerly/Downloads/popcorn-compiler/test-install/aarch64/lib/libc.a(shgetc.o)
                0x000000000051da10                __shgetc
 .text.__syscall
                0x000000000051dacc       0x28 0x1 /home/rlyerly/Downloads/popcorn-compiler/test-install/aarch64/lib/libc.a(syscall.o)
                0x000000000051dacc                __syscall
 ** zero fill   0x000000000051daf4        0xc
 .text.__expand_heap
                0x000000000051db00      0x178 0x4 /home/rlyerly/Downloads/popcorn-compiler/test-install/aarch64/lib/libc.a(expand_heap.o)
                0x000000000051db00                __expand_heap
 .text.__block_all_sigs
                0x000000000051dc78       0x24 0x4 /home/rlyerly/Downloads/popcorn-compiler/test-install/aarch64/lib/libc.a(block.o)
                0x000000000051dc78                __block_all_sigs
 .text.__block_app_sigs
                0x000000000051dc9c       0x24 0x4 /home/rlyerly/Downloads/popcorn-compiler/test-install/aarch64/lib/libc.a(block.o)
                0x000000000051dc9c                __block_app_sigs
 .text.__restore_sigs
                0x000000000051dcc0       0x20 0x4 /home/rlyerly/Downloads/popcorn-compiler/test-install/aarch64/lib/libc.a(block.o)
                0x000000000051dcc0                __restore_sigs
 .text.raise    0x000000000051dce0       0x58 0x4 /home/rlyerly/Downloads/popcorn-compiler/test-install/aarch64/lib/libc.a(raise.o)
                0x000000000051dce0                raise
 .text.__fdopen
                0x000000000051dd38      0x1b4 0x4 /home/rlyerly/Downloads/popcorn-compiler/test-install/aarch64/lib/libc.a(__fdopen.o)
                0x000000000051dd38                __fdopen
                0x000000000051dd38                fdopen
 .text.__fmodeflags
                0x000000000051deec       0x94 0x4 /home/rlyerly/Downloads/popcorn-compiler/test-install/aarch64/lib/libc.a(__fmodeflags.o)
                0x000000000051deec                __fmodeflags
 .text.__stdio_read
                0x000000000051df80       0xe0 0x4 /home/rlyerly/Downloads/popcorn-compiler/test-install/aarch64/lib/libc.a(__stdio_read.o)
                0x000000000051df80                __stdio_read
 .text.__string_read
                0x000000000051e060       0x84 0x4 /home/rlyerly/Downloads/popcorn-compiler/test-install/aarch64/lib/libc.a(__string_read.o)
                0x000000000051e060                __string_read
 .text.__uflow  0x000000000051e0e4       0x54 0x4 /home/rlyerly/Downloads/popcorn-compiler/test-install/aarch64/lib/libc.a(__uflow.o)
                0x000000000051e0e4                __uflow
 .text.fputc    0x000000000051e138       0xd4 0x4 /home/rlyerly/Downloads/popcorn-compiler/test-install/aarch64/lib/libc.a(fputc.o)
                0x000000000051e138                fputc
 .text.getdelim
                0x000000000051e20c      0x270 0x4 /home/rlyerly/Downloads/popcorn-compiler/test-install/aarch64/lib/libc.a(getdelim.o)
                0x000000000051e20c                __getdelim
                0x000000000051e20c                getdelim
 .text.__ofl_add
                0x000000000051e47c       0x40 0x4 /home/rlyerly/Downloads/popcorn-compiler/test-install/aarch64/lib/libc.a(ofl_add.o)
                0x000000000051e47c                __ofl_add
 .text.vfscanf  0x000000000051e4bc      0xd98 0x4 /home/rlyerly/Downloads/popcorn-compiler/test-install/aarch64/lib/libc.a(vfscanf.o)
                0x000000000051e4bc                __isoc99_vfscanf
                0x000000000051e4bc                vfscanf
 ** zero fill   0x000000000051f254        0xc
 .text.__floatscan
                0x000000000051f260     0x163c 0x4 /home/rlyerly/Downloads/popcorn-compiler/test-install/aarch64/lib/libc.a(floatscan.o)
                0x000000000051f260                __floatscan
 ** zero fill   0x000000000052089c       0xe0
 ** zero fill   0x000000000052097c        0x4
 .text.scanexp  0x0000000000520980      0x21c 0x4 /home/rlyerly/Downloads/popcorn-compiler/test-install/aarch64/lib/libc.a(floatscan.o)
 .text.copysignl
                0x0000000000520b9c       0x2c 0x4 /home/rlyerly/Downloads/popcorn-compiler/test-install/aarch64/lib/libc.a(copysignl.o)
                0x0000000000520b9c                copysignl
 .text.scalbn   0x0000000000520bc8       0x88 0x4 /home/rlyerly/Downloads/popcorn-compiler/test-install/aarch64/lib/libc.a(scalbn.o)
                0x0000000000520bc8                scalbn
 ** zero fill   0x0000000000520c50        0x6
 ** zero fill   0x0000000000520c56        0x2
 .text.scalbnl  0x0000000000520c58       0xd4 0x4 /home/rlyerly/Downloads/popcorn-compiler/test-install/aarch64/lib/libc.a(scalbnl.o)
                0x0000000000520c58                scalbnl
 .text.fabs     0x0000000000520d2c        0x8 0x4 /home/rlyerly/Downloads/popcorn-compiler/test-install/aarch64/lib/libc.a(fabs.o)
                0x0000000000520d2c                fabs
 ** zero fill   0x0000000000520d34        0xa
 ** zero fill   0x0000000000520d3e        0x2
 .text.fmodl    0x0000000000520d40      0x254 0x4 /home/rlyerly/Downloads/popcorn-compiler/test-install/aarch64/lib/libc.a(fmodl.o)
                0x0000000000520d40                fmodl
 .text.mbrtowc  0x0000000000520f94      0x144 0x4 /home/rlyerly/Downloads/popcorn-compiler/test-install/aarch64/lib/libc.a(mbrtowc.o)
                0x0000000000520f94                mbrtowc
 .text.mbsinit  0x00000000005210d8       0x1c 0x4 /home/rlyerly/Downloads/popcorn-compiler/test-install/aarch64/lib/libc.a(mbsinit.o)
                0x00000000005210d8                mbsinit
 .text.__overflow
                0x00000000005210f4       0xa8 0x4 /home/rlyerly/Downloads/popcorn-compiler/test-install/aarch64/lib/libc.a(__overflow.o)
                0x00000000005210f4                __overflow
 .text.__toread
                0x000000000052119c       0x88 0x4 /home/rlyerly/Downloads/popcorn-compiler/test-install/aarch64/lib/libc.a(__toread.o)
                0x000000000052119c                __toread
 .text.__toread_needs_stdio_exit
                0x0000000000521224        0x4 0x4 /home/rlyerly/Downloads/popcorn-compiler/test-install/aarch64/lib/libc.a(__toread.o)
                0x0000000000521224                __toread_needs_stdio_exit
 ** zero fill   0x0000000000521228        0x1
 .text.__restore
                0x0000000000521229        0x8 0x1 /home/rlyerly/Downloads/popcorn-compiler/test-install/aarch64/lib/libc.a(restore.o)
                0x0000000000521229                __restore
 .text          0x0000000000521234        0x0 0x4 main.o
 .text          0x0000000000521234        0x0 0x4 fizzbuzz.o
 .text          0x0000000000521234       0x1c 0x4 /home/rlyerly/Downloads/popcorn-compiler/test-install/aarch64/lib/crt1.o
                0x0000000000521234                _start
 .text          0x0000000000521250        0x0 0x4 /home/rlyerly/Downloads/popcorn-compiler/test-install/aarch64/lib/libc.a(__libc_start_main.o)
 .text          0x0000000000521250        0x0 0x4 /home/rlyerly/Downloads/popcorn-compiler/test-install/aarch64/lib/libc.a(exit.o)
 .text          0x0000000000521250        0x0 0x4 /home/rlyerly/Downloads/popcorn-compiler/test-install/aarch64/lib/libc.a(libc.o)
 .text          0x0000000000521250        0x0 0x4 /home/rlyerly/Downloads/popcorn-compiler/test-install/aarch64/lib/libc.a(printf.o)
 .text          0x0000000000521250        0x0 0x4 /home/rlyerly/Downloads/popcorn-compiler/test-install/aarch64/lib/libc.a(stdout.o)
 .text          0x0000000000521250        0x0 0x4 /home/rlyerly/Downloads/popcorn-compiler/test-install/aarch64/lib/libc.a(vfprintf.o)
 .text          0x0000000000521250        0x0 0x4 /home/rlyerly/Downloads/popcorn-compiler/test-install/aarch64/lib/libc.a(atoi.o)
 .text          0x0000000000521250        0x0 0x4 /home/rlyerly/Downloads/popcorn-compiler/test-install/aarch64/lib/libc.a(memset.o)
 .text          0x0000000000521250        0x0 0x4 /home/rlyerly/Downloads/popcorn-compiler/test-install/aarch64/lib/libc.a(strnlen.o)
 .text          0x0000000000521250        0x0 0x4 /home/rlyerly/Downloads/popcorn-compiler/test-install/aarch64/lib/libc.a(__environ.o)
 .text          0x0000000000521250        0x0 0x4 /home/rlyerly/Downloads/popcorn-compiler/test-install/aarch64/lib/libc.a(__init_tls.o)
 .text          0x0000000000521250        0x0 0x4 /home/rlyerly/Downloads/popcorn-compiler/test-install/aarch64/lib/libc.a(__errno_location.o)
 .text          0x0000000000521250        0x0 0x4 /home/rlyerly/Downloads/popcorn-compiler/test-install/aarch64/lib/libc.a(strerror.o)
 .text          0x0000000000521250        0x0 0x4 /home/rlyerly/Downloads/popcorn-compiler/test-install/aarch64/lib/libc.a(_Exit.o)
 .text          0x0000000000521250        0x0 0x4 /home/rlyerly/Downloads/popcorn-compiler/test-install/aarch64/lib/libc.a(__lctrans.o)
 .text          0x0000000000521250        0x0 0x4 /home/rlyerly/Downloads/popcorn-compiler/test-install/aarch64/lib/libc.a(__fpclassifyl.o)
 .text          0x0000000000521250        0x0 0x4 /home/rlyerly/Downloads/popcorn-compiler/test-install/aarch64/lib/libc.a(__signbitl.o)
 .text          0x0000000000521250        0x0 0x4 /home/rlyerly/Downloads/popcorn-compiler/test-install/aarch64/lib/libc.a(frexpl.o)
 .text          0x0000000000521250        0x0 0x4 /home/rlyerly/Downloads/popcorn-compiler/test-install/aarch64/lib/libc.a(wctomb.o)
 .text          0x0000000000521250        0x0 0x4 /home/rlyerly/Downloads/popcorn-compiler/test-install/aarch64/lib/libc.a(__lockfile.o)
 .text          0x0000000000521250        0x0 0x4 /home/rlyerly/Downloads/popcorn-compiler/test-install/aarch64/lib/libc.a(__stdio_close.o)
 .text          0x0000000000521250        0x0 0x4 /home/rlyerly/Downloads/popcorn-compiler/test-install/aarch64/lib/libc.a(__stdio_seek.o)
 .text          0x0000000000521250        0x0 0x4 /home/rlyerly/Downloads/popcorn-compiler/test-install/aarch64/lib/libc.a(__stdout_write.o)
 .text          0x0000000000521250        0x0 0x4 /home/rlyerly/Downloads/popcorn-compiler/test-install/aarch64/lib/libc.a(fwrite.o)
 .text          0x0000000000521250        0x0 0x4 /home/rlyerly/Downloads/popcorn-compiler/test-install/aarch64/lib/libc.a(memchr.o)
 .text          0x0000000000521250        0x0 0x4 /home/rlyerly/Downloads/popcorn-compiler/test-install/aarch64/lib/libc.a(memcpy.o)
 .text          0x0000000000521250        0x0 0x4 /home/rlyerly/Downloads/popcorn-compiler/test-install/aarch64/lib/libc.a(__wait.o)
 .text          0x0000000000521250        0x0 0x4 /home/rlyerly/Downloads/popcorn-compiler/test-install/aarch64/lib/libc.a(__set_thread_area.o)
 .text          0x0000000000521250        0x0 0x4 /home/rlyerly/Downloads/popcorn-compiler/test-install/aarch64/lib/libc.a(syscall_ret.o)
 .text          0x0000000000521250        0x0 0x4 /home/rlyerly/Downloads/popcorn-compiler/test-install/aarch64/lib/libc.a(wcrtomb.o)
 .text          0x0000000000521250        0x0 0x4 /home/rlyerly/Downloads/popcorn-compiler/test-install/aarch64/lib/libc.a(__stdio_write.o)
 .text          0x0000000000521250        0x0 0x4 /home/rlyerly/Downloads/popcorn-compiler/test-install/aarch64/lib/libc.a(__towrite.o)
 .text          0x0000000000521250        0x0 0x4 /home/rlyerly/Downloads/popcorn-compiler/test-install/aarch64/lib/libc.a(__stdio_exit.o)
 .text          0x0000000000521250        0x0 0x4 /home/rlyerly/Downloads/popcorn-compiler/test-install/aarch64/lib/libc.a(ofl.o)
 .text          0x0000000000521250        0x0 0x4 /home/rlyerly/Downloads/popcorn-compiler/test-install/aarch64/lib/libc.a(__lock.o)
 .text          0x0000000000521250        0x0 0x4 /home/rlyerly/Downloads/popcorn-compiler/test-install/aarch64/lib/libmigrate.a(migrate.o)
 .text          0x0000000000521250        0x0 0x4 /home/rlyerly/Downloads/popcorn-compiler/test-install/aarch64/lib/libmigrate.a(trigger.o)
 .text          0x0000000000521250        0x0 0x4 /home/rlyerly/Downloads/popcorn-compiler/test-install/aarch64/lib/libstack-transform.a(userspace.o)
 .text          0x0000000000521250        0x0 0x4 /home/rlyerly/Downloads/popcorn-compiler/test-install/aarch64/lib/libstack-transform.a(init.o)
 .text          0x0000000000521250        0x0 0x4 /home/rlyerly/Downloads/popcorn-compiler/test-install/aarch64/lib/libstack-transform.a(rewrite.o)
 .text          0x0000000000521250        0x0 0x4 /home/rlyerly/Downloads/popcorn-compiler/test-install/aarch64/lib/libstack-transform.a(unwind.o)
 .text          0x0000000000521250        0x0 0x4 /home/rlyerly/Downloads/popcorn-compiler/test-install/aarch64/lib/libstack-transform.a(util.o)
 .text          0x0000000000521250        0x0 0x4 /home/rlyerly/Downloads/popcorn-compiler/test-install/aarch64/lib/libstack-transform.a(properties.o)
 .text          0x0000000000521250        0x0 0x4 /home/rlyerly/Downloads/popcorn-compiler/test-install/aarch64/lib/libstack-transform.a(regs.o)
 .text          0x0000000000521250        0x0 0x4 /home/rlyerly/Downloads/popcorn-compiler/test-install/aarch64/lib/libstack-transform.a(properties.o)
 .text          0x0000000000521250        0x0 0x4 /home/rlyerly/Downloads/popcorn-compiler/test-install/aarch64/lib/libstack-transform.a(regs.o)
 .text          0x0000000000521250        0x0 0x4 /home/rlyerly/Downloads/popcorn-compiler/test-install/aarch64/lib/libstack-transform.a(properties.o)
 .text          0x0000000000521250        0x0 0x4 /home/rlyerly/Downloads/popcorn-compiler/test-install/aarch64/lib/libstack-transform.a(regs.o)
 .text          0x0000000000521250        0x0 0x4 /home/rlyerly/Downloads/popcorn-compiler/test-install/aarch64/lib/libstack-transform.a(data.o)
 .text          0x0000000000521250        0x0 0x1 /home/rlyerly/Downloads/popcorn-compiler/test-install/aarch64/lib/libelf.a(begin.o)
 .text          0x0000000000521250        0x0 0x1 /home/rlyerly/Downloads/popcorn-compiler/test-install/aarch64/lib/libelf.a(end.o)
 .text          0x0000000000521250        0x0 0x1 /home/rlyerly/Downloads/popcorn-compiler/test-install/aarch64/lib/libelf.a(getdata.o)
 .text          0x0000000000521250        0x0 0x1 /home/rlyerly/Downloads/popcorn-compiler/test-install/aarch64/lib/libelf.a(getident.o)
 .text          0x0000000000521250        0x0 0x1 /home/rlyerly/Downloads/popcorn-compiler/test-install/aarch64/lib/libelf.a(nextscn.o)
 .text          0x0000000000521250        0x0 0x1 /home/rlyerly/Downloads/popcorn-compiler/test-install/aarch64/lib/libelf.a(strptr.o)
 .text          0x0000000000521250        0x0 0x1 /home/rlyerly/Downloads/popcorn-compiler/test-install/aarch64/lib/libelf.a(version.o)
 .text          0x0000000000521250        0x0 0x1 /home/rlyerly/Downloads/popcorn-compiler/test-install/aarch64/lib/libelf.a(32.getehdr.o)
 .text          0x0000000000521250        0x0 0x1 /home/rlyerly/Downloads/popcorn-compiler/test-install/aarch64/lib/libelf.a(32.xlatetof.o)
 .text          0x0000000000521250        0x0 0x1 /home/rlyerly/Downloads/popcorn-compiler/test-install/aarch64/lib/libelf.a(cook.o)
 .text          0x0000000000521250        0x0 0x1 /home/rlyerly/Downloads/popcorn-compiler/test-install/aarch64/lib/libelf.a(data.o)
 .text          0x0000000000521250        0x0 0x1 /home/rlyerly/Downloads/popcorn-compiler/test-install/aarch64/lib/libelf.a(input.o)
 .text          0x0000000000521250        0x0 0x1 /home/rlyerly/Downloads/popcorn-compiler/test-install/aarch64/lib/libelf.a(x.elfext.o)
 .text          0x0000000000521250        0x0 0x1 /home/rlyerly/Downloads/popcorn-compiler/test-install/aarch64/lib/libelf.a(64.xlatetof.o)
 .text          0x0000000000521250        0x0 0x1 /home/rlyerly/Downloads/popcorn-compiler/test-install/aarch64/lib/libelf.a(gelfshdr.o)
 .text          0x0000000000521250        0x0 0x1 /home/rlyerly/Downloads/popcorn-compiler/test-install/aarch64/lib/libelf.a(swap64.o)
 .text          0x0000000000521250        0x0 0x1 /home/rlyerly/Downloads/popcorn-compiler/test-install/aarch64/lib/libelf.a(verdef_32_tof.o)
 .text          0x0000000000521250        0x0 0x1 /home/rlyerly/Downloads/popcorn-compiler/test-install/aarch64/lib/libelf.a(verdef_32_tom.o)
 .text          0x0000000000521250        0x0 0x1 /home/rlyerly/Downloads/popcorn-compiler/test-install/aarch64/lib/libelf.a(verdef_64_tof.o)
 .text          0x0000000000521250        0x0 0x1 /home/rlyerly/Downloads/popcorn-compiler/test-install/aarch64/lib/libelf.a(verdef_64_tom.o)
 .text          0x0000000000521250        0x0 0x1 /home/rlyerly/Downloads/popcorn-compiler/test-install/aarch64/lib/libelf.a(getscn.o)
 .text          0x0000000000521250        0x0 0x1 /home/rlyerly/Downloads/popcorn-compiler/test-install/aarch64/lib/libelf.a(newscn.o)
 .text          0x0000000000521250        0x0 0x1 /home/rlyerly/Downloads/popcorn-compiler/test-install/aarch64/lib/libelf.a(32.fsize.o)
 .text          0x0000000000521250        0x0 0x4 /home/rlyerly/Downloads/popcorn-compiler/test-install/aarch64/lib/libc.a(__stack_chk_fail.o)
 .text          0x0000000000521250        0x0 0x4 /home/rlyerly/Downloads/popcorn-compiler/test-install/aarch64/lib/libc.a(getenv.o)
 .text          0x0000000000521250        0x0 0x4 /home/rlyerly/Downloads/popcorn-compiler/test-install/aarch64/lib/libc.a(assert.o)
 .text          0x0000000000521250        0x0 0x4 /home/rlyerly/Downloads/popcorn-compiler/test-install/aarch64/lib/libc.a(open.o)
 .text          0x0000000000521250        0x0 0x4 /home/rlyerly/Downloads/popcorn-compiler/test-install/aarch64/lib/libc.a(calloc.o)
 .text          0x0000000000521250        0x0 0x4 /home/rlyerly/Downloads/popcorn-compiler/test-install/aarch64/lib/libc.a(lite_malloc.o)
 .text          0x0000000000521250        0x0 0x4 /home/rlyerly/Downloads/popcorn-compiler/test-install/aarch64/lib/libc.a(malloc.o)
 .text          0x0000000000521250        0x0 0x4 /home/rlyerly/Downloads/popcorn-compiler/test-install/aarch64/lib/libc.a(getrlimit.o)
 .text          0x0000000000521250        0x0 0x4 /home/rlyerly/Downloads/popcorn-compiler/test-install/aarch64/lib/libc.a(syscall.o)
 .text          0x0000000000521250        0x0 0x4 /home/rlyerly/Downloads/popcorn-compiler/test-install/aarch64/lib/libc.a(madvise.o)
 .text          0x0000000000521250        0x0 0x4 /home/rlyerly/Downloads/popcorn-compiler/test-install/aarch64/lib/libc.a(mmap.o)
 .text          0x0000000000521250        0x0 0x4 /home/rlyerly/Downloads/popcorn-compiler/test-install/aarch64/lib/libc.a(mremap.o)
 .text          0x0000000000521250        0x0 0x4 /home/rlyerly/Downloads/popcorn-compiler/test-install/aarch64/lib/libc.a(munmap.o)
 .text          0x0000000000521250        0x0 0x4 /home/rlyerly/Downloads/popcorn-compiler/test-install/aarch64/lib/libc.a(sigaction.o)
 .text          0x0000000000521250        0x0 0x4 /home/rlyerly/Downloads/popcorn-compiler/test-install/aarch64/lib/libc.a(sigemptyset.o)
 .text          0x0000000000521250        0x0 0x4 /home/rlyerly/Downloads/popcorn-compiler/test-install/aarch64/lib/libc.a(sigrtmin.o)
 .text          0x0000000000521250        0x0 0x4 /home/rlyerly/Downloads/popcorn-compiler/test-install/aarch64/lib/libc.a(fclose.o)
 .text          0x0000000000521250        0x0 0x4 /home/rlyerly/Downloads/popcorn-compiler/test-install/aarch64/lib/libc.a(fflush.o)
 .text          0x0000000000521250        0x0 0x4 /home/rlyerly/Downloads/popcorn-compiler/test-install/aarch64/lib/libc.a(fopen.o)
 .text          0x0000000000521250        0x0 0x4 /home/rlyerly/Downloads/popcorn-compiler/test-install/aarch64/lib/libc.a(fprintf.o)
 .text          0x0000000000521250        0x0 0x4 /home/rlyerly/Downloads/popcorn-compiler/test-install/aarch64/lib/libc.a(getline.o)
 .text          0x0000000000521250        0x0 0x4 /home/rlyerly/Downloads/popcorn-compiler/test-install/aarch64/lib/libc.a(perror.o)
 .text          0x0000000000521250        0x0 0x4 /home/rlyerly/Downloads/popcorn-compiler/test-install/aarch64/lib/libc.a(snprintf.o)
 .text          0x0000000000521250        0x0 0x4 /home/rlyerly/Downloads/popcorn-compiler/test-install/aarch64/lib/libc.a(sscanf.o)
 .text          0x0000000000521250        0x0 0x4 /home/rlyerly/Downloads/popcorn-compiler/test-install/aarch64/lib/libc.a(stderr.o)
 .text          0x0000000000521250        0x0 0x4 /home/rlyerly/Downloads/popcorn-compiler/test-install/aarch64/lib/libc.a(vsnprintf.o)
 .text          0x0000000000521250        0x0 0x4 /home/rlyerly/Downloads/popcorn-compiler/test-install/aarch64/lib/libc.a(vsscanf.o)
 .text          0x0000000000521250        0x0 0x4 /home/rlyerly/Downloads/popcorn-compiler/test-install/aarch64/lib/libc.a(strtol.o)
 .text          0x0000000000521250        0x0 0x4 /home/rlyerly/Downloads/popcorn-compiler/test-install/aarch64/lib/libc.a(memcmp.o)
 .text          0x0000000000521250        0x0 0x4 /home/rlyerly/Downloads/popcorn-compiler/test-install/aarch64/lib/libc.a(memmove.o)
 .text          0x0000000000521250        0x0 0x4 /home/rlyerly/Downloads/popcorn-compiler/test-install/aarch64/lib/libc.a(strchr.o)
 .text          0x0000000000521250        0x0 0x4 /home/rlyerly/Downloads/popcorn-compiler/test-install/aarch64/lib/libc.a(strchrnul.o)
 .text          0x0000000000521250        0x0 0x4 /home/rlyerly/Downloads/popcorn-compiler/test-install/aarch64/lib/libc.a(strcmp.o)
 .text          0x0000000000521250        0x0 0x4 /home/rlyerly/Downloads/popcorn-compiler/test-install/aarch64/lib/libc.a(strlen.o)
 .text          0x0000000000521250        0x0 0x4 /home/rlyerly/Downloads/popcorn-compiler/test-install/aarch64/lib/libc.a(strncmp.o)
 .text          0x0000000000521250        0x0 0x4 /home/rlyerly/Downloads/popcorn-compiler/test-install/aarch64/lib/libc.a(__syscall_cp.o)
 .text          0x0000000000521250        0x0 0x4 /home/rlyerly/Downloads/popcorn-compiler/test-install/aarch64/lib/libc.a(pthread_attr_get.o)
 .text          0x0000000000521250        0x0 0x4 /home/rlyerly/Downloads/popcorn-compiler/test-install/aarch64/lib/libc.a(pthread_getattr_np.o)
 .text          0x0000000000521250        0x0 0x4 /home/rlyerly/Downloads/popcorn-compiler/test-install/aarch64/lib/libc.a(pthread_getspecific.o)
 .text          0x0000000000521250        0x0 0x4 /home/rlyerly/Downloads/popcorn-compiler/test-install/aarch64/lib/libc.a(pthread_key_create.o)
 .text          0x0000000000521250        0x0 0x4 /home/rlyerly/Downloads/popcorn-compiler/test-install/aarch64/lib/libc.a(pthread_migrate.o)
 .text          0x0000000000521250        0x0 0x4 /home/rlyerly/Downloads/popcorn-compiler/test-install/aarch64/lib/libc.a(pthread_self.o)
 .text          0x0000000000521250        0x0 0x4 /home/rlyerly/Downloads/popcorn-compiler/test-install/aarch64/lib/libc.a(pthread_setspecific.o)
 .text          0x0000000000521250        0x0 0x4 /home/rlyerly/Downloads/popcorn-compiler/test-install/aarch64/lib/libc.a(close.o)
 .text          0x0000000000521250        0x0 0x4 /home/rlyerly/Downloads/popcorn-compiler/test-install/aarch64/lib/libc.a(getpid.o)
 .text          0x0000000000521250        0x0 0x4 /home/rlyerly/Downloads/popcorn-compiler/test-install/aarch64/lib/libc.a(lseek.o)
 .text          0x0000000000521250        0x0 0x4 /home/rlyerly/Downloads/popcorn-compiler/test-install/aarch64/lib/libc.a(read.o)
 .text          0x0000000000521250        0x0 0x4 /home/rlyerly/Downloads/popcorn-compiler/test-install/aarch64/lib/libc.a(abort.o)
 .text          0x0000000000521250        0x0 0x4 /home/rlyerly/Downloads/popcorn-compiler/test-install/aarch64/lib/libc.a(syscall.o)
 .text          0x0000000000521250        0x0 0x4 /home/rlyerly/Downloads/popcorn-compiler/test-install/aarch64/lib/libc.a(intscan.o)
 .text          0x0000000000521250        0x0 0x4 /home/rlyerly/Downloads/popcorn-compiler/test-install/aarch64/lib/libc.a(shgetc.o)
 .text          0x0000000000521250        0x0 0x4 /home/rlyerly/Downloads/popcorn-compiler/test-install/aarch64/lib/libc.a(expand_heap.o)
 .text          0x0000000000521250        0x0 0x4 /home/rlyerly/Downloads/popcorn-compiler/test-install/aarch64/lib/libc.a(restore.o)
 .text          0x0000000000521250        0x0 0x4 /home/rlyerly/Downloads/popcorn-compiler/test-install/aarch64/lib/libc.a(block.o)
 .text          0x0000000000521250        0x0 0x4 /home/rlyerly/Downloads/popcorn-compiler/test-install/aarch64/lib/libc.a(raise.o)
 .text          0x0000000000521250        0x0 0x4 /home/rlyerly/Downloads/popcorn-compiler/test-install/aarch64/lib/libc.a(__fdopen.o)
 .text          0x0000000000521250        0x0 0x4 /home/rlyerly/Downloads/popcorn-compiler/test-install/aarch64/lib/libc.a(__fmodeflags.o)
 .text          0x0000000000521250        0x0 0x4 /home/rlyerly/Downloads/popcorn-compiler/test-install/aarch64/lib/libc.a(__stdio_read.o)
 .text          0x0000000000521250        0x0 0x4 /home/rlyerly/Downloads/popcorn-compiler/test-install/aarch64/lib/libc.a(__string_read.o)
 .text          0x0000000000521250        0x0 0x4 /home/rlyerly/Downloads/popcorn-compiler/test-install/aarch64/lib/libc.a(__uflow.o)
 .text          0x0000000000521250        0x0 0x4 /home/rlyerly/Downloads/popcorn-compiler/test-install/aarch64/lib/libc.a(fputc.o)
 .text          0x0000000000521250        0x0 0x4 /home/rlyerly/Downloads/popcorn-compiler/test-install/aarch64/lib/libc.a(getdelim.o)
 .text          0x0000000000521250        0x0 0x4 /home/rlyerly/Downloads/popcorn-compiler/test-install/aarch64/lib/libc.a(ofl_add.o)
 .text          0x0000000000521250        0x0 0x4 /home/rlyerly/Downloads/popcorn-compiler/test-install/aarch64/lib/libc.a(vfscanf.o)
 .text          0x0000000000521250        0x0 0x4 /home/rlyerly/Downloads/popcorn-compiler/test-install/aarch64/lib/libc.a(floatscan.o)
 .text          0x0000000000521250        0x0 0x4 /home/rlyerly/Downloads/popcorn-compiler/test-install/aarch64/lib/libc.a(fabs.o)
 .text          0x0000000000521250        0x0 0x4 /home/rlyerly/Downloads/popcorn-compiler/test-install/aarch64/lib/libc.a(copysignl.o)
 .text          0x0000000000521250        0x0 0x4 /home/rlyerly/Downloads/popcorn-compiler/test-install/aarch64/lib/libc.a(fmodl.o)
 .text          0x0000000000521250        0x0 0x4 /home/rlyerly/Downloads/popcorn-compiler/test-install/aarch64/lib/libc.a(scalbn.o)
 .text          0x0000000000521250        0x0 0x4 /home/rlyerly/Downloads/popcorn-compiler/test-install/aarch64/lib/libc.a(scalbnl.o)
 .text          0x0000000000521250        0x0 0x4 /home/rlyerly/Downloads/popcorn-compiler/test-install/aarch64/lib/libc.a(mbrtowc.o)
 .text          0x0000000000521250        0x0 0x4 /home/rlyerly/Downloads/popcorn-compiler/test-install/aarch64/lib/libc.a(mbsinit.o)
 .text          0x0000000000521250        0x0 0x4 /home/rlyerly/Downloads/popcorn-compiler/test-install/aarch64/lib/libc.a(__overflow.o)
 .text          0x0000000000521250        0x0 0x4 /home/rlyerly/Downloads/popcorn-compiler/test-install/aarch64/lib/libc.a(__toread.o)
 .text          0x0000000000521250        0x0 0x4 /home/rlyerly/Downloads/popcorn-compiler/test-install/aarch64/lib/libc.a(internal.o)
 .text          0x0000000000521250      0xd34 0x8 /usr/lib/gcc-cross/aarch64-linux-gnu/5/libgcc.a(addtf3.o)
                0x0000000000521250                __addtf3
 .text          0x0000000000521f88      0x8f8 0x8 /usr/lib/gcc-cross/aarch64-linux-gnu/5/libgcc.a(divtf3.o)
                0x0000000000521f88                __divtf3
 .text          0x0000000000522880      0x114 0x8 /usr/lib/gcc-cross/aarch64-linux-gnu/5/libgcc.a(eqtf2.o)
                0x0000000000522880                __eqtf2
                0x0000000000522880                __netf2
 .text          0x0000000000522998      0x14c 0x8 /usr/lib/gcc-cross/aarch64-linux-gnu/5/libgcc.a(getf2.o)
                0x0000000000522998                __getf2
                0x0000000000522998                __gttf2
 .text          0x0000000000522ae8      0x164 0x8 /usr/lib/gcc-cross/aarch64-linux-gnu/5/libgcc.a(letf2.o)
                0x0000000000522ae8                __letf2
                0x0000000000522ae8                __lttf2
 .text          0x0000000000522c50      0x790 0x8 /usr/lib/gcc-cross/aarch64-linux-gnu/5/libgcc.a(multf3.o)
                0x0000000000522c50                __multf3
 .text          0x00000000005233e0      0xddc 0x8 /usr/lib/gcc-cross/aarch64-linux-gnu/5/libgcc.a(subtf3.o)
                0x00000000005233e0                __subtf3
 .text          0x00000000005241c0       0xd4 0x8 /usr/lib/gcc-cross/aarch64-linux-gnu/5/libgcc.a(unordtf2.o)
                0x00000000005241c0                __unordtf2
 .text          0x0000000000524298      0x100 0x8 /usr/lib/gcc-cross/aarch64-linux-gnu/5/libgcc.a(fixtfsi.o)
                0x0000000000524298                __fixtfsi
 .text          0x0000000000524398       0xe4 0x8 /usr/lib/gcc-cross/aarch64-linux-gnu/5/libgcc.a(fixunstfsi.o)
                0x0000000000524398                __fixunstfsi
 .text          0x0000000000524480       0x7c 0x8 /usr/lib/gcc-cross/aarch64-linux-gnu/5/libgcc.a(floatsitf.o)
                0x0000000000524480                __floatsitf
 .text          0x0000000000524500       0x70 0x8 /usr/lib/gcc-cross/aarch64-linux-gnu/5/libgcc.a(floatunsitf.o)
                0x0000000000524500                __floatunsitf
 .text          0x0000000000524570       0xf4 0x8 /usr/lib/gcc-cross/aarch64-linux-gnu/5/libgcc.a(extendsftf2.o)
                0x0000000000524570                __extendsftf2
 .text          0x0000000000524668      0x118 0x8 /usr/lib/gcc-cross/aarch64-linux-gnu/5/libgcc.a(extenddftf2.o)
                0x0000000000524668                __extenddftf2
 .text          0x0000000000524780      0x340 0x8 /usr/lib/gcc-cross/aarch64-linux-gnu/5/libgcc.a(trunctfsf2.o)
                0x0000000000524780                __trunctfsf2
 .text          0x0000000000524ac0      0x398 0x8 /usr/lib/gcc-cross/aarch64-linux-gnu/5/libgcc.a(trunctfdf2.o)
                0x0000000000524ac0                __trunctfdf2
 .text          0x0000000000524e58       0x6c 0x8 /usr/lib/gcc-cross/aarch64-linux-gnu/5/libgcc.a(sfp-exceptions.o)
                0x0000000000524e58                __sfp_handle_exceptions

.rodata         0x0000000000600000     0x438f
 ** zero fill   0x0000000000600000        0x1
 ** zero fill   0x0000000000600001      0xfff
 .rodata.fizzbuzz__str_fizzbuzz__
                0x0000000000601000        0xa 0x1 fizzbuzz.o
                0x0000000000601000                fizzbuzz__str_fizzbuzz__
 .rodata.fizzbuzz__str_1_fizz__
                0x000000000060100a        0x6 0x1 fizzbuzz.o
                0x000000000060100a                fizzbuzz__str_1_fizz__
 .rodata.fizzbuzz__str_2_buzz__
                0x0000000000601010        0x6 0x1 fizzbuzz.o
                0x0000000000601010                fizzbuzz__str_2_buzz__
 .rodata.src_env___libc_start_main__str_
                0x0000000000601016        0x1 0x1 /home/rlyerly/Downloads/popcorn-compiler/test-install/aarch64/lib/libc.a(__libc_start_main.o)
                0x0000000000601016                src_env___libc_start_main__str_
 ** zero fill   0x0000000000601017        0x9
 .rodata.src_env___libc_start_main___init_libc_pfd_
                0x0000000000601020       0x18 0x4 /home/rlyerly/Downloads/popcorn-compiler/test-install/aarch64/lib/libc.a(__libc_start_main.o)
                0x0000000000601020                src_env___libc_start_main___init_libc_pfd_
 .rodata.src_env___libc_start_main__str_1__dev_null_
                0x0000000000601038        0xa 0x1 /home/rlyerly/Downloads/popcorn-compiler/test-install/aarch64/lib/libc.a(__libc_start_main.o)
                0x0000000000601038                src_env___libc_start_main__str_1__dev_null_
 ** zero fill   0x0000000000601042        0x6
 .rodata.stdout
                0x0000000000601048        0x8 0x8 /home/rlyerly/Downloads/popcorn-compiler/test-install/aarch64/lib/libc.a(stdout.o)
                0x0000000000601048                stdout
 .rodata.printf_core
                0x0000000000601050      0x170 0x8 /home/rlyerly/Downloads/popcorn-compiler/test-install/aarch64/lib/libc.a(vfprintf.o)
 .rodata.pop_arg
                0x00000000006011c0       0x90 0x8 /home/rlyerly/Downloads/popcorn-compiler/test-install/aarch64/lib/libc.a(vfprintf.o)
 .rodata.src_stdio_vfprintf_c_states
                0x0000000000601250      0x1d0 0x1 /home/rlyerly/Downloads/popcorn-compiler/test-install/aarch64/lib/libc.a(vfprintf.o)
 .rodata.src_stdio_vfprintf__str______0X0x_
                0x0000000000601420        0xa 0x1 /home/rlyerly/Downloads/popcorn-compiler/test-install/aarch64/lib/libc.a(vfprintf.o)
                0x0000000000601420                src_stdio_vfprintf__str______0X0x_
 .rodata.src_stdio_vfprintf__str_1__null__
                0x000000000060142a        0x7 0x1 /home/rlyerly/Downloads/popcorn-compiler/test-install/aarch64/lib/libc.a(vfprintf.o)
                0x000000000060142a                src_stdio_vfprintf__str_1__null__
 ** zero fill   0x0000000000601431        0xf
 .rodata.src_stdio_vfprintf_c_xdigits
                0x0000000000601440       0x10 0x1 /home/rlyerly/Downloads/popcorn-compiler/test-install/aarch64/lib/libc.a(vfprintf.o)
 .rodata.src_stdio_vfprintf__str_2__0X_0X_0X_
                0x0000000000601450       0x13 0x1 /home/rlyerly/Downloads/popcorn-compiler/test-install/aarch64/lib/libc.a(vfprintf.o)
                0x0000000000601450                src_stdio_vfprintf__str_2__0X_0X_0X_
 .rodata.src_stdio_vfprintf__str_3_inf_
                0x0000000000601463        0x4 0x1 /home/rlyerly/Downloads/popcorn-compiler/test-install/aarch64/lib/libc.a(vfprintf.o)
                0x0000000000601463                src_stdio_vfprintf__str_3_inf_
 .rodata.src_stdio_vfprintf__str_4_INF_
                0x0000000000601467        0x4 0x1 /home/rlyerly/Downloads/popcorn-compiler/test-install/aarch64/lib/libc.a(vfprintf.o)
                0x0000000000601467                src_stdio_vfprintf__str_4_INF_
 .rodata.src_stdio_vfprintf__str_5_nan_
                0x000000000060146b        0x4 0x1 /home/rlyerly/Downloads/popcorn-compiler/test-install/aarch64/lib/libc.a(vfprintf.o)
                0x000000000060146b                src_stdio_vfprintf__str_5_nan_
 .rodata.src_stdio_vfprintf__str_6_NAN_
                0x000000000060146f        0x4 0x1 /home/rlyerly/Downloads/popcorn-compiler/test-install/aarch64/lib/libc.a(vfprintf.o)
                0x000000000060146f                src_stdio_vfprintf__str_6_NAN_
 .rodata.src_stdio_vfprintf__str_7___
                0x0000000000601473        0x2 0x1 /home/rlyerly/Downloads/popcorn-compiler/test-install/aarch64/lib/libc.a(vfprintf.o)
                0x0000000000601473                src_stdio_vfprintf__str_7___
 ** zero fill   0x0000000000601475        0xb
 .rodata.src_errno_strerror_c_errid
                0x0000000000601480       0x58 0x1 /home/rlyerly/Downloads/popcorn-compiler/test-install/aarch64/lib/libc.a(strerror.o)
 ** zero fill   0x00000000006014d8        0x8
 .rodata.src_errno_strerror_c_errmsg
                0x00000000006014e0      0x70c 0x1 /home/rlyerly/Downloads/popcorn-compiler/test-install/aarch64/lib/libc.a(strerror.o)
 .rodata.src_migrate__str_0_____Unsu
                0x0000000000601bec       0x21 0x1 /home/rlyerly/Downloads/popcorn-compiler/test-install/aarch64/lib/libmigrate.a(migrate.o)
                0x0000000000601bec                src_migrate__str_0_____Unsu
 .rodata.src_migrate__str_1_src_migrat
                0x0000000000601c0d        0xe 0x1 /home/rlyerly/Downloads/popcorn-compiler/test-install/aarch64/lib/libmigrate.a(migrate.o)
                0x0000000000601c0d                src_migrate__str_1_src_migrat
 .rodata.src_migrate___func_____migrate_shim_internal___migrate_
                0x0000000000601c1b       0x18 0x1 /home/rlyerly/Downloads/popcorn-compiler/test-install/aarch64/lib/libmigrate.a(migrate.o)
                0x0000000000601c1b                src_migrate___func_____migrate_shim_internal___migrate_
 .rodata.src_migrate__str_2_0_____Coul
                0x0000000000601c33       0x19 0x1 /home/rlyerly/Downloads/popcorn-compiler/test-install/aarch64/lib/libmigrate.a(migrate.o)
                0x0000000000601c33                src_migrate__str_2_0_____Coul
 .rodata.src_trigger__str_Number_of_
                0x0000000000601c4c       0x33 0x1 /home/rlyerly/Downloads/popcorn-compiler/test-install/aarch64/lib/libmigrate.a(trigger.o)
                0x0000000000601c4c                src_trigger__str_Number_of_
 .rodata.src_trigger__str_1____llu_ns_
                0x0000000000601c7f        0xb 0x1 /home/rlyerly/Downloads/popcorn-compiler/test-install/aarch64/lib/libmigrate.a(trigger.o)
                0x0000000000601c7f                src_trigger__str_1____llu_ns_
 .rodata.src_trigger__str_2_No_startin
                0x0000000000601c8a       0x17 0x1 /home/rlyerly/Downloads/popcorn-compiler/test-install/aarch64/lib/libmigrate.a(trigger.o)
                0x0000000000601c8a                src_trigger__str_2_No_startin
 .rodata.src_trigger__str_3_start____U
                0x0000000000601ca1       0x30 0x1 /home/rlyerly/Downloads/popcorn-compiler/test-install/aarch64/lib/libmigrate.a(trigger.o)
                0x0000000000601ca1                src_trigger__str_3_start__(unsigned)
 .rodata.src_trigger__str_4_src_trigge
                0x0000000000601cd1        0xe 0x1 /home/rlyerly/Downloads/popcorn-compiler/test-install/aarch64/lib/libmigrate.a(trigger.o)
                0x0000000000601cd1                src_trigger__str_4_src_trigge
 .rodata.src_trigger___func___clear_migrate_flag_clear_migr
                0x0000000000601cdf       0x13 0x1 /home/rlyerly/Downloads/popcorn-compiler/test-install/aarch64/lib/libmigrate.a(trigger.o)
                0x0000000000601cdf                src_trigger___func___clear_migrate_flag_clear_migr
 .rodata.src_trigger__str_5_WARNING__t
                0x0000000000601cf2       0x25 0x1 /home/rlyerly/Downloads/popcorn-compiler/test-install/aarch64/lib/libmigrate.a(trigger.o)
                0x0000000000601cf2                src_trigger__str_5_WARNING__t
 .rodata.src_trigger__str_6_Could_not_
                0x0000000000601d17       0x39 0x1 /home/rlyerly/Downloads/popcorn-compiler/test-install/aarch64/lib/libmigrate.a(trigger.o)
                0x0000000000601d17                src_trigger__str_6_Could_not_
 .rodata.src_trigger__str_7_Could_not_
                0x0000000000601d50       0x34 0x1 /home/rlyerly/Downloads/popcorn-compiler/test-install/aarch64/lib/libmigrate.a(trigger.o)
                0x0000000000601d50                src_trigger__str_7_Could_not_
 .rodata.src_trigger__str_8_Could_not_
                0x0000000000601d84       0x3b 0x1 /home/rlyerly/Downloads/popcorn-compiler/test-install/aarch64/lib/libmigrate.a(trigger.o)
                0x0000000000601d84                src_trigger__str_8_Could_not_
 .rodata.src_userspace__str_ST_AARCH64
                0x0000000000601dbf        0xf 0x1 /home/rlyerly/Downloads/popcorn-compiler/test-install/aarch64/lib/libstack-transform.a(userspace.o)
                0x0000000000601dbf                src_userspace__str_ST_AARCH64
 .rodata.src_userspace__str_1__s_aarch64
                0x0000000000601dce        0xb 0x1 /home/rlyerly/Downloads/popcorn-compiler/test-install/aarch64/lib/libstack-transform.a(userspace.o)
                0x0000000000601dce                src_userspace__str_1__s_aarch64
 .rodata.src_userspace__str_2_ST_POWERPC
                0x0000000000601dd9       0x11 0x1 /home/rlyerly/Downloads/popcorn-compiler/test-install/aarch64/lib/libstack-transform.a(userspace.o)
                0x0000000000601dd9                src_userspace__str_2_ST_POWERPC
 .rodata.src_userspace__str_3__s_powerpc
                0x0000000000601dea        0xd 0x1 /home/rlyerly/Downloads/popcorn-compiler/test-install/aarch64/lib/libstack-transform.a(userspace.o)
                0x0000000000601dea                src_userspace__str_3__s_powerpc
 .rodata.src_userspace__str_4_ST_X86_64_
                0x0000000000601df7        0xe 0x1 /home/rlyerly/Downloads/popcorn-compiler/test-install/aarch64/lib/libstack-transform.a(userspace.o)
                0x0000000000601df7                src_userspace__str_4_ST_X86_64_
 .rodata.src_userspace__str_5__s_x86_64_
                0x0000000000601e05        0xa 0x1 /home/rlyerly/Downloads/popcorn-compiler/test-install/aarch64/lib/libstack-transform.a(userspace.o)
                0x0000000000601e05                src_userspace__str_5__s_x86_64_
 .rodata.src_userspace__str_6__proc__d_m
                0x0000000000601e0f        0xe 0x1 /home/rlyerly/Downloads/popcorn-compiler/test-install/aarch64/lib/libstack-transform.a(userspace.o)
                0x0000000000601e0f                src_userspace__str_6__proc__d_m
 .rodata.src_userspace__str_7_r_
                0x0000000000601e1d        0x2 0x1 /home/rlyerly/Downloads/popcorn-compiler/test-install/aarch64/lib/libstack-transform.a(userspace.o)
                0x0000000000601e1d                src_userspace__str_7_r_
 .rodata.src_userspace__str_8__lx__lx__s
                0x0000000000601e1f       0x19 0x1 /home/rlyerly/Downloads/popcorn-compiler/test-install/aarch64/lib/libstack-transform.a(userspace.o)
                0x0000000000601e1f                src_userspace__str_8__lx__lx(short)
 .rodata.src_userspace__str_9__stack__
                0x0000000000601e38        0x8 0x1 /home/rlyerly/Downloads/popcorn-compiler/test-install/aarch64/lib/libstack-transform.a(userspace.o)
                0x0000000000601e38                src_userspace__str_9__stack__
 .rodata.src_init__str__stack_tra
                0x0000000000601e40       0x1f 0x1 /home/rlyerly/Downloads/popcorn-compiler/test-install/aarch64/lib/libstack-transform.a(init.o)
                0x0000000000601e40                src_init__str__stack_tra
 .rodata.src_init__str_1__stack_tra
                0x0000000000601e5f       0x18 0x1 /home/rlyerly/Downloads/popcorn-compiler/test-install/aarch64/lib/libstack-transform.a(init.o)
                0x0000000000601e5f                src_init__str_1__stack_tra
 .rodata.src_init__str_2__stack_tra
                0x0000000000601e77       0x14 0x1 /home/rlyerly/Downloads/popcorn-compiler/test-install/aarch64/lib/libstack-transform.a(init.o)
                0x0000000000601e77                src_init__str_2__stack_tra
 .rodata.src_init__str_3__stack_tra
                0x0000000000601e8b       0x16 0x1 /home/rlyerly/Downloads/popcorn-compiler/test-install/aarch64/lib/libstack-transform.a(init.o)
                0x0000000000601e8b                src_init__str_3__stack_tra
 .rodata.src_init__str_4__stack_tra
                0x0000000000601ea1       0x16 0x1 /home/rlyerly/Downloads/popcorn-compiler/test-install/aarch64/lib/libstack-transform.a(init.o)
                0x0000000000601ea1                src_init__str_4__stack_tra
 .rodata.src_init__str_5__stack_tra
                0x0000000000601eb7       0x1c 0x1 /home/rlyerly/Downloads/popcorn-compiler/test-install/aarch64/lib/libstack-transform.a(init.o)
                0x0000000000601eb7                src_init__str_5__stack_tra
 .rodata.src_rewrite__str__src_rewri
                0x0000000000601ed3       0x42 0x1 /home/rlyerly/Downloads/popcorn-compiler/test-install/aarch64/lib/libstack-transform.a(rewrite.o)
                0x0000000000601ed3                src_rewrite__str__src_rewri
 .rodata.src_rewrite__str_1__src_rewri
                0x0000000000601f15       0x68 0x1 /home/rlyerly/Downloads/popcorn-compiler/test-install/aarch64/lib/libstack-transform.a(rewrite.o)
                0x0000000000601f15                src_rewrite__str_1__src_rewri
 .rodata.src_rewrite__str_2__src_rewri
                0x0000000000601f7d       0x54 0x1 /home/rlyerly/Downloads/popcorn-compiler/test-install/aarch64/lib/libstack-transform.a(rewrite.o)
                0x0000000000601f7d                src_rewrite__str_2__src_rewri
 .rodata.src_rewrite__str_3__src_rewri
                0x0000000000601fd1       0x61 0x1 /home/rlyerly/Downloads/popcorn-compiler/test-install/aarch64/lib/libstack-transform.a(rewrite.o)
                0x0000000000601fd1                src_rewrite__str_3__src_rewri
 .rodata.src_util__str_aarch64_
                0x0000000000602032        0x8 0x1 /home/rlyerly/Downloads/popcorn-compiler/test-install/aarch64/lib/libstack-transform.a(util.o)
                0x0000000000602032                src_util__str_aarch64_
 .rodata.src_util__str_1_powerpc64_
                0x000000000060203a        0xa 0x1 /home/rlyerly/Downloads/popcorn-compiler/test-install/aarch64/lib/libstack-transform.a(util.o)
                0x000000000060203a                src_util__str_1_powerpc64_
 .rodata.src_util__str_2_x86_64_
                0x0000000000602044        0x7 0x1 /home/rlyerly/Downloads/popcorn-compiler/test-install/aarch64/lib/libstack-transform.a(util.o)
                0x0000000000602044                src_util__str_2_x86_64_
 .rodata.src_util__str_3_unknown_un
                0x000000000060204b       0x21 0x1 /home/rlyerly/Downloads/popcorn-compiler/test-install/aarch64/lib/libstack-transform.a(util.o)
                0x000000000060204b                src_util__str_3_unknown_un
 ** zero fill   0x000000000060206c        0x4
 .rodata.src_arch_aarch64_properties_c_callee_saved_aarch64
                0x0000000000602070       0x28 0x2 /home/rlyerly/Downloads/popcorn-compiler/test-install/aarch64/lib/libstack-transform.a(properties.o)
 ** zero fill   0x0000000000602098        0x8
 .rodata.src_arch_aarch64_properties_c_callee_saved_size_aarch64
                0x00000000006020a0       0x28 0x2 /home/rlyerly/Downloads/popcorn-compiler/test-install/aarch64/lib/libstack-transform.a(properties.o)
 .rodata.properties_aarch64
                0x00000000006020c8       0x38 0x8 /home/rlyerly/Downloads/popcorn-compiler/test-install/aarch64/lib/libstack-transform.a(properties.o)
                0x00000000006020c8                properties_aarch64
 .rodata.src_arch_aarch64_properties__str__src_arch_
                0x0000000000602100       0x51 0x1 /home/rlyerly/Downloads/popcorn-compiler/test-install/aarch64/lib/libstack-transform.a(properties.o)
                0x0000000000602100                src_arch_aarch64_properties__str__src_arch_
 ** zero fill   0x0000000000602151        0x7
 .rodata.reg_aarch64
                0x0000000000602158      0x300 0x8 /home/rlyerly/Downloads/popcorn-compiler/test-install/aarch64/lib/libstack-transform.a(regs.o)
 .rodata.regs_aarch64
                0x0000000000602458       0xa8 0x8 /home/rlyerly/Downloads/popcorn-compiler/test-install/aarch64/lib/libstack-transform.a(regs.o)
                0x0000000000602458                regs_aarch64
 .rodata.src_arch_aarch64_regs__str__src_arch_
                0x0000000000602500       0x4c 0x1 /home/rlyerly/Downloads/popcorn-compiler/test-install/aarch64/lib/libstack-transform.a(regs.o)
                0x0000000000602500                src_arch_aarch64_regs__str__src_arch_
 .rodata.src_arch_aarch64_regs__str_1__src_arch_
                0x000000000060254c       0x4c 0x1 /home/rlyerly/Downloads/popcorn-compiler/test-install/aarch64/lib/libstack-transform.a(regs.o)
                0x000000000060254c                src_arch_aarch64_regs__str_1__src_arch_
 .rodata.is_callee_saved_powerpc64
                0x0000000000602598      0x208 0x8 /home/rlyerly/Downloads/popcorn-compiler/test-install/aarch64/lib/libstack-transform.a(properties.o)
 .rodata.callee_reg_size_powerpc64
                0x00000000006027a0      0x210 0x8 /home/rlyerly/Downloads/popcorn-compiler/test-install/aarch64/lib/libstack-transform.a(properties.o)
 .rodata.src_arch_powerpc64_properties_c_callee_saved_powerpc64
                0x00000000006029b0       0x4e 0x2 /home/rlyerly/Downloads/popcorn-compiler/test-install/aarch64/lib/libstack-transform.a(properties.o)
 ** zero fill   0x00000000006029fe        0x2
 .rodata.src_arch_powerpc64_properties_c_callee_saved_size_powerpc64
                0x0000000000602a00       0x4c 0x2 /home/rlyerly/Downloads/popcorn-compiler/test-install/aarch64/lib/libstack-transform.a(properties.o)
 ** zero fill   0x0000000000602a4c        0x4
 .rodata.properties_powerpc64
                0x0000000000602a50       0x38 0x8 /home/rlyerly/Downloads/popcorn-compiler/test-install/aarch64/lib/libstack-transform.a(properties.o)
                0x0000000000602a50                properties_powerpc64
 .rodata.src_arch_powerpc64_properties__str__src_arch_
                0x0000000000602a88       0x56 0x1 /home/rlyerly/Downloads/popcorn-compiler/test-install/aarch64/lib/libstack-transform.a(properties.o)
                0x0000000000602a88                src_arch_powerpc64_properties__str__src_arch_
 ** zero fill   0x0000000000602ade        0x2
 .rodata.reg_powerpc64
                0x0000000000602ae0      0x218 0x8 /home/rlyerly/Downloads/popcorn-compiler/test-install/aarch64/lib/libstack-transform.a(regs.o)
 .rodata.regs_powerpc64
                0x0000000000602cf8       0xa8 0x8 /home/rlyerly/Downloads/popcorn-compiler/test-install/aarch64/lib/libstack-transform.a(regs.o)
                0x0000000000602cf8                regs_powerpc64
 .rodata.src_arch_powerpc64_regs__str__src_arch_
                0x0000000000602da0       0x50 0x1 /home/rlyerly/Downloads/popcorn-compiler/test-install/aarch64/lib/libstack-transform.a(regs.o)
                0x0000000000602da0                src_arch_powerpc64_regs__str__src_arch_
 .rodata.src_arch_powerpc64_regs__str_1__src_arch_
                0x0000000000602df0       0x50 0x1 /home/rlyerly/Downloads/popcorn-compiler/test-install/aarch64/lib/libstack-transform.a(regs.o)
                0x0000000000602df0                src_arch_powerpc64_regs__str_1__src_arch_
 .rodata.src_arch_x86_64_properties_c_callee_saved_x86_64
                0x0000000000602e40        0xe 0x2 /home/rlyerly/Downloads/popcorn-compiler/test-install/aarch64/lib/libstack-transform.a(properties.o)
 .rodata.src_arch_x86_64_properties_c_callee_saved_size_x86_64
                0x0000000000602e4e        0xe 0x2 /home/rlyerly/Downloads/popcorn-compiler/test-install/aarch64/lib/libstack-transform.a(properties.o)
 ** zero fill   0x0000000000602e5c        0x4
 .rodata.properties_x86_64
                0x0000000000602e60       0x38 0x8 /home/rlyerly/Downloads/popcorn-compiler/test-install/aarch64/lib/libstack-transform.a(properties.o)
                0x0000000000602e60                properties_x86_64
 .rodata.src_arch_x86_64_properties__str__src_arch_
                0x0000000000602e98       0x4f 0x1 /home/rlyerly/Downloads/popcorn-compiler/test-install/aarch64/lib/libstack-transform.a(properties.o)
                0x0000000000602e98                src_arch_x86_64_properties__str__src_arch_
 ** zero fill   0x0000000000602ee7        0x1
 .rodata.reg_x86_64
                0x0000000000602ee8      0x108 0x8 /home/rlyerly/Downloads/popcorn-compiler/test-install/aarch64/lib/libstack-transform.a(regs.o)
 .rodata.regs_x86_64
                0x0000000000602ff0       0xa8 0x8 /home/rlyerly/Downloads/popcorn-compiler/test-install/aarch64/lib/libstack-transform.a(regs.o)
                0x0000000000602ff0                regs_x86_64
 .rodata.src_arch_x86_64_regs__str__src_arch_
                0x0000000000603098       0x4b 0x1 /home/rlyerly/Downloads/popcorn-compiler/test-install/aarch64/lib/libstack-transform.a(regs.o)
                0x0000000000603098                src_arch_x86_64_regs__str__src_arch_
 .rodata.src_arch_x86_64_regs__str_1__src_arch_
                0x00000000006030e3       0x4b 0x1 /home/rlyerly/Downloads/popcorn-compiler/test-install/aarch64/lib/libstack-transform.a(regs.o)
                0x00000000006030e3                src_arch_x86_64_regs__str_1__src_arch_
 .rodata.src_arch_x86_64_regs__str_2__src_arch_
                0x000000000060312e       0x4a 0x1 /home/rlyerly/Downloads/popcorn-compiler/test-install/aarch64/lib/libstack-transform.a(regs.o)
                0x000000000060312e                src_arch_x86_64_regs__str_2__src_arch_
 .rodata.src_arch_x86_64_regs__str_3__src_arch_
                0x0000000000603178       0x4a 0x1 /home/rlyerly/Downloads/popcorn-compiler/test-install/aarch64/lib/libstack-transform.a(regs.o)
                0x0000000000603178                src_arch_x86_64_regs__str_3__src_arch_
 ** zero fill   0x00000000006031c2        0x6
 .rodata.put_val_arch
                0x00000000006031c8       0xb0 0x8 /home/rlyerly/Downloads/popcorn-compiler/test-install/aarch64/lib/libstack-transform.a(data.o)
 .rodata.points_to_stack
                0x0000000000603278       0x28 0x8 /home/rlyerly/Downloads/popcorn-compiler/test-install/aarch64/lib/libstack-transform.a(data.o)
 .rodata.src_data__str__src_data_
                0x00000000006032a0       0x38 0x1 /home/rlyerly/Downloads/popcorn-compiler/test-install/aarch64/lib/libstack-transform.a(data.o)
                0x00000000006032a0                src_data__str__src_data_
 .rodata.src_data__str_1__src_data_
                0x00000000006032d8       0x50 0x1 /home/rlyerly/Downloads/popcorn-compiler/test-install/aarch64/lib/libstack-transform.a(data.o)
                0x00000000006032d8                src_data__str_1__src_data_
 .rodata.src_data__str_2__src_data_
                0x0000000000603328       0x3d 0x1 /home/rlyerly/Downloads/popcorn-compiler/test-install/aarch64/lib/libstack-transform.a(data.o)
                0x0000000000603328                src_data__str_2__src_data_
 .rodata.src_data__str_3__src_data_
                0x0000000000603365       0x30 0x1 /home/rlyerly/Downloads/popcorn-compiler/test-install/aarch64/lib/libstack-transform.a(data.o)
                0x0000000000603365                src_data__str_3__src_data_
 .rodata.src_data__str_4__src_data_
                0x0000000000603395       0x49 0x1 /home/rlyerly/Downloads/popcorn-compiler/test-install/aarch64/lib/libstack-transform.a(data.o)
                0x0000000000603395                src_data__str_4__src_data_
 .rodata.src_data__str_5__src_data_
                0x00000000006033de       0x3f 0x1 /home/rlyerly/Downloads/popcorn-compiler/test-install/aarch64/lib/libstack-transform.a(data.o)
                0x00000000006033de                src_data__str_5__src_data_
 .rodata.src_data__str_6__src_data_
                0x000000000060341d       0x3d 0x1 /home/rlyerly/Downloads/popcorn-compiler/test-install/aarch64/lib/libstack-transform.a(data.o)
                0x000000000060341d                src_data__str_6__src_data_
 .rodata.src_data__str_7__src_data_
                0x000000000060345a       0x3f 0x1 /home/rlyerly/Downloads/popcorn-compiler/test-install/aarch64/lib/libstack-transform.a(data.o)
                0x000000000060345a                src_data__str_7__src_data_
 .rodata.src_data__str_8__src_data_
                0x0000000000603499       0x37 0x1 /home/rlyerly/Downloads/popcorn-compiler/test-install/aarch64/lib/libstack-transform.a(data.o)
                0x0000000000603499                src_data__str_8__src_data_
 .rodata.src_data__str_9__src_data_
                0x00000000006034d0       0x37 0x1 /home/rlyerly/Downloads/popcorn-compiler/test-install/aarch64/lib/libstack-transform.a(data.o)
                0x00000000006034d0                src_data__str_9__src_data_
 .rodata.src_data__str_10__src_data_
                0x0000000000603507       0x3f 0x1 /home/rlyerly/Downloads/popcorn-compiler/test-install/aarch64/lib/libstack-transform.a(data.o)
                0x0000000000603507                src_data__str_10__src_data_
 .rodata.src_data__str_11__src_data_
                0x0000000000603546       0x3f 0x1 /home/rlyerly/Downloads/popcorn-compiler/test-install/aarch64/lib/libstack-transform.a(data.o)
                0x0000000000603546                src_data__str_11__src_data_
 ** zero fill   0x0000000000603585        0xb
 .rodata.fmag   0x0000000000603590        0x3 0x10 /home/rlyerly/Downloads/popcorn-compiler/test-install/aarch64/lib/libelf.a(begin.o)
 ** zero fill   0x0000000000603593        0xd
 .rodata.xlate32_11
                0x00000000006035a0      0x220 0x10 /home/rlyerly/Downloads/popcorn-compiler/test-install/aarch64/lib/libelf.a(32.xlatetof.o)
 .rodata._elf_data_init
                0x00000000006037c0       0x58 0x8 /home/rlyerly/Downloads/popcorn-compiler/test-install/aarch64/lib/libelf.a(cook.o)
                0x00000000006037c0                _elf_data_init
 ** zero fill   0x0000000000603818        0x8
 .rodata._elf_scn_init
                0x0000000000603820       0xa0 0x8 /home/rlyerly/Downloads/popcorn-compiler/test-install/aarch64/lib/libelf.a(cook.o)
                0x0000000000603820                _elf_scn_init
 .rodata.xlate64_11
                0x00000000006038c0      0x220 0x10 /home/rlyerly/Downloads/popcorn-compiler/test-install/aarch64/lib/libelf.a(64.xlatetof.o)
 .rodata._elf_fmsize
                0x0000000000603ae0      0x220 0x10 /home/rlyerly/Downloads/popcorn-compiler/test-install/aarch64/lib/libelf.a(32.fsize.o)
                0x0000000000603ae0                _elf_fmsize
 .rodata.src_exit_assert__str_Assertion_
                0x0000000000603d00       0x23 0x1 /home/rlyerly/Downloads/popcorn-compiler/test-install/aarch64/lib/libc.a(assert.o)
                0x0000000000603d00                src_exit_assert__str_Assertion_
 ** zero fill   0x0000000000603d23        0xd
 .rodata.src_malloc_malloc_c_bin_tab
                0x0000000000603d30       0x3c 0x1 /home/rlyerly/Downloads/popcorn-compiler/test-install/aarch64/lib/libc.a(malloc.o)
 .rodata.src_stdio_fopen__str_rwa_
                0x0000000000603d6c        0x4 0x1 /home/rlyerly/Downloads/popcorn-compiler/test-install/aarch64/lib/libc.a(fopen.o)
                0x0000000000603d6c                src_stdio_fopen__str_rwa_
 .rodata.stderr
                0x0000000000603d70        0x8 0x8 /home/rlyerly/Downloads/popcorn-compiler/test-install/aarch64/lib/libc.a(stderr.o)
                0x0000000000603d70                stderr
 ** zero fill   0x0000000000603d78        0x8
 .rodata.src_internal_intscan_c_table
                0x0000000000603d80      0x101 0x1 /home/rlyerly/Downloads/popcorn-compiler/test-install/aarch64/lib/libc.a(intscan.o)
 .rodata.src_internal_intscan__str__________
                0x0000000000603e81        0x9 0x1 /home/rlyerly/Downloads/popcorn-compiler/test-install/aarch64/lib/libc.a(intscan.o)
                0x0000000000603e81                src_internal_intscan__str__________
 ** zero fill   0x0000000000603e8a        0x6
 .rodata.src_signal_block_c_all_mask
                0x0000000000603e90        0x8 0x8 /home/rlyerly/Downloads/popcorn-compiler/test-install/aarch64/lib/libc.a(block.o)
 .rodata.src_signal_block_c_app_mask
                0x0000000000603e98        0x8 0x8 /home/rlyerly/Downloads/popcorn-compiler/test-install/aarch64/lib/libc.a(block.o)
 .rodata.src_stdio___fdopen__str_rwa_
                0x0000000000603ea0        0x4 0x1 /home/rlyerly/Downloads/popcorn-compiler/test-install/aarch64/lib/libc.a(__fdopen.o)
                0x0000000000603ea0                src_stdio___fdopen__str_rwa_
 ** zero fill   0x0000000000603ea4        0x4
 .rodata.vfscanf
                0x0000000000603ea8      0x338 0x8 /home/rlyerly/Downloads/popcorn-compiler/test-install/aarch64/lib/libc.a(vfscanf.o)
 .rodata.src_internal_floatscan__str_infinity_
                0x00000000006041e0        0x9 0x1 /home/rlyerly/Downloads/popcorn-compiler/test-install/aarch64/lib/libc.a(floatscan.o)
                0x00000000006041e0                src_internal_floatscan__str_infinity_
 ** zero fill   0x00000000006041e9        0x7
 .rodata.src_internal_floatscan_c_decfloat_p10s
                0x00000000006041f0       0x20 0x4 /home/rlyerly/Downloads/popcorn-compiler/test-install/aarch64/lib/libc.a(floatscan.o)
 .rodata.src_internal_floatscan_switch_table_
                0x0000000000604210        0xc 0x4 /home/rlyerly/Downloads/popcorn-compiler/test-install/aarch64/lib/libc.a(floatscan.o)
                0x0000000000604210                src_internal_floatscan_switch_table_
 .rodata.src_internal_floatscan_switch_table_2_
                0x000000000060421c        0xc 0x4 /home/rlyerly/Downloads/popcorn-compiler/test-install/aarch64/lib/libc.a(floatscan.o)
                0x000000000060421c                src_internal_floatscan_switch_table_2_
 ** zero fill   0x0000000000604228        0x8
 .rodata.__fsmu8
                0x0000000000604230       0xcc 0x4 /home/rlyerly/Downloads/popcorn-compiler/test-install/aarch64/lib/libc.a(internal.o)
                0x0000000000604230                __fsmu8
 ** zero fill   0x00000000006042fc        0x4
 ** zero fill   0x0000000000604300       0x42
 .rodata        0x0000000000604350       0x20 0x10 /home/rlyerly/Downloads/popcorn-compiler/test-install/aarch64/lib/libc.a(vfprintf.o)
 .rodata        0x0000000000604370        0xf 0x4 /usr/lib/gcc-cross/aarch64-linux-gnu/5/libgcc.a(divtf3.o)
 .rodata        0x0000000000604380        0xf 0x4 /usr/lib/gcc-cross/aarch64-linux-gnu/5/libgcc.a(multf3.o)

.rodata.cst16   0x0000000000604390      0x140
 ** merge constants
                0x0000000000604390      0x140

.rodata.cst8    0x00000000006044d0       0x20
 ** merge constants
                0x00000000006044d0       0x20

.rodata.str1.8  0x00000000006044f0       0x35
 ** merge strings
                0x00000000006044f0       0x35

.rodata.cst4    0x0000000000604528        0x4
 ** merge constants
                0x0000000000604528        0x4

.eh_frame       0x0000000000604530       0x68
 ** eh_frame    0x0000000000604530       0x68

.data           0x0000000000700000     0x1280
 ** zero fill   0x0000000000700000        0x1
 ** zero fill   0x0000000000700001      0xfff
 .data.src_stdio_stdout_c_f
                0x0000000000701000       0xe8 0x8 /home/rlyerly/Downloads/popcorn-compiler/test-install/aarch64/lib/libc.a(stdout.o)
 .data.__stdout_used
                0x00000000007010e8        0x8 0x8 /home/rlyerly/Downloads/popcorn-compiler/test-install/aarch64/lib/libc.a(stdout.o)
                0x00000000007010e8                __stdout_used
 .data.archs    0x00000000007010f0       0x80 0x4 /home/rlyerly/Downloads/popcorn-compiler/test-install/aarch64/lib/libmigrate.a(migrate.o)
                0x00000000007010f0                archs
 .data.__migrate_flag
                0x0000000000701170        0x4 0x4 /home/rlyerly/Downloads/popcorn-compiler/test-install/aarch64/lib/libmigrate.a(trigger.o)
                0x0000000000701170                __migrate_flag
 .data._elf_sanity_checks
                0x0000000000701174        0x4 0x4 /home/rlyerly/Downloads/popcorn-compiler/test-install/aarch64/lib/libelf.a(data.o)
                0x0000000000701174                _elf_sanity_checks
 .data.src_stdio_stderr_c_f
                0x0000000000701178       0xe8 0x8 /home/rlyerly/Downloads/popcorn-compiler/test-install/aarch64/lib/libc.a(stderr.o)
 .data.__stderr_used
                0x0000000000701260        0x8 0x8 /home/rlyerly/Downloads/popcorn-compiler/test-install/aarch64/lib/libc.a(stderr.o)
                0x0000000000701260                __stderr_used
 .data.__pthread_tsd_size
                0x0000000000701268        0x8 0x8 /home/rlyerly/Downloads/popcorn-compiler/test-install/aarch64/lib/libc.a(pthread_key_create.o)
                0x0000000000701268                __pthread_tsd_size
 ** zero fill   0x0000000000701270        0x8
 .data.build_aarch64_trigger_o_bc_start
                0x0000000000701278        0x8 0x8 /home/rlyerly/Downloads/popcorn-compiler/test-install/aarch64/lib/libmigrate.a(trigger.o)
 .data          0x0000000000701280        0x0 0x4 main.o
 .data          0x0000000000701280        0x0 0x4 fizzbuzz.o
 .data          0x0000000000701280        0x0 0x4 /home/rlyerly/Downloads/popcorn-compiler/test-install/aarch64/lib/crt1.o
 .data          0x0000000000701280        0x0 0x4 /home/rlyerly/Downloads/popcorn-compiler/test-install/aarch64/lib/libc.a(__libc_start_main.o)
 .data          0x0000000000701280        0x0 0x4 /home/rlyerly/Downloads/popcorn-compiler/test-install/aarch64/lib/libc.a(exit.o)
 .data          0x0000000000701280        0x0 0x4 /home/rlyerly/Downloads/popcorn-compiler/test-install/aarch64/lib/libc.a(libc.o)
 .data          0x0000000000701280        0x0 0x4 /home/rlyerly/Downloads/popcorn-compiler/test-install/aarch64/lib/libc.a(printf.o)
 .data          0x0000000000701280        0x0 0x4 /home/rlyerly/Downloads/popcorn-compiler/test-install/aarch64/lib/libc.a(stdout.o)
 .data          0x0000000000701280        0x0 0x4 /home/rlyerly/Downloads/popcorn-compiler/test-install/aarch64/lib/libc.a(vfprintf.o)
 .data          0x0000000000701280        0x0 0x4 /home/rlyerly/Downloads/popcorn-compiler/test-install/aarch64/lib/libc.a(atoi.o)
 .data          0x0000000000701280        0x0 0x4 /home/rlyerly/Downloads/popcorn-compiler/test-install/aarch64/lib/libc.a(memset.o)
 .data          0x0000000000701280        0x0 0x4 /home/rlyerly/Downloads/popcorn-compiler/test-install/aarch64/lib/libc.a(strnlen.o)
 .data          0x0000000000701280        0x0 0x4 /home/rlyerly/Downloads/popcorn-compiler/test-install/aarch64/lib/libc.a(__environ.o)
 .data          0x0000000000701280        0x0 0x4 /home/rlyerly/Downloads/popcorn-compiler/test-install/aarch64/lib/libc.a(__init_tls.o)
 .data          0x0000000000701280        0x0 0x4 /home/rlyerly/Downloads/popcorn-compiler/test-install/aarch64/lib/libc.a(__errno_location.o)
 .data          0x0000000000701280        0x0 0x4 /home/rlyerly/Downloads/popcorn-compiler/test-install/aarch64/lib/libc.a(strerror.o)
 .data          0x0000000000701280        0x0 0x4 /home/rlyerly/Downloads/popcorn-compiler/test-install/aarch64/lib/libc.a(_Exit.o)
 .data          0x0000000000701280        0x0 0x4 /home/rlyerly/Downloads/popcorn-compiler/test-install/aarch64/lib/libc.a(__lctrans.o)
 .data          0x0000000000701280        0x0 0x4 /home/rlyerly/Downloads/popcorn-compiler/test-install/aarch64/lib/libc.a(__fpclassifyl.o)
 .data          0x0000000000701280        0x0 0x4 /home/rlyerly/Downloads/popcorn-compiler/test-install/aarch64/lib/libc.a(__signbitl.o)
 .data          0x0000000000701280        0x0 0x4 /home/rlyerly/Downloads/popcorn-compiler/test-install/aarch64/lib/libc.a(frexpl.o)
 .data          0x0000000000701280        0x0 0x4 /home/rlyerly/Downloads/popcorn-compiler/test-install/aarch64/lib/libc.a(wctomb.o)
 .data          0x0000000000701280        0x0 0x4 /home/rlyerly/Downloads/popcorn-compiler/test-install/aarch64/lib/libc.a(__lockfile.o)
 .data          0x0000000000701280        0x0 0x4 /home/rlyerly/Downloads/popcorn-compiler/test-install/aarch64/lib/libc.a(__stdio_close.o)
 .data          0x0000000000701280        0x0 0x4 /home/rlyerly/Downloads/popcorn-compiler/test-install/aarch64/lib/libc.a(__stdio_seek.o)
 .data          0x0000000000701280        0x0 0x4 /home/rlyerly/Downloads/popcorn-compiler/test-install/aarch64/lib/libc.a(__stdout_write.o)
 .data          0x0000000000701280        0x0 0x4 /home/rlyerly/Downloads/popcorn-compiler/test-install/aarch64/lib/libc.a(fwrite.o)
 .data          0x0000000000701280        0x0 0x4 /home/rlyerly/Downloads/popcorn-compiler/test-install/aarch64/lib/libc.a(memchr.o)
 .data          0x0000000000701280        0x0 0x4 /home/rlyerly/Downloads/popcorn-compiler/test-install/aarch64/lib/libc.a(memcpy.o)
 .data          0x0000000000701280        0x0 0x4 /home/rlyerly/Downloads/popcorn-compiler/test-install/aarch64/lib/libc.a(__wait.o)
 .data          0x0000000000701280        0x0 0x4 /home/rlyerly/Downloads/popcorn-compiler/test-install/aarch64/lib/libc.a(__set_thread_area.o)
 .data          0x0000000000701280        0x0 0x4 /home/rlyerly/Downloads/popcorn-compiler/test-install/aarch64/lib/libc.a(syscall_ret.o)
 .data          0x0000000000701280        0x0 0x4 /home/rlyerly/Downloads/popcorn-compiler/test-install/aarch64/lib/libc.a(wcrtomb.o)
 .data          0x0000000000701280        0x0 0x4 /home/rlyerly/Downloads/popcorn-compiler/test-install/aarch64/lib/libc.a(__stdio_write.o)
 .data          0x0000000000701280        0x0 0x4 /home/rlyerly/Downloads/popcorn-compiler/test-install/aarch64/lib/libc.a(__towrite.o)
 .data          0x0000000000701280        0x0 0x4 /home/rlyerly/Downloads/popcorn-compiler/test-install/aarch64/lib/libc.a(__stdio_exit.o)
 .data          0x0000000000701280        0x0 0x4 /home/rlyerly/Downloads/popcorn-compiler/test-install/aarch64/lib/libc.a(ofl.o)
 .data          0x0000000000701280        0x0 0x4 /home/rlyerly/Downloads/popcorn-compiler/test-install/aarch64/lib/libc.a(__lock.o)
 .data          0x0000000000701280        0x0 0x4 /home/rlyerly/Downloads/popcorn-compiler/test-install/aarch64/lib/libmigrate.a(migrate.o)
 .data          0x0000000000701280        0x0 0x4 /home/rlyerly/Downloads/popcorn-compiler/test-install/aarch64/lib/libmigrate.a(trigger.o)
 .data          0x0000000000701280        0x0 0x4 /home/rlyerly/Downloads/popcorn-compiler/test-install/aarch64/lib/libstack-transform.a(userspace.o)
 .data          0x0000000000701280        0x0 0x4 /home/rlyerly/Downloads/popcorn-compiler/test-install/aarch64/lib/libstack-transform.a(init.o)
 .data          0x0000000000701280        0x0 0x4 /home/rlyerly/Downloads/popcorn-compiler/test-install/aarch64/lib/libstack-transform.a(rewrite.o)
 .data          0x0000000000701280        0x0 0x4 /home/rlyerly/Downloads/popcorn-compiler/test-install/aarch64/lib/libstack-transform.a(unwind.o)
 .data          0x0000000000701280        0x0 0x4 /home/rlyerly/Downloads/popcorn-compiler/test-install/aarch64/lib/libstack-transform.a(util.o)
 .data          0x0000000000701280        0x0 0x4 /home/rlyerly/Downloads/popcorn-compiler/test-install/aarch64/lib/libstack-transform.a(properties.o)
 .data          0x0000000000701280        0x0 0x4 /home/rlyerly/Downloads/popcorn-compiler/test-install/aarch64/lib/libstack-transform.a(regs.o)
 .data          0x0000000000701280        0x0 0x4 /home/rlyerly/Downloads/popcorn-compiler/test-install/aarch64/lib/libstack-transform.a(properties.o)
 .data          0x0000000000701280        0x0 0x4 /home/rlyerly/Downloads/popcorn-compiler/test-install/aarch64/lib/libstack-transform.a(regs.o)
 .data          0x0000000000701280        0x0 0x4 /home/rlyerly/Downloads/popcorn-compiler/test-install/aarch64/lib/libstack-transform.a(properties.o)
 .data          0x0000000000701280        0x0 0x4 /home/rlyerly/Downloads/popcorn-compiler/test-install/aarch64/lib/libstack-transform.a(regs.o)
 .data          0x0000000000701280        0x0 0x4 /home/rlyerly/Downloads/popcorn-compiler/test-install/aarch64/lib/libstack-transform.a(data.o)
 .data          0x0000000000701280        0x0 0x1 /home/rlyerly/Downloads/popcorn-compiler/test-install/aarch64/lib/libelf.a(begin.o)
 .data          0x0000000000701280        0x0 0x1 /home/rlyerly/Downloads/popcorn-compiler/test-install/aarch64/lib/libelf.a(end.o)
 .data          0x0000000000701280        0x0 0x1 /home/rlyerly/Downloads/popcorn-compiler/test-install/aarch64/lib/libelf.a(getdata.o)
 .data          0x0000000000701280        0x0 0x1 /home/rlyerly/Downloads/popcorn-compiler/test-install/aarch64/lib/libelf.a(getident.o)
 .data          0x0000000000701280        0x0 0x1 /home/rlyerly/Downloads/popcorn-compiler/test-install/aarch64/lib/libelf.a(nextscn.o)
 .data          0x0000000000701280        0x0 0x1 /home/rlyerly/Downloads/popcorn-compiler/test-install/aarch64/lib/libelf.a(strptr.o)
 .data          0x0000000000701280        0x0 0x1 /home/rlyerly/Downloads/popcorn-compiler/test-install/aarch64/lib/libelf.a(version.o)
 .data          0x0000000000701280        0x0 0x1 /home/rlyerly/Downloads/popcorn-compiler/test-install/aarch64/lib/libelf.a(32.getehdr.o)
 .data          0x0000000000701280        0x0 0x1 /home/rlyerly/Downloads/popcorn-compiler/test-install/aarch64/lib/libelf.a(32.xlatetof.o)
 .data          0x0000000000701280        0x0 0x1 /home/rlyerly/Downloads/popcorn-compiler/test-install/aarch64/lib/libelf.a(cook.o)
 .data          0x0000000000701280        0x0 0x1 /home/rlyerly/Downloads/popcorn-compiler/test-install/aarch64/lib/libelf.a(data.o)
 .data          0x0000000000701280        0x0 0x1 /home/rlyerly/Downloads/popcorn-compiler/test-install/aarch64/lib/libelf.a(input.o)
 .data          0x0000000000701280        0x0 0x1 /home/rlyerly/Downloads/popcorn-compiler/test-install/aarch64/lib/libelf.a(x.elfext.o)
 .data          0x0000000000701280        0x0 0x1 /home/rlyerly/Downloads/popcorn-compiler/test-install/aarch64/lib/libelf.a(64.xlatetof.o)
 .data          0x0000000000701280        0x0 0x1 /home/rlyerly/Downloads/popcorn-compiler/test-install/aarch64/lib/libelf.a(gelfshdr.o)
 .data          0x0000000000701280        0x0 0x1 /home/rlyerly/Downloads/popcorn-compiler/test-install/aarch64/lib/libelf.a(swap64.o)
 .data          0x0000000000701280        0x0 0x1 /home/rlyerly/Downloads/popcorn-compiler/test-install/aarch64/lib/libelf.a(verdef_32_tof.o)
 .data          0x0000000000701280        0x0 0x1 /home/rlyerly/Downloads/popcorn-compiler/test-install/aarch64/lib/libelf.a(verdef_32_tom.o)
 .data          0x0000000000701280        0x0 0x1 /home/rlyerly/Downloads/popcorn-compiler/test-install/aarch64/lib/libelf.a(verdef_64_tof.o)
 .data          0x0000000000701280        0x0 0x1 /home/rlyerly/Downloads/popcorn-compiler/test-install/aarch64/lib/libelf.a(verdef_64_tom.o)
 .data          0x0000000000701280        0x0 0x1 /home/rlyerly/Downloads/popcorn-compiler/test-install/aarch64/lib/libelf.a(getscn.o)
 .data          0x0000000000701280        0x0 0x1 /home/rlyerly/Downloads/popcorn-compiler/test-install/aarch64/lib/libelf.a(newscn.o)
 .data          0x0000000000701280        0x0 0x1 /home/rlyerly/Downloads/popcorn-compiler/test-install/aarch64/lib/libelf.a(32.fsize.o)
 .data          0x0000000000701280        0x0 0x4 /home/rlyerly/Downloads/popcorn-compiler/test-install/aarch64/lib/libc.a(__stack_chk_fail.o)
 .data          0x0000000000701280        0x0 0x4 /home/rlyerly/Downloads/popcorn-compiler/test-install/aarch64/lib/libc.a(getenv.o)
 .data          0x0000000000701280        0x0 0x4 /home/rlyerly/Downloads/popcorn-compiler/test-install/aarch64/lib/libc.a(assert.o)
 .data          0x0000000000701280        0x0 0x4 /home/rlyerly/Downloads/popcorn-compiler/test-install/aarch64/lib/libc.a(open.o)
 .data          0x0000000000701280        0x0 0x4 /home/rlyerly/Downloads/popcorn-compiler/test-install/aarch64/lib/libc.a(calloc.o)
 .data          0x0000000000701280        0x0 0x4 /home/rlyerly/Downloads/popcorn-compiler/test-install/aarch64/lib/libc.a(lite_malloc.o)
 .data          0x0000000000701280        0x0 0x4 /home/rlyerly/Downloads/popcorn-compiler/test-install/aarch64/lib/libc.a(malloc.o)
 .data          0x0000000000701280        0x0 0x4 /home/rlyerly/Downloads/popcorn-compiler/test-install/aarch64/lib/libc.a(getrlimit.o)
 .data          0x0000000000701280        0x0 0x4 /home/rlyerly/Downloads/popcorn-compiler/test-install/aarch64/lib/libc.a(syscall.o)
 .data          0x0000000000701280        0x0 0x4 /home/rlyerly/Downloads/popcorn-compiler/test-install/aarch64/lib/libc.a(madvise.o)
 .data          0x0000000000701280        0x0 0x4 /home/rlyerly/Downloads/popcorn-compiler/test-install/aarch64/lib/libc.a(mmap.o)
 .data          0x0000000000701280        0x0 0x4 /home/rlyerly/Downloads/popcorn-compiler/test-install/aarch64/lib/libc.a(mremap.o)
 .data          0x0000000000701280        0x0 0x4 /home/rlyerly/Downloads/popcorn-compiler/test-install/aarch64/lib/libc.a(munmap.o)
 .data          0x0000000000701280        0x0 0x4 /home/rlyerly/Downloads/popcorn-compiler/test-install/aarch64/lib/libc.a(sigaction.o)
 .data          0x0000000000701280        0x0 0x4 /home/rlyerly/Downloads/popcorn-compiler/test-install/aarch64/lib/libc.a(sigemptyset.o)
 .data          0x0000000000701280        0x0 0x4 /home/rlyerly/Downloads/popcorn-compiler/test-install/aarch64/lib/libc.a(sigrtmin.o)
 .data          0x0000000000701280        0x0 0x4 /home/rlyerly/Downloads/popcorn-compiler/test-install/aarch64/lib/libc.a(fclose.o)
 .data          0x0000000000701280        0x0 0x4 /home/rlyerly/Downloads/popcorn-compiler/test-install/aarch64/lib/libc.a(fflush.o)
 .data          0x0000000000701280        0x0 0x4 /home/rlyerly/Downloads/popcorn-compiler/test-install/aarch64/lib/libc.a(fopen.o)
 .data          0x0000000000701280        0x0 0x4 /home/rlyerly/Downloads/popcorn-compiler/test-install/aarch64/lib/libc.a(fprintf.o)
 .data          0x0000000000701280        0x0 0x4 /home/rlyerly/Downloads/popcorn-compiler/test-install/aarch64/lib/libc.a(getline.o)
 .data          0x0000000000701280        0x0 0x4 /home/rlyerly/Downloads/popcorn-compiler/test-install/aarch64/lib/libc.a(perror.o)
 .data          0x0000000000701280        0x0 0x4 /home/rlyerly/Downloads/popcorn-compiler/test-install/aarch64/lib/libc.a(snprintf.o)
 .data          0x0000000000701280        0x0 0x4 /home/rlyerly/Downloads/popcorn-compiler/test-install/aarch64/lib/libc.a(sscanf.o)
 .data          0x0000000000701280        0x0 0x4 /home/rlyerly/Downloads/popcorn-compiler/test-install/aarch64/lib/libc.a(stderr.o)
 .data          0x0000000000701280        0x0 0x4 /home/rlyerly/Downloads/popcorn-compiler/test-install/aarch64/lib/libc.a(vsnprintf.o)
 .data          0x0000000000701280        0x0 0x4 /home/rlyerly/Downloads/popcorn-compiler/test-install/aarch64/lib/libc.a(vsscanf.o)
 .data          0x0000000000701280        0x0 0x4 /home/rlyerly/Downloads/popcorn-compiler/test-install/aarch64/lib/libc.a(strtol.o)
 .data          0x0000000000701280        0x0 0x4 /home/rlyerly/Downloads/popcorn-compiler/test-install/aarch64/lib/libc.a(memcmp.o)
 .data          0x0000000000701280        0x0 0x4 /home/rlyerly/Downloads/popcorn-compiler/test-install/aarch64/lib/libc.a(memmove.o)
 .data          0x0000000000701280        0x0 0x4 /home/rlyerly/Downloads/popcorn-compiler/test-install/aarch64/lib/libc.a(strchr.o)
 .data          0x0000000000701280        0x0 0x4 /home/rlyerly/Downloads/popcorn-compiler/test-install/aarch64/lib/libc.a(strchrnul.o)
 .data          0x0000000000701280        0x0 0x4 /home/rlyerly/Downloads/popcorn-compiler/test-install/aarch64/lib/libc.a(strcmp.o)
 .data          0x0000000000701280        0x0 0x4 /home/rlyerly/Downloads/popcorn-compiler/test-install/aarch64/lib/libc.a(strlen.o)
 .data          0x0000000000701280        0x0 0x4 /home/rlyerly/Downloads/popcorn-compiler/test-install/aarch64/lib/libc.a(strncmp.o)
 .data          0x0000000000701280        0x0 0x4 /home/rlyerly/Downloads/popcorn-compiler/test-install/aarch64/lib/libc.a(__syscall_cp.o)
 .data          0x0000000000701280        0x0 0x4 /home/rlyerly/Downloads/popcorn-compiler/test-install/aarch64/lib/libc.a(pthread_attr_get.o)
 .data          0x0000000000701280        0x0 0x4 /home/rlyerly/Downloads/popcorn-compiler/test-install/aarch64/lib/libc.a(pthread_getattr_np.o)
 .data          0x0000000000701280        0x0 0x4 /home/rlyerly/Downloads/popcorn-compiler/test-install/aarch64/lib/libc.a(pthread_getspecific.o)
 .data          0x0000000000701280        0x0 0x4 /home/rlyerly/Downloads/popcorn-compiler/test-install/aarch64/lib/libc.a(pthread_key_create.o)
 .data          0x0000000000701280        0x0 0x4 /home/rlyerly/Downloads/popcorn-compiler/test-install/aarch64/lib/libc.a(pthread_migrate.o)
 .data          0x0000000000701280        0x0 0x4 /home/rlyerly/Downloads/popcorn-compiler/test-install/aarch64/lib/libc.a(pthread_self.o)
 .data          0x0000000000701280        0x0 0x4 /home/rlyerly/Downloads/popcorn-compiler/test-install/aarch64/lib/libc.a(pthread_setspecific.o)
 .data          0x0000000000701280        0x0 0x4 /home/rlyerly/Downloads/popcorn-compiler/test-install/aarch64/lib/libc.a(close.o)
 .data          0x0000000000701280        0x0 0x4 /home/rlyerly/Downloads/popcorn-compiler/test-install/aarch64/lib/libc.a(getpid.o)
 .data          0x0000000000701280        0x0 0x4 /home/rlyerly/Downloads/popcorn-compiler/test-install/aarch64/lib/libc.a(lseek.o)
 .data          0x0000000000701280        0x0 0x4 /home/rlyerly/Downloads/popcorn-compiler/test-install/aarch64/lib/libc.a(read.o)
 .data          0x0000000000701280        0x0 0x4 /home/rlyerly/Downloads/popcorn-compiler/test-install/aarch64/lib/libc.a(abort.o)
 .data          0x0000000000701280        0x0 0x4 /home/rlyerly/Downloads/popcorn-compiler/test-install/aarch64/lib/libc.a(syscall.o)
 .data          0x0000000000701280        0x0 0x4 /home/rlyerly/Downloads/popcorn-compiler/test-install/aarch64/lib/libc.a(intscan.o)
 .data          0x0000000000701280        0x0 0x4 /home/rlyerly/Downloads/popcorn-compiler/test-install/aarch64/lib/libc.a(shgetc.o)
 .data          0x0000000000701280        0x0 0x4 /home/rlyerly/Downloads/popcorn-compiler/test-install/aarch64/lib/libc.a(expand_heap.o)
 .data          0x0000000000701280        0x0 0x4 /home/rlyerly/Downloads/popcorn-compiler/test-install/aarch64/lib/libc.a(restore.o)
 .data          0x0000000000701280        0x0 0x4 /home/rlyerly/Downloads/popcorn-compiler/test-install/aarch64/lib/libc.a(block.o)
 .data          0x0000000000701280        0x0 0x4 /home/rlyerly/Downloads/popcorn-compiler/test-install/aarch64/lib/libc.a(raise.o)
 .data          0x0000000000701280        0x0 0x4 /home/rlyerly/Downloads/popcorn-compiler/test-install/aarch64/lib/libc.a(__fdopen.o)
 .data          0x0000000000701280        0x0 0x4 /home/rlyerly/Downloads/popcorn-compiler/test-install/aarch64/lib/libc.a(__fmodeflags.o)
 .data          0x0000000000701280        0x0 0x4 /home/rlyerly/Downloads/popcorn-compiler/test-install/aarch64/lib/libc.a(__stdio_read.o)
 .data          0x0000000000701280        0x0 0x4 /home/rlyerly/Downloads/popcorn-compiler/test-install/aarch64/lib/libc.a(__string_read.o)
 .data          0x0000000000701280        0x0 0x4 /home/rlyerly/Downloads/popcorn-compiler/test-install/aarch64/lib/libc.a(__uflow.o)
 .data          0x0000000000701280        0x0 0x4 /home/rlyerly/Downloads/popcorn-compiler/test-install/aarch64/lib/libc.a(fputc.o)
 .data          0x0000000000701280        0x0 0x4 /home/rlyerly/Downloads/popcorn-compiler/test-install/aarch64/lib/libc.a(getdelim.o)
 .data          0x0000000000701280        0x0 0x4 /home/rlyerly/Downloads/popcorn-compiler/test-install/aarch64/lib/libc.a(ofl_add.o)
 .data          0x0000000000701280        0x0 0x4 /home/rlyerly/Downloads/popcorn-compiler/test-install/aarch64/lib/libc.a(vfscanf.o)
 .data          0x0000000000701280        0x0 0x4 /home/rlyerly/Downloads/popcorn-compiler/test-install/aarch64/lib/libc.a(floatscan.o)
 .data          0x0000000000701280        0x0 0x4 /home/rlyerly/Downloads/popcorn-compiler/test-install/aarch64/lib/libc.a(fabs.o)
 .data          0x0000000000701280        0x0 0x4 /home/rlyerly/Downloads/popcorn-compiler/test-install/aarch64/lib/libc.a(copysignl.o)
 .data          0x0000000000701280        0x0 0x4 /home/rlyerly/Downloads/popcorn-compiler/test-install/aarch64/lib/libc.a(fmodl.o)
 .data          0x0000000000701280        0x0 0x4 /home/rlyerly/Downloads/popcorn-compiler/test-install/aarch64/lib/libc.a(scalbn.o)
 .data          0x0000000000701280        0x0 0x4 /home/rlyerly/Downloads/popcorn-compiler/test-install/aarch64/lib/libc.a(scalbnl.o)
 .data          0x0000000000701280        0x0 0x4 /home/rlyerly/Downloads/popcorn-compiler/test-install/aarch64/lib/libc.a(mbrtowc.o)
 .data          0x0000000000701280        0x0 0x4 /home/rlyerly/Downloads/popcorn-compiler/test-install/aarch64/lib/libc.a(mbsinit.o)
 .data          0x0000000000701280        0x0 0x4 /home/rlyerly/Downloads/popcorn-compiler/test-install/aarch64/lib/libc.a(__overflow.o)
 .data          0x0000000000701280        0x0 0x4 /home/rlyerly/Downloads/popcorn-compiler/test-install/aarch64/lib/libc.a(__toread.o)
 .data          0x0000000000701280        0x0 0x4 /home/rlyerly/Downloads/popcorn-compiler/test-install/aarch64/lib/libc.a(internal.o)
 .data          0x0000000000701280        0x0 0x1 /usr/lib/gcc-cross/aarch64-linux-gnu/5/libgcc.a(addtf3.o)
 .data          0x0000000000701280        0x0 0x1 /usr/lib/gcc-cross/aarch64-linux-gnu/5/libgcc.a(divtf3.o)
 .data          0x0000000000701280        0x0 0x1 /usr/lib/gcc-cross/aarch64-linux-gnu/5/libgcc.a(eqtf2.o)
 .data          0x0000000000701280        0x0 0x1 /usr/lib/gcc-cross/aarch64-linux-gnu/5/libgcc.a(getf2.o)
 .data          0x0000000000701280        0x0 0x1 /usr/lib/gcc-cross/aarch64-linux-gnu/5/libgcc.a(letf2.o)
 .data          0x0000000000701280        0x0 0x1 /usr/lib/gcc-cross/aarch64-linux-gnu/5/libgcc.a(multf3.o)
 .data          0x0000000000701280        0x0 0x1 /usr/lib/gcc-cross/aarch64-linux-gnu/5/libgcc.a(subtf3.o)
 .data          0x0000000000701280        0x0 0x1 /usr/lib/gcc-cross/aarch64-linux-gnu/5/libgcc.a(unordtf2.o)
 .data          0x0000000000701280        0x0 0x1 /usr/lib/gcc-cross/aarch64-linux-gnu/5/libgcc.a(fixtfsi.o)
 .data          0x0000000000701280        0x0 0x1 /usr/lib/gcc-cross/aarch64-linux-gnu/5/libgcc.a(fixunstfsi.o)
 .data          0x0000000000701280        0x0 0x1 /usr/lib/gcc-cross/aarch64-linux-gnu/5/libgcc.a(floatsitf.o)
 .data          0x0000000000701280        0x0 0x1 /usr/lib/gcc-cross/aarch64-linux-gnu/5/libgcc.a(floatunsitf.o)
 .data          0x0000000000701280        0x0 0x1 /usr/lib/gcc-cross/aarch64-linux-gnu/5/libgcc.a(extendsftf2.o)
 .data          0x0000000000701280        0x0 0x1 /usr/lib/gcc-cross/aarch64-linux-gnu/5/libgcc.a(extenddftf2.o)
 .data          0x0000000000701280        0x0 0x1 /usr/lib/gcc-cross/aarch64-linux-gnu/5/libgcc.a(trunctfsf2.o)
 .data          0x0000000000701280        0x0 0x1 /usr/lib/gcc-cross/aarch64-linux-gnu/5/libgcc.a(trunctfdf2.o)
 .data          0x0000000000701280        0x0 0x1 /usr/lib/gcc-cross/aarch64-linux-gnu/5/libgcc.a(sfp-exceptions.o)

.bss            0x0000000000800000     0x24f8
 ** common      0x0000000000800000       0x88
 ** zero fill   0x0000000000800088        0x1
 ** zero fill   0x0000000000800089      0xf77
 .bss.__popcorn_stack_base
                0x0000000000801000        0x8 0x8 /home/rlyerly/Downloads/popcorn-compiler/test-install/aarch64/lib/libc.a(__libc_start_main.o)
                0x0000000000801000                __popcorn_stack_base
 .bss.__progname
                0x0000000000801008        0x8 0x8 /home/rlyerly/Downloads/popcorn-compiler/test-install/aarch64/lib/libc.a(libc.o)
                0x0000000000801008                __progname
                0x0000000000801008                program_invocation_short_name
 .bss.__progname_full
                0x0000000000801010        0x8 0x8 /home/rlyerly/Downloads/popcorn-compiler/test-install/aarch64/lib/libc.a(libc.o)
                0x0000000000801010                __progname_full
                0x0000000000801010                program_invocation_name
 ** zero fill   0x0000000000801018        0x8
 .bss.src_stdio_stdout_c_buf
                0x0000000000801020      0x408 0x1 /home/rlyerly/Downloads/popcorn-compiler/test-install/aarch64/lib/libc.a(stdout.o)
 .bss.__environ
                0x0000000000801428        0x8 0x8 /home/rlyerly/Downloads/popcorn-compiler/test-install/aarch64/lib/libc.a(__environ.o)
                0x0000000000801428                ___environ
                0x0000000000801428                __environ
                0x0000000000801428                _environ
                0x0000000000801428                environ
 .bss.src_env___init_tls_c_main_tls
                0x0000000000801430       0x30 0x8 /home/rlyerly/Downloads/popcorn-compiler/test-install/aarch64/lib/libc.a(__init_tls.o)
 .bss.src_env___init_tls_c_builtin_tls
                0x0000000000801460      0x1a8 0x8 /home/rlyerly/Downloads/popcorn-compiler/test-install/aarch64/lib/libc.a(__init_tls.o)
 .bss.src_stdio___stdio_exit_c_dummy_file
                0x0000000000801608        0x8 0x8 /home/rlyerly/Downloads/popcorn-compiler/test-install/aarch64/lib/libc.a(__stdio_exit.o)
                0x0000000000801608                __stdin_used
 .bss.src_stdio_ofl_c_ofl_lock
                0x0000000000801610        0x8 0x4 /home/rlyerly/Downloads/popcorn-compiler/test-install/aarch64/lib/libc.a(ofl.o)
 .bss.src_stdio_ofl_c_ofl_head
                0x0000000000801618        0x8 0x8 /home/rlyerly/Downloads/popcorn-compiler/test-install/aarch64/lib/libc.a(ofl.o)
 .bss.migrate_callback
                0x0000000000801620        0x8 0x8 /home/rlyerly/Downloads/popcorn-compiler/test-install/aarch64/lib/libmigrate.a(migrate.o)
                0x0000000000801620                migrate_callback
 .bss.migrate_callback_data
                0x0000000000801628        0x8 0x8 /home/rlyerly/Downloads/popcorn-compiler/test-install/aarch64/lib/libmigrate.a(migrate.o)
                0x0000000000801628                migrate_callback_data
 .bss.aarch64_fn
                0x0000000000801630        0x8 0x8 /home/rlyerly/Downloads/popcorn-compiler/test-install/aarch64/lib/libstack-transform.a(userspace.o)
                0x0000000000801630                aarch64_fn
 .bss.powerpc64_fn
                0x0000000000801638        0x8 0x8 /home/rlyerly/Downloads/popcorn-compiler/test-install/aarch64/lib/libstack-transform.a(userspace.o)
                0x0000000000801638                powerpc64_fn
 .bss.x86_64_fn
                0x0000000000801640        0x8 0x8 /home/rlyerly/Downloads/popcorn-compiler/test-install/aarch64/lib/libstack-transform.a(userspace.o)
                0x0000000000801640                x86_64_fn
 .bss.src_userspace_c_aarch64_handle
                0x0000000000801648        0x8 0x8 /home/rlyerly/Downloads/popcorn-compiler/test-install/aarch64/lib/libstack-transform.a(userspace.o)
 .bss.src_userspace_c_alloc_aarch64_fn
                0x0000000000801650        0x1 0x1 /home/rlyerly/Downloads/popcorn-compiler/test-install/aarch64/lib/libstack-transform.a(userspace.o)
 ** zero fill   0x0000000000801651        0x7
 .bss.src_userspace_c_powerpc64_handle
                0x0000000000801658        0x8 0x8 /home/rlyerly/Downloads/popcorn-compiler/test-install/aarch64/lib/libstack-transform.a(userspace.o)
 .bss.src_userspace_c_alloc_powerpc64_fn
                0x0000000000801660        0x1 0x1 /home/rlyerly/Downloads/popcorn-compiler/test-install/aarch64/lib/libstack-transform.a(userspace.o)
 ** zero fill   0x0000000000801661        0x7
 .bss.src_userspace_c_x86_64_handle
                0x0000000000801668        0x8 0x8 /home/rlyerly/Downloads/popcorn-compiler/test-install/aarch64/lib/libstack-transform.a(userspace.o)
 .bss.src_userspace_c_alloc_x86_64_fn
                0x0000000000801670        0x1 0x1 /home/rlyerly/Downloads/popcorn-compiler/test-install/aarch64/lib/libstack-transform.a(userspace.o)
 ** zero fill   0x0000000000801671        0x3
 .bss.src_userspace_c_stack_bounds_key
                0x0000000000801674        0x4 0x4 /home/rlyerly/Downloads/popcorn-compiler/test-install/aarch64/lib/libstack-transform.a(userspace.o)
 .bss._elf_fill
                0x0000000000801678        0x4 0x4 /home/rlyerly/Downloads/popcorn-compiler/test-install/aarch64/lib/libelf.a(data.o)
                0x0000000000801678                _elf_fill
 .bss._elf_errno
                0x000000000080167c        0x4 0x4 /home/rlyerly/Downloads/popcorn-compiler/test-install/aarch64/lib/libelf.a(data.o)
                0x000000000080167c                _elf_errno
 .bss._elf_version
                0x0000000000801680        0x4 0x4 /home/rlyerly/Downloads/popcorn-compiler/test-install/aarch64/lib/libelf.a(data.o)
                0x0000000000801680                _elf_version
 ** zero fill   0x0000000000801684        0x4
 .bss.src_malloc_lite_malloc_c___simple_malloc_cur
                0x0000000000801688        0x8 0x8 /home/rlyerly/Downloads/popcorn-compiler/test-install/aarch64/lib/libc.a(lite_malloc.o)
 .bss.src_malloc_lite_malloc_c___simple_malloc_end
                0x0000000000801690        0x8 0x8 /home/rlyerly/Downloads/popcorn-compiler/test-install/aarch64/lib/libc.a(lite_malloc.o)
 .bss.src_malloc_lite_malloc_c___simple_malloc_lock
                0x0000000000801698        0x8 0x4 /home/rlyerly/Downloads/popcorn-compiler/test-install/aarch64/lib/libc.a(lite_malloc.o)
 .bss.src_malloc_malloc_c_mal
                0x00000000008016a0      0x610 0x8 /home/rlyerly/Downloads/popcorn-compiler/test-install/aarch64/lib/libc.a(malloc.o)
 .bss.src_malloc_malloc_c_expand_heap_heap_lock
                0x0000000000801cb0        0x8 0x4 /home/rlyerly/Downloads/popcorn-compiler/test-install/aarch64/lib/libc.a(malloc.o)
 .bss.src_malloc_malloc_c_expand_heap_end
                0x0000000000801cb8        0x8 0x8 /home/rlyerly/Downloads/popcorn-compiler/test-install/aarch64/lib/libc.a(malloc.o)
 .bss.src_signal_sigaction_c_handler_set
                0x0000000000801cc0        0x8 0x8 /home/rlyerly/Downloads/popcorn-compiler/test-install/aarch64/lib/libc.a(sigaction.o)
 .bss.src_signal_sigaction_c_unmask_done
                0x0000000000801cc8        0x1 0x1 /home/rlyerly/Downloads/popcorn-compiler/test-install/aarch64/lib/libc.a(sigaction.o)
 ** zero fill   0x0000000000801cc9        0x7
 .bss.src_stdio_fflush_c_dummy
                0x0000000000801cd0        0x8 0x8 /home/rlyerly/Downloads/popcorn-compiler/test-install/aarch64/lib/libc.a(fflush.o)
 .bss.src_stdio_stderr_c_buf
                0x0000000000801cd8        0x8 0x1 /home/rlyerly/Downloads/popcorn-compiler/test-install/aarch64/lib/libc.a(stderr.o)
 .bss.__pthread_tsd_main
                0x0000000000801ce0      0x400 0x8 /home/rlyerly/Downloads/popcorn-compiler/test-install/aarch64/lib/libc.a(pthread_key_create.o)
                0x0000000000801ce0                __pthread_tsd_main
 .bss.src_thread_pthread_key_create_c_keys
                0x00000000008020e0      0x400 0x8 /home/rlyerly/Downloads/popcorn-compiler/test-install/aarch64/lib/libc.a(pthread_key_create.o)
 .bss.src_malloc_expand_heap_c___expand_heap_brk
                0x00000000008024e0        0x8 0x8 /home/rlyerly/Downloads/popcorn-compiler/test-install/aarch64/lib/libc.a(expand_heap.o)
 .bss.src_malloc_expand_heap_c___expand_heap_mmap_step
                0x00000000008024e8        0x4 0x4 /home/rlyerly/Downloads/popcorn-compiler/test-install/aarch64/lib/libc.a(expand_heap.o)
 .bss.src_multibyte_mbrtowc_c_mbrtowc_internal_state
                0x00000000008024ec        0x4 0x4 /home/rlyerly/Downloads/popcorn-compiler/test-install/aarch64/lib/libc.a(mbrtowc.o)
 .bss.__num_triggers
                0x00000000008024f0        0x8 0x8 /home/rlyerly/Downloads/popcorn-compiler/test-install/aarch64/lib/libmigrate.a(trigger.o)
                0x00000000008024f0                __num_triggers
 .bss           0x00000000008024f8        0x0 0x4 main.o
 .bss           0x00000000008024f8        0x0 0x4 fizzbuzz.o
 .bss           0x00000000008024f8        0x0 0x4 /home/rlyerly/Downloads/popcorn-compiler/test-install/aarch64/lib/crt1.o
 .bss           0x00000000008024f8        0x0 0x4 /home/rlyerly/Downloads/popcorn-compiler/test-install/aarch64/lib/libc.a(__libc_start_main.o)
 .bss           0x00000000008024f8        0x0 0x4 /home/rlyerly/Downloads/popcorn-compiler/test-install/aarch64/lib/libc.a(exit.o)
 .bss           0x00000000008024f8        0x0 0x4 /home/rlyerly/Downloads/popcorn-compiler/test-install/aarch64/lib/libc.a(libc.o)
 .bss           0x00000000008024f8        0x0 0x4 /home/rlyerly/Downloads/popcorn-compiler/test-install/aarch64/lib/libc.a(printf.o)
 .bss           0x00000000008024f8        0x0 0x4 /home/rlyerly/Downloads/popcorn-compiler/test-install/aarch64/lib/libc.a(stdout.o)
 .bss           0x00000000008024f8        0x0 0x4 /home/rlyerly/Downloads/popcorn-compiler/test-install/aarch64/lib/libc.a(vfprintf.o)
 .bss           0x00000000008024f8        0x0 0x4 /home/rlyerly/Downloads/popcorn-compiler/test-install/aarch64/lib/libc.a(atoi.o)
 .bss           0x00000000008024f8        0x0 0x4 /home/rlyerly/Downloads/popcorn-compiler/test-install/aarch64/lib/libc.a(memset.o)
 .bss           0x00000000008024f8        0x0 0x4 /home/rlyerly/Downloads/popcorn-compiler/test-install/aarch64/lib/libc.a(strnlen.o)
 .bss           0x00000000008024f8        0x0 0x4 /home/rlyerly/Downloads/popcorn-compiler/test-install/aarch64/lib/libc.a(__environ.o)
 .bss           0x00000000008024f8        0x0 0x4 /home/rlyerly/Downloads/popcorn-compiler/test-install/aarch64/lib/libc.a(__init_tls.o)
 .bss           0x00000000008024f8        0x0 0x4 /home/rlyerly/Downloads/popcorn-compiler/test-install/aarch64/lib/libc.a(__errno_location.o)
 .bss           0x00000000008024f8        0x0 0x4 /home/rlyerly/Downloads/popcorn-compiler/test-install/aarch64/lib/libc.a(strerror.o)
 .bss           0x00000000008024f8        0x0 0x4 /home/rlyerly/Downloads/popcorn-compiler/test-install/aarch64/lib/libc.a(_Exit.o)
 .bss           0x00000000008024f8        0x0 0x4 /home/rlyerly/Downloads/popcorn-compiler/test-install/aarch64/lib/libc.a(__lctrans.o)
 .bss           0x00000000008024f8        0x0 0x4 /home/rlyerly/Downloads/popcorn-compiler/test-install/aarch64/lib/libc.a(__fpclassifyl.o)
 .bss           0x00000000008024f8        0x0 0x4 /home/rlyerly/Downloads/popcorn-compiler/test-install/aarch64/lib/libc.a(__signbitl.o)
 .bss           0x00000000008024f8        0x0 0x4 /home/rlyerly/Downloads/popcorn-compiler/test-install/aarch64/lib/libc.a(frexpl.o)
 .bss           0x00000000008024f8        0x0 0x4 /home/rlyerly/Downloads/popcorn-compiler/test-install/aarch64/lib/libc.a(wctomb.o)
 .bss           0x00000000008024f8        0x0 0x4 /home/rlyerly/Downloads/popcorn-compiler/test-install/aarch64/lib/libc.a(__lockfile.o)
 .bss           0x00000000008024f8        0x0 0x4 /home/rlyerly/Downloads/popcorn-compiler/test-install/aarch64/lib/libc.a(__stdio_close.o)
 .bss           0x00000000008024f8        0x0 0x4 /home/rlyerly/Downloads/popcorn-compiler/test-install/aarch64/lib/libc.a(__stdio_seek.o)
 .bss           0x00000000008024f8        0x0 0x4 /home/rlyerly/Downloads/popcorn-compiler/test-install/aarch64/lib/libc.a(__stdout_write.o)
 .bss           0x00000000008024f8        0x0 0x4 /home/rlyerly/Downloads/popcorn-compiler/test-install/aarch64/lib/libc.a(fwrite.o)
 .bss           0x00000000008024f8        0x0 0x4 /home/rlyerly/Downloads/popcorn-compiler/test-install/aarch64/lib/libc.a(memchr.o)
 .bss           0x00000000008024f8        0x0 0x4 /home/rlyerly/Downloads/popcorn-compiler/test-install/aarch64/lib/libc.a(memcpy.o)
 .bss           0x00000000008024f8        0x0 0x4 /home/rlyerly/Downloads/popcorn-compiler/test-install/aarch64/lib/libc.a(__wait.o)
 .bss           0x00000000008024f8        0x0 0x4 /home/rlyerly/Downloads/popcorn-compiler/test-install/aarch64/lib/libc.a(__set_thread_area.o)
 .bss           0x00000000008024f8        0x0 0x4 /home/rlyerly/Downloads/popcorn-compiler/test-install/aarch64/lib/libc.a(syscall_ret.o)
 .bss           0x00000000008024f8        0x0 0x4 /home/rlyerly/Downloads/popcorn-compiler/test-install/aarch64/lib/libc.a(wcrtomb.o)
 .bss           0x00000000008024f8        0x0 0x4 /home/rlyerly/Downloads/popcorn-compiler/test-install/aarch64/lib/libc.a(__stdio_write.o)
 .bss           0x00000000008024f8        0x0 0x4 /home/rlyerly/Downloads/popcorn-compiler/test-install/aarch64/lib/libc.a(__towrite.o)
 .bss           0x00000000008024f8        0x0 0x4 /home/rlyerly/Downloads/popcorn-compiler/test-install/aarch64/lib/libc.a(__stdio_exit.o)
 .bss           0x00000000008024f8        0x0 0x4 /home/rlyerly/Downloads/popcorn-compiler/test-install/aarch64/lib/libc.a(ofl.o)
 .bss           0x00000000008024f8        0x0 0x4 /home/rlyerly/Downloads/popcorn-compiler/test-install/aarch64/lib/libc.a(__lock.o)
 .bss           0x00000000008024f8        0x0 0x4 /home/rlyerly/Downloads/popcorn-compiler/test-install/aarch64/lib/libmigrate.a(migrate.o)
 .bss           0x00000000008024f8        0x0 0x4 /home/rlyerly/Downloads/popcorn-compiler/test-install/aarch64/lib/libmigrate.a(trigger.o)
 .bss           0x00000000008024f8        0x0 0x4 /home/rlyerly/Downloads/popcorn-compiler/test-install/aarch64/lib/libstack-transform.a(userspace.o)
 .bss           0x00000000008024f8        0x0 0x4 /home/rlyerly/Downloads/popcorn-compiler/test-install/aarch64/lib/libstack-transform.a(init.o)
 .bss           0x00000000008024f8        0x0 0x4 /home/rlyerly/Downloads/popcorn-compiler/test-install/aarch64/lib/libstack-transform.a(rewrite.o)
 .bss           0x00000000008024f8        0x0 0x4 /home/rlyerly/Downloads/popcorn-compiler/test-install/aarch64/lib/libstack-transform.a(unwind.o)
 .bss           0x00000000008024f8        0x0 0x4 /home/rlyerly/Downloads/popcorn-compiler/test-install/aarch64/lib/libstack-transform.a(util.o)
 .bss           0x00000000008024f8        0x0 0x4 /home/rlyerly/Downloads/popcorn-compiler/test-install/aarch64/lib/libstack-transform.a(properties.o)
 .bss           0x00000000008024f8        0x0 0x4 /home/rlyerly/Downloads/popcorn-compiler/test-install/aarch64/lib/libstack-transform.a(regs.o)
 .bss           0x00000000008024f8        0x0 0x4 /home/rlyerly/Downloads/popcorn-compiler/test-install/aarch64/lib/libstack-transform.a(properties.o)
 .bss           0x00000000008024f8        0x0 0x4 /home/rlyerly/Downloads/popcorn-compiler/test-install/aarch64/lib/libstack-transform.a(regs.o)
 .bss           0x00000000008024f8        0x0 0x4 /home/rlyerly/Downloads/popcorn-compiler/test-install/aarch64/lib/libstack-transform.a(properties.o)
 .bss           0x00000000008024f8        0x0 0x4 /home/rlyerly/Downloads/popcorn-compiler/test-install/aarch64/lib/libstack-transform.a(regs.o)
 .bss           0x00000000008024f8        0x0 0x4 /home/rlyerly/Downloads/popcorn-compiler/test-install/aarch64/lib/libstack-transform.a(data.o)
 .bss           0x00000000008024f8        0x0 0x1 /home/rlyerly/Downloads/popcorn-compiler/test-install/aarch64/lib/libelf.a(begin.o)
 .bss           0x00000000008024f8        0x0 0x1 /home/rlyerly/Downloads/popcorn-compiler/test-install/aarch64/lib/libelf.a(end.o)
 .bss           0x00000000008024f8        0x0 0x1 /home/rlyerly/Downloads/popcorn-compiler/test-install/aarch64/lib/libelf.a(getdata.o)
 .bss           0x00000000008024f8        0x0 0x1 /home/rlyerly/Downloads/popcorn-compiler/test-install/aarch64/lib/libelf.a(getident.o)
 .bss           0x00000000008024f8        0x0 0x1 /home/rlyerly/Downloads/popcorn-compiler/test-install/aarch64/lib/libelf.a(nextscn.o)
 .bss           0x00000000008024f8        0x0 0x1 /home/rlyerly/Downloads/popcorn-compiler/test-install/aarch64/lib/libelf.a(strptr.o)
 .bss           0x00000000008024f8        0x0 0x1 /home/rlyerly/Downloads/popcorn-compiler/test-install/aarch64/lib/libelf.a(version.o)
 .bss           0x00000000008024f8        0x0 0x1 /home/rlyerly/Downloads/popcorn-compiler/test-install/aarch64/lib/libelf.a(32.getehdr.o)
 .bss           0x00000000008024f8        0x0 0x1 /home/rlyerly/Downloads/popcorn-compiler/test-install/aarch64/lib/libelf.a(32.xlatetof.o)
 .bss           0x00000000008024f8        0x0 0x1 /home/rlyerly/Downloads/popcorn-compiler/test-install/aarch64/lib/libelf.a(cook.o)
 .bss           0x00000000008024f8        0x0 0x1 /home/rlyerly/Downloads/popcorn-compiler/test-install/aarch64/lib/libelf.a(data.o)
 .bss           0x00000000008024f8        0x0 0x1 /home/rlyerly/Downloads/popcorn-compiler/test-install/aarch64/lib/libelf.a(input.o)
 .bss           0x00000000008024f8        0x0 0x1 /home/rlyerly/Downloads/popcorn-compiler/test-install/aarch64/lib/libelf.a(x.elfext.o)
 .bss           0x00000000008024f8        0x0 0x1 /home/rlyerly/Downloads/popcorn-compiler/test-install/aarch64/lib/libelf.a(64.xlatetof.o)
 .bss           0x00000000008024f8        0x0 0x1 /home/rlyerly/Downloads/popcorn-compiler/test-install/aarch64/lib/libelf.a(gelfshdr.o)
 .bss           0x00000000008024f8        0x0 0x1 /home/rlyerly/Downloads/popcorn-compiler/test-install/aarch64/lib/libelf.a(swap64.o)
 .bss           0x00000000008024f8        0x0 0x1 /home/rlyerly/Downloads/popcorn-compiler/test-install/aarch64/lib/libelf.a(verdef_32_tof.o)
 .bss           0x00000000008024f8        0x0 0x1 /home/rlyerly/Downloads/popcorn-compiler/test-install/aarch64/lib/libelf.a(verdef_32_tom.o)
 .bss           0x00000000008024f8        0x0 0x1 /home/rlyerly/Downloads/popcorn-compiler/test-install/aarch64/lib/libelf.a(verdef_64_tof.o)
 .bss           0x00000000008024f8        0x0 0x1 /home/rlyerly/Downloads/popcorn-compiler/test-install/aarch64/lib/libelf.a(verdef_64_tom.o)
 .bss           0x00000000008024f8        0x0 0x1 /home/rlyerly/Downloads/popcorn-compiler/test-install/aarch64/lib/libelf.a(getscn.o)
 .bss           0x00000000008024f8        0x0 0x1 /home/rlyerly/Downloads/popcorn-compiler/test-install/aarch64/lib/libelf.a(newscn.o)
 .bss           0x00000000008024f8        0x0 0x1 /home/rlyerly/Downloads/popcorn-compiler/test-install/aarch64/lib/libelf.a(32.fsize.o)
 .bss           0x00000000008024f8        0x0 0x4 /home/rlyerly/Downloads/popcorn-compiler/test-install/aarch64/lib/libc.a(__stack_chk_fail.o)
 .bss           0x00000000008024f8        0x0 0x4 /home/rlyerly/Downloads/popcorn-compiler/test-install/aarch64/lib/libc.a(getenv.o)
 .bss           0x00000000008024f8        0x0 0x4 /home/rlyerly/Downloads/popcorn-compiler/test-install/aarch64/lib/libc.a(assert.o)
 .bss           0x00000000008024f8        0x0 0x4 /home/rlyerly/Downloads/popcorn-compiler/test-install/aarch64/lib/libc.a(open.o)
 .bss           0x00000000008024f8        0x0 0x4 /home/rlyerly/Downloads/popcorn-compiler/test-install/aarch64/lib/libc.a(calloc.o)
 .bss           0x00000000008024f8        0x0 0x4 /home/rlyerly/Downloads/popcorn-compiler/test-install/aarch64/lib/libc.a(lite_malloc.o)
 .bss           0x00000000008024f8        0x0 0x4 /home/rlyerly/Downloads/popcorn-compiler/test-install/aarch64/lib/libc.a(malloc.o)
 .bss           0x00000000008024f8        0x0 0x4 /home/rlyerly/Downloads/popcorn-compiler/test-install/aarch64/lib/libc.a(getrlimit.o)
 .bss           0x00000000008024f8        0x0 0x4 /home/rlyerly/Downloads/popcorn-compiler/test-install/aarch64/lib/libc.a(syscall.o)
 .bss           0x00000000008024f8        0x0 0x4 /home/rlyerly/Downloads/popcorn-compiler/test-install/aarch64/lib/libc.a(madvise.o)
 .bss           0x00000000008024f8        0x0 0x4 /home/rlyerly/Downloads/popcorn-compiler/test-install/aarch64/lib/libc.a(mmap.o)
 .bss           0x00000000008024f8        0x0 0x4 /home/rlyerly/Downloads/popcorn-compiler/test-install/aarch64/lib/libc.a(mremap.o)
 .bss           0x00000000008024f8        0x0 0x4 /home/rlyerly/Downloads/popcorn-compiler/test-install/aarch64/lib/libc.a(munmap.o)
 .bss           0x00000000008024f8        0x0 0x4 /home/rlyerly/Downloads/popcorn-compiler/test-install/aarch64/lib/libc.a(sigaction.o)
 .bss           0x00000000008024f8        0x0 0x4 /home/rlyerly/Downloads/popcorn-compiler/test-install/aarch64/lib/libc.a(sigemptyset.o)
 .bss           0x00000000008024f8        0x0 0x4 /home/rlyerly/Downloads/popcorn-compiler/test-install/aarch64/lib/libc.a(sigrtmin.o)
 .bss           0x00000000008024f8        0x0 0x4 /home/rlyerly/Downloads/popcorn-compiler/test-install/aarch64/lib/libc.a(fclose.o)
 .bss           0x00000000008024f8        0x0 0x4 /home/rlyerly/Downloads/popcorn-compiler/test-install/aarch64/lib/libc.a(fflush.o)
 .bss           0x00000000008024f8        0x0 0x4 /home/rlyerly/Downloads/popcorn-compiler/test-install/aarch64/lib/libc.a(fopen.o)
 .bss           0x00000000008024f8        0x0 0x4 /home/rlyerly/Downloads/popcorn-compiler/test-install/aarch64/lib/libc.a(fprintf.o)
 .bss           0x00000000008024f8        0x0 0x4 /home/rlyerly/Downloads/popcorn-compiler/test-install/aarch64/lib/libc.a(getline.o)
 .bss           0x00000000008024f8        0x0 0x4 /home/rlyerly/Downloads/popcorn-compiler/test-install/aarch64/lib/libc.a(perror.o)
 .bss           0x00000000008024f8        0x0 0x4 /home/rlyerly/Downloads/popcorn-compiler/test-install/aarch64/lib/libc.a(snprintf.o)
 .bss           0x00000000008024f8        0x0 0x4 /home/rlyerly/Downloads/popcorn-compiler/test-install/aarch64/lib/libc.a(sscanf.o)
 .bss           0x00000000008024f8        0x0 0x4 /home/rlyerly/Downloads/popcorn-compiler/test-install/aarch64/lib/libc.a(stderr.o)
 .bss           0x00000000008024f8        0x0 0x4 /home/rlyerly/Downloads/popcorn-compiler/test-install/aarch64/lib/libc.a(vsnprintf.o)
 .bss           0x00000000008024f8        0x0 0x4 /home/rlyerly/Downloads/popcorn-compiler/test-install/aarch64/lib/libc.a(vsscanf.o)
 .bss           0x00000000008024f8        0x0 0x4 /home/rlyerly/Downloads/popcorn-compiler/test-install/aarch64/lib/libc.a(strtol.o)
 .bss           0x00000000008024f8        0x0 0x4 /home/rlyerly/Downloads/popcorn-compiler/test-install/aarch64/lib/libc.a(memcmp.o)
 .bss           0x00000000008024f8        0x0 0x4 /home/rlyerly/Downloads/popcorn-compiler/test-install/aarch64/lib/libc.a(memmove.o)
 .bss           0x00000000008024f8        0x0 0x4 /home/rlyerly/Downloads/popcorn-compiler/test-install/aarch64/lib/libc.a(strchr.o)
 .bss           0x00000000008024f8        0x0 0x4 /home/rlyerly/Downloads/popcorn-compiler/test-install/aarch64/lib/libc.a(strchrnul.o)
 .bss           0x00000000008024f8        0x0 0x4 /home/rlyerly/Downloads/popcorn-compiler/test-install/aarch64/lib/libc.a(strcmp.o)
 .bss           0x00000000008024f8        0x0 0x4 /home/rlyerly/Downloads/popcorn-compiler/test-install/aarch64/lib/libc.a(strlen.o)
 .bss           0x00000000008024f8        0x0 0x4 /home/rlyerly/Downloads/popcorn-compiler/test-install/aarch64/lib/libc.a(strncmp.o)
 .bss           0x00000000008024f8        0x0 0x4 /home/rlyerly/Downloads/popcorn-compiler/test-install/aarch64/lib/libc.a(__syscall_cp.o)
 .bss           0x00000000008024f8        0x0 0x4 /home/rlyerly/Downloads/popcorn-compiler/test-install/aarch64/lib/libc.a(pthread_attr_get.o)
 .bss           0x00000000008024f8        0x0 0x4 /home/rlyerly/Downloads/popcorn-compiler/test-install/aarch64/lib/libc.a(pthread_getattr_np.o)
 .bss           0x00000000008024f8        0x0 0x4 /home/rlyerly/Downloads/popcorn-compiler/test-install/aarch64/lib/libc.a(pthread_getspecific.o)
 .bss           0x00000000008024f8        0x0 0x4 /home/rlyerly/Downloads/popcorn-compiler/test-install/aarch64/lib/libc.a(pthread_key_create.o)
 .bss           0x00000000008024f8        0x0 0x4 /home/rlyerly/Downloads/popcorn-compiler/test-install/aarch64/lib/libc.a(pthread_migrate.o)
 .bss           0x00000000008024f8        0x0 0x4 /home/rlyerly/Downloads/popcorn-compiler/test-install/aarch64/lib/libc.a(pthread_self.o)
 .bss           0x00000000008024f8        0x0 0x4 /home/rlyerly/Downloads/popcorn-compiler/test-install/aarch64/lib/libc.a(pthread_setspecific.o)
 .bss           0x00000000008024f8        0x0 0x4 /home/rlyerly/Downloads/popcorn-compiler/test-install/aarch64/lib/libc.a(close.o)
 .bss           0x00000000008024f8        0x0 0x4 /home/rlyerly/Downloads/popcorn-compiler/test-install/aarch64/lib/libc.a(getpid.o)
 .bss           0x00000000008024f8        0x0 0x4 /home/rlyerly/Downloads/popcorn-compiler/test-install/aarch64/lib/libc.a(lseek.o)
 .bss           0x00000000008024f8        0x0 0x4 /home/rlyerly/Downloads/popcorn-compiler/test-install/aarch64/lib/libc.a(read.o)
 .bss           0x00000000008024f8        0x0 0x4 /home/rlyerly/Downloads/popcorn-compiler/test-install/aarch64/lib/libc.a(abort.o)
 .bss           0x00000000008024f8        0x0 0x4 /home/rlyerly/Downloads/popcorn-compiler/test-install/aarch64/lib/libc.a(syscall.o)
 .bss           0x00000000008024f8        0x0 0x4 /home/rlyerly/Downloads/popcorn-compiler/test-install/aarch64/lib/libc.a(intscan.o)
 .bss           0x00000000008024f8        0x0 0x4 /home/rlyerly/Downloads/popcorn-compiler/test-install/aarch64/lib/libc.a(shgetc.o)
 .bss           0x00000000008024f8        0x0 0x4 /home/rlyerly/Downloads/popcorn-compiler/test-install/aarch64/lib/libc.a(expand_heap.o)
 .bss           0x00000000008024f8        0x0 0x4 /home/rlyerly/Downloads/popcorn-compiler/test-install/aarch64/lib/libc.a(restore.o)
 .bss           0x00000000008024f8        0x0 0x4 /home/rlyerly/Downloads/popcorn-compiler/test-install/aarch64/lib/libc.a(block.o)
 .bss           0x00000000008024f8        0x0 0x4 /home/rlyerly/Downloads/popcorn-compiler/test-install/aarch64/lib/libc.a(raise.o)
 .bss           0x00000000008024f8        0x0 0x4 /home/rlyerly/Downloads/popcorn-compiler/test-install/aarch64/lib/libc.a(__fdopen.o)
 .bss           0x00000000008024f8        0x0 0x4 /home/rlyerly/Downloads/popcorn-compiler/test-install/aarch64/lib/libc.a(__fmodeflags.o)
 .bss           0x00000000008024f8        0x0 0x4 /home/rlyerly/Downloads/popcorn-compiler/test-install/aarch64/lib/libc.a(__stdio_read.o)
 .bss           0x00000000008024f8        0x0 0x4 /home/rlyerly/Downloads/popcorn-compiler/test-install/aarch64/lib/libc.a(__string_read.o)
 .bss           0x00000000008024f8        0x0 0x4 /home/rlyerly/Downloads/popcorn-compiler/test-install/aarch64/lib/libc.a(__uflow.o)
 .bss           0x00000000008024f8        0x0 0x4 /home/rlyerly/Downloads/popcorn-compiler/test-install/aarch64/lib/libc.a(fputc.o)
 .bss           0x00000000008024f8        0x0 0x4 /home/rlyerly/Downloads/popcorn-compiler/test-install/aarch64/lib/libc.a(getdelim.o)
 .bss           0x00000000008024f8        0x0 0x4 /home/rlyerly/Downloads/popcorn-compiler/test-install/aarch64/lib/libc.a(ofl_add.o)
 .bss           0x00000000008024f8        0x0 0x4 /home/rlyerly/Downloads/popcorn-compiler/test-install/aarch64/lib/libc.a(vfscanf.o)
 .bss           0x00000000008024f8        0x0 0x4 /home/rlyerly/Downloads/popcorn-compiler/test-install/aarch64/lib/libc.a(floatscan.o)
 .bss           0x00000000008024f8        0x0 0x4 /home/rlyerly/Downloads/popcorn-compiler/test-install/aarch64/lib/libc.a(fabs.o)
 .bss           0x00000000008024f8        0x0 0x4 /home/rlyerly/Downloads/popcorn-compiler/test-install/aarch64/lib/libc.a(copysignl.o)
 .bss           0x00000000008024f8        0x0 0x4 /home/rlyerly/Downloads/popcorn-compiler/test-install/aarch64/lib/libc.a(fmodl.o)
 .bss           0x00000000008024f8        0x0 0x4 /home/rlyerly/Downloads/popcorn-compiler/test-install/aarch64/lib/libc.a(scalbn.o)
 .bss           0x00000000008024f8        0x0 0x4 /home/rlyerly/Downloads/popcorn-compiler/test-install/aarch64/lib/libc.a(scalbnl.o)
 .bss           0x00000000008024f8        0x0 0x4 /home/rlyerly/Downloads/popcorn-compiler/test-install/aarch64/lib/libc.a(mbrtowc.o)
 .bss           0x00000000008024f8        0x0 0x4 /home/rlyerly/Downloads/popcorn-compiler/test-install/aarch64/lib/libc.a(mbsinit.o)
 .bss           0x00000000008024f8        0x0 0x4 /home/rlyerly/Downloads/popcorn-compiler/test-install/aarch64/lib/libc.a(__overflow.o)
 .bss           0x00000000008024f8        0x0 0x4 /home/rlyerly/Downloads/popcorn-compiler/test-install/aarch64/lib/libc.a(__toread.o)
 .bss           0x00000000008024f8        0x0 0x4 /home/rlyerly/Downloads/popcorn-compiler/test-install/aarch64/lib/libc.a(internal.o)
 .bss           0x00000000008024f8        0x0 0x1 /usr/lib/gcc-cross/aarch64-linux-gnu/5/libgcc.a(addtf3.o)
 .bss           0x00000000008024f8        0x0 0x1 /usr/lib/gcc-cross/aarch64-linux-gnu/5/libgcc.a(divtf3.o)
 .bss           0x00000000008024f8        0x0 0x1 /usr/lib/gcc-cross/aarch64-linux-gnu/5/libgcc.a(eqtf2.o)
 .bss           0x00000000008024f8        0x0 0x1 /usr/lib/gcc-cross/aarch64-linux-gnu/5/libgcc.a(getf2.o)
 .bss           0x00000000008024f8        0x0 0x1 /usr/lib/gcc-cross/aarch64-linux-gnu/5/libgcc.a(letf2.o)
 .bss           0x00000000008024f8        0x0 0x1 /usr/lib/gcc-cross/aarch64-linux-gnu/5/libgcc.a(multf3.o)
 .bss           0x00000000008024f8        0x0 0x1 /usr/lib/gcc-cross/aarch64-linux-gnu/5/libgcc.a(subtf3.o)
 .bss           0x00000000008024f8        0x0 0x1 /usr/lib/gcc-cross/aarch64-linux-gnu/5/libgcc.a(unordtf2.o)
 .bss           0x00000000008024f8        0x0 0x1 /usr/lib/gcc-cross/aarch64-linux-gnu/5/libgcc.a(fixtfsi.o)
 .bss           0x00000000008024f8        0x0 0x1 /usr/lib/gcc-cross/aarch64-linux-gnu/5/libgcc.a(fixunstfsi.o)
 .bss           0x00000000008024f8        0x0 0x1 /usr/lib/gcc-cross/aarch64-linux-gnu/5/libgcc.a(floatsitf.o)
 .bss           0x00000000008024f8        0x0 0x1 /usr/lib/gcc-cross/aarch64-linux-gnu/5/libgcc.a(floatunsitf.o)
 .bss           0x00000000008024f8        0x0 0x1 /usr/lib/gcc-cross/aarch64-linux-gnu/5/libgcc.a(extendsftf2.o)
 .bss           0x00000000008024f8        0x0 0x1 /usr/lib/gcc-cross/aarch64-linux-gnu/5/libgcc.a(extenddftf2.o)
 .bss           0x00000000008024f8        0x0 0x1 /usr/lib/gcc-cross/aarch64-linux-gnu/5/libgcc.a(trunctfsf2.o)
 .bss           0x00000000008024f8        0x0 0x1 /usr/lib/gcc-cross/aarch64-linux-gnu/5/libgcc.a(trunctfdf2.o)
 .bss           0x00000000008024f8        0x0 0x1 /usr/lib/gcc-cross/aarch64-linux-gnu/5/libgcc.a(sfp-exceptions.o)

.bss.__response_timings
                0x00000000008024f8     0x2000
 .bss.__response_timings
                0x00000000008024f8     0x2000 0x8 /home/rlyerly/Downloads/popcorn-compiler/test-install/aarch64/lib/libmigrate.a(trigger.o)
                0x00000000008024f8                __response_timings

.llvm_stackmaps
                0x0000000000805000      0x9f8
 .llvm_stackmaps
                0x0000000000805000       0xd8 0x8 main.o
 .llvm_stackmaps
                0x00000000008050d8      0x118 0x8 fizzbuzz.o
 .llvm_stackmaps
                0x00000000008051f0       0x48 0x8 /home/rlyerly/Downloads/popcorn-compiler/test-install/aarch64/lib/libc.a(__libc_start_main.o)
 .llvm_stackmaps
                0x0000000000805238      0x520 0x8 /home/rlyerly/Downloads/popcorn-compiler/test-install/aarch64/lib/libmigrate.a(migrate.o)
 .llvm_stackmaps
                0x0000000000805758      0x2a0 0x8 /home/rlyerly/Downloads/popcorn-compiler/test-install/aarch64/lib/libmigrate.a(trigger.o)

.tdata          0x0000000000900000     0x1000
 ** zero fill   0x0000000000900000        0x1
 ** zero fill   0x0000000000900001      0xfff

.tbss           0x0000000000a00000     0x1000
 ** zero fill   0x0000000000a00000        0x1
 ** zero fill   0x0000000000a00001      0xfff

.init_array     0x0000000000a01000       0x18
 .init_array    0x0000000000a01000        0x8 0x8 /home/rlyerly/Downloads/popcorn-compiler/test-install/aarch64/lib/libmigrate.a(migrate.o)
 .init_array    0x0000000000a01008        0x8 0x8 /home/rlyerly/Downloads/popcorn-compiler/test-install/aarch64/lib/libmigrate.a(trigger.o)
 .init_array    0x0000000000a01010        0x8 0x8 /home/rlyerly/Downloads/popcorn-compiler/test-install/aarch64/lib/libstack-transform.a(init.o)

.fini_array     0x0000000000a01018        0x8
 .fini_array    0x0000000000a01018        0x8 0x8 /home/rlyerly/Downloads/popcorn-compiler/test-install/aarch64/lib/libmigrate.a(trigger.o)

.data.rel.ro    0x0000000000a01020       0x38
 .data.rel.ro.local
                0x0000000000a01020       0x10 0x8 /home/rlyerly/Downloads/popcorn-compiler/test-install/aarch64/lib/libc.a(__libc_start_main.o)
 .data.rel.ro.local
                0x0000000000a01030       0x10 0x8 /home/rlyerly/Downloads/popcorn-compiler/test-install/aarch64/lib/libc.a(exit.o)
 .data.rel.ro.local
                0x0000000000a01040        0x8 0x8 /home/rlyerly/Downloads/popcorn-compiler/test-install/aarch64/lib/libc.a(__init_tls.o)
 .data.rel.ro   0x0000000000a01048       0x10 0x8 /home/rlyerly/Downloads/popcorn-compiler/test-install/aarch64/lib/crt1.o

.comment        0x0000000000000000       0xfd
 ** merge strings
                0x0000000000000000       0xfd

.stack_transform.unwind
                0x0000000000000000       0xd0
 .stack_transform.unwind
                0x0000000000000000       0x10 0x4 main.o
 .stack_transform.unwind
                0x0000000000000010       0x10 0x4 fizzbuzz.o
 .stack_transform.unwind
                0x0000000000000020       0x18 0x4 /home/rlyerly/Downloads/popcorn-compiler/test-install/aarch64/lib/libc.a(__libc_start_main.o)
 .stack_transform.unwind
                0x0000000000000038       0x60 0x4 /home/rlyerly/Downloads/popcorn-compiler/test-install/aarch64/lib/libmigrate.a(migrate.o)
 .stack_transform.unwind
                0x0000000000000098       0x38 0x4 /home/rlyerly/Downloads/popcorn-compiler/test-install/aarch64/lib/libmigrate.a(trigger.o)

.stack_transform.unwind_arange
                0x0000000000000000       0xd0
 .stack_transform.unwind_arange
                0x0000000000000000       0x10 0x8 main.o
 .stack_transform.unwind_arange
                0x0000000000000010       0x10 0x8 fizzbuzz.o
 .stack_transform.unwind_arange
                0x0000000000000020       0x10 0x8 /home/rlyerly/Downloads/popcorn-compiler/test-install/aarch64/lib/libc.a(__libc_start_main.o)
 .stack_transform.unwind_arange
                0x0000000000000030       0x60 0x8 /home/rlyerly/Downloads/popcorn-compiler/test-install/aarch64/lib/libmigrate.a(migrate.o)
 .stack_transform.unwind_arange
                0x0000000000000090       0x40 0x8 /home/rlyerly/Downloads/popcorn-compiler/test-install/aarch64/lib/libmigrate.a(trigger.o)

.debug_str      0x0000000000000000     0x3b79
 ** merge strings
                0x0000000000000000     0x3b79

.debug_loc      0x0000000000000000    0x12138
 .debug_loc     0x0000000000000000       0x36 0x1 /home/rlyerly/Downloads/popcorn-compiler/test-install/aarch64/lib/crt1.o
 .debug_loc     0x0000000000000036      0x265 0x1 /home/rlyerly/Downloads/popcorn-compiler/test-install/aarch64/lib/libc.a(__libc_start_main.o)
 .debug_loc     0x000000000000029b       0x6c 0x1 /home/rlyerly/Downloads/popcorn-compiler/test-install/aarch64/lib/libc.a(exit.o)
 .debug_loc     0x0000000000000307        0x0 0x1 /home/rlyerly/Downloads/popcorn-compiler/test-install/aarch64/lib/libc.a(libc.o)
 .debug_loc     0x0000000000000307       0x49 0x1 /home/rlyerly/Downloads/popcorn-compiler/test-install/aarch64/lib/libc.a(printf.o)
 .debug_loc     0x0000000000000350        0x0 0x1 /home/rlyerly/Downloads/popcorn-compiler/test-install/aarch64/lib/libc.a(stdout.o)
 .debug_loc     0x0000000000000350     0x36de 0x1 /home/rlyerly/Downloads/popcorn-compiler/test-install/aarch64/lib/libc.a(vfprintf.o)
 .debug_loc     0x0000000000003a2e       0x98 0x1 /home/rlyerly/Downloads/popcorn-compiler/test-install/aarch64/lib/libc.a(atoi.o)
 .debug_loc     0x0000000000003ac6      0x16d 0x1 /home/rlyerly/Downloads/popcorn-compiler/test-install/aarch64/lib/libc.a(memset.o)
 .debug_loc     0x0000000000003c33       0x8f 0x1 /home/rlyerly/Downloads/popcorn-compiler/test-install/aarch64/lib/libc.a(strnlen.o)
 .debug_loc     0x0000000000003cc2        0x0 0x1 /home/rlyerly/Downloads/popcorn-compiler/test-install/aarch64/lib/libc.a(__environ.o)
 .debug_loc     0x0000000000003cc2      0x2b7 0x1 /home/rlyerly/Downloads/popcorn-compiler/test-install/aarch64/lib/libc.a(__init_tls.o)
 .debug_loc     0x0000000000003f79        0x0 0x1 /home/rlyerly/Downloads/popcorn-compiler/test-install/aarch64/lib/libc.a(__errno_location.o)
 .debug_loc     0x0000000000003f79       0x83 0x1 /home/rlyerly/Downloads/popcorn-compiler/test-install/aarch64/lib/libc.a(strerror.o)
 .debug_loc     0x0000000000003ffc       0x23 0x1 /home/rlyerly/Downloads/popcorn-compiler/test-install/aarch64/lib/libc.a(_Exit.o)
 .debug_loc     0x000000000000401f       0x23 0x1 /home/rlyerly/Downloads/popcorn-compiler/test-install/aarch64/lib/libc.a(__lctrans.o)
 .debug_loc     0x0000000000004042        0x0 0x1 /home/rlyerly/Downloads/popcorn-compiler/test-install/aarch64/lib/libc.a(__fpclassifyl.o)
 .debug_loc     0x0000000000004042        0x0 0x1 /home/rlyerly/Downloads/popcorn-compiler/test-install/aarch64/lib/libc.a(__signbitl.o)
 .debug_loc     0x0000000000004042      0x132 0x1 /home/rlyerly/Downloads/popcorn-compiler/test-install/aarch64/lib/libc.a(frexpl.o)
 .debug_loc     0x0000000000004174       0x23 0x1 /home/rlyerly/Downloads/popcorn-compiler/test-install/aarch64/lib/libc.a(wctomb.o)
 .debug_loc     0x0000000000004197      0x1f0 0x1 /home/rlyerly/Downloads/popcorn-compiler/test-install/aarch64/lib/libc.a(__lockfile.o)
 .debug_loc     0x0000000000004387       0x46 0x1 /home/rlyerly/Downloads/popcorn-compiler/test-install/aarch64/lib/libc.a(__stdio_close.o)
 .debug_loc     0x00000000000043cd       0x46 0x1 /home/rlyerly/Downloads/popcorn-compiler/test-install/aarch64/lib/libc.a(__stdio_seek.o)
 .debug_loc     0x0000000000004413       0xc5 0x1 /home/rlyerly/Downloads/popcorn-compiler/test-install/aarch64/lib/libc.a(__stdout_write.o)
 .debug_loc     0x00000000000044d8      0x257 0x1 /home/rlyerly/Downloads/popcorn-compiler/test-install/aarch64/lib/libc.a(fwrite.o)
 .debug_loc     0x000000000000472f      0x190 0x1 /home/rlyerly/Downloads/popcorn-compiler/test-install/aarch64/lib/libc.a(memchr.o)
 .debug_loc     0x00000000000048bf      0x604 0x1 /home/rlyerly/Downloads/popcorn-compiler/test-install/aarch64/lib/libc.a(memcpy.o)
 .debug_loc     0x0000000000004ec3      0x307 0x1 /home/rlyerly/Downloads/popcorn-compiler/test-install/aarch64/lib/libc.a(__wait.o)
 .debug_loc     0x00000000000051ca       0x23 0x1 /home/rlyerly/Downloads/popcorn-compiler/test-install/aarch64/lib/libc.a(syscall_ret.o)
 .debug_loc     0x00000000000051ed       0x59 0x1 /home/rlyerly/Downloads/popcorn-compiler/test-install/aarch64/lib/libc.a(wcrtomb.o)
 .debug_loc     0x0000000000005246      0x18d 0x1 /home/rlyerly/Downloads/popcorn-compiler/test-install/aarch64/lib/libc.a(__stdio_write.o)
 .debug_loc     0x00000000000053d3        0x0 0x1 /home/rlyerly/Downloads/popcorn-compiler/test-install/aarch64/lib/libc.a(__towrite.o)
 .debug_loc     0x00000000000053d3       0x36 0x1 /home/rlyerly/Downloads/popcorn-compiler/test-install/aarch64/lib/libc.a(__stdio_exit.o)
 .debug_loc     0x0000000000005409        0x0 0x1 /home/rlyerly/Downloads/popcorn-compiler/test-install/aarch64/lib/libc.a(ofl.o)
 .debug_loc     0x0000000000005409      0x11b 0x1 /home/rlyerly/Downloads/popcorn-compiler/test-install/aarch64/lib/libc.a(__lock.o)
 .debug_loc     0x0000000000005524      0x469 0x1 /home/rlyerly/Downloads/popcorn-compiler/test-install/aarch64/lib/libmigrate.a(migrate.o)
 .debug_loc     0x000000000000598d      0x1c3 0x1 /home/rlyerly/Downloads/popcorn-compiler/test-install/aarch64/lib/libmigrate.a(trigger.o)
 .debug_loc     0x0000000000005b50      0x75f 0x1 /home/rlyerly/Downloads/popcorn-compiler/test-install/aarch64/lib/libstack-transform.a(userspace.o)
 .debug_loc     0x00000000000062af       0xb2 0x1 /home/rlyerly/Downloads/popcorn-compiler/test-install/aarch64/lib/libstack-transform.a(init.o)
 .debug_loc     0x0000000000006361      0xeeb 0x1 /home/rlyerly/Downloads/popcorn-compiler/test-install/aarch64/lib/libstack-transform.a(rewrite.o)
 .debug_loc     0x000000000000724c      0x78c 0x1 /home/rlyerly/Downloads/popcorn-compiler/test-install/aarch64/lib/libstack-transform.a(unwind.o)
 .debug_loc     0x00000000000079d8      0x82b 0x1 /home/rlyerly/Downloads/popcorn-compiler/test-install/aarch64/lib/libstack-transform.a(util.o)
 .debug_loc     0x0000000000008203       0x23 0x1 /home/rlyerly/Downloads/popcorn-compiler/test-install/aarch64/lib/libstack-transform.a(properties.o)
 .debug_loc     0x0000000000008226      0x6a0 0x1 /home/rlyerly/Downloads/popcorn-compiler/test-install/aarch64/lib/libstack-transform.a(regs.o)
 .debug_loc     0x00000000000088c6       0x6c 0x1 /home/rlyerly/Downloads/popcorn-compiler/test-install/aarch64/lib/libstack-transform.a(properties.o)
 .debug_loc     0x0000000000008932      0x6c6 0x1 /home/rlyerly/Downloads/popcorn-compiler/test-install/aarch64/lib/libstack-transform.a(regs.o)
 .debug_loc     0x0000000000008ff8       0x23 0x1 /home/rlyerly/Downloads/popcorn-compiler/test-install/aarch64/lib/libstack-transform.a(properties.o)
 .debug_loc     0x000000000000901b      0x499 0x1 /home/rlyerly/Downloads/popcorn-compiler/test-install/aarch64/lib/libstack-transform.a(regs.o)
 .debug_loc     0x00000000000094b4      0xbe9 0x1 /home/rlyerly/Downloads/popcorn-compiler/test-install/aarch64/lib/libstack-transform.a(data.o)
 .debug_loc     0x000000000000a09d       0x36 0x1 /home/rlyerly/Downloads/popcorn-compiler/test-install/aarch64/lib/libc.a(__stack_chk_fail.o)
 .debug_loc     0x000000000000a0d3       0x59 0x1 /home/rlyerly/Downloads/popcorn-compiler/test-install/aarch64/lib/libc.a(getenv.o)
 .debug_loc     0x000000000000a12c      0x124 0x1 /home/rlyerly/Downloads/popcorn-compiler/test-install/aarch64/lib/libc.a(assert.o)
 .debug_loc     0x000000000000a250       0xb5 0x1 /home/rlyerly/Downloads/popcorn-compiler/test-install/aarch64/lib/libc.a(open.o)
 .debug_loc     0x000000000000a305       0x36 0x1 /home/rlyerly/Downloads/popcorn-compiler/test-install/aarch64/lib/libc.a(calloc.o)
 .debug_loc     0x000000000000a33b      0x1fb 0x1 /home/rlyerly/Downloads/popcorn-compiler/test-install/aarch64/lib/libc.a(lite_malloc.o)
 .debug_loc     0x000000000000a536     0x1ef8 0x1 /home/rlyerly/Downloads/popcorn-compiler/test-install/aarch64/lib/libc.a(malloc.o)
 .debug_loc     0x000000000000c42e       0xea 0x1 /home/rlyerly/Downloads/popcorn-compiler/test-install/aarch64/lib/libc.a(getrlimit.o)
 .debug_loc     0x000000000000c518      0x194 0x1 /home/rlyerly/Downloads/popcorn-compiler/test-install/aarch64/lib/libc.a(syscall.o)
 .debug_loc     0x000000000000c6ac       0x69 0x1 /home/rlyerly/Downloads/popcorn-compiler/test-install/aarch64/lib/libc.a(madvise.o)
 .debug_loc     0x000000000000c715      0x24b 0x1 /home/rlyerly/Downloads/popcorn-compiler/test-install/aarch64/lib/libc.a(mmap.o)
 .debug_loc     0x000000000000c960      0x193 0x1 /home/rlyerly/Downloads/popcorn-compiler/test-install/aarch64/lib/libc.a(mremap.o)
 .debug_loc     0x000000000000caf3       0xb5 0x1 /home/rlyerly/Downloads/popcorn-compiler/test-install/aarch64/lib/libc.a(munmap.o)
 .debug_loc     0x000000000000cba8      0x3e9 0x1 /home/rlyerly/Downloads/popcorn-compiler/test-install/aarch64/lib/libc.a(sigaction.o)
 .debug_loc     0x000000000000cf91        0x0 0x1 /home/rlyerly/Downloads/popcorn-compiler/test-install/aarch64/lib/libc.a(sigemptyset.o)
 .debug_loc     0x000000000000cf91        0x0 0x1 /home/rlyerly/Downloads/popcorn-compiler/test-install/aarch64/lib/libc.a(sigrtmin.o)
 .debug_loc     0x000000000000cf91       0xd5 0x1 /home/rlyerly/Downloads/popcorn-compiler/test-install/aarch64/lib/libc.a(fclose.o)
 .debug_loc     0x000000000000d066       0xc5 0x1 /home/rlyerly/Downloads/popcorn-compiler/test-install/aarch64/lib/libc.a(fflush.o)
 .debug_loc     0x000000000000d12b      0x10e 0x1 /home/rlyerly/Downloads/popcorn-compiler/test-install/aarch64/lib/libc.a(fopen.o)
 .debug_loc     0x000000000000d239       0x23 0x1 /home/rlyerly/Downloads/popcorn-compiler/test-install/aarch64/lib/libc.a(fprintf.o)
 .debug_loc     0x000000000000d25c       0x49 0x1 /home/rlyerly/Downloads/popcorn-compiler/test-install/aarch64/lib/libc.a(getline.o)
 .debug_loc     0x000000000000d2a5       0x9f 0x1 /home/rlyerly/Downloads/popcorn-compiler/test-install/aarch64/lib/libc.a(perror.o)
 .debug_loc     0x000000000000d344       0x23 0x1 /home/rlyerly/Downloads/popcorn-compiler/test-install/aarch64/lib/libc.a(snprintf.o)
 .debug_loc     0x000000000000d367       0x23 0x1 /home/rlyerly/Downloads/popcorn-compiler/test-install/aarch64/lib/libc.a(sscanf.o)
 .debug_loc     0x000000000000d38a        0x0 0x1 /home/rlyerly/Downloads/popcorn-compiler/test-install/aarch64/lib/libc.a(stderr.o)
 .debug_loc     0x000000000000d38a      0x20d 0x1 /home/rlyerly/Downloads/popcorn-compiler/test-install/aarch64/lib/libc.a(vsnprintf.o)
 .debug_loc     0x000000000000d597       0xdb 0x1 /home/rlyerly/Downloads/popcorn-compiler/test-install/aarch64/lib/libc.a(vsscanf.o)
 .debug_loc     0x000000000000d672      0x168 0x1 /home/rlyerly/Downloads/popcorn-compiler/test-install/aarch64/lib/libc.a(strtol.o)
 .debug_loc     0x000000000000d7da       0xe8 0x1 /home/rlyerly/Downloads/popcorn-compiler/test-install/aarch64/lib/libc.a(memcmp.o)
 .debug_loc     0x000000000000d8c2      0x1a6 0x1 /home/rlyerly/Downloads/popcorn-compiler/test-install/aarch64/lib/libc.a(memmove.o)
 .debug_loc     0x000000000000da68       0x7c 0x1 /home/rlyerly/Downloads/popcorn-compiler/test-install/aarch64/lib/libc.a(strchr.o)
 .debug_loc     0x000000000000dae4       0xfe 0x1 /home/rlyerly/Downloads/popcorn-compiler/test-install/aarch64/lib/libc.a(strchrnul.o)
 .debug_loc     0x000000000000dbe2       0x46 0x1 /home/rlyerly/Downloads/popcorn-compiler/test-install/aarch64/lib/libc.a(strcmp.o)
 .debug_loc     0x000000000000dc28       0xb5 0x1 /home/rlyerly/Downloads/popcorn-compiler/test-install/aarch64/lib/libc.a(strlen.o)
 .debug_loc     0x000000000000dcdd       0xc2 0x1 /home/rlyerly/Downloads/popcorn-compiler/test-install/aarch64/lib/libc.a(strncmp.o)
 .debug_loc     0x000000000000dd9f        0x0 0x1 /home/rlyerly/Downloads/popcorn-compiler/test-install/aarch64/lib/libc.a(__syscall_cp.o)
 .debug_loc     0x000000000000dd9f       0x36 0x1 /home/rlyerly/Downloads/popcorn-compiler/test-install/aarch64/lib/libc.a(pthread_attr_get.o)
 .debug_loc     0x000000000000ddd5       0xc5 0x1 /home/rlyerly/Downloads/popcorn-compiler/test-install/aarch64/lib/libc.a(pthread_getattr_np.o)
 .debug_loc     0x000000000000de9a       0x46 0x1 /home/rlyerly/Downloads/popcorn-compiler/test-install/aarch64/lib/libc.a(pthread_getspecific.o)
 .debug_loc     0x000000000000dee0      0x252 0x1 /home/rlyerly/Downloads/popcorn-compiler/test-install/aarch64/lib/libc.a(pthread_key_create.o)
 .debug_loc     0x000000000000e132        0x0 0x1 /home/rlyerly/Downloads/popcorn-compiler/test-install/aarch64/lib/libc.a(pthread_migrate.o)
 .debug_loc     0x000000000000e132        0x0 0x1 /home/rlyerly/Downloads/popcorn-compiler/test-install/aarch64/lib/libc.a(pthread_self.o)
 .debug_loc     0x000000000000e132       0x23 0x1 /home/rlyerly/Downloads/popcorn-compiler/test-install/aarch64/lib/libc.a(pthread_setspecific.o)
 .debug_loc     0x000000000000e155       0x46 0x1 /home/rlyerly/Downloads/popcorn-compiler/test-install/aarch64/lib/libc.a(close.o)
 .debug_loc     0x000000000000e19b        0x0 0x1 /home/rlyerly/Downloads/popcorn-compiler/test-install/aarch64/lib/libc.a(getpid.o)
 .debug_loc     0x000000000000e19b       0x46 0x1 /home/rlyerly/Downloads/popcorn-compiler/test-install/aarch64/lib/libc.a(lseek.o)
 .debug_loc     0x000000000000e1e1       0xb5 0x1 /home/rlyerly/Downloads/popcorn-compiler/test-install/aarch64/lib/libc.a(read.o)
 .debug_loc     0x000000000000e296        0x0 0x1 /home/rlyerly/Downloads/popcorn-compiler/test-install/aarch64/lib/libc.a(abort.o)
 .debug_loc     0x000000000000e296      0x3d0 0x1 /home/rlyerly/Downloads/popcorn-compiler/test-install/aarch64/lib/libc.a(intscan.o)
 .debug_loc     0x000000000000e666       0x6c 0x1 /home/rlyerly/Downloads/popcorn-compiler/test-install/aarch64/lib/libc.a(shgetc.o)
 .debug_loc     0x000000000000e6d2      0x21c 0x1 /home/rlyerly/Downloads/popcorn-compiler/test-install/aarch64/lib/libc.a(expand_heap.o)
 .debug_loc     0x000000000000e8ee       0xdb 0x1 /home/rlyerly/Downloads/popcorn-compiler/test-install/aarch64/lib/libc.a(block.o)
 .debug_loc     0x000000000000e9c9       0x9f 0x1 /home/rlyerly/Downloads/popcorn-compiler/test-install/aarch64/lib/libc.a(raise.o)
 .debug_loc     0x000000000000ea68      0x1e2 0x1 /home/rlyerly/Downloads/popcorn-compiler/test-install/aarch64/lib/libc.a(__fdopen.o)
 .debug_loc     0x000000000000ec4a       0x6c 0x1 /home/rlyerly/Downloads/popcorn-compiler/test-install/aarch64/lib/libc.a(__fmodeflags.o)
 .debug_loc     0x000000000000ecb6      0x134 0x1 /home/rlyerly/Downloads/popcorn-compiler/test-install/aarch64/lib/libc.a(__stdio_read.o)
 .debug_loc     0x000000000000edea      0x144 0x1 /home/rlyerly/Downloads/popcorn-compiler/test-install/aarch64/lib/libc.a(__string_read.o)
 .debug_loc     0x000000000000ef2e       0x6e 0x1 /home/rlyerly/Downloads/popcorn-compiler/test-install/aarch64/lib/libc.a(__uflow.o)
 .debug_loc     0x000000000000ef9c       0x7f 0x1 /home/rlyerly/Downloads/popcorn-compiler/test-install/aarch64/lib/libc.a(fputc.o)
 .debug_loc     0x000000000000f01b      0x4a8 0x1 /home/rlyerly/Downloads/popcorn-compiler/test-install/aarch64/lib/libc.a(getdelim.o)
 .debug_loc     0x000000000000f4c3       0x59 0x1 /home/rlyerly/Downloads/popcorn-compiler/test-install/aarch64/lib/libc.a(ofl_add.o)
 .debug_loc     0x000000000000f51c      0xcb3 0x1 /home/rlyerly/Downloads/popcorn-compiler/test-install/aarch64/lib/libc.a(vfscanf.o)
 .debug_loc     0x00000000000101cf     0x1363 0x1 /home/rlyerly/Downloads/popcorn-compiler/test-install/aarch64/lib/libc.a(floatscan.o)
 .debug_loc     0x0000000000011532       0x24 0x1 /home/rlyerly/Downloads/popcorn-compiler/test-install/aarch64/lib/libc.a(fabs.o)
 .debug_loc     0x0000000000011556       0x48 0x1 /home/rlyerly/Downloads/popcorn-compiler/test-install/aarch64/lib/libc.a(copysignl.o)
 .debug_loc     0x000000000001159e      0x561 0x1 /home/rlyerly/Downloads/popcorn-compiler/test-install/aarch64/lib/libc.a(fmodl.o)
 .debug_loc     0x0000000000011aff      0x1b2 0x1 /home/rlyerly/Downloads/popcorn-compiler/test-install/aarch64/lib/libc.a(scalbn.o)
 .debug_loc     0x0000000000011cb1       0xf2 0x1 /home/rlyerly/Downloads/popcorn-compiler/test-install/aarch64/lib/libc.a(scalbnl.o)
 .debug_loc     0x0000000000011da3      0x285 0x1 /home/rlyerly/Downloads/popcorn-compiler/test-install/aarch64/lib/libc.a(mbrtowc.o)
 .debug_loc     0x0000000000012028       0x23 0x1 /home/rlyerly/Downloads/popcorn-compiler/test-install/aarch64/lib/libc.a(mbsinit.o)
 .debug_loc     0x000000000001204b       0xb7 0x1 /home/rlyerly/Downloads/popcorn-compiler/test-install/aarch64/lib/libc.a(__overflow.o)
 .debug_loc     0x0000000000012102       0x36 0x1 /home/rlyerly/Downloads/popcorn-compiler/test-install/aarch64/lib/libc.a(__toread.o)
 .debug_loc     0x0000000000012138        0x0 0x1 /home/rlyerly/Downloads/popcorn-compiler/test-install/aarch64/lib/libc.a(internal.o)

.debug_abbrev   0x0000000000000000     0x782a
 .debug_abbrev  0x0000000000000000       0x62 0x1 /home/rlyerly/Downloads/popcorn-compiler/test-install/aarch64/lib/crt1.o
 .debug_abbrev  0x0000000000000062      0x1b0 0x1 /home/rlyerly/Downloads/popcorn-compiler/test-install/aarch64/lib/libc.a(__libc_start_main.o)
 .debug_abbrev  0x0000000000000212       0xa0 0x1 /home/rlyerly/Downloads/popcorn-compiler/test-install/aarch64/lib/libc.a(exit.o)
 .debug_abbrev  0x00000000000002b2       0x96 0x1 /home/rlyerly/Downloads/popcorn-compiler/test-install/aarch64/lib/libc.a(libc.o)
 .debug_abbrev  0x0000000000000348       0xaf 0x1 /home/rlyerly/Downloads/popcorn-compiler/test-install/aarch64/lib/libc.a(printf.o)
 .debug_abbrev  0x00000000000003f7       0xcb 0x1 /home/rlyerly/Downloads/popcorn-compiler/test-install/aarch64/lib/libc.a(stdout.o)
 .debug_abbrev  0x00000000000004c2      0x2bd 0x1 /home/rlyerly/Downloads/popcorn-compiler/test-install/aarch64/lib/libc.a(vfprintf.o)
 .debug_abbrev  0x000000000000077f       0xa7 0x1 /home/rlyerly/Downloads/popcorn-compiler/test-install/aarch64/lib/libc.a(atoi.o)
 .debug_abbrev  0x0000000000000826       0x82 0x1 /home/rlyerly/Downloads/popcorn-compiler/test-install/aarch64/lib/libc.a(memset.o)
 .debug_abbrev  0x00000000000008a8       0x75 0x1 /home/rlyerly/Downloads/popcorn-compiler/test-install/aarch64/lib/libc.a(strnlen.o)
 .debug_abbrev  0x000000000000091d       0x36 0x1 /home/rlyerly/Downloads/popcorn-compiler/test-install/aarch64/lib/libc.a(__environ.o)
 .debug_abbrev  0x0000000000000953      0x1c7 0x1 /home/rlyerly/Downloads/popcorn-compiler/test-install/aarch64/lib/libc.a(__init_tls.o)
 .debug_abbrev  0x0000000000000b1a      0x12a 0x1 /home/rlyerly/Downloads/popcorn-compiler/test-install/aarch64/lib/libc.a(__errno_location.o)
 .debug_abbrev  0x0000000000000c44      0x16b 0x1 /home/rlyerly/Downloads/popcorn-compiler/test-install/aarch64/lib/libc.a(strerror.o)
 .debug_abbrev  0x0000000000000daf       0x8f 0x1 /home/rlyerly/Downloads/popcorn-compiler/test-install/aarch64/lib/libc.a(_Exit.o)
 .debug_abbrev  0x0000000000000e3e      0x14d 0x1 /home/rlyerly/Downloads/popcorn-compiler/test-install/aarch64/lib/libc.a(__lctrans.o)
 .debug_abbrev  0x0000000000000f8b       0x9b 0x1 /home/rlyerly/Downloads/popcorn-compiler/test-install/aarch64/lib/libc.a(__fpclassifyl.o)
 .debug_abbrev  0x0000000000001026       0x8e 0x1 /home/rlyerly/Downloads/popcorn-compiler/test-install/aarch64/lib/libc.a(__signbitl.o)
 .debug_abbrev  0x00000000000010b4       0xa2 0x1 /home/rlyerly/Downloads/popcorn-compiler/test-install/aarch64/lib/libc.a(frexpl.o)
 .debug_abbrev  0x0000000000001156       0x6e 0x1 /home/rlyerly/Downloads/popcorn-compiler/test-install/aarch64/lib/libc.a(wctomb.o)
 .debug_abbrev  0x00000000000011c4      0x1da 0x1 /home/rlyerly/Downloads/popcorn-compiler/test-install/aarch64/lib/libc.a(__lockfile.o)
 .debug_abbrev  0x000000000000139e      0x14e 0x1 /home/rlyerly/Downloads/popcorn-compiler/test-install/aarch64/lib/libc.a(__stdio_close.o)
 .debug_abbrev  0x00000000000014ec      0x136 0x1 /home/rlyerly/Downloads/popcorn-compiler/test-install/aarch64/lib/libc.a(__stdio_seek.o)
 .debug_abbrev  0x0000000000001622      0x127 0x1 /home/rlyerly/Downloads/popcorn-compiler/test-install/aarch64/lib/libc.a(__stdout_write.o)
 .debug_abbrev  0x0000000000001749      0x10d 0x1 /home/rlyerly/Downloads/popcorn-compiler/test-install/aarch64/lib/libc.a(fwrite.o)
 .debug_abbrev  0x0000000000001856       0x88 0x1 /home/rlyerly/Downloads/popcorn-compiler/test-install/aarch64/lib/libc.a(memchr.o)
 .debug_abbrev  0x00000000000018de       0x95 0x1 /home/rlyerly/Downloads/popcorn-compiler/test-install/aarch64/lib/libc.a(memcpy.o)
 .debug_abbrev  0x0000000000001973      0x105 0x1 /home/rlyerly/Downloads/popcorn-compiler/test-install/aarch64/lib/libc.a(__wait.o)
 .debug_abbrev  0x0000000000001a78       0x28 0x1 /home/rlyerly/Downloads/popcorn-compiler/test-install/aarch64/lib/libc.a(__set_thread_area.o)
 .debug_abbrev  0x0000000000001aa0       0x4b 0x1 /home/rlyerly/Downloads/popcorn-compiler/test-install/aarch64/lib/libc.a(syscall_ret.o)
 .debug_abbrev  0x0000000000001aeb      0x167 0x1 /home/rlyerly/Downloads/popcorn-compiler/test-install/aarch64/lib/libc.a(wcrtomb.o)
 .debug_abbrev  0x0000000000001c52      0x16e 0x1 /home/rlyerly/Downloads/popcorn-compiler/test-install/aarch64/lib/libc.a(__stdio_write.o)
 .debug_abbrev  0x0000000000001dc0       0xe5 0x1 /home/rlyerly/Downloads/popcorn-compiler/test-install/aarch64/lib/libc.a(__towrite.o)
 .debug_abbrev  0x0000000000001ea5       0xff 0x1 /home/rlyerly/Downloads/popcorn-compiler/test-install/aarch64/lib/libc.a(__stdio_exit.o)
 .debug_abbrev  0x0000000000001fa4       0xe7 0x1 /home/rlyerly/Downloads/popcorn-compiler/test-install/aarch64/lib/libc.a(ofl.o)
 .debug_abbrev  0x000000000000208b       0xfb 0x1 /home/rlyerly/Downloads/popcorn-compiler/test-install/aarch64/lib/libc.a(__lock.o)
 .debug_abbrev  0x0000000000002186      0x1ca 0x1 /home/rlyerly/Downloads/popcorn-compiler/test-install/aarch64/lib/libmigrate.a(migrate.o)
 .debug_abbrev  0x0000000000002350      0x16a 0x1 /home/rlyerly/Downloads/popcorn-compiler/test-install/aarch64/lib/libmigrate.a(trigger.o)
 .debug_abbrev  0x00000000000024ba      0x28e 0x1 /home/rlyerly/Downloads/popcorn-compiler/test-install/aarch64/lib/libstack-transform.a(userspace.o)
 .debug_abbrev  0x0000000000002748      0x166 0x1 /home/rlyerly/Downloads/popcorn-compiler/test-install/aarch64/lib/libstack-transform.a(init.o)
 .debug_abbrev  0x00000000000028ae      0x274 0x1 /home/rlyerly/Downloads/popcorn-compiler/test-install/aarch64/lib/libstack-transform.a(rewrite.o)
 .debug_abbrev  0x0000000000002b22      0x1f9 0x1 /home/rlyerly/Downloads/popcorn-compiler/test-install/aarch64/lib/libstack-transform.a(unwind.o)
 .debug_abbrev  0x0000000000002d1b      0x19a 0x1 /home/rlyerly/Downloads/popcorn-compiler/test-install/aarch64/lib/libstack-transform.a(util.o)
 .debug_abbrev  0x0000000000002eb5       0xdd 0x1 /home/rlyerly/Downloads/popcorn-compiler/test-install/aarch64/lib/libstack-transform.a(properties.o)
 .debug_abbrev  0x0000000000002f92      0x131 0x1 /home/rlyerly/Downloads/popcorn-compiler/test-install/aarch64/lib/libstack-transform.a(regs.o)
 .debug_abbrev  0x00000000000030c3       0xec 0x1 /home/rlyerly/Downloads/popcorn-compiler/test-install/aarch64/lib/libstack-transform.a(properties.o)
 .debug_abbrev  0x00000000000031af      0x131 0x1 /home/rlyerly/Downloads/popcorn-compiler/test-install/aarch64/lib/libstack-transform.a(regs.o)
 .debug_abbrev  0x00000000000032e0       0xdd 0x1 /home/rlyerly/Downloads/popcorn-compiler/test-install/aarch64/lib/libstack-transform.a(properties.o)
 .debug_abbrev  0x00000000000033bd      0x131 0x1 /home/rlyerly/Downloads/popcorn-compiler/test-install/aarch64/lib/libstack-transform.a(regs.o)
 .debug_abbrev  0x00000000000034ee      0x249 0x1 /home/rlyerly/Downloads/popcorn-compiler/test-install/aarch64/lib/libstack-transform.a(data.o)
 .debug_abbrev  0x0000000000003737      0x167 0x1 /home/rlyerly/Downloads/popcorn-compiler/test-install/aarch64/lib/libc.a(__stack_chk_fail.o)
 .debug_abbrev  0x000000000000389e       0x89 0x1 /home/rlyerly/Downloads/popcorn-compiler/test-install/aarch64/lib/libc.a(getenv.o)
 .debug_abbrev  0x0000000000003927       0x57 0x1 /home/rlyerly/Downloads/popcorn-compiler/test-install/aarch64/lib/libc.a(assert.o)
 .debug_abbrev  0x000000000000397e      0x100 0x1 /home/rlyerly/Downloads/popcorn-compiler/test-install/aarch64/lib/libc.a(open.o)
 .debug_abbrev  0x0000000000003a7e       0x6c 0x1 /home/rlyerly/Downloads/popcorn-compiler/test-install/aarch64/lib/libc.a(calloc.o)
 .debug_abbrev  0x0000000000003aea       0xa9 0x1 /home/rlyerly/Downloads/popcorn-compiler/test-install/aarch64/lib/libc.a(lite_malloc.o)
 .debug_abbrev  0x0000000000003b93      0x283 0x1 /home/rlyerly/Downloads/popcorn-compiler/test-install/aarch64/lib/libc.a(malloc.o)
 .debug_abbrev  0x0000000000003e16      0x10c 0x1 /home/rlyerly/Downloads/popcorn-compiler/test-install/aarch64/lib/libc.a(getrlimit.o)
 .debug_abbrev  0x0000000000003f22       0xdc 0x1 /home/rlyerly/Downloads/popcorn-compiler/test-install/aarch64/lib/libc.a(syscall.o)
 .debug_abbrev  0x0000000000003ffe       0xc4 0x1 /home/rlyerly/Downloads/popcorn-compiler/test-install/aarch64/lib/libc.a(madvise.o)
 .debug_abbrev  0x00000000000040c2       0xd8 0x1 /home/rlyerly/Downloads/popcorn-compiler/test-install/aarch64/lib/libc.a(mmap.o)
 .debug_abbrev  0x000000000000419a       0xec 0x1 /home/rlyerly/Downloads/popcorn-compiler/test-install/aarch64/lib/libc.a(mremap.o)
 .debug_abbrev  0x0000000000004286       0xcb 0x1 /home/rlyerly/Downloads/popcorn-compiler/test-install/aarch64/lib/libc.a(munmap.o)
 .debug_abbrev  0x0000000000004351      0x1e0 0x1 /home/rlyerly/Downloads/popcorn-compiler/test-install/aarch64/lib/libc.a(sigaction.o)
 .debug_abbrev  0x0000000000004531       0x96 0x1 /home/rlyerly/Downloads/popcorn-compiler/test-install/aarch64/lib/libc.a(sigemptyset.o)
 .debug_abbrev  0x00000000000045c7       0x3a 0x1 /home/rlyerly/Downloads/popcorn-compiler/test-install/aarch64/lib/libc.a(sigrtmin.o)
 .debug_abbrev  0x0000000000004601      0x10c 0x1 /home/rlyerly/Downloads/popcorn-compiler/test-install/aarch64/lib/libc.a(fclose.o)
 .debug_abbrev  0x000000000000470d       0xfd 0x1 /home/rlyerly/Downloads/popcorn-compiler/test-install/aarch64/lib/libc.a(fflush.o)
 .debug_abbrev  0x000000000000480a      0x14a 0x1 /home/rlyerly/Downloads/popcorn-compiler/test-install/aarch64/lib/libc.a(fopen.o)
 .debug_abbrev  0x0000000000004954       0xd4 0x1 /home/rlyerly/Downloads/popcorn-compiler/test-install/aarch64/lib/libc.a(fprintf.o)
 .debug_abbrev  0x0000000000004a28       0x8b 0x1 /home/rlyerly/Downloads/popcorn-compiler/test-install/aarch64/lib/libc.a(getline.o)
 .debug_abbrev  0x0000000000004ab3       0xdc 0x1 /home/rlyerly/Downloads/popcorn-compiler/test-install/aarch64/lib/libc.a(perror.o)
 .debug_abbrev  0x0000000000004b8f       0xbe 0x1 /home/rlyerly/Downloads/popcorn-compiler/test-install/aarch64/lib/libc.a(snprintf.o)
 .debug_abbrev  0x0000000000004c4d       0xbe 0x1 /home/rlyerly/Downloads/popcorn-compiler/test-install/aarch64/lib/libc.a(sscanf.o)
 .debug_abbrev  0x0000000000004d0b       0xc2 0x1 /home/rlyerly/Downloads/popcorn-compiler/test-install/aarch64/lib/libc.a(stderr.o)
 .debug_abbrev  0x0000000000004dcd      0x136 0x1 /home/rlyerly/Downloads/popcorn-compiler/test-install/aarch64/lib/libc.a(vsnprintf.o)
 .debug_abbrev  0x0000000000004f03      0x129 0x1 /home/rlyerly/Downloads/popcorn-compiler/test-install/aarch64/lib/libc.a(vsscanf.o)
 .debug_abbrev  0x000000000000502c      0x15d 0x1 /home/rlyerly/Downloads/popcorn-compiler/test-install/aarch64/lib/libc.a(strtol.o)
 .debug_abbrev  0x0000000000005189       0x7a 0x1 /home/rlyerly/Downloads/popcorn-compiler/test-install/aarch64/lib/libc.a(memcmp.o)
 .debug_abbrev  0x0000000000005203       0x7f 0x1 /home/rlyerly/Downloads/popcorn-compiler/test-install/aarch64/lib/libc.a(memmove.o)
 .debug_abbrev  0x0000000000005282       0x68 0x1 /home/rlyerly/Downloads/popcorn-compiler/test-install/aarch64/lib/libc.a(strchr.o)
 .debug_abbrev  0x00000000000052ea       0x7a 0x1 /home/rlyerly/Downloads/popcorn-compiler/test-install/aarch64/lib/libc.a(strchrnul.o)
 .debug_abbrev  0x0000000000005364       0x59 0x1 /home/rlyerly/Downloads/popcorn-compiler/test-install/aarch64/lib/libc.a(strcmp.o)
 .debug_abbrev  0x00000000000053bd       0x7a 0x1 /home/rlyerly/Downloads/popcorn-compiler/test-install/aarch64/lib/libc.a(strlen.o)
 .debug_abbrev  0x0000000000005437       0x7a 0x1 /home/rlyerly/Downloads/popcorn-compiler/test-install/aarch64/lib/libc.a(strncmp.o)
 .debug_abbrev  0x00000000000054b1       0x70 0x1 /home/rlyerly/Downloads/popcorn-compiler/test-install/aarch64/lib/libc.a(__syscall_cp.o)
 .debug_abbrev  0x0000000000005521      0x109 0x1 /home/rlyerly/Downloads/popcorn-compiler/test-install/aarch64/lib/libc.a(pthread_attr_get.o)
 .debug_abbrev  0x000000000000562a      0x125 0x1 /home/rlyerly/Downloads/popcorn-compiler/test-install/aarch64/lib/libc.a(pthread_getattr_np.o)
 .debug_abbrev  0x000000000000574f      0x137 0x1 /home/rlyerly/Downloads/popcorn-compiler/test-install/aarch64/lib/libc.a(pthread_getspecific.o)
 .debug_abbrev  0x0000000000005886      0x1f3 0x1 /home/rlyerly/Downloads/popcorn-compiler/test-install/aarch64/lib/libc.a(pthread_key_create.o)
 .debug_abbrev  0x0000000000005a79      0x128 0x1 /home/rlyerly/Downloads/popcorn-compiler/test-install/aarch64/lib/libc.a(pthread_migrate.o)
 .debug_abbrev  0x0000000000005ba1      0x126 0x1 /home/rlyerly/Downloads/popcorn-compiler/test-install/aarch64/lib/libc.a(pthread_self.o)
 .debug_abbrev  0x0000000000005cc7      0x13e 0x1 /home/rlyerly/Downloads/popcorn-compiler/test-install/aarch64/lib/libc.a(pthread_setspecific.o)
 .debug_abbrev  0x0000000000005e05       0x81 0x1 /home/rlyerly/Downloads/popcorn-compiler/test-install/aarch64/lib/libc.a(close.o)
 .debug_abbrev  0x0000000000005e86       0xa1 0x1 /home/rlyerly/Downloads/popcorn-compiler/test-install/aarch64/lib/libc.a(getpid.o)
 .debug_abbrev  0x0000000000005f27       0xbf 0x1 /home/rlyerly/Downloads/popcorn-compiler/test-install/aarch64/lib/libc.a(lseek.o)
 .debug_abbrev  0x0000000000005fe6       0x5d 0x1 /home/rlyerly/Downloads/popcorn-compiler/test-install/aarch64/lib/libc.a(read.o)
 .debug_abbrev  0x0000000000006043       0x67 0x1 /home/rlyerly/Downloads/popcorn-compiler/test-install/aarch64/lib/libc.a(abort.o)
 .debug_abbrev  0x00000000000060aa       0x28 0x1 /home/rlyerly/Downloads/popcorn-compiler/test-install/aarch64/lib/libc.a(syscall.o)
 .debug_abbrev  0x00000000000060d2      0x129 0x1 /home/rlyerly/Downloads/popcorn-compiler/test-install/aarch64/lib/libc.a(intscan.o)
 .debug_abbrev  0x00000000000061fb      0x105 0x1 /home/rlyerly/Downloads/popcorn-compiler/test-install/aarch64/lib/libc.a(shgetc.o)
 .debug_abbrev  0x0000000000006300      0x100 0x1 /home/rlyerly/Downloads/popcorn-compiler/test-install/aarch64/lib/libc.a(expand_heap.o)
 .debug_abbrev  0x0000000000006400       0x26 0x1 /home/rlyerly/Downloads/popcorn-compiler/test-install/aarch64/lib/libc.a(restore.o)
 .debug_abbrev  0x0000000000006426       0xce 0x1 /home/rlyerly/Downloads/popcorn-compiler/test-install/aarch64/lib/libc.a(block.o)
 .debug_abbrev  0x00000000000064f4       0xf6 0x1 /home/rlyerly/Downloads/popcorn-compiler/test-install/aarch64/lib/libc.a(raise.o)
 .debug_abbrev  0x00000000000065ea      0x15c 0x1 /home/rlyerly/Downloads/popcorn-compiler/test-install/aarch64/lib/libc.a(__fdopen.o)
 .debug_abbrev  0x0000000000006746       0x68 0x1 /home/rlyerly/Downloads/popcorn-compiler/test-install/aarch64/lib/libc.a(__fmodeflags.o)
 .debug_abbrev  0x00000000000067ae      0x161 0x1 /home/rlyerly/Downloads/popcorn-compiler/test-install/aarch64/lib/libc.a(__stdio_read.o)
 .debug_abbrev  0x000000000000690f       0xde 0x1 /home/rlyerly/Downloads/popcorn-compiler/test-install/aarch64/lib/libc.a(__string_read.o)
 .debug_abbrev  0x00000000000069ed       0xde 0x1 /home/rlyerly/Downloads/popcorn-compiler/test-install/aarch64/lib/libc.a(__uflow.o)
 .debug_abbrev  0x0000000000006acb       0xcf 0x1 /home/rlyerly/Downloads/popcorn-compiler/test-install/aarch64/lib/libc.a(fputc.o)
 .debug_abbrev  0x0000000000006b9a       0xec 0x1 /home/rlyerly/Downloads/popcorn-compiler/test-install/aarch64/lib/libc.a(getdelim.o)
 .debug_abbrev  0x0000000000006c86       0xde 0x1 /home/rlyerly/Downloads/popcorn-compiler/test-install/aarch64/lib/libc.a(ofl_add.o)
 .debug_abbrev  0x0000000000006d64      0x1d8 0x1 /home/rlyerly/Downloads/popcorn-compiler/test-install/aarch64/lib/libc.a(vfscanf.o)
 .debug_abbrev  0x0000000000006f3c      0x20a 0x1 /home/rlyerly/Downloads/popcorn-compiler/test-install/aarch64/lib/libc.a(floatscan.o)
 .debug_abbrev  0x0000000000007146       0x4b 0x1 /home/rlyerly/Downloads/popcorn-compiler/test-install/aarch64/lib/libc.a(fabs.o)
 .debug_abbrev  0x0000000000007191       0xac 0x1 /home/rlyerly/Downloads/popcorn-compiler/test-install/aarch64/lib/libc.a(copysignl.o)
 .debug_abbrev  0x000000000000723d       0xc5 0x1 /home/rlyerly/Downloads/popcorn-compiler/test-install/aarch64/lib/libc.a(fmodl.o)
 .debug_abbrev  0x0000000000007302       0x81 0x1 /home/rlyerly/Downloads/popcorn-compiler/test-install/aarch64/lib/libc.a(scalbn.o)
 .debug_abbrev  0x0000000000007383       0x8e 0x1 /home/rlyerly/Downloads/popcorn-compiler/test-install/aarch64/lib/libc.a(scalbnl.o)
 .debug_abbrev  0x0000000000007411      0x176 0x1 /home/rlyerly/Downloads/popcorn-compiler/test-install/aarch64/lib/libc.a(mbrtowc.o)
 .debug_abbrev  0x0000000000007587       0x82 0x1 /home/rlyerly/Downloads/popcorn-compiler/test-install/aarch64/lib/libc.a(mbsinit.o)
 .debug_abbrev  0x0000000000007609       0xde 0x1 /home/rlyerly/Downloads/popcorn-compiler/test-install/aarch64/lib/libc.a(__overflow.o)
 .debug_abbrev  0x00000000000076e7       0xe5 0x1 /home/rlyerly/Downloads/popcorn-compiler/test-install/aarch64/lib/libc.a(__toread.o)
 .debug_abbrev  0x00000000000077cc       0x5e 0x1 /home/rlyerly/Downloads/popcorn-compiler/test-install/aarch64/lib/libc.a(internal.o)

.debug_info     0x0000000000000000    0x1b4aa
 .debug_info    0x0000000000000000       0x8b 0x1 /home/rlyerly/Downloads/popcorn-compiler/test-install/aarch64/lib/crt1.o
 .debug_info    0x000000000000008b      0x3b5 0x1 /home/rlyerly/Downloads/popcorn-compiler/test-install/aarch64/lib/libc.a(__libc_start_main.o)
 .debug_info    0x0000000000000440       0xb0 0x1 /home/rlyerly/Downloads/popcorn-compiler/test-install/aarch64/lib/libc.a(exit.o)
 .debug_info    0x00000000000004f0      0x1d7 0x1 /home/rlyerly/Downloads/popcorn-compiler/test-install/aarch64/lib/libc.a(libc.o)
 .debug_info    0x00000000000006c7       0xe6 0x1 /home/rlyerly/Downloads/popcorn-compiler/test-install/aarch64/lib/libc.a(printf.o)
 .debug_info    0x00000000000007ad      0x337 0x1 /home/rlyerly/Downloads/popcorn-compiler/test-install/aarch64/lib/libc.a(stdout.o)
 .debug_info    0x0000000000000ae4     0x1126 0x1 /home/rlyerly/Downloads/popcorn-compiler/test-install/aarch64/lib/libc.a(vfprintf.o)
 .debug_info    0x0000000000001c0a       0xb9 0x1 /home/rlyerly/Downloads/popcorn-compiler/test-install/aarch64/lib/libc.a(atoi.o)
 .debug_info    0x0000000000001cc3      0x118 0x1 /home/rlyerly/Downloads/popcorn-compiler/test-install/aarch64/lib/libc.a(memset.o)
 .debug_info    0x0000000000001ddb       0x95 0x1 /home/rlyerly/Downloads/popcorn-compiler/test-install/aarch64/lib/libc.a(strnlen.o)
 .debug_info    0x0000000000001e70       0x45 0x1 /home/rlyerly/Downloads/popcorn-compiler/test-install/aarch64/lib/libc.a(__environ.o)
 .debug_info    0x0000000000001eb5      0x7aa 0x1 /home/rlyerly/Downloads/popcorn-compiler/test-install/aarch64/lib/libc.a(__init_tls.o)
 .debug_info    0x000000000000265f      0x3a5 0x1 /home/rlyerly/Downloads/popcorn-compiler/test-install/aarch64/lib/libc.a(__errno_location.o)
 .debug_info    0x0000000000002a04      0x495 0x1 /home/rlyerly/Downloads/popcorn-compiler/test-install/aarch64/lib/libc.a(strerror.o)
 .debug_info    0x0000000000002e99       0xcb 0x1 /home/rlyerly/Downloads/popcorn-compiler/test-install/aarch64/lib/libc.a(_Exit.o)
 .debug_info    0x0000000000002f64      0x467 0x1 /home/rlyerly/Downloads/popcorn-compiler/test-install/aarch64/lib/libc.a(__lctrans.o)
 .debug_info    0x00000000000033cb      0x12f 0x1 /home/rlyerly/Downloads/popcorn-compiler/test-install/aarch64/lib/libc.a(__fpclassifyl.o)
 .debug_info    0x00000000000034fa      0x124 0x1 /home/rlyerly/Downloads/popcorn-compiler/test-install/aarch64/lib/libc.a(__signbitl.o)
 .debug_info    0x000000000000361e      0x145 0x1 /home/rlyerly/Downloads/popcorn-compiler/test-install/aarch64/lib/libc.a(frexpl.o)
 .debug_info    0x0000000000003763       0x86 0x1 /home/rlyerly/Downloads/popcorn-compiler/test-install/aarch64/lib/libc.a(wctomb.o)
 .debug_info    0x00000000000037e9      0x8b0 0x1 /home/rlyerly/Downloads/popcorn-compiler/test-install/aarch64/lib/libc.a(__lockfile.o)
 .debug_info    0x0000000000004099      0x38a 0x1 /home/rlyerly/Downloads/popcorn-compiler/test-install/aarch64/lib/libc.a(__stdio_close.o)
 .debug_info    0x0000000000004423      0x3b4 0x1 /home/rlyerly/Downloads/popcorn-compiler/test-install/aarch64/lib/libc.a(__stdio_seek.o)
 .debug_info    0x00000000000047d7      0x408 0x1 /home/rlyerly/Downloads/popcorn-compiler/test-install/aarch64/lib/libc.a(__stdout_write.o)
 .debug_info    0x0000000000004bdf      0x3d4 0x1 /home/rlyerly/Downloads/popcorn-compiler/test-install/aarch64/lib/libc.a(fwrite.o)
 .debug_info    0x0000000000004fb3       0xf3 0x1 /home/rlyerly/Downloads/popcorn-compiler/test-install/aarch64/lib/libc.a(memchr.o)
 .debug_info    0x00000000000050a6      0x112 0x1 /home/rlyerly/Downloads/popcorn-compiler/test-install/aarch64/lib/libc.a(memcpy.o)
 .debug_info    0x00000000000051b8      0x34f 0x1 /home/rlyerly/Downloads/popcorn-compiler/test-install/aarch64/lib/libc.a(__wait.o)
 .debug_info    0x0000000000005507       0xc9 0x1 /home/rlyerly/Downloads/popcorn-compiler/test-install/aarch64/lib/libc.a(__set_thread_area.o)
 .debug_info    0x00000000000055d0       0x62 0x1 /home/rlyerly/Downloads/popcorn-compiler/test-install/aarch64/lib/libc.a(syscall_ret.o)
 .debug_info    0x0000000000005632      0x462 0x1 /home/rlyerly/Downloads/popcorn-compiler/test-install/aarch64/lib/libc.a(wcrtomb.o)
 .debug_info    0x0000000000005a94      0x42e 0x1 /home/rlyerly/Downloads/popcorn-compiler/test-install/aarch64/lib/libc.a(__stdio_write.o)
 .debug_info    0x0000000000005ec2      0x314 0x1 /home/rlyerly/Downloads/popcorn-compiler/test-install/aarch64/lib/libc.a(__towrite.o)
 .debug_info    0x00000000000061d6      0x338 0x1 /home/rlyerly/Downloads/popcorn-compiler/test-install/aarch64/lib/libc.a(__stdio_exit.o)
 .debug_info    0x000000000000650e      0x341 0x1 /home/rlyerly/Downloads/popcorn-compiler/test-install/aarch64/lib/libc.a(ofl.o)
 .debug_info    0x000000000000684f      0x2ea 0x1 /home/rlyerly/Downloads/popcorn-compiler/test-install/aarch64/lib/libc.a(__lock.o)
 .debug_info    0x0000000000006b39      0x5b4 0x1 /home/rlyerly/Downloads/popcorn-compiler/test-install/aarch64/lib/libmigrate.a(migrate.o)
 .debug_info    0x00000000000070ed      0x49c 0x1 /home/rlyerly/Downloads/popcorn-compiler/test-install/aarch64/lib/libmigrate.a(trigger.o)
 .debug_info    0x0000000000007589      0xfa9 0x1 /home/rlyerly/Downloads/popcorn-compiler/test-install/aarch64/lib/libstack-transform.a(userspace.o)
 .debug_info    0x0000000000008532      0x8c3 0x1 /home/rlyerly/Downloads/popcorn-compiler/test-install/aarch64/lib/libstack-transform.a(init.o)
 .debug_info    0x0000000000008df5     0x100b 0x1 /home/rlyerly/Downloads/popcorn-compiler/test-install/aarch64/lib/libstack-transform.a(rewrite.o)
 .debug_info    0x0000000000009e00      0xd8c 0x1 /home/rlyerly/Downloads/popcorn-compiler/test-install/aarch64/lib/libstack-transform.a(unwind.o)
 .debug_info    0x000000000000ab8c      0xc79 0x1 /home/rlyerly/Downloads/popcorn-compiler/test-install/aarch64/lib/libstack-transform.a(util.o)
 .debug_info    0x000000000000b805      0x1eb 0x1 /home/rlyerly/Downloads/popcorn-compiler/test-install/aarch64/lib/libstack-transform.a(properties.o)
 .debug_info    0x000000000000b9f0      0x6a9 0x1 /home/rlyerly/Downloads/popcorn-compiler/test-install/aarch64/lib/libstack-transform.a(regs.o)
 .debug_info    0x000000000000c099      0x206 0x1 /home/rlyerly/Downloads/popcorn-compiler/test-install/aarch64/lib/libstack-transform.a(properties.o)
 .debug_info    0x000000000000c29f      0x6a2 0x1 /home/rlyerly/Downloads/popcorn-compiler/test-install/aarch64/lib/libstack-transform.a(regs.o)
 .debug_info    0x000000000000c941      0x1eb 0x1 /home/rlyerly/Downloads/popcorn-compiler/test-install/aarch64/lib/libstack-transform.a(properties.o)
 .debug_info    0x000000000000cb2c      0x7d7 0x1 /home/rlyerly/Downloads/popcorn-compiler/test-install/aarch64/lib/libstack-transform.a(regs.o)
 .debug_info    0x000000000000d303      0xed5 0x1 /home/rlyerly/Downloads/popcorn-compiler/test-install/aarch64/lib/libstack-transform.a(data.o)
 .debug_info    0x000000000000e1d8      0x3fb 0x1 /home/rlyerly/Downloads/popcorn-compiler/test-install/aarch64/lib/libc.a(__stack_chk_fail.o)
 .debug_info    0x000000000000e5d3       0xa1 0x1 /home/rlyerly/Downloads/popcorn-compiler/test-install/aarch64/lib/libc.a(getenv.o)
 .debug_info    0x000000000000e674       0x95 0x1 /home/rlyerly/Downloads/popcorn-compiler/test-install/aarch64/lib/libc.a(assert.o)
 .debug_info    0x000000000000e709      0x1c0 0x1 /home/rlyerly/Downloads/popcorn-compiler/test-install/aarch64/lib/libc.a(open.o)
 .debug_info    0x000000000000e8c9       0x74 0x1 /home/rlyerly/Downloads/popcorn-compiler/test-install/aarch64/lib/libc.a(calloc.o)
 .debug_info    0x000000000000e93d      0x12d 0x1 /home/rlyerly/Downloads/popcorn-compiler/test-install/aarch64/lib/libc.a(lite_malloc.o)
 .debug_info    0x000000000000ea6a     0x20d4 0x1 /home/rlyerly/Downloads/popcorn-compiler/test-install/aarch64/lib/libc.a(malloc.o)
 .debug_info    0x0000000000010b3e      0x212 0x1 /home/rlyerly/Downloads/popcorn-compiler/test-install/aarch64/lib/libc.a(getrlimit.o)
 .debug_info    0x0000000000010d50      0x20e 0x1 /home/rlyerly/Downloads/popcorn-compiler/test-install/aarch64/lib/libc.a(syscall.o)
 .debug_info    0x0000000000010f5e      0x121 0x1 /home/rlyerly/Downloads/popcorn-compiler/test-install/aarch64/lib/libc.a(madvise.o)
 .debug_info    0x000000000001107f      0x1b6 0x1 /home/rlyerly/Downloads/popcorn-compiler/test-install/aarch64/lib/libc.a(mmap.o)
 .debug_info    0x0000000000011235      0x1e5 0x1 /home/rlyerly/Downloads/popcorn-compiler/test-install/aarch64/lib/libc.a(mremap.o)
 .debug_info    0x000000000001141a      0x113 0x1 /home/rlyerly/Downloads/popcorn-compiler/test-install/aarch64/lib/libc.a(munmap.o)
 .debug_info    0x000000000001152d      0x822 0x1 /home/rlyerly/Downloads/popcorn-compiler/test-install/aarch64/lib/libc.a(sigaction.o)
 .debug_info    0x0000000000011d4f       0x9b 0x1 /home/rlyerly/Downloads/popcorn-compiler/test-install/aarch64/lib/libc.a(sigemptyset.o)
 .debug_info    0x0000000000011dea       0x4b 0x1 /home/rlyerly/Downloads/popcorn-compiler/test-install/aarch64/lib/libc.a(sigrtmin.o)
 .debug_info    0x0000000000011e35      0x373 0x1 /home/rlyerly/Downloads/popcorn-compiler/test-install/aarch64/lib/libc.a(fclose.o)
 .debug_info    0x00000000000121a8      0x35c 0x1 /home/rlyerly/Downloads/popcorn-compiler/test-install/aarch64/lib/libc.a(fflush.o)
 .debug_info    0x0000000000012504      0x4ff 0x1 /home/rlyerly/Downloads/popcorn-compiler/test-install/aarch64/lib/libc.a(fopen.o)
 .debug_info    0x0000000000012a03      0x10e 0x1 /home/rlyerly/Downloads/popcorn-compiler/test-install/aarch64/lib/libc.a(fprintf.o)
 .debug_info    0x0000000000012b11       0xcd 0x1 /home/rlyerly/Downloads/popcorn-compiler/test-install/aarch64/lib/libc.a(getline.o)
 .debug_info    0x0000000000012bde      0x334 0x1 /home/rlyerly/Downloads/popcorn-compiler/test-install/aarch64/lib/libc.a(perror.o)
 .debug_info    0x0000000000012f12      0x11c 0x1 /home/rlyerly/Downloads/popcorn-compiler/test-install/aarch64/lib/libc.a(snprintf.o)
 .debug_info    0x000000000001302e       0xf3 0x1 /home/rlyerly/Downloads/popcorn-compiler/test-install/aarch64/lib/libc.a(sscanf.o)
 .debug_info    0x0000000000013121      0x336 0x1 /home/rlyerly/Downloads/popcorn-compiler/test-install/aarch64/lib/libc.a(stderr.o)
 .debug_info    0x0000000000013457      0x468 0x1 /home/rlyerly/Downloads/popcorn-compiler/test-install/aarch64/lib/libc.a(vsnprintf.o)
 .debug_info    0x00000000000138bf      0x3cb 0x1 /home/rlyerly/Downloads/popcorn-compiler/test-install/aarch64/lib/libc.a(vsscanf.o)
 .debug_info    0x0000000000013c8a      0x5aa 0x1 /home/rlyerly/Downloads/popcorn-compiler/test-install/aarch64/lib/libc.a(strtol.o)
 .debug_info    0x0000000000014234       0xc0 0x1 /home/rlyerly/Downloads/popcorn-compiler/test-install/aarch64/lib/libc.a(memcmp.o)
 .debug_info    0x00000000000142f4       0xcf 0x1 /home/rlyerly/Downloads/popcorn-compiler/test-install/aarch64/lib/libc.a(memmove.o)
 .debug_info    0x00000000000143c3       0x9b 0x1 /home/rlyerly/Downloads/popcorn-compiler/test-install/aarch64/lib/libc.a(strchr.o)
 .debug_info    0x000000000001445e       0xcd 0x1 /home/rlyerly/Downloads/popcorn-compiler/test-install/aarch64/lib/libc.a(strchrnul.o)
 .debug_info    0x000000000001452b       0x87 0x1 /home/rlyerly/Downloads/popcorn-compiler/test-install/aarch64/lib/libc.a(strcmp.o)
 .debug_info    0x00000000000145b2       0xb0 0x1 /home/rlyerly/Downloads/popcorn-compiler/test-install/aarch64/lib/libc.a(strlen.o)
 .debug_info    0x0000000000014662       0xcc 0x1 /home/rlyerly/Downloads/popcorn-compiler/test-install/aarch64/lib/libc.a(strncmp.o)
 .debug_info    0x000000000001472e      0x127 0x1 /home/rlyerly/Downloads/popcorn-compiler/test-install/aarch64/lib/libc.a(__syscall_cp.o)
 .debug_info    0x0000000000014855      0x59c 0x1 /home/rlyerly/Downloads/popcorn-compiler/test-install/aarch64/lib/libc.a(pthread_attr_get.o)
 .debug_info    0x0000000000014df1      0x431 0x1 /home/rlyerly/Downloads/popcorn-compiler/test-install/aarch64/lib/libc.a(pthread_getattr_np.o)
 .debug_info    0x0000000000015222      0x3cf 0x1 /home/rlyerly/Downloads/popcorn-compiler/test-install/aarch64/lib/libc.a(pthread_getspecific.o)
 .debug_info    0x00000000000155f1      0x648 0x1 /home/rlyerly/Downloads/popcorn-compiler/test-install/aarch64/lib/libc.a(pthread_key_create.o)
 .debug_info    0x0000000000015c39      0x3ab 0x1 /home/rlyerly/Downloads/popcorn-compiler/test-install/aarch64/lib/libc.a(pthread_migrate.o)
 .debug_info    0x0000000000015fe4      0x3ac 0x1 /home/rlyerly/Downloads/popcorn-compiler/test-install/aarch64/lib/libc.a(pthread_self.o)
 .debug_info    0x0000000000016390      0x3e0 0x1 /home/rlyerly/Downloads/popcorn-compiler/test-install/aarch64/lib/libc.a(pthread_setspecific.o)
 .debug_info    0x0000000000016770       0x98 0x1 /home/rlyerly/Downloads/popcorn-compiler/test-install/aarch64/lib/libc.a(close.o)
 .debug_info    0x0000000000016808       0xb6 0x1 /home/rlyerly/Downloads/popcorn-compiler/test-install/aarch64/lib/libc.a(getpid.o)
 .debug_info    0x00000000000168be      0x115 0x1 /home/rlyerly/Downloads/popcorn-compiler/test-install/aarch64/lib/libc.a(lseek.o)
 .debug_info    0x00000000000169d3       0x9e 0x1 /home/rlyerly/Downloads/popcorn-compiler/test-install/aarch64/lib/libc.a(read.o)
 .debug_info    0x0000000000016a71       0x6d 0x1 /home/rlyerly/Downloads/popcorn-compiler/test-install/aarch64/lib/libc.a(abort.o)
 .debug_info    0x0000000000016ade       0xb7 0x1 /home/rlyerly/Downloads/popcorn-compiler/test-install/aarch64/lib/libc.a(syscall.o)
 .debug_info    0x0000000000016b95      0x3c6 0x1 /home/rlyerly/Downloads/popcorn-compiler/test-install/aarch64/lib/libc.a(intscan.o)
 .debug_info    0x0000000000016f5b      0x340 0x1 /home/rlyerly/Downloads/popcorn-compiler/test-install/aarch64/lib/libc.a(shgetc.o)
 .debug_info    0x000000000001729b      0x1f4 0x1 /home/rlyerly/Downloads/popcorn-compiler/test-install/aarch64/lib/libc.a(expand_heap.o)
 .debug_info    0x000000000001748f       0xcb 0x1 /home/rlyerly/Downloads/popcorn-compiler/test-install/aarch64/lib/libc.a(restore.o)
 .debug_info    0x000000000001755a      0x202 0x1 /home/rlyerly/Downloads/popcorn-compiler/test-install/aarch64/lib/libc.a(block.o)
 .debug_info    0x000000000001775c      0x197 0x1 /home/rlyerly/Downloads/popcorn-compiler/test-install/aarch64/lib/libc.a(raise.o)
 .debug_info    0x00000000000178f3      0x54c 0x1 /home/rlyerly/Downloads/popcorn-compiler/test-install/aarch64/lib/libc.a(__fdopen.o)
 .debug_info    0x0000000000017e3f       0x7b 0x1 /home/rlyerly/Downloads/popcorn-compiler/test-install/aarch64/lib/libc.a(__fmodeflags.o)
 .debug_info    0x0000000000017eba      0x413 0x1 /home/rlyerly/Downloads/popcorn-compiler/test-install/aarch64/lib/libc.a(__stdio_read.o)
 .debug_info    0x00000000000182cd      0x34c 0x1 /home/rlyerly/Downloads/popcorn-compiler/test-install/aarch64/lib/libc.a(__string_read.o)
 .debug_info    0x0000000000018619      0x310 0x1 /home/rlyerly/Downloads/popcorn-compiler/test-install/aarch64/lib/libc.a(__uflow.o)
 .debug_info    0x0000000000018929      0x310 0x1 /home/rlyerly/Downloads/popcorn-compiler/test-install/aarch64/lib/libc.a(fputc.o)
 .debug_info    0x0000000000018c39      0x3c1 0x1 /home/rlyerly/Downloads/popcorn-compiler/test-install/aarch64/lib/libc.a(getdelim.o)
 .debug_info    0x0000000000018ffa      0x315 0x1 /home/rlyerly/Downloads/popcorn-compiler/test-install/aarch64/lib/libc.a(ofl_add.o)
 .debug_info    0x000000000001930f      0x693 0x1 /home/rlyerly/Downloads/popcorn-compiler/test-install/aarch64/lib/libc.a(vfscanf.o)
 .debug_info    0x00000000000199a2      0x8e1 0x1 /home/rlyerly/Downloads/popcorn-compiler/test-install/aarch64/lib/libc.a(floatscan.o)
 .debug_info    0x000000000001a283       0x5b 0x1 /home/rlyerly/Downloads/popcorn-compiler/test-install/aarch64/lib/libc.a(fabs.o)
 .debug_info    0x000000000001a2de      0x13b 0x1 /home/rlyerly/Downloads/popcorn-compiler/test-install/aarch64/lib/libc.a(copysignl.o)
 .debug_info    0x000000000001a419      0x25a 0x1 /home/rlyerly/Downloads/popcorn-compiler/test-install/aarch64/lib/libc.a(fmodl.o)
 .debug_info    0x000000000001a673       0xc9 0x1 /home/rlyerly/Downloads/popcorn-compiler/test-install/aarch64/lib/libc.a(scalbn.o)
 .debug_info    0x000000000001a73c      0x142 0x1 /home/rlyerly/Downloads/popcorn-compiler/test-install/aarch64/lib/libc.a(scalbnl.o)
 .debug_info    0x000000000001a87e      0x4f8 0x1 /home/rlyerly/Downloads/popcorn-compiler/test-install/aarch64/lib/libc.a(mbrtowc.o)
 .debug_info    0x000000000001ad76       0xa1 0x1 /home/rlyerly/Downloads/popcorn-compiler/test-install/aarch64/lib/libc.a(mbsinit.o)
 .debug_info    0x000000000001ae17      0x31f 0x1 /home/rlyerly/Downloads/popcorn-compiler/test-install/aarch64/lib/libc.a(__overflow.o)
 .debug_info    0x000000000001b136      0x316 0x1 /home/rlyerly/Downloads/popcorn-compiler/test-install/aarch64/lib/libc.a(__toread.o)
 .debug_info    0x000000000001b44c       0x5e 0x1 /home/rlyerly/Downloads/popcorn-compiler/test-install/aarch64/lib/libc.a(internal.o)

.debug_ranges   0x0000000000000000     0x3f30
 .debug_ranges  0x0000000000000000        0x0 0x1 /home/rlyerly/Downloads/popcorn-compiler/test-install/aarch64/lib/crt1.o
 .debug_ranges  0x0000000000000000       0xc0 0x1 /home/rlyerly/Downloads/popcorn-compiler/test-install/aarch64/lib/libc.a(__libc_start_main.o)
 .debug_ranges  0x00000000000000c0       0x40 0x1 /home/rlyerly/Downloads/popcorn-compiler/test-install/aarch64/lib/libc.a(exit.o)
 .debug_ranges  0x0000000000000100        0x0 0x1 /home/rlyerly/Downloads/popcorn-compiler/test-install/aarch64/lib/libc.a(libc.o)
 .debug_ranges  0x0000000000000100        0x0 0x1 /home/rlyerly/Downloads/popcorn-compiler/test-install/aarch64/lib/libc.a(printf.o)
 .debug_ranges  0x0000000000000100        0x0 0x1 /home/rlyerly/Downloads/popcorn-compiler/test-install/aarch64/lib/libc.a(stdout.o)
 .debug_ranges  0x0000000000000100      0xbd0 0x1 /home/rlyerly/Downloads/popcorn-compiler/test-install/aarch64/lib/libc.a(vfprintf.o)
 .debug_ranges  0x0000000000000cd0        0x0 0x1 /home/rlyerly/Downloads/popcorn-compiler/test-install/aarch64/lib/libc.a(atoi.o)
 .debug_ranges  0x0000000000000cd0        0x0 0x1 /home/rlyerly/Downloads/popcorn-compiler/test-install/aarch64/lib/libc.a(memset.o)
 .debug_ranges  0x0000000000000cd0        0x0 0x1 /home/rlyerly/Downloads/popcorn-compiler/test-install/aarch64/lib/libc.a(strnlen.o)
 .debug_ranges  0x0000000000000cd0        0x0 0x1 /home/rlyerly/Downloads/popcorn-compiler/test-install/aarch64/lib/libc.a(__environ.o)
 .debug_ranges  0x0000000000000cd0       0x40 0x1 /home/rlyerly/Downloads/popcorn-compiler/test-install/aarch64/lib/libc.a(__init_tls.o)
 .debug_ranges  0x0000000000000d10        0x0 0x1 /home/rlyerly/Downloads/popcorn-compiler/test-install/aarch64/lib/libc.a(__errno_location.o)
 .debug_ranges  0x0000000000000d10       0x30 0x1 /home/rlyerly/Downloads/popcorn-compiler/test-install/aarch64/lib/libc.a(strerror.o)
 .debug_ranges  0x0000000000000d40        0x0 0x1 /home/rlyerly/Downloads/popcorn-compiler/test-install/aarch64/lib/libc.a(_Exit.o)
 .debug_ranges  0x0000000000000d40       0x40 0x1 /home/rlyerly/Downloads/popcorn-compiler/test-install/aarch64/lib/libc.a(__lctrans.o)
 .debug_ranges  0x0000000000000d80        0x0 0x1 /home/rlyerly/Downloads/popcorn-compiler/test-install/aarch64/lib/libc.a(__fpclassifyl.o)
 .debug_ranges  0x0000000000000d80        0x0 0x1 /home/rlyerly/Downloads/popcorn-compiler/test-install/aarch64/lib/libc.a(__signbitl.o)
 .debug_ranges  0x0000000000000d80        0x0 0x1 /home/rlyerly/Downloads/popcorn-compiler/test-install/aarch64/lib/libc.a(frexpl.o)
 .debug_ranges  0x0000000000000d80        0x0 0x1 /home/rlyerly/Downloads/popcorn-compiler/test-install/aarch64/lib/libc.a(wctomb.o)
 .debug_ranges  0x0000000000000d80       0x60 0x1 /home/rlyerly/Downloads/popcorn-compiler/test-install/aarch64/lib/libc.a(__lockfile.o)
 .debug_ranges  0x0000000000000de0       0x30 0x1 /home/rlyerly/Downloads/popcorn-compiler/test-install/aarch64/lib/libc.a(__stdio_close.o)
 .debug_ranges  0x0000000000000e10        0x0 0x1 /home/rlyerly/Downloads/popcorn-compiler/test-install/aarch64/lib/libc.a(__stdio_seek.o)
 .debug_ranges  0x0000000000000e10        0x0 0x1 /home/rlyerly/Downloads/popcorn-compiler/test-install/aarch64/lib/libc.a(__stdout_write.o)
 .debug_ranges  0x0000000000000e10       0x60 0x1 /home/rlyerly/Downloads/popcorn-compiler/test-install/aarch64/lib/libc.a(fwrite.o)
 .debug_ranges  0x0000000000000e70        0x0 0x1 /home/rlyerly/Downloads/popcorn-compiler/test-install/aarch64/lib/libc.a(memchr.o)
 .debug_ranges  0x0000000000000e70        0x0 0x1 /home/rlyerly/Downloads/popcorn-compiler/test-install/aarch64/lib/libc.a(memcpy.o)
 .debug_ranges  0x0000000000000e70       0x60 0x1 /home/rlyerly/Downloads/popcorn-compiler/test-install/aarch64/lib/libc.a(__wait.o)
 .debug_ranges  0x0000000000000ed0        0x0 0x1 /home/rlyerly/Downloads/popcorn-compiler/test-install/aarch64/lib/libc.a(syscall_ret.o)
 .debug_ranges  0x0000000000000ed0        0x0 0x1 /home/rlyerly/Downloads/popcorn-compiler/test-install/aarch64/lib/libc.a(wcrtomb.o)
 .debug_ranges  0x0000000000000ed0       0x30 0x1 /home/rlyerly/Downloads/popcorn-compiler/test-install/aarch64/lib/libc.a(__stdio_write.o)
 .debug_ranges  0x0000000000000f00       0x30 0x1 /home/rlyerly/Downloads/popcorn-compiler/test-install/aarch64/lib/libc.a(__towrite.o)
 .debug_ranges  0x0000000000000f30       0x30 0x1 /home/rlyerly/Downloads/popcorn-compiler/test-install/aarch64/lib/libc.a(__stdio_exit.o)
 .debug_ranges  0x0000000000000f60       0x30 0x1 /home/rlyerly/Downloads/popcorn-compiler/test-install/aarch64/lib/libc.a(ofl.o)
 .debug_ranges  0x0000000000000f90       0x90 0x1 /home/rlyerly/Downloads/popcorn-compiler/test-install/aarch64/lib/libc.a(__lock.o)
 .debug_ranges  0x0000000000001020       0xb0 0x1 /home/rlyerly/Downloads/popcorn-compiler/test-install/aarch64/lib/libmigrate.a(migrate.o)
 .debug_ranges  0x00000000000010d0       0x50 0x1 /home/rlyerly/Downloads/popcorn-compiler/test-install/aarch64/lib/libmigrate.a(trigger.o)
 .debug_ranges  0x0000000000001120      0x160 0x1 /home/rlyerly/Downloads/popcorn-compiler/test-install/aarch64/lib/libstack-transform.a(userspace.o)
 .debug_ranges  0x0000000000001280       0x50 0x1 /home/rlyerly/Downloads/popcorn-compiler/test-install/aarch64/lib/libstack-transform.a(init.o)
 .debug_ranges  0x00000000000012d0      0x3c0 0x1 /home/rlyerly/Downloads/popcorn-compiler/test-install/aarch64/lib/libstack-transform.a(rewrite.o)
 .debug_ranges  0x0000000000001690      0x130 0x1 /home/rlyerly/Downloads/popcorn-compiler/test-install/aarch64/lib/libstack-transform.a(unwind.o)
 .debug_ranges  0x00000000000017c0       0xf0 0x1 /home/rlyerly/Downloads/popcorn-compiler/test-install/aarch64/lib/libstack-transform.a(util.o)
 .debug_ranges  0x00000000000018b0       0x40 0x1 /home/rlyerly/Downloads/popcorn-compiler/test-install/aarch64/lib/libstack-transform.a(properties.o)
 .debug_ranges  0x00000000000018f0      0x120 0x1 /home/rlyerly/Downloads/popcorn-compiler/test-install/aarch64/lib/libstack-transform.a(regs.o)
 .debug_ranges  0x0000000000001a10       0x40 0x1 /home/rlyerly/Downloads/popcorn-compiler/test-install/aarch64/lib/libstack-transform.a(properties.o)
 .debug_ranges  0x0000000000001a50      0x120 0x1 /home/rlyerly/Downloads/popcorn-compiler/test-install/aarch64/lib/libstack-transform.a(regs.o)
 .debug_ranges  0x0000000000001b70       0x40 0x1 /home/rlyerly/Downloads/popcorn-compiler/test-install/aarch64/lib/libstack-transform.a(properties.o)
 .debug_ranges  0x0000000000001bb0      0x120 0x1 /home/rlyerly/Downloads/popcorn-compiler/test-install/aarch64/lib/libstack-transform.a(regs.o)
 .debug_ranges  0x0000000000001cd0      0x410 0x1 /home/rlyerly/Downloads/popcorn-compiler/test-install/aarch64/lib/libstack-transform.a(data.o)
 .debug_ranges  0x00000000000020e0       0x30 0x1 /home/rlyerly/Downloads/popcorn-compiler/test-install/aarch64/lib/libc.a(__stack_chk_fail.o)
 .debug_ranges  0x0000000000002110       0x30 0x1 /home/rlyerly/Downloads/popcorn-compiler/test-install/aarch64/lib/libc.a(getenv.o)
 .debug_ranges  0x0000000000002140        0x0 0x1 /home/rlyerly/Downloads/popcorn-compiler/test-install/aarch64/lib/libc.a(assert.o)
 .debug_ranges  0x0000000000002140       0x30 0x1 /home/rlyerly/Downloads/popcorn-compiler/test-install/aarch64/lib/libc.a(open.o)
 .debug_ranges  0x0000000000002170        0x0 0x1 /home/rlyerly/Downloads/popcorn-compiler/test-install/aarch64/lib/libc.a(calloc.o)
 .debug_ranges  0x0000000000002170       0x40 0x1 /home/rlyerly/Downloads/popcorn-compiler/test-install/aarch64/lib/libc.a(lite_malloc.o)
 .debug_ranges  0x00000000000021b0     0x1070 0x1 /home/rlyerly/Downloads/popcorn-compiler/test-install/aarch64/lib/libc.a(malloc.o)
 .debug_ranges  0x0000000000003220        0x0 0x1 /home/rlyerly/Downloads/popcorn-compiler/test-install/aarch64/lib/libc.a(getrlimit.o)
 .debug_ranges  0x0000000000003220        0x0 0x1 /home/rlyerly/Downloads/popcorn-compiler/test-install/aarch64/lib/libc.a(syscall.o)
 .debug_ranges  0x0000000000003220        0x0 0x1 /home/rlyerly/Downloads/popcorn-compiler/test-install/aarch64/lib/libc.a(madvise.o)
 .debug_ranges  0x0000000000003220       0x60 0x1 /home/rlyerly/Downloads/popcorn-compiler/test-install/aarch64/lib/libc.a(mmap.o)
 .debug_ranges  0x0000000000003280       0x30 0x1 /home/rlyerly/Downloads/popcorn-compiler/test-install/aarch64/lib/libc.a(mremap.o)
 .debug_ranges  0x00000000000032b0       0x30 0x1 /home/rlyerly/Downloads/popcorn-compiler/test-install/aarch64/lib/libc.a(munmap.o)
 .debug_ranges  0x00000000000032e0       0xa0 0x1 /home/rlyerly/Downloads/popcorn-compiler/test-install/aarch64/lib/libc.a(sigaction.o)
 .debug_ranges  0x0000000000003380        0x0 0x1 /home/rlyerly/Downloads/popcorn-compiler/test-install/aarch64/lib/libc.a(sigemptyset.o)
 .debug_ranges  0x0000000000003380        0x0 0x1 /home/rlyerly/Downloads/popcorn-compiler/test-install/aarch64/lib/libc.a(sigrtmin.o)
 .debug_ranges  0x0000000000003380       0x30 0x1 /home/rlyerly/Downloads/popcorn-compiler/test-install/aarch64/lib/libc.a(fclose.o)
 .debug_ranges  0x00000000000033b0       0x30 0x1 /home/rlyerly/Downloads/popcorn-compiler/test-install/aarch64/lib/libc.a(fflush.o)
 .debug_ranges  0x00000000000033e0       0x30 0x1 /home/rlyerly/Downloads/popcorn-compiler/test-install/aarch64/lib/libc.a(fopen.o)
 .debug_ranges  0x0000000000003410        0x0 0x1 /home/rlyerly/Downloads/popcorn-compiler/test-install/aarch64/lib/libc.a(fprintf.o)
 .debug_ranges  0x0000000000003410        0x0 0x1 /home/rlyerly/Downloads/popcorn-compiler/test-install/aarch64/lib/libc.a(getline.o)
 .debug_ranges  0x0000000000003410        0x0 0x1 /home/rlyerly/Downloads/popcorn-compiler/test-install/aarch64/lib/libc.a(perror.o)
 .debug_ranges  0x0000000000003410        0x0 0x1 /home/rlyerly/Downloads/popcorn-compiler/test-install/aarch64/lib/libc.a(snprintf.o)
 .debug_ranges  0x0000000000003410        0x0 0x1 /home/rlyerly/Downloads/popcorn-compiler/test-install/aarch64/lib/libc.a(sscanf.o)
 .debug_ranges  0x0000000000003410        0x0 0x1 /home/rlyerly/Downloads/popcorn-compiler/test-install/aarch64/lib/libc.a(stderr.o)
 .debug_ranges  0x0000000000003410       0x30 0x1 /home/rlyerly/Downloads/popcorn-compiler/test-install/aarch64/lib/libc.a(vsnprintf.o)
 .debug_ranges  0x0000000000003440       0x30 0x1 /home/rlyerly/Downloads/popcorn-compiler/test-install/aarch64/lib/libc.a(vsscanf.o)
 .debug_ranges  0x0000000000003470       0x80 0x1 /home/rlyerly/Downloads/popcorn-compiler/test-install/aarch64/lib/libc.a(strtol.o)
 .debug_ranges  0x00000000000034f0        0x0 0x1 /home/rlyerly/Downloads/popcorn-compiler/test-install/aarch64/lib/libc.a(memcmp.o)
 .debug_ranges  0x00000000000034f0        0x0 0x1 /home/rlyerly/Downloads/popcorn-compiler/test-install/aarch64/lib/libc.a(memmove.o)
 .debug_ranges  0x00000000000034f0        0x0 0x1 /home/rlyerly/Downloads/popcorn-compiler/test-install/aarch64/lib/libc.a(strchr.o)
 .debug_ranges  0x00000000000034f0        0x0 0x1 /home/rlyerly/Downloads/popcorn-compiler/test-install/aarch64/lib/libc.a(strchrnul.o)
 .debug_ranges  0x00000000000034f0        0x0 0x1 /home/rlyerly/Downloads/popcorn-compiler/test-install/aarch64/lib/libc.a(strcmp.o)
 .debug_ranges  0x00000000000034f0        0x0 0x1 /home/rlyerly/Downloads/popcorn-compiler/test-install/aarch64/lib/libc.a(strlen.o)
 .debug_ranges  0x00000000000034f0        0x0 0x1 /home/rlyerly/Downloads/popcorn-compiler/test-install/aarch64/lib/libc.a(strncmp.o)
 .debug_ranges  0x00000000000034f0       0x30 0x1 /home/rlyerly/Downloads/popcorn-compiler/test-install/aarch64/lib/libc.a(__syscall_cp.o)
 .debug_ranges  0x0000000000003520      0x110 0x1 /home/rlyerly/Downloads/popcorn-compiler/test-install/aarch64/lib/libc.a(pthread_attr_get.o)
 .debug_ranges  0x0000000000003630        0x0 0x1 /home/rlyerly/Downloads/popcorn-compiler/test-install/aarch64/lib/libc.a(pthread_getattr_np.o)
 .debug_ranges  0x0000000000003630        0x0 0x1 /home/rlyerly/Downloads/popcorn-compiler/test-install/aarch64/lib/libc.a(pthread_getspecific.o)
 .debug_ranges  0x0000000000003630       0x90 0x1 /home/rlyerly/Downloads/popcorn-compiler/test-install/aarch64/lib/libc.a(pthread_key_create.o)
 .debug_ranges  0x00000000000036c0        0x0 0x1 /home/rlyerly/Downloads/popcorn-compiler/test-install/aarch64/lib/libc.a(pthread_migrate.o)
 .debug_ranges  0x00000000000036c0        0x0 0x1 /home/rlyerly/Downloads/popcorn-compiler/test-install/aarch64/lib/libc.a(pthread_self.o)
 .debug_ranges  0x00000000000036c0        0x0 0x1 /home/rlyerly/Downloads/popcorn-compiler/test-install/aarch64/lib/libc.a(pthread_setspecific.o)
 .debug_ranges  0x00000000000036c0       0x30 0x1 /home/rlyerly/Downloads/popcorn-compiler/test-install/aarch64/lib/libc.a(close.o)
 .debug_ranges  0x00000000000036f0        0x0 0x1 /home/rlyerly/Downloads/popcorn-compiler/test-install/aarch64/lib/libc.a(getpid.o)
 .debug_ranges  0x00000000000036f0        0x0 0x1 /home/rlyerly/Downloads/popcorn-compiler/test-install/aarch64/lib/libc.a(lseek.o)
 .debug_ranges  0x00000000000036f0        0x0 0x1 /home/rlyerly/Downloads/popcorn-compiler/test-install/aarch64/lib/libc.a(read.o)
 .debug_ranges  0x00000000000036f0        0x0 0x1 /home/rlyerly/Downloads/popcorn-compiler/test-install/aarch64/lib/libc.a(abort.o)
 .debug_ranges  0x00000000000036f0       0x30 0x1 /home/rlyerly/Downloads/popcorn-compiler/test-install/aarch64/lib/libc.a(intscan.o)
 .debug_ranges  0x0000000000003720       0x30 0x1 /home/rlyerly/Downloads/popcorn-compiler/test-install/aarch64/lib/libc.a(shgetc.o)
 .debug_ranges  0x0000000000003750       0x30 0x1 /home/rlyerly/Downloads/popcorn-compiler/test-install/aarch64/lib/libc.a(expand_heap.o)
 .debug_ranges  0x0000000000003780       0x50 0x1 /home/rlyerly/Downloads/popcorn-compiler/test-install/aarch64/lib/libc.a(restore.o)
 .debug_ranges  0x00000000000037d0       0x40 0x1 /home/rlyerly/Downloads/popcorn-compiler/test-install/aarch64/lib/libc.a(block.o)
 .debug_ranges  0x0000000000003810        0x0 0x1 /home/rlyerly/Downloads/popcorn-compiler/test-install/aarch64/lib/libc.a(raise.o)
 .debug_ranges  0x0000000000003810       0x30 0x1 /home/rlyerly/Downloads/popcorn-compiler/test-install/aarch64/lib/libc.a(__fdopen.o)
 .debug_ranges  0x0000000000003840        0x0 0x1 /home/rlyerly/Downloads/popcorn-compiler/test-install/aarch64/lib/libc.a(__fmodeflags.o)
 .debug_ranges  0x0000000000003840        0x0 0x1 /home/rlyerly/Downloads/popcorn-compiler/test-install/aarch64/lib/libc.a(__stdio_read.o)
 .debug_ranges  0x0000000000003840        0x0 0x1 /home/rlyerly/Downloads/popcorn-compiler/test-install/aarch64/lib/libc.a(__string_read.o)
 .debug_ranges  0x0000000000003840        0x0 0x1 /home/rlyerly/Downloads/popcorn-compiler/test-install/aarch64/lib/libc.a(__uflow.o)
 .debug_ranges  0x0000000000003840        0x0 0x1 /home/rlyerly/Downloads/popcorn-compiler/test-install/aarch64/lib/libc.a(fputc.o)
 .debug_ranges  0x0000000000003840       0x30 0x1 /home/rlyerly/Downloads/popcorn-compiler/test-install/aarch64/lib/libc.a(getdelim.o)
 .debug_ranges  0x0000000000003870        0x0 0x1 /home/rlyerly/Downloads/popcorn-compiler/test-install/aarch64/lib/libc.a(ofl_add.o)
 .debug_ranges  0x0000000000003870       0xb0 0x1 /home/rlyerly/Downloads/popcorn-compiler/test-install/aarch64/lib/libc.a(vfscanf.o)
 .debug_ranges  0x0000000000003920      0x5e0 0x1 /home/rlyerly/Downloads/popcorn-compiler/test-install/aarch64/lib/libc.a(floatscan.o)
 .debug_ranges  0x0000000000003f00        0x0 0x1 /home/rlyerly/Downloads/popcorn-compiler/test-install/aarch64/lib/libc.a(fabs.o)
 .debug_ranges  0x0000000000003f00        0x0 0x1 /home/rlyerly/Downloads/popcorn-compiler/test-install/aarch64/lib/libc.a(copysignl.o)
 .debug_ranges  0x0000000000003f00        0x0 0x1 /home/rlyerly/Downloads/popcorn-compiler/test-install/aarch64/lib/libc.a(fmodl.o)
 .debug_ranges  0x0000000000003f00        0x0 0x1 /home/rlyerly/Downloads/popcorn-compiler/test-install/aarch64/lib/libc.a(scalbn.o)
 .debug_ranges  0x0000000000003f00        0x0 0x1 /home/rlyerly/Downloads/popcorn-compiler/test-install/aarch64/lib/libc.a(scalbnl.o)
 .debug_ranges  0x0000000000003f00        0x0 0x1 /home/rlyerly/Downloads/popcorn-compiler/test-install/aarch64/lib/libc.a(mbrtowc.o)
 .debug_ranges  0x0000000000003f00        0x0 0x1 /home/rlyerly/Downloads/popcorn-compiler/test-install/aarch64/lib/libc.a(mbsinit.o)
 .debug_ranges  0x0000000000003f00        0x0 0x1 /home/rlyerly/Downloads/popcorn-compiler/test-install/aarch64/lib/libc.a(__overflow.o)
 .debug_ranges  0x0000000000003f00       0x30 0x1 /home/rlyerly/Downloads/popcorn-compiler/test-install/aarch64/lib/libc.a(__toread.o)
 .debug_ranges  0x0000000000003f30        0x0 0x1 /home/rlyerly/Downloads/popcorn-compiler/test-install/aarch64/lib/libc.a(internal.o)

.debug_pubnames
                0x0000000000000000     0x2a0d
 .debug_pubnames
                0x0000000000000000       0x1f 0x1 /home/rlyerly/Downloads/popcorn-compiler/test-install/aarch64/lib/crt1.o
 .debug_pubnames
                0x000000000000001f       0xa4 0x1 /home/rlyerly/Downloads/popcorn-compiler/test-install/aarch64/lib/libc.a(__libc_start_main.o)
 .debug_pubnames
                0x00000000000000c3       0x38 0x1 /home/rlyerly/Downloads/popcorn-compiler/test-install/aarch64/lib/libc.a(exit.o)
 .debug_pubnames
                0x00000000000000fb       0x5a 0x1 /home/rlyerly/Downloads/popcorn-compiler/test-install/aarch64/lib/libc.a(libc.o)
 .debug_pubnames
                0x0000000000000155       0x1d 0x1 /home/rlyerly/Downloads/popcorn-compiler/test-install/aarch64/lib/libc.a(printf.o)
 .debug_pubnames
                0x0000000000000172       0x3d 0x1 /home/rlyerly/Downloads/popcorn-compiler/test-install/aarch64/lib/libc.a(stdout.o)
 .debug_pubnames
                0x00000000000001af       0xb9 0x1 /home/rlyerly/Downloads/popcorn-compiler/test-install/aarch64/lib/libc.a(vfprintf.o)
 .debug_pubnames
                0x0000000000000268       0x29 0x1 /home/rlyerly/Downloads/popcorn-compiler/test-install/aarch64/lib/libc.a(atoi.o)
 .debug_pubnames
                0x0000000000000291       0x1d 0x1 /home/rlyerly/Downloads/popcorn-compiler/test-install/aarch64/lib/libc.a(memset.o)
 .debug_pubnames
                0x00000000000002ae       0x1e 0x1 /home/rlyerly/Downloads/popcorn-compiler/test-install/aarch64/lib/libc.a(strnlen.o)
 .debug_pubnames
                0x00000000000002cc       0x20 0x1 /home/rlyerly/Downloads/popcorn-compiler/test-install/aarch64/lib/libc.a(__environ.o)
 .debug_pubnames
                0x00000000000002ec       0x8a 0x1 /home/rlyerly/Downloads/popcorn-compiler/test-install/aarch64/lib/libc.a(__init_tls.o)
 .debug_pubnames
                0x0000000000000376       0x3a 0x1 /home/rlyerly/Downloads/popcorn-compiler/test-install/aarch64/lib/libc.a(__errno_location.o)
 .debug_pubnames
                0x00000000000003b0       0x58 0x1 /home/rlyerly/Downloads/popcorn-compiler/test-install/aarch64/lib/libc.a(strerror.o)
 .debug_pubnames
                0x0000000000000408       0x2b 0x1 /home/rlyerly/Downloads/popcorn-compiler/test-install/aarch64/lib/libc.a(_Exit.o)
 .debug_pubnames
                0x0000000000000433       0x4f 0x1 /home/rlyerly/Downloads/popcorn-compiler/test-install/aarch64/lib/libc.a(__lctrans.o)
 .debug_pubnames
                0x0000000000000482       0x24 0x1 /home/rlyerly/Downloads/popcorn-compiler/test-install/aarch64/lib/libc.a(__fpclassifyl.o)
 .debug_pubnames
                0x00000000000004a6       0x21 0x1 /home/rlyerly/Downloads/popcorn-compiler/test-install/aarch64/lib/libc.a(__signbitl.o)
 .debug_pubnames
                0x00000000000004c7       0x1d 0x1 /home/rlyerly/Downloads/popcorn-compiler/test-install/aarch64/lib/libc.a(frexpl.o)
 .debug_pubnames
                0x00000000000004e4       0x1d 0x1 /home/rlyerly/Downloads/popcorn-compiler/test-install/aarch64/lib/libc.a(wctomb.o)
 .debug_pubnames
                0x0000000000000501       0x95 0x1 /home/rlyerly/Downloads/popcorn-compiler/test-install/aarch64/lib/libc.a(__lockfile.o)
 .debug_pubnames
                0x0000000000000596       0x3d 0x1 /home/rlyerly/Downloads/popcorn-compiler/test-install/aarch64/lib/libc.a(__stdio_close.o)
 .debug_pubnames
                0x00000000000005d3       0x32 0x1 /home/rlyerly/Downloads/popcorn-compiler/test-install/aarch64/lib/libc.a(__stdio_seek.o)
 .debug_pubnames
                0x0000000000000605       0x34 0x1 /home/rlyerly/Downloads/popcorn-compiler/test-install/aarch64/lib/libc.a(__stdout_write.o)
 .debug_pubnames
                0x0000000000000639       0x2b 0x1 /home/rlyerly/Downloads/popcorn-compiler/test-install/aarch64/lib/libc.a(fwrite.o)
 .debug_pubnames
                0x0000000000000664       0x1d 0x1 /home/rlyerly/Downloads/popcorn-compiler/test-install/aarch64/lib/libc.a(memchr.o)
 .debug_pubnames
                0x0000000000000681       0x1d 0x1 /home/rlyerly/Downloads/popcorn-compiler/test-install/aarch64/lib/libc.a(memcpy.o)
 .debug_pubnames
                0x000000000000069e       0x70 0x1 /home/rlyerly/Downloads/popcorn-compiler/test-install/aarch64/lib/libc.a(__wait.o)
 .debug_pubnames
                0x000000000000070e       0x24 0x1 /home/rlyerly/Downloads/popcorn-compiler/test-install/aarch64/lib/libc.a(syscall_ret.o)
 .debug_pubnames
                0x0000000000000732       0x31 0x1 /home/rlyerly/Downloads/popcorn-compiler/test-install/aarch64/lib/libc.a(wcrtomb.o)
 .debug_pubnames
                0x0000000000000763       0x33 0x1 /home/rlyerly/Downloads/popcorn-compiler/test-install/aarch64/lib/libc.a(__stdio_write.o)
 .debug_pubnames
                0x0000000000000796       0x3f 0x1 /home/rlyerly/Downloads/popcorn-compiler/test-install/aarch64/lib/libc.a(__towrite.o)
 .debug_pubnames
                0x00000000000007d5       0x41 0x1 /home/rlyerly/Downloads/popcorn-compiler/test-install/aarch64/lib/libc.a(__stdio_exit.o)
 .debug_pubnames
                0x0000000000000816       0x4c 0x1 /home/rlyerly/Downloads/popcorn-compiler/test-install/aarch64/lib/libc.a(ofl.o)
 .debug_pubnames
                0x0000000000000862       0x7b 0x1 /home/rlyerly/Downloads/popcorn-compiler/test-install/aarch64/lib/libc.a(__lock.o)
 .debug_pubnames
                0x00000000000008dd       0xe5 0x1 /home/rlyerly/Downloads/popcorn-compiler/test-install/aarch64/lib/libmigrate.a(migrate.o)
 .debug_pubnames
                0x00000000000009c2       0xc7 0x1 /home/rlyerly/Downloads/popcorn-compiler/test-install/aarch64/lib/libmigrate.a(trigger.o)
 .debug_pubnames
                0x0000000000000a89      0x1e7 0x1 /home/rlyerly/Downloads/popcorn-compiler/test-install/aarch64/lib/libstack-transform.a(userspace.o)
 .debug_pubnames
                0x0000000000000c70       0x49 0x1 /home/rlyerly/Downloads/popcorn-compiler/test-install/aarch64/lib/libstack-transform.a(init.o)
 .debug_pubnames
                0x0000000000000cb9      0x158 0x1 /home/rlyerly/Downloads/popcorn-compiler/test-install/aarch64/lib/libstack-transform.a(rewrite.o)
 .debug_pubnames
                0x0000000000000e11      0x129 0x1 /home/rlyerly/Downloads/popcorn-compiler/test-install/aarch64/lib/libstack-transform.a(unwind.o)
 .debug_pubnames
                0x0000000000000f3a       0xda 0x1 /home/rlyerly/Downloads/popcorn-compiler/test-install/aarch64/lib/libstack-transform.a(util.o)
 .debug_pubnames
                0x0000000000001014       0xad 0x1 /home/rlyerly/Downloads/popcorn-compiler/test-install/aarch64/lib/libstack-transform.a(properties.o)
 .debug_pubnames
                0x00000000000010c1      0x189 0x1 /home/rlyerly/Downloads/popcorn-compiler/test-install/aarch64/lib/libstack-transform.a(regs.o)
 .debug_pubnames
                0x000000000000124a       0xb9 0x1 /home/rlyerly/Downloads/popcorn-compiler/test-install/aarch64/lib/libstack-transform.a(properties.o)
 .debug_pubnames
                0x0000000000001303      0x1ad 0x1 /home/rlyerly/Downloads/popcorn-compiler/test-install/aarch64/lib/libstack-transform.a(regs.o)
 .debug_pubnames
                0x00000000000014b0       0xa7 0x1 /home/rlyerly/Downloads/popcorn-compiler/test-install/aarch64/lib/libstack-transform.a(properties.o)
 .debug_pubnames
                0x0000000000001557      0x177 0x1 /home/rlyerly/Downloads/popcorn-compiler/test-install/aarch64/lib/libstack-transform.a(regs.o)
 .debug_pubnames
                0x00000000000016ce      0x113 0x1 /home/rlyerly/Downloads/popcorn-compiler/test-install/aarch64/lib/libstack-transform.a(data.o)
 .debug_pubnames
                0x00000000000017e1       0x6b 0x1 /home/rlyerly/Downloads/popcorn-compiler/test-install/aarch64/lib/libc.a(__stack_chk_fail.o)
 .debug_pubnames
                0x000000000000184c       0x1d 0x1 /home/rlyerly/Downloads/popcorn-compiler/test-install/aarch64/lib/libc.a(getenv.o)
 .debug_pubnames
                0x0000000000001869       0x24 0x1 /home/rlyerly/Downloads/popcorn-compiler/test-install/aarch64/lib/libc.a(assert.o)
 .debug_pubnames
                0x000000000000188d       0x2a 0x1 /home/rlyerly/Downloads/popcorn-compiler/test-install/aarch64/lib/libc.a(open.o)
 .debug_pubnames
                0x00000000000018b7       0x1d 0x1 /home/rlyerly/Downloads/popcorn-compiler/test-install/aarch64/lib/libc.a(calloc.o)
 .debug_pubnames
                0x00000000000018d4       0x3f 0x1 /home/rlyerly/Downloads/popcorn-compiler/test-install/aarch64/lib/libc.a(lite_malloc.o)
 .debug_pubnames
                0x0000000000001913      0x1d7 0x1 /home/rlyerly/Downloads/popcorn-compiler/test-install/aarch64/lib/libc.a(malloc.o)
 .debug_pubnames
                0x0000000000001aea       0x3e 0x1 /home/rlyerly/Downloads/popcorn-compiler/test-install/aarch64/lib/libc.a(getrlimit.o)
 .debug_pubnames
                0x0000000000001b28       0x2d 0x1 /home/rlyerly/Downloads/popcorn-compiler/test-install/aarch64/lib/libc.a(syscall.o)
 .debug_pubnames
                0x0000000000001b55       0x2f 0x1 /home/rlyerly/Downloads/popcorn-compiler/test-install/aarch64/lib/libc.a(madvise.o)
 .debug_pubnames
                0x0000000000001b84       0x36 0x1 /home/rlyerly/Downloads/popcorn-compiler/test-install/aarch64/lib/libc.a(mmap.o)
 .debug_pubnames
                0x0000000000001bba       0x38 0x1 /home/rlyerly/Downloads/popcorn-compiler/test-install/aarch64/lib/libc.a(mremap.o)
 .debug_pubnames
                0x0000000000001bf2       0x38 0x1 /home/rlyerly/Downloads/popcorn-compiler/test-install/aarch64/lib/libc.a(munmap.o)
 .debug_pubnames
                0x0000000000001c2a       0xbd 0x1 /home/rlyerly/Downloads/popcorn-compiler/test-install/aarch64/lib/libc.a(sigaction.o)
 .debug_pubnames
                0x0000000000001ce7       0x22 0x1 /home/rlyerly/Downloads/popcorn-compiler/test-install/aarch64/lib/libc.a(sigemptyset.o)
 .debug_pubnames
                0x0000000000001d09       0x2e 0x1 /home/rlyerly/Downloads/popcorn-compiler/test-install/aarch64/lib/libc.a(sigrtmin.o)
 .debug_pubnames
                0x0000000000001d37       0x27 0x1 /home/rlyerly/Downloads/popcorn-compiler/test-install/aarch64/lib/libc.a(fclose.o)
 .debug_pubnames
                0x0000000000001d5e       0x27 0x1 /home/rlyerly/Downloads/popcorn-compiler/test-install/aarch64/lib/libc.a(fflush.o)
 .debug_pubnames
                0x0000000000001d85       0x49 0x1 /home/rlyerly/Downloads/popcorn-compiler/test-install/aarch64/lib/libc.a(fopen.o)
 .debug_pubnames
                0x0000000000001dce       0x1e 0x1 /home/rlyerly/Downloads/popcorn-compiler/test-install/aarch64/lib/libc.a(fprintf.o)
 .debug_pubnames
                0x0000000000001dec       0x1e 0x1 /home/rlyerly/Downloads/popcorn-compiler/test-install/aarch64/lib/libc.a(getline.o)
 .debug_pubnames
                0x0000000000001e0a       0x1d 0x1 /home/rlyerly/Downloads/popcorn-compiler/test-install/aarch64/lib/libc.a(perror.o)
 .debug_pubnames
                0x0000000000001e27       0x1f 0x1 /home/rlyerly/Downloads/popcorn-compiler/test-install/aarch64/lib/libc.a(snprintf.o)
 .debug_pubnames
                0x0000000000001e46       0x1d 0x1 /home/rlyerly/Downloads/popcorn-compiler/test-install/aarch64/lib/libc.a(sscanf.o)
 .debug_pubnames
                0x0000000000001e63       0x3d 0x1 /home/rlyerly/Downloads/popcorn-compiler/test-install/aarch64/lib/libc.a(stderr.o)
 .debug_pubnames
                0x0000000000001ea0       0x2d 0x1 /home/rlyerly/Downloads/popcorn-compiler/test-install/aarch64/lib/libc.a(vsnprintf.o)
 .debug_pubnames
                0x0000000000001ecd       0x2a 0x1 /home/rlyerly/Downloads/popcorn-compiler/test-install/aarch64/lib/libc.a(vsscanf.o)
 .debug_pubnames
                0x0000000000001ef7       0x69 0x1 /home/rlyerly/Downloads/popcorn-compiler/test-install/aarch64/lib/libc.a(strtol.o)
 .debug_pubnames
                0x0000000000001f60       0x1d 0x1 /home/rlyerly/Downloads/popcorn-compiler/test-install/aarch64/lib/libc.a(memcmp.o)
 .debug_pubnames
                0x0000000000001f7d       0x1e 0x1 /home/rlyerly/Downloads/popcorn-compiler/test-install/aarch64/lib/libc.a(memmove.o)
 .debug_pubnames
                0x0000000000001f9b       0x1d 0x1 /home/rlyerly/Downloads/popcorn-compiler/test-install/aarch64/lib/libc.a(strchr.o)
 .debug_pubnames
                0x0000000000001fb8       0x22 0x1 /home/rlyerly/Downloads/popcorn-compiler/test-install/aarch64/lib/libc.a(strchrnul.o)
 .debug_pubnames
                0x0000000000001fda       0x1d 0x1 /home/rlyerly/Downloads/popcorn-compiler/test-install/aarch64/lib/libc.a(strcmp.o)
 .debug_pubnames
                0x0000000000001ff7       0x1d 0x1 /home/rlyerly/Downloads/popcorn-compiler/test-install/aarch64/lib/libc.a(strlen.o)
 .debug_pubnames
                0x0000000000002014       0x1e 0x1 /home/rlyerly/Downloads/popcorn-compiler/test-install/aarch64/lib/libc.a(strncmp.o)
 .debug_pubnames
                0x0000000000002032       0x2c 0x1 /home/rlyerly/Downloads/popcorn-compiler/test-install/aarch64/lib/libc.a(__syscall_cp.o)
 .debug_pubnames
                0x000000000000205e      0x206 0x1 /home/rlyerly/Downloads/popcorn-compiler/test-install/aarch64/lib/libc.a(pthread_attr_get.o)
 .debug_pubnames
                0x0000000000002264       0x29 0x1 /home/rlyerly/Downloads/popcorn-compiler/test-install/aarch64/lib/libc.a(pthread_getattr_np.o)
 .debug_pubnames
                0x000000000000228d       0x3f 0x1 /home/rlyerly/Downloads/popcorn-compiler/test-install/aarch64/lib/libc.a(pthread_getspecific.o)
 .debug_pubnames
                0x00000000000022cc       0xe5 0x1 /home/rlyerly/Downloads/popcorn-compiler/test-install/aarch64/lib/libc.a(pthread_key_create.o)
 .debug_pubnames
                0x00000000000023b1       0x3e 0x1 /home/rlyerly/Downloads/popcorn-compiler/test-install/aarch64/lib/libc.a(pthread_migrate.o)
 .debug_pubnames
                0x00000000000023ef       0x41 0x1 /home/rlyerly/Downloads/popcorn-compiler/test-install/aarch64/lib/libc.a(pthread_self.o)
 .debug_pubnames
                0x0000000000002430       0x3d 0x1 /home/rlyerly/Downloads/popcorn-compiler/test-install/aarch64/lib/libc.a(pthread_setspecific.o)
 .debug_pubnames
                0x000000000000246d       0x26 0x1 /home/rlyerly/Downloads/popcorn-compiler/test-install/aarch64/lib/libc.a(close.o)
 .debug_pubnames
                0x0000000000002493       0x2c 0x1 /home/rlyerly/Downloads/popcorn-compiler/test-install/aarch64/lib/libc.a(getpid.o)
 .debug_pubnames
                0x00000000000024bf       0x2b 0x1 /home/rlyerly/Downloads/popcorn-compiler/test-install/aarch64/lib/libc.a(lseek.o)
 .debug_pubnames
                0x00000000000024ea       0x1b 0x1 /home/rlyerly/Downloads/popcorn-compiler/test-install/aarch64/lib/libc.a(read.o)
 .debug_pubnames
                0x0000000000002505       0x28 0x1 /home/rlyerly/Downloads/popcorn-compiler/test-install/aarch64/lib/libc.a(abort.o)
 .debug_pubnames
                0x000000000000252d       0x38 0x1 /home/rlyerly/Downloads/popcorn-compiler/test-install/aarch64/lib/libc.a(intscan.o)
 .debug_pubnames
                0x0000000000002565       0x2b 0x1 /home/rlyerly/Downloads/popcorn-compiler/test-install/aarch64/lib/libc.a(shgetc.o)
 .debug_pubnames
                0x0000000000002590       0x5f 0x1 /home/rlyerly/Downloads/popcorn-compiler/test-install/aarch64/lib/libc.a(expand_heap.o)
 .debug_pubnames
                0x00000000000025ef       0x78 0x1 /home/rlyerly/Downloads/popcorn-compiler/test-install/aarch64/lib/libc.a(block.o)
 .debug_pubnames
                0x0000000000002667       0x3a 0x1 /home/rlyerly/Downloads/popcorn-compiler/test-install/aarch64/lib/libc.a(raise.o)
 .debug_pubnames
                0x00000000000026a1       0x3d 0x1 /home/rlyerly/Downloads/popcorn-compiler/test-install/aarch64/lib/libc.a(__fdopen.o)
 .debug_pubnames
                0x00000000000026de       0x23 0x1 /home/rlyerly/Downloads/popcorn-compiler/test-install/aarch64/lib/libc.a(__fmodeflags.o)
 .debug_pubnames
                0x0000000000002701       0x32 0x1 /home/rlyerly/Downloads/popcorn-compiler/test-install/aarch64/lib/libc.a(__stdio_read.o)
 .debug_pubnames
                0x0000000000002733       0x24 0x1 /home/rlyerly/Downloads/popcorn-compiler/test-install/aarch64/lib/libc.a(__string_read.o)
 .debug_pubnames
                0x0000000000002757       0x1e 0x1 /home/rlyerly/Downloads/popcorn-compiler/test-install/aarch64/lib/libc.a(__uflow.o)
 .debug_pubnames
                0x0000000000002775       0x1c 0x1 /home/rlyerly/Downloads/popcorn-compiler/test-install/aarch64/lib/libc.a(fputc.o)
 .debug_pubnames
                0x0000000000002791       0x1f 0x1 /home/rlyerly/Downloads/popcorn-compiler/test-install/aarch64/lib/libc.a(getdelim.o)
 .debug_pubnames
                0x00000000000027b0       0x20 0x1 /home/rlyerly/Downloads/popcorn-compiler/test-install/aarch64/lib/libc.a(ofl_add.o)
 .debug_pubnames
                0x00000000000027d0       0x44 0x1 /home/rlyerly/Downloads/popcorn-compiler/test-install/aarch64/lib/libc.a(vfscanf.o)
 .debug_pubnames
                0x0000000000002814       0x66 0x1 /home/rlyerly/Downloads/popcorn-compiler/test-install/aarch64/lib/libc.a(floatscan.o)
 .debug_pubnames
                0x000000000000287a       0x1b 0x1 /home/rlyerly/Downloads/popcorn-compiler/test-install/aarch64/lib/libc.a(fabs.o)
 .debug_pubnames
                0x0000000000002895       0x20 0x1 /home/rlyerly/Downloads/popcorn-compiler/test-install/aarch64/lib/libc.a(copysignl.o)
 .debug_pubnames
                0x00000000000028b5       0x3f 0x1 /home/rlyerly/Downloads/popcorn-compiler/test-install/aarch64/lib/libc.a(fmodl.o)
 .debug_pubnames
                0x00000000000028f4       0x1d 0x1 /home/rlyerly/Downloads/popcorn-compiler/test-install/aarch64/lib/libc.a(scalbn.o)
 .debug_pubnames
                0x0000000000002911       0x1e 0x1 /home/rlyerly/Downloads/popcorn-compiler/test-install/aarch64/lib/libc.a(scalbnl.o)
 .debug_pubnames
                0x000000000000292f       0x44 0x1 /home/rlyerly/Downloads/popcorn-compiler/test-install/aarch64/lib/libc.a(mbrtowc.o)
 .debug_pubnames
                0x0000000000002973       0x1e 0x1 /home/rlyerly/Downloads/popcorn-compiler/test-install/aarch64/lib/libc.a(mbsinit.o)
 .debug_pubnames
                0x0000000000002991       0x21 0x1 /home/rlyerly/Downloads/popcorn-compiler/test-install/aarch64/lib/libc.a(__overflow.o)
 .debug_pubnames
                0x00000000000029b2       0x3d 0x1 /home/rlyerly/Downloads/popcorn-compiler/test-install/aarch64/lib/libc.a(__toread.o)
 .debug_pubnames
                0x00000000000029ef       0x1e 0x1 /home/rlyerly/Downloads/popcorn-compiler/test-install/aarch64/lib/libc.a(internal.o)

.debug_pubtypes
                0x0000000000000000     0x4f48
 .debug_pubtypes
                0x0000000000000000       0x30 0x1 /home/rlyerly/Downloads/popcorn-compiler/test-install/aarch64/lib/crt1.o
 .debug_pubtypes
                0x0000000000000030       0x74 0x1 /home/rlyerly/Downloads/popcorn-compiler/test-install/aarch64/lib/libc.a(__libc_start_main.o)
 .debug_pubtypes
                0x00000000000000a4       0x3e 0x1 /home/rlyerly/Downloads/popcorn-compiler/test-install/aarch64/lib/libc.a(exit.o)
 .debug_pubtypes
                0x00000000000000e2       0x72 0x1 /home/rlyerly/Downloads/popcorn-compiler/test-install/aarch64/lib/libc.a(libc.o)
 .debug_pubtypes
                0x0000000000000154       0x53 0x1 /home/rlyerly/Downloads/popcorn-compiler/test-install/aarch64/lib/libc.a(printf.o)
 .debug_pubtypes
                0x00000000000001a7       0xc2 0x1 /home/rlyerly/Downloads/popcorn-compiler/test-install/aarch64/lib/libc.a(stdout.o)
 .debug_pubtypes
                0x0000000000000269      0x1a1 0x1 /home/rlyerly/Downloads/popcorn-compiler/test-install/aarch64/lib/libc.a(vfprintf.o)
 .debug_pubtypes
                0x000000000000040a       0x34 0x1 /home/rlyerly/Downloads/popcorn-compiler/test-install/aarch64/lib/libc.a(atoi.o)
 .debug_pubtypes
                0x000000000000043e       0x86 0x1 /home/rlyerly/Downloads/popcorn-compiler/test-install/aarch64/lib/libc.a(memset.o)
 .debug_pubtypes
                0x00000000000004c4       0x3c 0x1 /home/rlyerly/Downloads/popcorn-compiler/test-install/aarch64/lib/libc.a(strnlen.o)
 .debug_pubtypes
                0x0000000000000500       0x1b 0x1 /home/rlyerly/Downloads/popcorn-compiler/test-install/aarch64/lib/libc.a(__environ.o)
 .debug_pubtypes
                0x000000000000051b      0x161 0x1 /home/rlyerly/Downloads/popcorn-compiler/test-install/aarch64/lib/libc.a(__init_tls.o)
 .debug_pubtypes
                0x000000000000067c       0xb5 0x1 /home/rlyerly/Downloads/popcorn-compiler/test-install/aarch64/lib/libc.a(__errno_location.o)
 .debug_pubtypes
                0x0000000000000731       0xc6 0x1 /home/rlyerly/Downloads/popcorn-compiler/test-install/aarch64/lib/libc.a(strerror.o)
 .debug_pubtypes
                0x00000000000007f7       0x27 0x1 /home/rlyerly/Downloads/popcorn-compiler/test-install/aarch64/lib/libc.a(_Exit.o)
 .debug_pubtypes
                0x000000000000081e       0xc6 0x1 /home/rlyerly/Downloads/popcorn-compiler/test-install/aarch64/lib/libc.a(__lctrans.o)
 .debug_pubtypes
                0x00000000000008e4       0x97 0x1 /home/rlyerly/Downloads/popcorn-compiler/test-install/aarch64/lib/libc.a(__fpclassifyl.o)
 .debug_pubtypes
                0x000000000000097b       0x97 0x1 /home/rlyerly/Downloads/popcorn-compiler/test-install/aarch64/lib/libc.a(__signbitl.o)
 .debug_pubtypes
                0x0000000000000a12       0x97 0x1 /home/rlyerly/Downloads/popcorn-compiler/test-install/aarch64/lib/libc.a(frexpl.o)
 .debug_pubtypes
                0x0000000000000aa9       0x40 0x1 /home/rlyerly/Downloads/popcorn-compiler/test-install/aarch64/lib/libc.a(wctomb.o)
 .debug_pubtypes
                0x0000000000000ae9      0x100 0x1 /home/rlyerly/Downloads/popcorn-compiler/test-install/aarch64/lib/libc.a(__lockfile.o)
 .debug_pubtypes
                0x0000000000000be9       0xc2 0x1 /home/rlyerly/Downloads/popcorn-compiler/test-install/aarch64/lib/libc.a(__stdio_close.o)
 .debug_pubtypes
                0x0000000000000cab       0xc2 0x1 /home/rlyerly/Downloads/popcorn-compiler/test-install/aarch64/lib/libc.a(__stdio_seek.o)
 .debug_pubtypes
                0x0000000000000d6d       0xe1 0x1 /home/rlyerly/Downloads/popcorn-compiler/test-install/aarch64/lib/libc.a(__stdout_write.o)
 .debug_pubtypes
                0x0000000000000e4e       0xc2 0x1 /home/rlyerly/Downloads/popcorn-compiler/test-install/aarch64/lib/libc.a(fwrite.o)
 .debug_pubtypes
                0x0000000000000f10       0x5b 0x1 /home/rlyerly/Downloads/popcorn-compiler/test-install/aarch64/lib/libc.a(memchr.o)
 .debug_pubtypes
                0x0000000000000f6b       0x71 0x1 /home/rlyerly/Downloads/popcorn-compiler/test-install/aarch64/lib/libc.a(memcpy.o)
 .debug_pubtypes
                0x0000000000000fdc       0x38 0x1 /home/rlyerly/Downloads/popcorn-compiler/test-install/aarch64/lib/libc.a(__wait.o)
 .debug_pubtypes
                0x0000000000001014       0x35 0x1 /home/rlyerly/Downloads/popcorn-compiler/test-install/aarch64/lib/libc.a(syscall_ret.o)
 .debug_pubtypes
                0x0000000000001049      0x101 0x1 /home/rlyerly/Downloads/popcorn-compiler/test-install/aarch64/lib/libc.a(wcrtomb.o)
 .debug_pubtypes
                0x000000000000114a       0xd8 0x1 /home/rlyerly/Downloads/popcorn-compiler/test-install/aarch64/lib/libc.a(__stdio_write.o)
 .debug_pubtypes
                0x0000000000001222       0xc2 0x1 /home/rlyerly/Downloads/popcorn-compiler/test-install/aarch64/lib/libc.a(__towrite.o)
 .debug_pubtypes
                0x00000000000012e4       0xc2 0x1 /home/rlyerly/Downloads/popcorn-compiler/test-install/aarch64/lib/libc.a(__stdio_exit.o)
 .debug_pubtypes
                0x00000000000013a6       0xc2 0x1 /home/rlyerly/Downloads/popcorn-compiler/test-install/aarch64/lib/libc.a(ofl.o)
 .debug_pubtypes
                0x0000000000001468       0x27 0x1 /home/rlyerly/Downloads/popcorn-compiler/test-install/aarch64/lib/libc.a(__lock.o)
 .debug_pubtypes
                0x000000000000148f       0xd2 0x1 /home/rlyerly/Downloads/popcorn-compiler/test-install/aarch64/lib/libmigrate.a(migrate.o)
 .debug_pubtypes
                0x0000000000001561       0xea 0x1 /home/rlyerly/Downloads/popcorn-compiler/test-install/aarch64/lib/libmigrate.a(trigger.o)
 .debug_pubtypes
                0x000000000000164b      0x275 0x1 /home/rlyerly/Downloads/popcorn-compiler/test-install/aarch64/lib/libstack-transform.a(userspace.o)
 .debug_pubtypes
                0x00000000000018c0      0x1ef 0x1 /home/rlyerly/Downloads/popcorn-compiler/test-install/aarch64/lib/libstack-transform.a(init.o)
 .debug_pubtypes
                0x0000000000001aaf      0x20c 0x1 /home/rlyerly/Downloads/popcorn-compiler/test-install/aarch64/lib/libstack-transform.a(rewrite.o)
 .debug_pubtypes
                0x0000000000001cbb      0x20c 0x1 /home/rlyerly/Downloads/popcorn-compiler/test-install/aarch64/lib/libstack-transform.a(unwind.o)
 .debug_pubtypes
                0x0000000000001ec7      0x22e 0x1 /home/rlyerly/Downloads/popcorn-compiler/test-install/aarch64/lib/libstack-transform.a(util.o)
 .debug_pubtypes
                0x00000000000020f5       0x8f 0x1 /home/rlyerly/Downloads/popcorn-compiler/test-install/aarch64/lib/libstack-transform.a(properties.o)
 .debug_pubtypes
                0x0000000000002184       0xd7 0x1 /home/rlyerly/Downloads/popcorn-compiler/test-install/aarch64/lib/libstack-transform.a(regs.o)
 .debug_pubtypes
                0x000000000000225b       0x8f 0x1 /home/rlyerly/Downloads/popcorn-compiler/test-install/aarch64/lib/libstack-transform.a(properties.o)
 .debug_pubtypes
                0x00000000000022ea       0xc5 0x1 /home/rlyerly/Downloads/popcorn-compiler/test-install/aarch64/lib/libstack-transform.a(regs.o)
 .debug_pubtypes
                0x00000000000023af       0x8f 0x1 /home/rlyerly/Downloads/popcorn-compiler/test-install/aarch64/lib/libstack-transform.a(properties.o)
 .debug_pubtypes
                0x000000000000243e      0x103 0x1 /home/rlyerly/Downloads/popcorn-compiler/test-install/aarch64/lib/libstack-transform.a(regs.o)
 .debug_pubtypes
                0x0000000000002541      0x21e 0x1 /home/rlyerly/Downloads/popcorn-compiler/test-install/aarch64/lib/libstack-transform.a(data.o)
 .debug_pubtypes
                0x000000000000275f       0xb5 0x1 /home/rlyerly/Downloads/popcorn-compiler/test-install/aarch64/lib/libc.a(__stack_chk_fail.o)
 .debug_pubtypes
                0x0000000000002814       0x3c 0x1 /home/rlyerly/Downloads/popcorn-compiler/test-install/aarch64/lib/libc.a(getenv.o)
 .debug_pubtypes
                0x0000000000002850       0x23 0x1 /home/rlyerly/Downloads/popcorn-compiler/test-install/aarch64/lib/libc.a(assert.o)
 .debug_pubtypes
                0x0000000000002873       0x7c 0x1 /home/rlyerly/Downloads/popcorn-compiler/test-install/aarch64/lib/libc.a(open.o)
 .debug_pubtypes
                0x00000000000028ef       0x33 0x1 /home/rlyerly/Downloads/popcorn-compiler/test-install/aarch64/lib/libc.a(calloc.o)
 .debug_pubtypes
                0x0000000000002922       0x52 0x1 /home/rlyerly/Downloads/popcorn-compiler/test-install/aarch64/lib/libc.a(lite_malloc.o)
 .debug_pubtypes
                0x0000000000002974       0xae 0x1 /home/rlyerly/Downloads/popcorn-compiler/test-install/aarch64/lib/libc.a(malloc.o)
 .debug_pubtypes
                0x0000000000002a22       0x6e 0x1 /home/rlyerly/Downloads/popcorn-compiler/test-install/aarch64/lib/libc.a(getrlimit.o)
 .debug_pubtypes
                0x0000000000002a90       0x69 0x1 /home/rlyerly/Downloads/popcorn-compiler/test-install/aarch64/lib/libc.a(syscall.o)
 .debug_pubtypes
                0x0000000000002af9       0x48 0x1 /home/rlyerly/Downloads/popcorn-compiler/test-install/aarch64/lib/libc.a(madvise.o)
 .debug_pubtypes
                0x0000000000002b41       0x52 0x1 /home/rlyerly/Downloads/popcorn-compiler/test-install/aarch64/lib/libc.a(mmap.o)
 .debug_pubtypes
                0x0000000000002b93       0x78 0x1 /home/rlyerly/Downloads/popcorn-compiler/test-install/aarch64/lib/libc.a(mremap.o)
 .debug_pubtypes
                0x0000000000002c0b       0x48 0x1 /home/rlyerly/Downloads/popcorn-compiler/test-install/aarch64/lib/libc.a(munmap.o)
 .debug_pubtypes
                0x0000000000002c53       0xfc 0x1 /home/rlyerly/Downloads/popcorn-compiler/test-install/aarch64/lib/libc.a(sigaction.o)
 .debug_pubtypes
                0x0000000000002d4f       0x4c 0x1 /home/rlyerly/Downloads/popcorn-compiler/test-install/aarch64/lib/libc.a(sigemptyset.o)
 .debug_pubtypes
                0x0000000000002d9b       0x1a 0x1 /home/rlyerly/Downloads/popcorn-compiler/test-install/aarch64/lib/libc.a(sigrtmin.o)
 .debug_pubtypes
                0x0000000000002db5       0xc2 0x1 /home/rlyerly/Downloads/popcorn-compiler/test-install/aarch64/lib/libc.a(fclose.o)
 .debug_pubtypes
                0x0000000000002e77       0xc2 0x1 /home/rlyerly/Downloads/popcorn-compiler/test-install/aarch64/lib/libc.a(fflush.o)
 .debug_pubtypes
                0x0000000000002f39       0xc2 0x1 /home/rlyerly/Downloads/popcorn-compiler/test-install/aarch64/lib/libc.a(fopen.o)
 .debug_pubtypes
                0x0000000000002ffb       0x5c 0x1 /home/rlyerly/Downloads/popcorn-compiler/test-install/aarch64/lib/libc.a(fprintf.o)
 .debug_pubtypes
                0x0000000000003057       0x5e 0x1 /home/rlyerly/Downloads/popcorn-compiler/test-install/aarch64/lib/libc.a(getline.o)
 .debug_pubtypes
                0x00000000000030b5       0xc2 0x1 /home/rlyerly/Downloads/popcorn-compiler/test-install/aarch64/lib/libc.a(perror.o)
 .debug_pubtypes
                0x0000000000003177       0x74 0x1 /home/rlyerly/Downloads/popcorn-compiler/test-install/aarch64/lib/libc.a(snprintf.o)
 .debug_pubtypes
                0x00000000000031eb       0x53 0x1 /home/rlyerly/Downloads/popcorn-compiler/test-install/aarch64/lib/libc.a(sscanf.o)
 .debug_pubtypes
                0x000000000000323e       0xc2 0x1 /home/rlyerly/Downloads/popcorn-compiler/test-install/aarch64/lib/libc.a(stderr.o)
 .debug_pubtypes
                0x0000000000003300       0xfd 0x1 /home/rlyerly/Downloads/popcorn-compiler/test-install/aarch64/lib/libc.a(vsnprintf.o)
 .debug_pubtypes
                0x00000000000033fd       0xf2 0x1 /home/rlyerly/Downloads/popcorn-compiler/test-install/aarch64/lib/libc.a(vsscanf.o)
 .debug_pubtypes
                0x00000000000034ef      0x10a 0x1 /home/rlyerly/Downloads/popcorn-compiler/test-install/aarch64/lib/libc.a(strtol.o)
 .debug_pubtypes
                0x00000000000035f9       0x4d 0x1 /home/rlyerly/Downloads/popcorn-compiler/test-install/aarch64/lib/libc.a(memcmp.o)
 .debug_pubtypes
                0x0000000000003646       0x4a 0x1 /home/rlyerly/Downloads/popcorn-compiler/test-install/aarch64/lib/libc.a(memmove.o)
 .debug_pubtypes
                0x0000000000003690       0x35 0x1 /home/rlyerly/Downloads/popcorn-compiler/test-install/aarch64/lib/libc.a(strchr.o)
 .debug_pubtypes
                0x00000000000036c5       0x64 0x1 /home/rlyerly/Downloads/popcorn-compiler/test-install/aarch64/lib/libc.a(strchrnul.o)
 .debug_pubtypes
                0x0000000000003729       0x35 0x1 /home/rlyerly/Downloads/popcorn-compiler/test-install/aarch64/lib/libc.a(strcmp.o)
 .debug_pubtypes
                0x000000000000375e       0x4a 0x1 /home/rlyerly/Downloads/popcorn-compiler/test-install/aarch64/lib/libc.a(strlen.o)
 .debug_pubtypes
                0x00000000000037a8       0x56 0x1 /home/rlyerly/Downloads/popcorn-compiler/test-install/aarch64/lib/libc.a(strncmp.o)
 .debug_pubtypes
                0x00000000000037fe       0x31 0x1 /home/rlyerly/Downloads/popcorn-compiler/test-install/aarch64/lib/libc.a(__syscall_cp.o)
 .debug_pubtypes
                0x000000000000382f      0x104 0x1 /home/rlyerly/Downloads/popcorn-compiler/test-install/aarch64/lib/libc.a(pthread_attr_get.o)
 .debug_pubtypes
                0x0000000000003933       0xd6 0x1 /home/rlyerly/Downloads/popcorn-compiler/test-install/aarch64/lib/libc.a(pthread_getattr_np.o)
 .debug_pubtypes
                0x0000000000003a09       0xd8 0x1 /home/rlyerly/Downloads/popcorn-compiler/test-install/aarch64/lib/libc.a(pthread_getspecific.o)
 .debug_pubtypes
                0x0000000000003ae1       0xe6 0x1 /home/rlyerly/Downloads/popcorn-compiler/test-install/aarch64/lib/libc.a(pthread_key_create.o)
 .debug_pubtypes
                0x0000000000003bc7       0xb5 0x1 /home/rlyerly/Downloads/popcorn-compiler/test-install/aarch64/lib/libc.a(pthread_migrate.o)
 .debug_pubtypes
                0x0000000000003c7c       0xc3 0x1 /home/rlyerly/Downloads/popcorn-compiler/test-install/aarch64/lib/libc.a(pthread_self.o)
 .debug_pubtypes
                0x0000000000003d3f       0xd8 0x1 /home/rlyerly/Downloads/popcorn-compiler/test-install/aarch64/lib/libc.a(pthread_setspecific.o)
 .debug_pubtypes
                0x0000000000003e17       0x27 0x1 /home/rlyerly/Downloads/popcorn-compiler/test-install/aarch64/lib/libc.a(close.o)
 .debug_pubtypes
                0x0000000000003e3e       0x31 0x1 /home/rlyerly/Downloads/popcorn-compiler/test-install/aarch64/lib/libc.a(getpid.o)
 .debug_pubtypes
                0x0000000000003e6f       0x31 0x1 /home/rlyerly/Downloads/popcorn-compiler/test-install/aarch64/lib/libc.a(lseek.o)
 .debug_pubtypes
                0x0000000000003ea0       0x54 0x1 /home/rlyerly/Downloads/popcorn-compiler/test-install/aarch64/lib/libc.a(read.o)
 .debug_pubtypes
                0x0000000000003ef4       0x1b 0x1 /home/rlyerly/Downloads/popcorn-compiler/test-install/aarch64/lib/libc.a(abort.o)
 .debug_pubtypes
                0x0000000000003f0f       0xdd 0x1 /home/rlyerly/Downloads/popcorn-compiler/test-install/aarch64/lib/libc.a(intscan.o)
 .debug_pubtypes
                0x0000000000003fec       0xc2 0x1 /home/rlyerly/Downloads/popcorn-compiler/test-install/aarch64/lib/libc.a(shgetc.o)
 .debug_pubtypes
                0x00000000000040ae       0x67 0x1 /home/rlyerly/Downloads/popcorn-compiler/test-install/aarch64/lib/libc.a(expand_heap.o)
 .debug_pubtypes
                0x0000000000004115       0x35 0x1 /home/rlyerly/Downloads/popcorn-compiler/test-install/aarch64/lib/libc.a(block.o)
 .debug_pubtypes
                0x000000000000414a       0x59 0x1 /home/rlyerly/Downloads/popcorn-compiler/test-install/aarch64/lib/libc.a(raise.o)
 .debug_pubtypes
                0x00000000000041a3       0xe1 0x1 /home/rlyerly/Downloads/popcorn-compiler/test-install/aarch64/lib/libc.a(__fdopen.o)
 .debug_pubtypes
                0x0000000000004284       0x23 0x1 /home/rlyerly/Downloads/popcorn-compiler/test-install/aarch64/lib/libc.a(__fmodeflags.o)
 .debug_pubtypes
                0x00000000000042a7       0xd8 0x1 /home/rlyerly/Downloads/popcorn-compiler/test-install/aarch64/lib/libc.a(__stdio_read.o)
 .debug_pubtypes
                0x000000000000437f       0xc2 0x1 /home/rlyerly/Downloads/popcorn-compiler/test-install/aarch64/lib/libc.a(__string_read.o)
 .debug_pubtypes
                0x0000000000004441       0xc2 0x1 /home/rlyerly/Downloads/popcorn-compiler/test-install/aarch64/lib/libc.a(__uflow.o)
 .debug_pubtypes
                0x0000000000004503       0xc2 0x1 /home/rlyerly/Downloads/popcorn-compiler/test-install/aarch64/lib/libc.a(fputc.o)
 .debug_pubtypes
                0x00000000000045c5       0xce 0x1 /home/rlyerly/Downloads/popcorn-compiler/test-install/aarch64/lib/libc.a(getdelim.o)
 .debug_pubtypes
                0x0000000000004693       0xc2 0x1 /home/rlyerly/Downloads/popcorn-compiler/test-install/aarch64/lib/libc.a(ofl_add.o)
 .debug_pubtypes
                0x0000000000004755      0x17c 0x1 /home/rlyerly/Downloads/popcorn-compiler/test-install/aarch64/lib/libc.a(vfscanf.o)
 .debug_pubtypes
                0x00000000000048d1       0xfe 0x1 /home/rlyerly/Downloads/popcorn-compiler/test-install/aarch64/lib/libc.a(floatscan.o)
 .debug_pubtypes
                0x00000000000049cf       0x1d 0x1 /home/rlyerly/Downloads/popcorn-compiler/test-install/aarch64/lib/libc.a(fabs.o)
 .debug_pubtypes
                0x00000000000049ec       0x8f 0x1 /home/rlyerly/Downloads/popcorn-compiler/test-install/aarch64/lib/libc.a(copysignl.o)
 .debug_pubtypes
                0x0000000000004a7b       0xc7 0x1 /home/rlyerly/Downloads/popcorn-compiler/test-install/aarch64/lib/libc.a(fmodl.o)
 .debug_pubtypes
                0x0000000000004b42       0x55 0x1 /home/rlyerly/Downloads/popcorn-compiler/test-install/aarch64/lib/libc.a(scalbn.o)
 .debug_pubtypes
                0x0000000000004b97       0x97 0x1 /home/rlyerly/Downloads/popcorn-compiler/test-install/aarch64/lib/libc.a(scalbnl.o)
 .debug_pubtypes
                0x0000000000004c2e      0x11d 0x1 /home/rlyerly/Downloads/popcorn-compiler/test-install/aarch64/lib/libc.a(mbrtowc.o)
 .debug_pubtypes
                0x0000000000004d4b       0x49 0x1 /home/rlyerly/Downloads/popcorn-compiler/test-install/aarch64/lib/libc.a(mbsinit.o)
 .debug_pubtypes
                0x0000000000004d94       0xc2 0x1 /home/rlyerly/Downloads/popcorn-compiler/test-install/aarch64/lib/libc.a(__overflow.o)
 .debug_pubtypes
                0x0000000000004e56       0xc2 0x1 /home/rlyerly/Downloads/popcorn-compiler/test-install/aarch64/lib/libc.a(__toread.o)
 .debug_pubtypes
                0x0000000000004f18       0x30 0x1 /home/rlyerly/Downloads/popcorn-compiler/test-install/aarch64/lib/libc.a(internal.o)

.debug_frame    0x0000000000000000     0x2f28
 .debug_frame   0x0000000000000000       0x38 0x8 /home/rlyerly/Downloads/popcorn-compiler/test-install/aarch64/lib/crt1.o
 .debug_frame   0x0000000000000038       0xc0 0x8 /home/rlyerly/Downloads/popcorn-compiler/test-install/aarch64/lib/libc.a(__libc_start_main.o)
 .debug_frame   0x00000000000000f8       0x80 0x8 /home/rlyerly/Downloads/popcorn-compiler/test-install/aarch64/lib/libc.a(exit.o)
 .debug_frame   0x0000000000000178       0x40 0x8 /home/rlyerly/Downloads/popcorn-compiler/test-install/aarch64/lib/libc.a(printf.o)
 .debug_frame   0x00000000000001b8       0xf0 0x8 /home/rlyerly/Downloads/popcorn-compiler/test-install/aarch64/lib/libc.a(vfprintf.o)
 .debug_frame   0x00000000000002a8       0x30 0x8 /home/rlyerly/Downloads/popcorn-compiler/test-install/aarch64/lib/libc.a(atoi.o)
 .debug_frame   0x00000000000002d8       0x30 0x8 /home/rlyerly/Downloads/popcorn-compiler/test-install/aarch64/lib/libc.a(memset.o)
 .debug_frame   0x0000000000000308       0x40 0x8 /home/rlyerly/Downloads/popcorn-compiler/test-install/aarch64/lib/libc.a(strnlen.o)
 .debug_frame   0x0000000000000348       0x90 0x8 /home/rlyerly/Downloads/popcorn-compiler/test-install/aarch64/lib/libc.a(__init_tls.o)
 .debug_frame   0x00000000000003d8       0x30 0x8 /home/rlyerly/Downloads/popcorn-compiler/test-install/aarch64/lib/libc.a(__errno_location.o)
 .debug_frame   0x0000000000000408       0x48 0x8 /home/rlyerly/Downloads/popcorn-compiler/test-install/aarch64/lib/libc.a(strerror.o)
 .debug_frame   0x0000000000000450       0x30 0x8 /home/rlyerly/Downloads/popcorn-compiler/test-install/aarch64/lib/libc.a(_Exit.o)
 .debug_frame   0x0000000000000480       0x60 0x8 /home/rlyerly/Downloads/popcorn-compiler/test-install/aarch64/lib/libc.a(__lctrans.o)
 .debug_frame   0x00000000000004e0       0x38 0x8 /home/rlyerly/Downloads/popcorn-compiler/test-install/aarch64/lib/libc.a(__fpclassifyl.o)
 .debug_frame   0x0000000000000518       0x38 0x8 /home/rlyerly/Downloads/popcorn-compiler/test-install/aarch64/lib/libc.a(__signbitl.o)
 .debug_frame   0x0000000000000550       0x40 0x8 /home/rlyerly/Downloads/popcorn-compiler/test-install/aarch64/lib/libc.a(frexpl.o)
 .debug_frame   0x0000000000000590       0x38 0x8 /home/rlyerly/Downloads/popcorn-compiler/test-install/aarch64/lib/libc.a(wctomb.o)
 .debug_frame   0x00000000000005c8       0x58 0x8 /home/rlyerly/Downloads/popcorn-compiler/test-install/aarch64/lib/libc.a(__lockfile.o)
 .debug_frame   0x0000000000000620       0x50 0x8 /home/rlyerly/Downloads/popcorn-compiler/test-install/aarch64/lib/libc.a(__stdio_close.o)
 .debug_frame   0x0000000000000670       0x30 0x8 /home/rlyerly/Downloads/popcorn-compiler/test-install/aarch64/lib/libc.a(__stdio_seek.o)
 .debug_frame   0x00000000000006a0       0x38 0x8 /home/rlyerly/Downloads/popcorn-compiler/test-install/aarch64/lib/libc.a(__stdout_write.o)
 .debug_frame   0x00000000000006d8       0x78 0x8 /home/rlyerly/Downloads/popcorn-compiler/test-install/aarch64/lib/libc.a(fwrite.o)
 .debug_frame   0x0000000000000750       0x30 0x8 /home/rlyerly/Downloads/popcorn-compiler/test-install/aarch64/lib/libc.a(memchr.o)
 .debug_frame   0x0000000000000780       0x30 0x8 /home/rlyerly/Downloads/popcorn-compiler/test-install/aarch64/lib/libc.a(memcpy.o)
 .debug_frame   0x00000000000007b0       0x30 0x8 /home/rlyerly/Downloads/popcorn-compiler/test-install/aarch64/lib/libc.a(__wait.o)
 .debug_frame   0x00000000000007e0       0x40 0x8 /home/rlyerly/Downloads/popcorn-compiler/test-install/aarch64/lib/libc.a(syscall_ret.o)
 .debug_frame   0x0000000000000820       0x38 0x8 /home/rlyerly/Downloads/popcorn-compiler/test-install/aarch64/lib/libc.a(wcrtomb.o)
 .debug_frame   0x0000000000000858       0x48 0x8 /home/rlyerly/Downloads/popcorn-compiler/test-install/aarch64/lib/libc.a(__stdio_write.o)
 .debug_frame   0x00000000000008a0       0x48 0x8 /home/rlyerly/Downloads/popcorn-compiler/test-install/aarch64/lib/libc.a(__towrite.o)
 .debug_frame   0x00000000000008e8       0x68 0x8 /home/rlyerly/Downloads/popcorn-compiler/test-install/aarch64/lib/libc.a(__stdio_exit.o)
 .debug_frame   0x0000000000000950       0x50 0x8 /home/rlyerly/Downloads/popcorn-compiler/test-install/aarch64/lib/libc.a(ofl.o)
 .debug_frame   0x00000000000009a0       0x58 0x8 /home/rlyerly/Downloads/popcorn-compiler/test-install/aarch64/lib/libc.a(__lock.o)
 .debug_frame   0x00000000000009f8      0x110 0x8 /home/rlyerly/Downloads/popcorn-compiler/test-install/aarch64/lib/libmigrate.a(migrate.o)
 .debug_frame   0x0000000000000b08       0xa8 0x8 /home/rlyerly/Downloads/popcorn-compiler/test-install/aarch64/lib/libmigrate.a(trigger.o)
 .debug_frame   0x0000000000000bb0      0x128 0x8 /home/rlyerly/Downloads/popcorn-compiler/test-install/aarch64/lib/libstack-transform.a(userspace.o)
 .debug_frame   0x0000000000000cd8       0x98 0x8 /home/rlyerly/Downloads/popcorn-compiler/test-install/aarch64/lib/libstack-transform.a(init.o)
 .debug_frame   0x0000000000000d70       0xe0 0x8 /home/rlyerly/Downloads/popcorn-compiler/test-install/aarch64/lib/libstack-transform.a(rewrite.o)
 .debug_frame   0x0000000000000e50      0x150 0x8 /home/rlyerly/Downloads/popcorn-compiler/test-install/aarch64/lib/libstack-transform.a(unwind.o)
 .debug_frame   0x0000000000000fa0      0x130 0x8 /home/rlyerly/Downloads/popcorn-compiler/test-install/aarch64/lib/libstack-transform.a(util.o)
 .debug_frame   0x00000000000010d0       0x68 0x8 /home/rlyerly/Downloads/popcorn-compiler/test-install/aarch64/lib/libstack-transform.a(properties.o)
 .debug_frame   0x0000000000001138      0x1e0 0x8 /home/rlyerly/Downloads/popcorn-compiler/test-install/aarch64/lib/libstack-transform.a(regs.o)
 .debug_frame   0x0000000000001318       0x68 0x8 /home/rlyerly/Downloads/popcorn-compiler/test-install/aarch64/lib/libstack-transform.a(properties.o)
 .debug_frame   0x0000000000001380      0x1e0 0x8 /home/rlyerly/Downloads/popcorn-compiler/test-install/aarch64/lib/libstack-transform.a(regs.o)
 .debug_frame   0x0000000000001560       0x68 0x8 /home/rlyerly/Downloads/popcorn-compiler/test-install/aarch64/lib/libstack-transform.a(properties.o)
 .debug_frame   0x00000000000015c8      0x1f0 0x8 /home/rlyerly/Downloads/popcorn-compiler/test-install/aarch64/lib/libstack-transform.a(regs.o)
 .debug_frame   0x00000000000017b8      0x178 0x8 /home/rlyerly/Downloads/popcorn-compiler/test-install/aarch64/lib/libstack-transform.a(data.o)
 .debug_frame   0x0000000000001930       0x58 0x8 /home/rlyerly/Downloads/popcorn-compiler/test-install/aarch64/lib/libc.a(__stack_chk_fail.o)
 .debug_frame   0x0000000000001988       0x40 0x8 /home/rlyerly/Downloads/popcorn-compiler/test-install/aarch64/lib/libc.a(getenv.o)
 .debug_frame   0x00000000000019c8       0x38 0x8 /home/rlyerly/Downloads/popcorn-compiler/test-install/aarch64/lib/libc.a(assert.o)
 .debug_frame   0x0000000000001a00       0x40 0x8 /home/rlyerly/Downloads/popcorn-compiler/test-install/aarch64/lib/libc.a(open.o)
 .debug_frame   0x0000000000001a40       0x38 0x8 /home/rlyerly/Downloads/popcorn-compiler/test-install/aarch64/lib/libc.a(calloc.o)
 .debug_frame   0x0000000000001a78       0x40 0x8 /home/rlyerly/Downloads/popcorn-compiler/test-install/aarch64/lib/libc.a(lite_malloc.o)
 .debug_frame   0x0000000000001ab8      0x170 0x8 /home/rlyerly/Downloads/popcorn-compiler/test-install/aarch64/lib/libc.a(malloc.o)
 .debug_frame   0x0000000000001c28       0x40 0x8 /home/rlyerly/Downloads/popcorn-compiler/test-install/aarch64/lib/libc.a(getrlimit.o)
 .debug_frame   0x0000000000001c68       0x38 0x8 /home/rlyerly/Downloads/popcorn-compiler/test-install/aarch64/lib/libc.a(syscall.o)
 .debug_frame   0x0000000000001ca0       0x38 0x8 /home/rlyerly/Downloads/popcorn-compiler/test-install/aarch64/lib/libc.a(madvise.o)
 .debug_frame   0x0000000000001cd8       0x60 0x8 /home/rlyerly/Downloads/popcorn-compiler/test-install/aarch64/lib/libc.a(mmap.o)
 .debug_frame   0x0000000000001d38       0x60 0x8 /home/rlyerly/Downloads/popcorn-compiler/test-install/aarch64/lib/libc.a(mremap.o)
 .debug_frame   0x0000000000001d98       0x58 0x8 /home/rlyerly/Downloads/popcorn-compiler/test-install/aarch64/lib/libc.a(munmap.o)
 .debug_frame   0x0000000000001df0       0x78 0x8 /home/rlyerly/Downloads/popcorn-compiler/test-install/aarch64/lib/libc.a(sigaction.o)
 .debug_frame   0x0000000000001e68       0x30 0x8 /home/rlyerly/Downloads/popcorn-compiler/test-install/aarch64/lib/libc.a(sigemptyset.o)
 .debug_frame   0x0000000000001e98       0x30 0x8 /home/rlyerly/Downloads/popcorn-compiler/test-install/aarch64/lib/libc.a(sigrtmin.o)
 .debug_frame   0x0000000000001ec8       0x58 0x8 /home/rlyerly/Downloads/popcorn-compiler/test-install/aarch64/lib/libc.a(fclose.o)
 .debug_frame   0x0000000000001f20       0x40 0x8 /home/rlyerly/Downloads/popcorn-compiler/test-install/aarch64/lib/libc.a(fflush.o)
 .debug_frame   0x0000000000001f60       0x40 0x8 /home/rlyerly/Downloads/popcorn-compiler/test-install/aarch64/lib/libc.a(fopen.o)
 .debug_frame   0x0000000000001fa0       0x40 0x8 /home/rlyerly/Downloads/popcorn-compiler/test-install/aarch64/lib/libc.a(fprintf.o)
 .debug_frame   0x0000000000001fe0       0x30 0x8 /home/rlyerly/Downloads/popcorn-compiler/test-install/aarch64/lib/libc.a(getline.o)
 .debug_frame   0x0000000000002010       0x40 0x8 /home/rlyerly/Downloads/popcorn-compiler/test-install/aarch64/lib/libc.a(perror.o)
 .debug_frame   0x0000000000002050       0x40 0x8 /home/rlyerly/Downloads/popcorn-compiler/test-install/aarch64/lib/libc.a(snprintf.o)
 .debug_frame   0x0000000000002090       0x40 0x8 /home/rlyerly/Downloads/popcorn-compiler/test-install/aarch64/lib/libc.a(sscanf.o)
 .debug_frame   0x00000000000020d0       0x78 0x8 /home/rlyerly/Downloads/popcorn-compiler/test-install/aarch64/lib/libc.a(vsnprintf.o)
 .debug_frame   0x0000000000002148       0x58 0x8 /home/rlyerly/Downloads/popcorn-compiler/test-install/aarch64/lib/libc.a(vsscanf.o)
 .debug_frame   0x00000000000021a0       0xd8 0x8 /home/rlyerly/Downloads/popcorn-compiler/test-install/aarch64/lib/libc.a(strtol.o)
 .debug_frame   0x0000000000002278       0x30 0x8 /home/rlyerly/Downloads/popcorn-compiler/test-install/aarch64/lib/libc.a(memcmp.o)
 .debug_frame   0x00000000000022a8       0x38 0x8 /home/rlyerly/Downloads/popcorn-compiler/test-install/aarch64/lib/libc.a(memmove.o)
 .debug_frame   0x00000000000022e0       0x40 0x8 /home/rlyerly/Downloads/popcorn-compiler/test-install/aarch64/lib/libc.a(strchr.o)
 .debug_frame   0x0000000000002320       0x40 0x8 /home/rlyerly/Downloads/popcorn-compiler/test-install/aarch64/lib/libc.a(strchrnul.o)
 .debug_frame   0x0000000000002360       0x30 0x8 /home/rlyerly/Downloads/popcorn-compiler/test-install/aarch64/lib/libc.a(strcmp.o)
 .debug_frame   0x0000000000002390       0x30 0x8 /home/rlyerly/Downloads/popcorn-compiler/test-install/aarch64/lib/libc.a(strlen.o)
 .debug_frame   0x00000000000023c0       0x30 0x8 /home/rlyerly/Downloads/popcorn-compiler/test-install/aarch64/lib/libc.a(strncmp.o)
 .debug_frame   0x00000000000023f0       0x48 0x8 /home/rlyerly/Downloads/popcorn-compiler/test-install/aarch64/lib/libc.a(__syscall_cp.o)
 .debug_frame   0x0000000000002438      0x198 0x8 /home/rlyerly/Downloads/popcorn-compiler/test-install/aarch64/lib/libc.a(pthread_attr_get.o)
 .debug_frame   0x00000000000025d0       0x40 0x8 /home/rlyerly/Downloads/popcorn-compiler/test-install/aarch64/lib/libc.a(pthread_getattr_np.o)
 .debug_frame   0x0000000000002610       0x30 0x8 /home/rlyerly/Downloads/popcorn-compiler/test-install/aarch64/lib/libc.a(pthread_getspecific.o)
 .debug_frame   0x0000000000002640       0x90 0x8 /home/rlyerly/Downloads/popcorn-compiler/test-install/aarch64/lib/libc.a(pthread_key_create.o)
 .debug_frame   0x00000000000026d0       0x30 0x8 /home/rlyerly/Downloads/popcorn-compiler/test-install/aarch64/lib/libc.a(pthread_migrate.o)
 .debug_frame   0x0000000000002700       0x30 0x8 /home/rlyerly/Downloads/popcorn-compiler/test-install/aarch64/lib/libc.a(pthread_self.o)
 .debug_frame   0x0000000000002730       0x30 0x8 /home/rlyerly/Downloads/popcorn-compiler/test-install/aarch64/lib/libc.a(pthread_setspecific.o)
 .debug_frame   0x0000000000002760       0x50 0x8 /home/rlyerly/Downloads/popcorn-compiler/test-install/aarch64/lib/libc.a(close.o)
 .debug_frame   0x00000000000027b0       0x30 0x8 /home/rlyerly/Downloads/popcorn-compiler/test-install/aarch64/lib/libc.a(getpid.o)
 .debug_frame   0x00000000000027e0       0x30 0x8 /home/rlyerly/Downloads/popcorn-compiler/test-install/aarch64/lib/libc.a(lseek.o)
 .debug_frame   0x0000000000002810       0x38 0x8 /home/rlyerly/Downloads/popcorn-compiler/test-install/aarch64/lib/libc.a(read.o)
 .debug_frame   0x0000000000002848       0x40 0x8 /home/rlyerly/Downloads/popcorn-compiler/test-install/aarch64/lib/libc.a(abort.o)
 .debug_frame   0x0000000000002888       0x50 0x8 /home/rlyerly/Downloads/popcorn-compiler/test-install/aarch64/lib/libc.a(intscan.o)
 .debug_frame   0x00000000000028d8       0x58 0x8 /home/rlyerly/Downloads/popcorn-compiler/test-install/aarch64/lib/libc.a(shgetc.o)
 .debug_frame   0x0000000000002930       0x40 0x8 /home/rlyerly/Downloads/popcorn-compiler/test-install/aarch64/lib/libc.a(expand_heap.o)
 .debug_frame   0x0000000000002970       0x60 0x8 /home/rlyerly/Downloads/popcorn-compiler/test-install/aarch64/lib/libc.a(block.o)
 .debug_frame   0x00000000000029d0       0x40 0x8 /home/rlyerly/Downloads/popcorn-compiler/test-install/aarch64/lib/libc.a(raise.o)
 .debug_frame   0x0000000000002a10       0x40 0x8 /home/rlyerly/Downloads/popcorn-compiler/test-install/aarch64/lib/libc.a(__fdopen.o)
 .debug_frame   0x0000000000002a50       0x40 0x8 /home/rlyerly/Downloads/popcorn-compiler/test-install/aarch64/lib/libc.a(__fmodeflags.o)
 .debug_frame   0x0000000000002a90       0x48 0x8 /home/rlyerly/Downloads/popcorn-compiler/test-install/aarch64/lib/libc.a(__stdio_read.o)
 .debug_frame   0x0000000000002ad8       0x48 0x8 /home/rlyerly/Downloads/popcorn-compiler/test-install/aarch64/lib/libc.a(__string_read.o)
 .debug_frame   0x0000000000002b20       0x40 0x8 /home/rlyerly/Downloads/popcorn-compiler/test-install/aarch64/lib/libc.a(__uflow.o)
 .debug_frame   0x0000000000002b60       0x40 0x8 /home/rlyerly/Downloads/popcorn-compiler/test-install/aarch64/lib/libc.a(fputc.o)
 .debug_frame   0x0000000000002ba0       0x50 0x8 /home/rlyerly/Downloads/popcorn-compiler/test-install/aarch64/lib/libc.a(getdelim.o)
 .debug_frame   0x0000000000002bf0       0x40 0x8 /home/rlyerly/Downloads/popcorn-compiler/test-install/aarch64/lib/libc.a(ofl_add.o)
 .debug_frame   0x0000000000002c30       0x50 0x8 /home/rlyerly/Downloads/popcorn-compiler/test-install/aarch64/lib/libc.a(vfscanf.o)
 .debug_frame   0x0000000000002c80       0x88 0x8 /home/rlyerly/Downloads/popcorn-compiler/test-install/aarch64/lib/libc.a(floatscan.o)
 .debug_frame   0x0000000000002d08       0x30 0x8 /home/rlyerly/Downloads/popcorn-compiler/test-install/aarch64/lib/libc.a(fabs.o)
 .debug_frame   0x0000000000002d38       0x38 0x8 /home/rlyerly/Downloads/popcorn-compiler/test-install/aarch64/lib/libc.a(copysignl.o)
 .debug_frame   0x0000000000002d70       0x48 0x8 /home/rlyerly/Downloads/popcorn-compiler/test-install/aarch64/lib/libc.a(fmodl.o)
 .debug_frame   0x0000000000002db8       0x30 0x8 /home/rlyerly/Downloads/popcorn-compiler/test-install/aarch64/lib/libc.a(scalbn.o)
 .debug_frame   0x0000000000002de8       0x40 0x8 /home/rlyerly/Downloads/popcorn-compiler/test-install/aarch64/lib/libc.a(scalbnl.o)
 .debug_frame   0x0000000000002e28       0x38 0x8 /home/rlyerly/Downloads/popcorn-compiler/test-install/aarch64/lib/libc.a(mbrtowc.o)
 .debug_frame   0x0000000000002e60       0x30 0x8 /home/rlyerly/Downloads/popcorn-compiler/test-install/aarch64/lib/libc.a(mbsinit.o)
 .debug_frame   0x0000000000002e90       0x40 0x8 /home/rlyerly/Downloads/popcorn-compiler/test-install/aarch64/lib/libc.a(__overflow.o)
 .debug_frame   0x0000000000002ed0       0x58 0x8 /home/rlyerly/Downloads/popcorn-compiler/test-install/aarch64/lib/libc.a(__toread.o)

.debug_line     0x0000000000000000     0xd128
 .debug_line    0x0000000000000000       0x4b 0x1 /home/rlyerly/Downloads/popcorn-compiler/test-install/aarch64/lib/crt1.o
 .debug_line    0x000000000000004b      0x279 0x1 /home/rlyerly/Downloads/popcorn-compiler/test-install/aarch64/lib/libc.a(__libc_start_main.o)
 .debug_line    0x00000000000002c4       0xaa 0x1 /home/rlyerly/Downloads/popcorn-compiler/test-install/aarch64/lib/libc.a(exit.o)
 .debug_line    0x000000000000036e       0x6c 0x1 /home/rlyerly/Downloads/popcorn-compiler/test-install/aarch64/lib/libc.a(libc.o)
 .debug_line    0x00000000000003da       0x82 0x1 /home/rlyerly/Downloads/popcorn-compiler/test-install/aarch64/lib/libc.a(printf.o)
 .debug_line    0x000000000000045c       0x7b 0x1 /home/rlyerly/Downloads/popcorn-compiler/test-install/aarch64/lib/libc.a(stdout.o)
 .debug_line    0x00000000000004d7     0x1326 0x1 /home/rlyerly/Downloads/popcorn-compiler/test-install/aarch64/lib/libc.a(vfprintf.o)
 .debug_line    0x00000000000017fd       0xab 0x1 /home/rlyerly/Downloads/popcorn-compiler/test-install/aarch64/lib/libc.a(atoi.o)
 .debug_line    0x00000000000018a8      0x110 0x1 /home/rlyerly/Downloads/popcorn-compiler/test-install/aarch64/lib/libc.a(memset.o)
 .debug_line    0x00000000000019b8       0x77 0x1 /home/rlyerly/Downloads/popcorn-compiler/test-install/aarch64/lib/libc.a(strnlen.o)
 .debug_line    0x0000000000001a2f       0x34 0x1 /home/rlyerly/Downloads/popcorn-compiler/test-install/aarch64/lib/libc.a(__environ.o)
 .debug_line    0x0000000000001a63      0x269 0x1 /home/rlyerly/Downloads/popcorn-compiler/test-install/aarch64/lib/libc.a(__init_tls.o)
 .debug_line    0x0000000000001ccc       0xdf 0x1 /home/rlyerly/Downloads/popcorn-compiler/test-install/aarch64/lib/libc.a(__errno_location.o)
 .debug_line    0x0000000000001dab      0x128 0x1 /home/rlyerly/Downloads/popcorn-compiler/test-install/aarch64/lib/libc.a(strerror.o)
 .debug_line    0x0000000000001ed3       0x7c 0x1 /home/rlyerly/Downloads/popcorn-compiler/test-install/aarch64/lib/libc.a(_Exit.o)
 .debug_line    0x0000000000001f4f      0x11c 0x1 /home/rlyerly/Downloads/popcorn-compiler/test-install/aarch64/lib/libc.a(__lctrans.o)
 .debug_line    0x000000000000206b       0xaa 0x1 /home/rlyerly/Downloads/popcorn-compiler/test-install/aarch64/lib/libc.a(__fpclassifyl.o)
 .debug_line    0x0000000000002115       0x87 0x1 /home/rlyerly/Downloads/popcorn-compiler/test-install/aarch64/lib/libc.a(__signbitl.o)
 .debug_line    0x000000000000219c       0xba 0x1 /home/rlyerly/Downloads/popcorn-compiler/test-install/aarch64/lib/libc.a(frexpl.o)
 .debug_line    0x0000000000002256       0x71 0x1 /home/rlyerly/Downloads/popcorn-compiler/test-install/aarch64/lib/libc.a(wctomb.o)
 .debug_line    0x00000000000022c7      0x1a5 0x1 /home/rlyerly/Downloads/popcorn-compiler/test-install/aarch64/lib/libc.a(__lockfile.o)
 .debug_line    0x000000000000246c       0xec 0x1 /home/rlyerly/Downloads/popcorn-compiler/test-install/aarch64/lib/libc.a(__stdio_close.o)
 .debug_line    0x0000000000002558       0xcd 0x1 /home/rlyerly/Downloads/popcorn-compiler/test-install/aarch64/lib/libc.a(__stdio_seek.o)
 .debug_line    0x0000000000002625       0xff 0x1 /home/rlyerly/Downloads/popcorn-compiler/test-install/aarch64/lib/libc.a(__stdout_write.o)
 .debug_line    0x0000000000002724      0x12c 0x1 /home/rlyerly/Downloads/popcorn-compiler/test-install/aarch64/lib/libc.a(fwrite.o)
 .debug_line    0x0000000000002850       0xe7 0x1 /home/rlyerly/Downloads/popcorn-compiler/test-install/aarch64/lib/libc.a(memchr.o)
 .debug_line    0x0000000000002937      0x2ba 0x1 /home/rlyerly/Downloads/popcorn-compiler/test-install/aarch64/lib/libc.a(memcpy.o)
 .debug_line    0x0000000000002bf1      0x126 0x1 /home/rlyerly/Downloads/popcorn-compiler/test-install/aarch64/lib/libc.a(__wait.o)
 .debug_line    0x0000000000002d17       0x47 0x1 /home/rlyerly/Downloads/popcorn-compiler/test-install/aarch64/lib/libc.a(__set_thread_area.o)
 .debug_line    0x0000000000002d5e       0x61 0x1 /home/rlyerly/Downloads/popcorn-compiler/test-install/aarch64/lib/libc.a(syscall_ret.o)
 .debug_line    0x0000000000002dbf      0x14b 0x1 /home/rlyerly/Downloads/popcorn-compiler/test-install/aarch64/lib/libc.a(wcrtomb.o)
 .debug_line    0x0000000000002f0a      0x171 0x1 /home/rlyerly/Downloads/popcorn-compiler/test-install/aarch64/lib/libc.a(__stdio_write.o)
 .debug_line    0x000000000000307b       0xd6 0x1 /home/rlyerly/Downloads/popcorn-compiler/test-install/aarch64/lib/libc.a(__towrite.o)
 .debug_line    0x0000000000003151       0xfc 0x1 /home/rlyerly/Downloads/popcorn-compiler/test-install/aarch64/lib/libc.a(__stdio_exit.o)
 .debug_line    0x000000000000324d       0xaa 0x1 /home/rlyerly/Downloads/popcorn-compiler/test-install/aarch64/lib/libc.a(ofl.o)
 .debug_line    0x00000000000032f7      0x134 0x1 /home/rlyerly/Downloads/popcorn-compiler/test-install/aarch64/lib/libc.a(__lock.o)
 .debug_line    0x000000000000342b      0x2e3 0x1 /home/rlyerly/Downloads/popcorn-compiler/test-install/aarch64/lib/libmigrate.a(migrate.o)
 .debug_line    0x000000000000370e      0x1b8 0x1 /home/rlyerly/Downloads/popcorn-compiler/test-install/aarch64/lib/libmigrate.a(trigger.o)
 .debug_line    0x00000000000038c6      0x57d 0x1 /home/rlyerly/Downloads/popcorn-compiler/test-install/aarch64/lib/libstack-transform.a(userspace.o)
 .debug_line    0x0000000000003e43      0x333 0x1 /home/rlyerly/Downloads/popcorn-compiler/test-install/aarch64/lib/libstack-transform.a(init.o)
 .debug_line    0x0000000000004176      0xa13 0x1 /home/rlyerly/Downloads/popcorn-compiler/test-install/aarch64/lib/libstack-transform.a(rewrite.o)
 .debug_line    0x0000000000004b89      0x54e 0x1 /home/rlyerly/Downloads/popcorn-compiler/test-install/aarch64/lib/libstack-transform.a(unwind.o)
 .debug_line    0x00000000000050d7      0x467 0x1 /home/rlyerly/Downloads/popcorn-compiler/test-install/aarch64/lib/libstack-transform.a(util.o)
 .debug_line    0x000000000000553e      0x11b 0x1 /home/rlyerly/Downloads/popcorn-compiler/test-install/aarch64/lib/libstack-transform.a(properties.o)
 .debug_line    0x0000000000005659      0x569 0x1 /home/rlyerly/Downloads/popcorn-compiler/test-install/aarch64/lib/libstack-transform.a(regs.o)
 .debug_line    0x0000000000005bc2      0x121 0x1 /home/rlyerly/Downloads/popcorn-compiler/test-install/aarch64/lib/libstack-transform.a(properties.o)
 .debug_line    0x0000000000005ce3      0x57c 0x1 /home/rlyerly/Downloads/popcorn-compiler/test-install/aarch64/lib/libstack-transform.a(regs.o)
 .debug_line    0x000000000000625f      0x119 0x1 /home/rlyerly/Downloads/popcorn-compiler/test-install/aarch64/lib/libstack-transform.a(properties.o)
 .debug_line    0x0000000000006378      0x41e 0x1 /home/rlyerly/Downloads/popcorn-compiler/test-install/aarch64/lib/libstack-transform.a(regs.o)
 .debug_line    0x0000000000006796      0x7ad 0x1 /home/rlyerly/Downloads/popcorn-compiler/test-install/aarch64/lib/libstack-transform.a(data.o)
 .debug_line    0x0000000000006f43      0x125 0x1 /home/rlyerly/Downloads/popcorn-compiler/test-install/aarch64/lib/libc.a(__stack_chk_fail.o)
 .debug_line    0x0000000000007068       0x89 0x1 /home/rlyerly/Downloads/popcorn-compiler/test-install/aarch64/lib/libc.a(getenv.o)
 .debug_line    0x00000000000070f1       0x52 0x1 /home/rlyerly/Downloads/popcorn-compiler/test-install/aarch64/lib/libc.a(assert.o)
 .debug_line    0x0000000000007143       0xd9 0x1 /home/rlyerly/Downloads/popcorn-compiler/test-install/aarch64/lib/libc.a(open.o)
 .debug_line    0x000000000000721c       0x88 0x1 /home/rlyerly/Downloads/popcorn-compiler/test-install/aarch64/lib/libc.a(calloc.o)
 .debug_line    0x00000000000072a4       0xed 0x1 /home/rlyerly/Downloads/popcorn-compiler/test-install/aarch64/lib/libc.a(lite_malloc.o)
 .debug_line    0x0000000000007391      0xf64 0x1 /home/rlyerly/Downloads/popcorn-compiler/test-install/aarch64/lib/libc.a(malloc.o)
 .debug_line    0x00000000000082f5      0x124 0x1 /home/rlyerly/Downloads/popcorn-compiler/test-install/aarch64/lib/libc.a(getrlimit.o)
 .debug_line    0x0000000000008419      0x180 0x1 /home/rlyerly/Downloads/popcorn-compiler/test-install/aarch64/lib/libc.a(syscall.o)
 .debug_line    0x0000000000008599       0xa5 0x1 /home/rlyerly/Downloads/popcorn-compiler/test-install/aarch64/lib/libc.a(madvise.o)
 .debug_line    0x000000000000863e       0xf0 0x1 /home/rlyerly/Downloads/popcorn-compiler/test-install/aarch64/lib/libc.a(mmap.o)
 .debug_line    0x000000000000872e       0xff 0x1 /home/rlyerly/Downloads/popcorn-compiler/test-install/aarch64/lib/libc.a(mremap.o)
 .debug_line    0x000000000000882d       0xb8 0x1 /home/rlyerly/Downloads/popcorn-compiler/test-install/aarch64/lib/libc.a(munmap.o)
 .debug_line    0x00000000000088e5      0x244 0x1 /home/rlyerly/Downloads/popcorn-compiler/test-install/aarch64/lib/libc.a(sigaction.o)
 .debug_line    0x0000000000008b29       0x70 0x1 /home/rlyerly/Downloads/popcorn-compiler/test-install/aarch64/lib/libc.a(sigemptyset.o)
 .debug_line    0x0000000000008b99       0x4b 0x1 /home/rlyerly/Downloads/popcorn-compiler/test-install/aarch64/lib/libc.a(sigrtmin.o)
 .debug_line    0x0000000000008be4      0x107 0x1 /home/rlyerly/Downloads/popcorn-compiler/test-install/aarch64/lib/libc.a(fclose.o)
 .debug_line    0x0000000000008ceb      0x146 0x1 /home/rlyerly/Downloads/popcorn-compiler/test-install/aarch64/lib/libc.a(fflush.o)
 .debug_line    0x0000000000008e31      0x125 0x1 /home/rlyerly/Downloads/popcorn-compiler/test-install/aarch64/lib/libc.a(fopen.o)
 .debug_line    0x0000000000008f56       0x76 0x1 /home/rlyerly/Downloads/popcorn-compiler/test-install/aarch64/lib/libc.a(fprintf.o)
 .debug_line    0x0000000000008fcc       0x68 0x1 /home/rlyerly/Downloads/popcorn-compiler/test-install/aarch64/lib/libc.a(getline.o)
 .debug_line    0x0000000000009034       0xd1 0x1 /home/rlyerly/Downloads/popcorn-compiler/test-install/aarch64/lib/libc.a(perror.o)
 .debug_line    0x0000000000009105       0x77 0x1 /home/rlyerly/Downloads/popcorn-compiler/test-install/aarch64/lib/libc.a(snprintf.o)
 .debug_line    0x000000000000917c       0x75 0x1 /home/rlyerly/Downloads/popcorn-compiler/test-install/aarch64/lib/libc.a(sscanf.o)
 .debug_line    0x00000000000091f1       0x7b 0x1 /home/rlyerly/Downloads/popcorn-compiler/test-install/aarch64/lib/libc.a(stderr.o)
 .debug_line    0x000000000000926c      0x12f 0x1 /home/rlyerly/Downloads/popcorn-compiler/test-install/aarch64/lib/libc.a(vsnprintf.o)
 .debug_line    0x000000000000939b       0xbb 0x1 /home/rlyerly/Downloads/popcorn-compiler/test-install/aarch64/lib/libc.a(vsscanf.o)
 .debug_line    0x0000000000009456      0x16a 0x1 /home/rlyerly/Downloads/popcorn-compiler/test-install/aarch64/lib/libc.a(strtol.o)
 .debug_line    0x00000000000095c0       0x8c 0x1 /home/rlyerly/Downloads/popcorn-compiler/test-install/aarch64/lib/libc.a(memcmp.o)
 .debug_line    0x000000000000964c      0x141 0x1 /home/rlyerly/Downloads/popcorn-compiler/test-install/aarch64/lib/libc.a(memmove.o)
 .debug_line    0x000000000000978d       0x53 0x1 /home/rlyerly/Downloads/popcorn-compiler/test-install/aarch64/lib/libc.a(strchr.o)
 .debug_line    0x00000000000097e0       0xb0 0x1 /home/rlyerly/Downloads/popcorn-compiler/test-install/aarch64/lib/libc.a(strchrnul.o)
 .debug_line    0x0000000000009890       0x5b 0x1 /home/rlyerly/Downloads/popcorn-compiler/test-install/aarch64/lib/libc.a(strcmp.o)
 .debug_line    0x00000000000098eb       0x9e 0x1 /home/rlyerly/Downloads/popcorn-compiler/test-install/aarch64/lib/libc.a(strlen.o)
 .debug_line    0x0000000000009989       0x8d 0x1 /home/rlyerly/Downloads/popcorn-compiler/test-install/aarch64/lib/libc.a(strncmp.o)
 .debug_line    0x0000000000009a16       0x84 0x1 /home/rlyerly/Downloads/popcorn-compiler/test-install/aarch64/lib/libc.a(__syscall_cp.o)
 .debug_line    0x0000000000009a9a      0x277 0x1 /home/rlyerly/Downloads/popcorn-compiler/test-install/aarch64/lib/libc.a(pthread_attr_get.o)
 .debug_line    0x0000000000009d11      0x127 0x1 /home/rlyerly/Downloads/popcorn-compiler/test-install/aarch64/lib/libc.a(pthread_getattr_np.o)
 .debug_line    0x0000000000009e38       0xe6 0x1 /home/rlyerly/Downloads/popcorn-compiler/test-install/aarch64/lib/libc.a(pthread_getspecific.o)
 .debug_line    0x0000000000009f1e      0x1c2 0x1 /home/rlyerly/Downloads/popcorn-compiler/test-install/aarch64/lib/libc.a(pthread_key_create.o)
 .debug_line    0x000000000000a0e0       0xdf 0x1 /home/rlyerly/Downloads/popcorn-compiler/test-install/aarch64/lib/libc.a(pthread_migrate.o)
 .debug_line    0x000000000000a1bf       0xd6 0x1 /home/rlyerly/Downloads/popcorn-compiler/test-install/aarch64/lib/libc.a(pthread_self.o)
 .debug_line    0x000000000000a295       0xee 0x1 /home/rlyerly/Downloads/popcorn-compiler/test-install/aarch64/lib/libc.a(pthread_setspecific.o)
 .debug_line    0x000000000000a383       0x70 0x1 /home/rlyerly/Downloads/popcorn-compiler/test-install/aarch64/lib/libc.a(close.o)
 .debug_line    0x000000000000a3f3       0x9a 0x1 /home/rlyerly/Downloads/popcorn-compiler/test-install/aarch64/lib/libc.a(getpid.o)
 .debug_line    0x000000000000a48d       0x9e 0x1 /home/rlyerly/Downloads/popcorn-compiler/test-install/aarch64/lib/libc.a(lseek.o)
 .debug_line    0x000000000000a52b       0x69 0x1 /home/rlyerly/Downloads/popcorn-compiler/test-install/aarch64/lib/libc.a(read.o)
 .debug_line    0x000000000000a594       0x74 0x1 /home/rlyerly/Downloads/popcorn-compiler/test-install/aarch64/lib/libc.a(abort.o)
 .debug_line    0x000000000000a608       0x44 0x1 /home/rlyerly/Downloads/popcorn-compiler/test-install/aarch64/lib/libc.a(syscall.o)
 .debug_line    0x000000000000a64c      0x371 0x1 /home/rlyerly/Downloads/popcorn-compiler/test-install/aarch64/lib/libc.a(intscan.o)
 .debug_line    0x000000000000a9bd      0x110 0x1 /home/rlyerly/Downloads/popcorn-compiler/test-install/aarch64/lib/libc.a(shgetc.o)
 .debug_line    0x000000000000aacd      0x14c 0x1 /home/rlyerly/Downloads/popcorn-compiler/test-install/aarch64/lib/libc.a(expand_heap.o)
 .debug_line    0x000000000000ac19       0x50 0x1 /home/rlyerly/Downloads/popcorn-compiler/test-install/aarch64/lib/libc.a(restore.o)
 .debug_line    0x000000000000ac69       0xd1 0x1 /home/rlyerly/Downloads/popcorn-compiler/test-install/aarch64/lib/libc.a(block.o)
 .debug_line    0x000000000000ad3a       0xb6 0x1 /home/rlyerly/Downloads/popcorn-compiler/test-install/aarch64/lib/libc.a(raise.o)
 .debug_line    0x000000000000adf0      0x1a2 0x1 /home/rlyerly/Downloads/popcorn-compiler/test-install/aarch64/lib/libc.a(__fdopen.o)
 .debug_line    0x000000000000af92       0xb3 0x1 /home/rlyerly/Downloads/popcorn-compiler/test-install/aarch64/lib/libc.a(__fmodeflags.o)
 .debug_line    0x000000000000b045      0x139 0x1 /home/rlyerly/Downloads/popcorn-compiler/test-install/aarch64/lib/libc.a(__stdio_read.o)
 .debug_line    0x000000000000b17e       0xba 0x1 /home/rlyerly/Downloads/popcorn-compiler/test-install/aarch64/lib/libc.a(__string_read.o)
 .debug_line    0x000000000000b238       0xae 0x1 /home/rlyerly/Downloads/popcorn-compiler/test-install/aarch64/lib/libc.a(__uflow.o)
 .debug_line    0x000000000000b2e6       0xcf 0x1 /home/rlyerly/Downloads/popcorn-compiler/test-install/aarch64/lib/libc.a(fputc.o)
 .debug_line    0x000000000000b3b5      0x199 0x1 /home/rlyerly/Downloads/popcorn-compiler/test-install/aarch64/lib/libc.a(getdelim.o)
 .debug_line    0x000000000000b54e       0xab 0x1 /home/rlyerly/Downloads/popcorn-compiler/test-install/aarch64/lib/libc.a(ofl_add.o)
 .debug_line    0x000000000000b5f9      0x61a 0x1 /home/rlyerly/Downloads/popcorn-compiler/test-install/aarch64/lib/libc.a(vfscanf.o)
 .debug_line    0x000000000000bc13      0xd49 0x1 /home/rlyerly/Downloads/popcorn-compiler/test-install/aarch64/lib/libc.a(floatscan.o)
 .debug_line    0x000000000000c95c       0x4e 0x1 /home/rlyerly/Downloads/popcorn-compiler/test-install/aarch64/lib/libc.a(fabs.o)
 .debug_line    0x000000000000c9aa       0x95 0x1 /home/rlyerly/Downloads/popcorn-compiler/test-install/aarch64/lib/libc.a(copysignl.o)
 .debug_line    0x000000000000ca3f      0x175 0x1 /home/rlyerly/Downloads/popcorn-compiler/test-install/aarch64/lib/libc.a(fmodl.o)
 .debug_line    0x000000000000cbb4       0xac 0x1 /home/rlyerly/Downloads/popcorn-compiler/test-install/aarch64/lib/libc.a(scalbn.o)
 .debug_line    0x000000000000cc60       0xc1 0x1 /home/rlyerly/Downloads/popcorn-compiler/test-install/aarch64/lib/libc.a(scalbnl.o)
 .debug_line    0x000000000000cd21      0x185 0x1 /home/rlyerly/Downloads/popcorn-compiler/test-install/aarch64/lib/libc.a(mbrtowc.o)
 .debug_line    0x000000000000cea6       0x73 0x1 /home/rlyerly/Downloads/popcorn-compiler/test-install/aarch64/lib/libc.a(mbsinit.o)
 .debug_line    0x000000000000cf19       0xd3 0x1 /home/rlyerly/Downloads/popcorn-compiler/test-install/aarch64/lib/libc.a(__overflow.o)
 .debug_line    0x000000000000cfec       0xe4 0x1 /home/rlyerly/Downloads/popcorn-compiler/test-install/aarch64/lib/libc.a(__toread.o)
 .debug_line    0x000000000000d0d0       0x58 0x1 /home/rlyerly/Downloads/popcorn-compiler/test-install/aarch64/lib/libc.a(internal.o)

.debug_aranges  0x0000000000000000       0xa0
 .debug_aranges
                0x0000000000000000       0x30 0x1 /home/rlyerly/Downloads/popcorn-compiler/test-install/aarch64/lib/libc.a(__set_thread_area.o)
 .debug_aranges
                0x0000000000000030       0x30 0x1 /home/rlyerly/Downloads/popcorn-compiler/test-install/aarch64/lib/libc.a(syscall.o)
 .debug_aranges
                0x0000000000000060       0x40 0x1 /home/rlyerly/Downloads/popcorn-compiler/test-install/aarch64/lib/libc.a(restore.o)

.note.gnu.gold-version
                0x0000000000000000       0x1c
 ** note header
                0x0000000000000000       0x10
 ** fill        0x0000000000000010        0x9
 ** zero fill   0x0000000000000019        0x3

.symtab         0x0000000000000000     0xfe10
 ** symtab      0x0000000000000000     0xfe10

.strtab         0x0000000000000000     0x39ef
 ** string table
                0x0000000000000000     0x39ef

.shstrtab       0x0000000000000000      0x1ac
 ** string table
                0x0000000000000000      0x1ac
